
out.elf:     file format elf32-tradlittlemips


Disassembly of section .config_BFC02FF0:

bfc02ff0 <__config_BFC02FF0>:
bfc02ff0:	ff ff fe fa                                         ....

Disassembly of section .config_BFC02FF4:

bfc02ff4 <__config_BFC02FF4>:
bfc02ff4:	d9 79 f8 ff                                         .y..

Disassembly of section .config_BFC02FF8:

bfc02ff8 <__config_BFC02FF8>:
bfc02ff8:	db ce 6c ff                                         ..l.

Disassembly of section .config_BFC02FFC:

bfc02ffc <__config_BFC02FFC>:
bfc02ffc:	ff ff ff 7e                                         ...~

Disassembly of section .reset:

bd001970 <_reset>:
bd001970:	0f40065e 	jal	bd001978 <_startup>
bd001974:	00000000 	nop

bd001978 <_startup>:
bd001978:	401a6000 	mfc0	k0,c0_status
bd00197c:	7f5a04c0 	ext	k0,k0,0x13,0x1
bd001980:	13400005 	beqz	k0,bd001998 <_no_nmi>
bd001984:	00000000 	nop
bd001988:	3c1a9d00 	lui	k0,0x9d00
bd00198c:	275a3d60 	addiu	k0,k0,15712
bd001990:	03400008 	jr	k0
bd001994:	00000000 	nop

bd001998 <_no_nmi>:
bd001998:	3c1da002 	lui	sp,0xa002
bd00199c:	27bdfff8 	addiu	sp,sp,-8
bd0019a0:	3c1ca000 	lui	gp,0xa000
bd0019a4:	279c7ff0 	addiu	gp,gp,32752
bd0019a8:	40096002 	mfc0	t1,c0_srsctl
bd0019ac:	01205820 	add	t3,t1,zero
bd0019b0:	7d2a1e80 	ext	t2,t1,0x1a,0x4
bd0019b4:	7d494984 	ins	t1,t2,0x6,0x4
bd0019b8:	40896002 	mtc0	t1,c0_srsctl
bd0019bc:	000000c0 	ehb
bd0019c0:	41dce000 	wrpgpr	gp,gp
bd0019c4:	408b6002 	mtc0	t3,c0_srsctl
bd0019c8:	000000c0 	ehb
bd0019cc:	3c089d00 	lui	t0,0x9d00
bd0019d0:	25083d88 	addiu	t0,t0,15752
bd0019d4:	0100f809 	jalr	t0
bd0019d8:	00000000 	nop
bd0019dc:	3c08a000 	lui	t0,0xa000
bd0019e0:	25080000 	addiu	t0,t0,0
bd0019e4:	3c09a000 	lui	t1,0xa000
bd0019e8:	25290000 	addiu	t1,t1,0
bd0019ec:	10000006 	b	bd001a08 <_bss_check>
bd0019f0:	00000000 	nop

bd0019f4 <_bss_init>:
bd0019f4:	ad000000 	sw	zero,0(t0)
bd0019f8:	ad000004 	sw	zero,4(t0)
bd0019fc:	ad000008 	sw	zero,8(t0)
bd001a00:	ad00000c 	sw	zero,12(t0)
bd001a04:	25080010 	addiu	t0,t0,16

bd001a08 <_bss_check>:
bd001a08:	0109082b 	sltu	at,t0,t1
bd001a0c:	1420fff9 	bnez	at,bd0019f4 <_bss_init>
bd001a10:	00000000 	nop

bd001a14 <_dinit_init>:
bd001a14:	3c089d00 	lui	t0,0x9d00
bd001a18:	25083d78 	addiu	t0,t0,15736
bd001a1c:	8d090000 	lw	t1,0(t0)
bd001a20:	11200018 	beqz	t1,bd001a84 <_dinit_end+0x18>
bd001a24:	25080004 	addiu	t0,t0,4
bd001a28:	8d0a0000 	lw	t2,0(t0)
bd001a2c:	25080004 	addiu	t0,t0,4
bd001a30:	8d0b0000 	lw	t3,0(t0)
bd001a34:	11600009 	beqz	t3,bd001a5c <_dinit_clear>
bd001a38:	25080004 	addiu	t0,t0,4

bd001a3c <_dinit_copy>:
bd001a3c:	910c0000 	lbu	t4,0(t0)
bd001a40:	254affff 	addiu	t2,t2,-1
bd001a44:	25080001 	addiu	t0,t0,1
bd001a48:	a12c0000 	sb	t4,0(t1)
bd001a4c:	1540fffb 	bnez	t2,bd001a3c <_dinit_copy>
bd001a50:	25290001 	addiu	t1,t1,1
bd001a54:	10000005 	b	bd001a6c <_dinit_end>
bd001a58:	00000000 	nop

bd001a5c <_dinit_clear>:
bd001a5c:	a1200000 	sb	zero,0(t1)
bd001a60:	254affff 	addiu	t2,t2,-1
bd001a64:	1540fffd 	bnez	t2,bd001a5c <_dinit_clear>
bd001a68:	25290001 	addiu	t1,t1,1

bd001a6c <_dinit_end>:
bd001a6c:	25080003 	addiu	t0,t0,3
bd001a70:	240afffc 	li	t2,-4
bd001a74:	01484024 	and	t0,t2,t0
bd001a78:	8d090000 	lw	t1,0(t0)
bd001a7c:	1520ffe7 	bnez	t1,bd001a1c <_dinit_init+0x8>
bd001a80:	00000000 	nop
bd001a84:	3c090000 	lui	t1,0x0
bd001a88:	25290000 	addiu	t1,t1,0
bd001a8c:	11200010 	beqz	t1,bd001ad0 <_ramfunc_done>
bd001a90:	00000000 	nop
bd001a94:	3c090002 	lui	t1,0x2
bd001a98:	25290000 	addiu	t1,t1,0
bd001a9c:	3c0abf88 	lui	t2,0xbf88
bd001aa0:	254a2010 	addiu	t2,t2,8208
bd001aa4:	ad490000 	sw	t1,0(t2)
bd001aa8:	3c090002 	lui	t1,0x2
bd001aac:	25290000 	addiu	t1,t1,0
bd001ab0:	3c0abf88 	lui	t2,0xbf88
bd001ab4:	254a2020 	addiu	t2,t2,8224
bd001ab8:	ad490000 	sw	t1,0(t2)
bd001abc:	3c090002 	lui	t1,0x2
bd001ac0:	25290000 	addiu	t1,t1,0
bd001ac4:	3c0abf88 	lui	t2,0xbf88
bd001ac8:	254a2030 	addiu	t2,t2,8240
bd001acc:	ad490000 	sw	t1,0(t2)

bd001ad0 <_ramfunc_done>:
bd001ad0:	40804800 	mtc0	zero,c0_count
bd001ad4:	240affff 	li	t2,-1
bd001ad8:	408a5800 	mtc0	t2,c0_compare
bd001adc:	3c099d00 	lui	t1,0x9d00
bd001ae0:	25290000 	addiu	t1,t1,0
bd001ae4:	40897801 	mtc0	t1,c0_ebase
bd001ae8:	3c090000 	lui	t1,0x0
bd001aec:	25290001 	addiu	t1,t1,1
bd001af0:	240a0000 	li	t2,0
bd001af4:	7d2a4944 	ins	t2,t1,0x5,0x5
bd001af8:	408a6001 	mtc0	t2,c0_intctl
bd001afc:	3c090080 	lui	t1,0x80
bd001b00:	40896800 	mtc0	t1,c0_cause
bd001b04:	40088000 	mfc0	t0,c0_config
bd001b08:	7d090580 	ext	t1,t0,0x16,0x1
bd001b0c:	00094c40 	sll	t1,t1,0x11
bd001b10:	40086000 	mfc0	t0,c0_status
bd001b14:	3c010058 	lui	at,0x58
bd001b18:	01014024 	and	t0,t0,at
bd001b1c:	01284025 	or	t0,t1,t0
bd001b20:	40886000 	mtc0	t0,c0_status
bd001b24:	000000c0 	ehb
bd001b28:	3c089d00 	lui	t0,0x9d00
bd001b2c:	25083d90 	addiu	t0,t0,15760
bd001b30:	0100f809 	jalr	t0
bd001b34:	00000000 	nop
bd001b38:	40086000 	mfc0	t0,c0_status
bd001b3c:	3c01ffbf 	lui	at,0xffbf
bd001b40:	3421ffff 	ori	at,at,0xffff
bd001b44:	01014024 	and	t0,t0,at
bd001b48:	40886000 	mtc0	t0,c0_status
bd001b4c:	30840000 	andi	a0,a0,0x0
bd001b50:	30a50000 	andi	a1,a1,0x0
bd001b54:	3c089d00 	lui	t0,0x9d00
bd001b58:	25083bd4 	addiu	t0,t0,15316
bd001b5c:	01000008 	jr	t0
bd001b60:	00000000 	nop

Disassembly of section .bev_excpt:

bd001cf0 <_bev_exception>:
bd001cf0:	3c1a9d00 	lui	k0,0x9d00
bd001cf4:	275a3c28 	addiu	k0,k0,15400
bd001cf8:	03400008 	jr	k0
bd001cfc:	00000000 	nop

Disassembly of section .app_excpt:

9d000180 <_gen_exception>:
9d000180:	3c1a9d00 	lui	k0,0x9d00
9d000184:	275a3af8 	addiu	k0,k0,15096
9d000188:	03400008 	jr	k0
9d00018c:	00000000 	nop

Disassembly of section .vector_0:

9d000200 <__vector_dispatch_0>:
9d000200:	0b400f2e 	j	9d003cb8 <.LFE0>
9d000204:	00000000 	nop

Disassembly of section .vector_1:

9d000220 <__vector_dispatch_1>:
9d000220:	0b400f2e 	j	9d003cb8 <.LFE0>
9d000224:	00000000 	nop

Disassembly of section .vector_2:

9d000240 <__vector_dispatch_2>:
9d000240:	0b400f2e 	j	9d003cb8 <.LFE0>
9d000244:	00000000 	nop

Disassembly of section .vector_3:

9d000260 <__vector_dispatch_3>:
9d000260:	0b400f2e 	j	9d003cb8 <.LFE0>
9d000264:	00000000 	nop

Disassembly of section .vector_4:

9d000280 <__vector_dispatch_4>:
9d000280:	0b400f2e 	j	9d003cb8 <.LFE0>
9d000284:	00000000 	nop

Disassembly of section .vector_5:

9d0002a0 <__vector_dispatch_5>:
9d0002a0:	0b400f2e 	j	9d003cb8 <.LFE0>
9d0002a4:	00000000 	nop

Disassembly of section .vector_6:

9d0002c0 <__vector_dispatch_6>:
9d0002c0:	0b400f2e 	j	9d003cb8 <.LFE0>
9d0002c4:	00000000 	nop

Disassembly of section .vector_7:

9d0002e0 <__vector_dispatch_7>:
9d0002e0:	0b400f2e 	j	9d003cb8 <.LFE0>
9d0002e4:	00000000 	nop

Disassembly of section .vector_8:

9d000300 <__vector_dispatch_8>:
9d000300:	0b400f2e 	j	9d003cb8 <.LFE0>
9d000304:	00000000 	nop

Disassembly of section .vector_9:

9d000320 <__vector_dispatch_9>:
9d000320:	0b400f2e 	j	9d003cb8 <.LFE0>
9d000324:	00000000 	nop

Disassembly of section .vector_10:

9d000340 <__vector_dispatch_10>:
9d000340:	0b400f2e 	j	9d003cb8 <.LFE0>
9d000344:	00000000 	nop

Disassembly of section .vector_11:

9d000360 <__vector_dispatch_11>:
9d000360:	0b400f2e 	j	9d003cb8 <.LFE0>
9d000364:	00000000 	nop

Disassembly of section .vector_12:

9d000380 <__vector_dispatch_12>:
9d000380:	0b400f2e 	j	9d003cb8 <.LFE0>
9d000384:	00000000 	nop

Disassembly of section .vector_13:

9d0003a0 <__vector_dispatch_13>:
9d0003a0:	0b400f2e 	j	9d003cb8 <.LFE0>
9d0003a4:	00000000 	nop

Disassembly of section .vector_14:

9d0003c0 <__vector_dispatch_14>:
9d0003c0:	0b400f2e 	j	9d003cb8 <.LFE0>
9d0003c4:	00000000 	nop

Disassembly of section .vector_15:

9d0003e0 <__vector_dispatch_15>:
9d0003e0:	0b400f2e 	j	9d003cb8 <.LFE0>
9d0003e4:	00000000 	nop

Disassembly of section .vector_16:

9d000400 <__vector_dispatch_16>:
9d000400:	0b400f2e 	j	9d003cb8 <.LFE0>
9d000404:	00000000 	nop

Disassembly of section .vector_17:

9d000420 <__vector_dispatch_17>:
9d000420:	0b400f2e 	j	9d003cb8 <.LFE0>
9d000424:	00000000 	nop

Disassembly of section .vector_18:

9d000440 <__vector_dispatch_18>:
9d000440:	0b400f2e 	j	9d003cb8 <.LFE0>
9d000444:	00000000 	nop

Disassembly of section .vector_19:

9d000460 <__vector_dispatch_19>:
9d000460:	0b400f2e 	j	9d003cb8 <.LFE0>
9d000464:	00000000 	nop

Disassembly of section .vector_20:

9d000480 <__vector_dispatch_20>:
9d000480:	0b400f2e 	j	9d003cb8 <.LFE0>
9d000484:	00000000 	nop

Disassembly of section .vector_21:

9d0004a0 <__vector_dispatch_21>:
9d0004a0:	0b400f2e 	j	9d003cb8 <.LFE0>
9d0004a4:	00000000 	nop

Disassembly of section .vector_22:

9d0004c0 <__vector_dispatch_22>:
9d0004c0:	0b400f2e 	j	9d003cb8 <.LFE0>
9d0004c4:	00000000 	nop

Disassembly of section .vector_23:

9d0004e0 <__vector_dispatch_23>:
9d0004e0:	0b400f2e 	j	9d003cb8 <.LFE0>
9d0004e4:	00000000 	nop

Disassembly of section .vector_24:

9d000500 <__vector_dispatch_24>:
9d000500:	0b400f2e 	j	9d003cb8 <.LFE0>
9d000504:	00000000 	nop

Disassembly of section .vector_25:

9d000520 <__vector_dispatch_25>:
9d000520:	0b400f2e 	j	9d003cb8 <.LFE0>
9d000524:	00000000 	nop

Disassembly of section .vector_26:

9d000540 <__vector_dispatch_26>:
9d000540:	0b400f2e 	j	9d003cb8 <.LFE0>
9d000544:	00000000 	nop

Disassembly of section .vector_27:

9d000560 <__vector_dispatch_27>:
9d000560:	0b400f2e 	j	9d003cb8 <.LFE0>
9d000564:	00000000 	nop

Disassembly of section .vector_28:

9d000580 <__vector_dispatch_28>:
9d000580:	0b400f2e 	j	9d003cb8 <.LFE0>
9d000584:	00000000 	nop

Disassembly of section .vector_29:

9d0005a0 <__vector_dispatch_29>:
9d0005a0:	0b400f2e 	j	9d003cb8 <.LFE0>
9d0005a4:	00000000 	nop

Disassembly of section .vector_30:

9d0005c0 <__vector_dispatch_30>:
9d0005c0:	0b400f2e 	j	9d003cb8 <.LFE0>
9d0005c4:	00000000 	nop

Disassembly of section .vector_31:

9d0005e0 <__vector_dispatch_31>:
9d0005e0:	0b400f2e 	j	9d003cb8 <.LFE0>
9d0005e4:	00000000 	nop

Disassembly of section .vector_32:

9d000600 <__vector_dispatch_32>:
9d000600:	0b400f2e 	j	9d003cb8 <.LFE0>
9d000604:	00000000 	nop

Disassembly of section .vector_33:

9d000620 <__vector_dispatch_33>:
9d000620:	0b400f2e 	j	9d003cb8 <.LFE0>
9d000624:	00000000 	nop

Disassembly of section .vector_34:

9d000640 <__vector_dispatch_34>:
9d000640:	0b400f2e 	j	9d003cb8 <.LFE0>
9d000644:	00000000 	nop

Disassembly of section .vector_35:

9d000660 <__vector_dispatch_35>:
9d000660:	0b400f2e 	j	9d003cb8 <.LFE0>
9d000664:	00000000 	nop

Disassembly of section .vector_36:

9d000680 <__vector_dispatch_36>:
9d000680:	0b400f2e 	j	9d003cb8 <.LFE0>
9d000684:	00000000 	nop

Disassembly of section .vector_37:

9d0006a0 <__vector_dispatch_37>:
9d0006a0:	0b400f2e 	j	9d003cb8 <.LFE0>
9d0006a4:	00000000 	nop

Disassembly of section .vector_38:

9d0006c0 <__vector_dispatch_38>:
9d0006c0:	0b400f2e 	j	9d003cb8 <.LFE0>
9d0006c4:	00000000 	nop

Disassembly of section .vector_39:

9d0006e0 <__vector_dispatch_39>:
9d0006e0:	0b400f2e 	j	9d003cb8 <.LFE0>
9d0006e4:	00000000 	nop

Disassembly of section .vector_40:

9d000700 <__vector_dispatch_40>:
9d000700:	0b400f2e 	j	9d003cb8 <.LFE0>
9d000704:	00000000 	nop

Disassembly of section .vector_41:

9d000720 <__vector_dispatch_41>:
9d000720:	0b400f2e 	j	9d003cb8 <.LFE0>
9d000724:	00000000 	nop

Disassembly of section .vector_42:

9d000740 <__vector_dispatch_42>:
9d000740:	0b400f2e 	j	9d003cb8 <.LFE0>
9d000744:	00000000 	nop

Disassembly of section .vector_43:

9d000760 <__vector_dispatch_43>:
9d000760:	0b400f2e 	j	9d003cb8 <.LFE0>
9d000764:	00000000 	nop

Disassembly of section .vector_44:

9d000780 <__vector_dispatch_44>:
9d000780:	0b400f2e 	j	9d003cb8 <.LFE0>
9d000784:	00000000 	nop

Disassembly of section .vector_45:

9d0007a0 <__vector_dispatch_45>:
9d0007a0:	0b400f2e 	j	9d003cb8 <.LFE0>
9d0007a4:	00000000 	nop

Disassembly of section .vector_46:

9d0007c0 <__vector_dispatch_46>:
9d0007c0:	0b400f2e 	j	9d003cb8 <.LFE0>
9d0007c4:	00000000 	nop

Disassembly of section .vector_47:

9d0007e0 <__vector_dispatch_47>:
9d0007e0:	0b400f2e 	j	9d003cb8 <.LFE0>
9d0007e4:	00000000 	nop

Disassembly of section .vector_48:

9d000800 <__vector_dispatch_48>:
9d000800:	0b400f2e 	j	9d003cb8 <.LFE0>
9d000804:	00000000 	nop

Disassembly of section .vector_49:

9d000820 <__vector_dispatch_49>:
9d000820:	0b400f2e 	j	9d003cb8 <.LFE0>
9d000824:	00000000 	nop

Disassembly of section .vector_50:

9d000840 <__vector_dispatch_50>:
9d000840:	0b400f2e 	j	9d003cb8 <.LFE0>
9d000844:	00000000 	nop

Disassembly of section .vector_51:

9d000860 <__vector_dispatch_51>:
9d000860:	0b400f2e 	j	9d003cb8 <.LFE0>
9d000864:	00000000 	nop

Disassembly of section ._debug_exception:

bfc00480 <__DbgExecReturn>:
bfc00480:	409bf800 	mtc0	k1,c0_desave
bfc00484:	000000c0 	ehb
bfc00488:	3c1b9d00 	lui	k1,0x9d00
bfc0048c:	277b3d00 	addiu	k1,k1,15616
bfc00490:	13600002 	beqz	k1,bfc0049c <__DbgExecReturn+0x1c>
bfc00494:	00000000 	nop
bfc00498:	409bc000 	mtc0	k1,c0_depc
bfc0049c:	401bf800 	mfc0	k1,c0_desave
bfc004a0:	000000c0 	ehb
bfc004a4:	4200001f 	deret
bfc004a8:	00000000 	nop

Disassembly of section .text.dp32mul:

9d001e00 <__divdf3>:
9d001e00:	00055040 000a5542 00054ac0 00047d42     @P..BU...J..B}..
9d001e10:	012f4825 000442c0 3c0e8000 012e4825     %H/..B.....<%H..
9d001e20:	00076840 000d6d42 000762c0 00067d42     @h..Bm...b..B}..
9d001e30:	018f6025 00065ac0 018e6025 00a72826     %`...Z..%`..&(..
9d001e40:	00ae2824 254fffff 2de107fe 102000cb     $(....O%...-.. .
9d001e50:	00000000                                ....

9d001e54 <Dlab1>:
9d001e54:	25afffff 	addiu	t7,t5,-1
9d001e58:	2de107fe 	sltiu	at,t7,2046
9d001e5c:	102000f4 	beqz	at,9d002230 <DspecB>
9d001e60:	00000000 	nop

9d001e64 <Dlab2>:
9d001e64:	014d5023 	subu	t2,t2,t5
9d001e68:	254a03ff 	addiu	t2,t2,1023
9d001e6c:	00084042 	srl	t0,t0,0x1
9d001e70:	00097fc0 	sll	t7,t1,0x1f
9d001e74:	010f4025 	or	t0,t0,t7
9d001e78:	00094842 	srl	t1,t1,0x1
9d001e7c:	000c3c02 	srl	a3,t4,0x10
9d001e80:	00e001f4 	teq	a3,zero,0x7
9d001e84:	0127001b 	divu	zero,t1,a3
9d001e88:	00007012 	mflo	t6
9d001e8c:	00004810 	mfhi	t1
9d001e90:	3186ffff 	andi	a2,t4,0xffff
9d001e94:	00ce0019 	multu	a2,t6
9d001e98:	00002012 	mflo	a0
9d001e9c:	00094c00 	sll	t1,t1,0x10
9d001ea0:	00087c02 	srl	t7,t0,0x10
9d001ea4:	012f4825 	or	t1,t1,t7
9d001ea8:	0124782b 	sltu	t7,t1,a0
9d001eac:	11e00006 	beqz	t7,9d001ec8 <i20>
9d001eb0:	01244823 	subu	t1,t1,a0

9d001eb4 <b21>:
9d001eb4:	25ceffff 	addiu	t6,t6,-1
9d001eb8:	012c4821 	addu	t1,t1,t4
9d001ebc:	012c082b 	sltu	at,t1,t4
9d001ec0:	1020fffc 	beqz	at,9d001eb4 <b21>
9d001ec4:	00000000 	nop

9d001ec8 <i20>:
9d001ec8:	00e001f4 	teq	a3,zero,0x7
9d001ecc:	0127001b 	divu	zero,t1,a3
9d001ed0:	00003812 	mflo	a3
9d001ed4:	00004810 	mfhi	t1
9d001ed8:	00c70019 	multu	a2,a3
9d001edc:	00002012 	mflo	a0
9d001ee0:	00094c00 	sll	t1,t1,0x10
9d001ee4:	310fffff 	andi	t7,t0,0xffff
9d001ee8:	012f4825 	or	t1,t1,t7
9d001eec:	0124782b 	sltu	t7,t1,a0
9d001ef0:	11e00006 	beqz	t7,9d001f0c <i22>
9d001ef4:	01244823 	subu	t1,t1,a0

9d001ef8 <b23>:
9d001ef8:	24e7ffff 	addiu	a3,a3,-1
9d001efc:	012c4821 	addu	t1,t1,t4
9d001f00:	012c082b 	sltu	at,t1,t4
9d001f04:	1020fffc 	beqz	at,9d001ef8 <b23>
9d001f08:	00000000 	nop

9d001f0c <i22>:
9d001f0c:	000e7400 	sll	t6,t6,0x10
9d001f10:	01c77021 	addu	t6,t6,a3
9d001f14:	01cb0019 	multu	t6,t3
9d001f18:	00003812 	mflo	a3
9d001f1c:	00002010 	mfhi	a0
9d001f20:	24080000 	li	t0,0
9d001f24:	0107782b 	sltu	t7,t0,a3
9d001f28:	01074023 	subu	t0,t0,a3
9d001f2c:	012f102b 	sltu	v0,t1,t7
9d001f30:	012f4823 	subu	t1,t1,t7
9d001f34:	0124782b 	sltu	t7,t1,a0
9d001f38:	01e27825 	or	t7,t7,v0
9d001f3c:	11e0000b 	beqz	t7,9d001f6c <i24>
9d001f40:	01244823 	subu	t1,t1,a0

9d001f44 <Dlab3>:
9d001f44:	25ceffff 	addiu	t6,t6,-1
9d001f48:	010b4021 	addu	t0,t0,t3
9d001f4c:	010b782b 	sltu	t7,t0,t3
9d001f50:	012c4821 	addu	t1,t1,t4
9d001f54:	012f4821 	addu	t1,t1,t7
9d001f58:	112c0002 	beq	t1,t4,9d001f64 <L31>
9d001f5c:	00000000 	nop
9d001f60:	012c782b 	sltu	t7,t1,t4

9d001f64 <L31>:
9d001f64:	11e0fff7 	beqz	t7,9d001f44 <Dlab3>
9d001f68:	00000000 	nop

9d001f6c <i24>:
9d001f6c:	152c0006 	bne	t1,t4,9d001f88 <i25>
9d001f70:	00000000 	nop
9d001f74:	000b2025 	or	a0,zero,t3
9d001f78:	00084825 	or	t1,zero,t0
9d001f7c:	240d0000 	li	t5,0
9d001f80:	1000002a 	b	9d00202c <e25>
9d001f84:	000d3825 	or	a3,zero,t5

9d001f88 <i25>:
9d001f88:	000c3c02 	srl	a3,t4,0x10
9d001f8c:	00e001f4 	teq	a3,zero,0x7
9d001f90:	0127001b 	divu	zero,t1,a3
9d001f94:	00006812 	mflo	t5
9d001f98:	00004810 	mfhi	t1
9d001f9c:	3186ffff 	andi	a2,t4,0xffff
9d001fa0:	00cd0019 	multu	a2,t5
9d001fa4:	00002012 	mflo	a0
9d001fa8:	00094c00 	sll	t1,t1,0x10
9d001fac:	00087c02 	srl	t7,t0,0x10
9d001fb0:	012f4825 	or	t1,t1,t7
9d001fb4:	0124782b 	sltu	t7,t1,a0
9d001fb8:	11e00006 	beqz	t7,9d001fd4 <i26>
9d001fbc:	01244823 	subu	t1,t1,a0

9d001fc0 <b27>:
9d001fc0:	25adffff 	addiu	t5,t5,-1
9d001fc4:	012c4821 	addu	t1,t1,t4
9d001fc8:	012c082b 	sltu	at,t1,t4
9d001fcc:	1020fffc 	beqz	at,9d001fc0 <b27>
9d001fd0:	00000000 	nop

9d001fd4 <i26>:
9d001fd4:	00e001f4 	teq	a3,zero,0x7
9d001fd8:	0127001b 	divu	zero,t1,a3
9d001fdc:	00003812 	mflo	a3
9d001fe0:	00004810 	mfhi	t1
9d001fe4:	00c70019 	multu	a2,a3
9d001fe8:	00002012 	mflo	a0
9d001fec:	00094c00 	sll	t1,t1,0x10
9d001ff0:	310fffff 	andi	t7,t0,0xffff
9d001ff4:	012f4825 	or	t1,t1,t7
9d001ff8:	0124782b 	sltu	t7,t1,a0
9d001ffc:	11e00006 	beqz	t7,9d002018 <i28>
9d002000:	01244823 	subu	t1,t1,a0

9d002004 <b29>:
9d002004:	24e7ffff 	addiu	a3,a3,-1
9d002008:	012c4821 	addu	t1,t1,t4
9d00200c:	012c082b 	sltu	at,t1,t4
9d002010:	1020fffc 	beqz	at,9d002004 <b29>
9d002014:	00000000 	nop

9d002018 <i28>:
9d002018:	000d6c00 	sll	t5,t5,0x10
9d00201c:	01a76821 	addu	t5,t5,a3
9d002020:	01ab0019 	multu	t5,t3
9d002024:	00003812 	mflo	a3
9d002028:	00002010 	mfhi	a0

9d00202c <e25>:
9d00202c:	24080000 	li	t0,0
9d002030:	0107782b 	sltu	t7,t0,a3
9d002034:	01074023 	subu	t0,t0,a3
9d002038:	012f102b 	sltu	v0,t1,t7
9d00203c:	012f4823 	subu	t1,t1,t7
9d002040:	0124782b 	sltu	t7,t1,a0
9d002044:	01e27825 	or	t7,t7,v0
9d002048:	11e0000b 	beqz	t7,9d002078 <i30>
9d00204c:	01244823 	subu	t1,t1,a0

9d002050 <Dlab4>:
9d002050:	25adffff 	addiu	t5,t5,-1
9d002054:	010b4021 	addu	t0,t0,t3
9d002058:	010b782b 	sltu	t7,t0,t3
9d00205c:	012c4821 	addu	t1,t1,t4
9d002060:	012f4821 	addu	t1,t1,t7
9d002064:	112c0002 	beq	t1,t4,9d002070 <L32>
9d002068:	00000000 	nop
9d00206c:	012c782b 	sltu	t7,t1,t4

9d002070 <L32>:
9d002070:	11e0fff7 	beqz	t7,9d002050 <Dlab4>
9d002074:	00000000 	nop

9d002078 <i30>:
9d002078:	05c00006 	bltz	t6,9d002094 <i31>
9d00207c:	00000000 	nop
9d002080:	01a0782a 	slt	t7,t5,zero
9d002084:	01ad6821 	addu	t5,t5,t5
9d002088:	01ce7021 	addu	t6,t6,t6
9d00208c:	01cf7021 	addu	t6,t6,t7
9d002090:	254affff 	addiu	t2,t2,-1

9d002094 <i31>:
9d002094:	01287825 	or	t7,t1,t0
9d002098:	11e00002 	beqz	t7,9d0020a4 <i32>
9d00209c:	00000000 	nop
9d0020a0:	35ad0001 	ori	t5,t5,0x1

9d0020a4 <i32>:
9d0020a4:	000e4825 	or	t1,zero,t6
9d0020a8:	000d4025 	or	t0,zero,t5
9d0020ac:	254fffff 	addiu	t7,t2,-1
9d0020b0:	2de107fe 	sltiu	at,t7,2046
9d0020b4:	10200015 	beqz	at,9d00210c <Doveund>
9d0020b8:	00000000 	nop
9d0020bc:	25080400 	addiu	t0,t0,1024
9d0020c0:	2d0f0400 	sltiu	t7,t0,1024
9d0020c4:	012f4821 	addu	t1,t1,t7
9d0020c8:	012f782b 	sltu	t7,t1,t7
9d0020cc:	014f5021 	addu	t2,t2,t7

9d0020d0 <Dlab8>:
9d0020d0:	00087ac2 	srl	t7,t0,0xb
9d0020d4:	31ef0001 	andi	t7,t7,0x1
9d0020d8:	010f4023 	subu	t0,t0,t7
9d0020dc:	000822c2 	srl	a0,t0,0xb
9d0020e0:	00097d40 	sll	t7,t1,0x15
9d0020e4:	008f2025 	or	a0,a0,t7
9d0020e8:	00097840 	sll	t7,t1,0x1
9d0020ec:	000f7b02 	srl	t7,t7,0xc
9d0020f0:	00af2825 	or	a1,a1,t7
9d0020f4:	000a7d00 	sll	t7,t2,0x14
9d0020f8:	00af2825 	or	a1,a1,t7

9d0020fc <Dret>:
9d0020fc:	00041025 	or	v0,zero,a0
9d002100:	00051825 	or	v1,zero,a1

9d002104 <D999>:
9d002104:	03e00008 	jr	ra
9d002108:	00000000 	nop

9d00210c <Doveund>:
9d00210c:	1d400044 	bgtz	t2,9d002220 <Dinf>
9d002110:	00000000 	nop
9d002114:	240e0001 	li	t6,1
9d002118:	01ca7023 	subu	t6,t6,t2

9d00211c <L33>:
9d00211c:	2dc10020 	sltiu	at,t6,32
9d002120:	14200007 	bnez	at,9d002140 <L34>
9d002124:	00000000 	nop
9d002128:	21ceffe0 	addi	t6,t6,-32
9d00212c:	0008202b 	sltu	a0,zero,t0
9d002130:	1009000d 	beq	zero,t1,9d002168 <L35>
9d002134:	01244025 	or	t0,t1,a0
9d002138:	1000fff8 	b	9d00211c <L33>
9d00213c:	34090000 	li	t1,0x0

9d002140 <L34>:
9d002140:	11c00009 	beqz	t6,9d002168 <L35>
9d002144:	00000000 	nop
9d002148:	000e3022 	neg	a2,t6
9d00214c:	00c82004 	sllv	a0,t0,a2
9d002150:	00c93004 	sllv	a2,t1,a2
9d002154:	01c84006 	srlv	t0,t0,t6
9d002158:	01c94806 	srlv	t1,t1,t6
9d00215c:	10800002 	beqz	a0,9d002168 <L35>
9d002160:	00c84025 	or	t0,a2,t0
9d002164:	35080002 	ori	t0,t0,0x2

9d002168 <L35>:
9d002168:	25080400 	addiu	t0,t0,1024
9d00216c:	2d0f0400 	sltiu	t7,t0,1024
9d002170:	012f4821 	addu	t1,t1,t7
9d002174:	1000ffd6 	b	9d0020d0 <Dlab8>
9d002178:	000957c2 	srl	t2,t1,0x1f

9d00217c <DspecA>:
9d00217c:	0100782a 	slt	t7,t0,zero
9d002180:	01084021 	addu	t0,t0,t0
9d002184:	01294821 	addu	t1,t1,t1
9d002188:	15400017 	bnez	t2,9d0021e8 <i33>
9d00218c:	012f4821 	addu	t1,t1,t7
9d002190:	01287825 	or	t7,t1,t0
9d002194:	11e00014 	beqz	t7,9d0021e8 <i33>
9d002198:	00000000 	nop
9d00219c:	15200008 	bnez	t1,9d0021c0 <L36>
9d0021a0:	00000000 	nop
9d0021a4:	15000003 	bnez	t0,9d0021b4 <L37>
9d0021a8:	00000000 	nop
9d0021ac:	1000ff29 	b	9d001e54 <Dlab1>
9d0021b0:	240a0000 	li	t2,0

9d0021b4 <L37>:
9d0021b4:	01004825 	move	t1,t0
9d0021b8:	24080000 	li	t0,0
9d0021bc:	254affe0 	addiu	t2,t2,-32

9d0021c0 <L36>:
9d0021c0:	712e7020 	clz	t6,t1
9d0021c4:	11c0ff23 	beqz	t6,9d001e54 <Dlab1>
9d0021c8:	00000000 	nop
9d0021cc:	014e5023 	subu	t2,t2,t6
9d0021d0:	000e3022 	neg	a2,t6
9d0021d4:	00c83006 	srlv	a2,t0,a2
9d0021d8:	01c84004 	sllv	t0,t0,t6
9d0021dc:	01c94804 	sllv	t1,t1,t6
9d0021e0:	1000ff1c 	b	9d001e54 <Dlab1>
9d0021e4:	01264825 	or	t1,t1,a2

9d0021e8 <i33>:
9d0021e8:	154d0005 	bne	t2,t5,9d002200 <i35>
9d0021ec:	00000000 	nop
9d0021f0:	000c7840 	sll	t7,t4,0x1
9d0021f4:	01eb7825 	or	t7,t7,t3
9d0021f8:	11e0002b 	beqz	t7,9d0022a8 <Dnan>
9d0021fc:	00000000 	nop

9d002200 <i35>:
9d002200:	240107ff 	li	at,2047
9d002204:	11a1000a 	beq	t5,at,9d002230 <DspecB>
9d002208:	00000000 	nop
9d00220c:	1140ffbb 	beqz	t2,9d0020fc <Dret>
9d002210:	00000000 	nop
9d002214:	01287825 	or	t7,t1,t0
9d002218:	15e00023 	bnez	t7,9d0022a8 <Dnan>
9d00221c:	00000000 	nop

9d002220 <Dinf>:
9d002220:	3c017ff0 	lui	at,0x7ff0
9d002224:	00a12825 	or	a1,a1,at
9d002228:	1000ffb4 	b	9d0020fc <Dret>
9d00222c:	24040000 	li	a0,0

9d002230 <DspecB>:
9d002230:	0160782a 	slt	t7,t3,zero
9d002234:	016b5821 	addu	t3,t3,t3
9d002238:	018c6021 	addu	t4,t4,t4
9d00223c:	15a00017 	bnez	t5,9d00229c <i36>
9d002240:	018f6021 	addu	t4,t4,t7
9d002244:	018b7825 	or	t7,t4,t3
9d002248:	11e0fff5 	beqz	t7,9d002220 <Dinf>
9d00224c:	00000000 	nop
9d002250:	15800008 	bnez	t4,9d002274 <L39>
9d002254:	00000000 	nop
9d002258:	15600003 	bnez	t3,9d002268 <L40>
9d00225c:	00000000 	nop
9d002260:	1000ff00 	b	9d001e64 <Dlab2>
9d002264:	240d0000 	li	t5,0

9d002268 <L40>:
9d002268:	01606025 	move	t4,t3
9d00226c:	240b0000 	li	t3,0
9d002270:	25adffe0 	addiu	t5,t5,-32

9d002274 <L39>:
9d002274:	718e7020 	clz	t6,t4
9d002278:	11c0fefa 	beqz	t6,9d001e64 <Dlab2>
9d00227c:	00000000 	nop
9d002280:	01ae6823 	subu	t5,t5,t6
9d002284:	000e3022 	neg	a2,t6
9d002288:	00cb3006 	srlv	a2,t3,a2
9d00228c:	01cb5804 	sllv	t3,t3,t6
9d002290:	01cc6004 	sllv	t4,t4,t6
9d002294:	1000fef3 	b	9d001e64 <Dlab2>
9d002298:	01866025 	or	t4,t4,a2

9d00229c <i36>:
9d00229c:	018b7825 	or	t7,t4,t3
9d0022a0:	11e00002 	beqz	t7,9d0022ac <i38>
9d0022a4:	00000000 	nop

9d0022a8 <Dnan>:
9d0022a8:	3c05fff8 	lui	a1,0xfff8

9d0022ac <i38>:
9d0022ac:	1000ff93 	b	9d0020fc <Dret>
9d0022b0:	24040000 	li	a0,0
9d0022b4:	00000000 	nop

Disassembly of section .text:

9d0022b8 <__divdi3>:
9d0022b8:	04a00052 	bltz	a1,9d002404 <.LBE15+0x38>
9d0022bc:	00004821 	move	t1,zero
9d0022c0:	04e20057 	bltzl	a3,9d002420 <.LBE15+0x54>
9d0022c4:	00063023 	negu	a2,a2

9d0022c8 <.LBB13>:
9d0022c8:	00c04021 	move	t0,a2
9d0022cc:	00805021 	move	t2,a0
9d0022d0:	14e00046 	bnez	a3,9d0023ec <.LBE15+0x20>
9d0022d4:	00a01821 	move	v1,a1
9d0022d8:	00a6102b 	sltu	v0,a1,a2
9d0022dc:	1040005d 	beqz	v0,9d002454 <.LBE15+0x88>
9d0022e0:	70c21020 	clz	v0,a2
9d0022e4:	50400008 	beqzl	v0,9d002308 <.LBB15+0x4>
9d0022e8:	00082c02 	srl	a1,t0,0x10
9d0022ec:	00022023 	negu	a0,v0
9d0022f0:	008a2006 	srlv	a0,t2,a0
9d0022f4:	00451804 	sllv	v1,a1,v0
9d0022f8:	00464004 	sllv	t0,a2,v0
9d0022fc:	00831825 	or	v1,a0,v1
9d002300:	004a5004 	sllv	t2,t2,v0

9d002304 <.LBB15>:
9d002304:	00082c02 	srl	a1,t0,0x10
9d002308:	0065001b 	divu	zero,v1,a1
9d00230c:	00a001f4 	teq	a1,zero,0x7
9d002310:	00006010 	mfhi	t4
9d002314:	00005812 	mflo	t3
9d002318:	3107ffff 	andi	a3,t0,0xffff
9d00231c:	000a2402 	srl	a0,t2,0x10
9d002320:	00001012 	mflo	v0
9d002324:	71673002 	mul	a2,t3,a3
9d002328:	000c6400 	sll	t4,t4,0x10
9d00232c:	01842025 	or	a0,t4,a0
9d002330:	0086602b 	sltu	t4,a0,a2
9d002334:	0065001b 	divu	zero,v1,a1
9d002338:	00a001f4 	teq	a1,zero,0x7
9d00233c:	1180000b 	beqz	t4,9d00236c <.LBB15+0x68>
9d002340:	00861823 	subu	v1,a0,a2
9d002344:	00882021 	addu	a0,a0,t0
9d002348:	0088182b 	sltu	v1,a0,t0
9d00234c:	14600006 	bnez	v1,9d002368 <.LBB15+0x64>
9d002350:	2562ffff 	addiu	v0,t3,-1
9d002354:	0086182b 	sltu	v1,a0,a2
9d002358:	10600004 	beqz	v1,9d00236c <.LBB15+0x68>
9d00235c:	00861823 	subu	v1,a0,a2
9d002360:	2562fffe 	addiu	v0,t3,-2
9d002364:	00882021 	addu	a0,a0,t0
9d002368:	00861823 	subu	v1,a0,a2
9d00236c:	314affff 	andi	t2,t2,0xffff
9d002370:	0065001b 	divu	zero,v1,a1
9d002374:	00a001f4 	teq	a1,zero,0x7
9d002378:	00005810 	mfhi	t3
9d00237c:	00003012 	mflo	a2
9d002380:	00002012 	mflo	a0
9d002384:	70c73802 	mul	a3,a2,a3
9d002388:	000b5c00 	sll	t3,t3,0x10
9d00238c:	016a5025 	or	t2,t3,t2
9d002390:	0147582b 	sltu	t3,t2,a3
9d002394:	0065001b 	divu	zero,v1,a1
9d002398:	00a001f4 	teq	a1,zero,0x7
9d00239c:	51600009 	beqzl	t3,9d0023c4 <.LBB15+0xc0>
9d0023a0:	00021400 	sll	v0,v0,0x10
9d0023a4:	01485021 	addu	t2,t2,t0
9d0023a8:	0148402b 	sltu	t0,t2,t0
9d0023ac:	15000004 	bnez	t0,9d0023c0 <.LBB15+0xbc>
9d0023b0:	24c4ffff 	addiu	a0,a2,-1
9d0023b4:	0147382b 	sltu	a3,t2,a3
9d0023b8:	24c6fffe 	addiu	a2,a2,-2
9d0023bc:	00c7200b 	movn	a0,a2,a3
9d0023c0:	00021400 	sll	v0,v0,0x10
9d0023c4:	00821025 	or	v0,a0,v0
9d0023c8:	00001821 	move	v1,zero

9d0023cc <.LBE15>:
9d0023cc:	11200005 	beqz	t1,9d0023e4 <.LBE15+0x18>
9d0023d0:	00000000 	nop
9d0023d4:	00021023 	negu	v0,v0
9d0023d8:	0002202b 	sltu	a0,zero,v0
9d0023dc:	00031823 	negu	v1,v1
9d0023e0:	00641823 	subu	v1,v1,a0
9d0023e4:	03e00008 	jr	ra
9d0023e8:	00000000 	nop
9d0023ec:	00a7102b 	sltu	v0,a1,a3
9d0023f0:	10400010 	beqz	v0,9d002434 <.LBE15+0x68>
9d0023f4:	70e84020 	clz	t0,a3
9d0023f8:	00001821 	move	v1,zero
9d0023fc:	0b4008f3 	j	9d0023cc <.LBE15>
9d002400:	00001021 	move	v0,zero
9d002404:	00042023 	negu	a0,a0
9d002408:	0004102b 	sltu	v0,zero,a0
9d00240c:	00052823 	negu	a1,a1
9d002410:	00a22823 	subu	a1,a1,v0
9d002414:	04e1ffac 	bgez	a3,9d0022c8 <.LBB13>
9d002418:	2409ffff 	li	t1,-1
9d00241c:	00063023 	negu	a2,a2
9d002420:	0006102b 	sltu	v0,zero,a2
9d002424:	00073823 	negu	a3,a3
9d002428:	00094827 	nor	t1,zero,t1
9d00242c:	0b4008b2 	j	9d0022c8 <.LBB13>
9d002430:	00e23823 	subu	a3,a3,v0
9d002434:	1500007e 	bnez	t0,9d002630 <.LBE16+0xf8>
9d002438:	24020020 	li	v0,32
9d00243c:	00e5282b 	sltu	a1,a3,a1
9d002440:	14a000c6 	bnez	a1,9d00275c <.LBE23+0x34>
9d002444:	00001821 	move	v1,zero
9d002448:	0086102b 	sltu	v0,a0,a2
9d00244c:	0b4008f3 	j	9d0023cc <.LBE15>
9d002450:	38420001 	xori	v0,v0,0x1
9d002454:	14c00006 	bnez	a2,9d002470 <.LBE15+0xa4>
9d002458:	71021020 	clz	v0,t0
9d00245c:	24080001 	li	t0,1
9d002460:	0107001b 	divu	zero,t0,a3
9d002464:	00e001f4 	teq	a3,zero,0x7
9d002468:	00004012 	mflo	t0
9d00246c:	71021020 	clz	v0,t0
9d002470:	54400033 	bnezl	v0,9d002540 <.LBE16+0x8>
9d002474:	00484004 	sllv	t0,t0,v0
9d002478:	00a82023 	subu	a0,a1,t0
9d00247c:	00083c02 	srl	a3,t0,0x10
9d002480:	310cffff 	andi	t4,t0,0xffff
9d002484:	24030001 	li	v1,1

9d002488 <.LBB16>:
9d002488:	000a3402 	srl	a2,t2,0x10
9d00248c:	0087001b 	divu	zero,a0,a3
9d002490:	00e001f4 	teq	a3,zero,0x7
9d002494:	00007010 	mfhi	t6
9d002498:	00006812 	mflo	t5
9d00249c:	00001012 	mflo	v0
9d0024a0:	71ac5802 	mul	t3,t5,t4
9d0024a4:	000e7400 	sll	t6,t6,0x10
9d0024a8:	01c63025 	or	a2,t6,a2
9d0024ac:	00cb702b 	sltu	t6,a2,t3
9d0024b0:	0087001b 	divu	zero,a0,a3
9d0024b4:	00e001f4 	teq	a3,zero,0x7
9d0024b8:	11c00009 	beqz	t6,9d0024e0 <.LBB16+0x58>
9d0024bc:	00cb2823 	subu	a1,a2,t3
9d0024c0:	00c83021 	addu	a2,a2,t0
9d0024c4:	00c8202b 	sltu	a0,a2,t0
9d0024c8:	14800004 	bnez	a0,9d0024dc <.LBB16+0x54>
9d0024cc:	25a2ffff 	addiu	v0,t5,-1
9d0024d0:	00cb202b 	sltu	a0,a2,t3
9d0024d4:	548000a3 	bnezl	a0,9d002764 <.LBE23+0x3c>
9d0024d8:	25a2fffe 	addiu	v0,t5,-2
9d0024dc:	00cb2823 	subu	a1,a2,t3
9d0024e0:	314affff 	andi	t2,t2,0xffff
9d0024e4:	00a7001b 	divu	zero,a1,a3
9d0024e8:	00e001f4 	teq	a3,zero,0x7
9d0024ec:	00005810 	mfhi	t3
9d0024f0:	00003012 	mflo	a2
9d0024f4:	00002012 	mflo	a0
9d0024f8:	70cc6002 	mul	t4,a2,t4
9d0024fc:	000b5c00 	sll	t3,t3,0x10
9d002500:	016a5025 	or	t2,t3,t2
9d002504:	014c582b 	sltu	t3,t2,t4
9d002508:	00a7001b 	divu	zero,a1,a3
9d00250c:	00e001f4 	teq	a3,zero,0x7
9d002510:	51600009 	beqzl	t3,9d002538 <.LBE16>
9d002514:	00021400 	sll	v0,v0,0x10
9d002518:	01485021 	addu	t2,t2,t0
9d00251c:	0148402b 	sltu	t0,t2,t0
9d002520:	15000004 	bnez	t0,9d002534 <.LBB16+0xac>
9d002524:	24c4ffff 	addiu	a0,a2,-1
9d002528:	014c502b 	sltu	t2,t2,t4
9d00252c:	24c6fffe 	addiu	a2,a2,-2
9d002530:	00ca200b 	movn	a0,a2,t2
9d002534:	00021400 	sll	v0,v0,0x10

9d002538 <.LBE16>:
9d002538:	0b4008f3 	j	9d0023cc <.LBE15>
9d00253c:	00821025 	or	v0,a0,v0
9d002540:	24030020 	li	v1,32
9d002544:	00621823 	subu	v1,v1,v0
9d002548:	00653006 	srlv	a2,a1,v1
9d00254c:	00083c02 	srl	a3,t0,0x10
9d002550:	00c7001b 	divu	zero,a2,a3
9d002554:	00e001f4 	teq	a3,zero,0x7
9d002558:	00007810 	mfhi	t7
9d00255c:	00006812 	mflo	t5
9d002560:	310cffff 	andi	t4,t0,0xffff
9d002564:	00452804 	sllv	a1,a1,v0
9d002568:	00641806 	srlv	v1,a0,v1
9d00256c:	00652825 	or	a1,v1,a1
9d002570:	00057402 	srl	t6,a1,0x10
9d002574:	00445004 	sllv	t2,a0,v0
9d002578:	00001812 	mflo	v1
9d00257c:	71ac5802 	mul	t3,t5,t4
9d002580:	000f1400 	sll	v0,t7,0x10
9d002584:	01c21025 	or	v0,t6,v0
9d002588:	004b202b 	sltu	a0,v0,t3
9d00258c:	00c7001b 	divu	zero,a2,a3
9d002590:	00e001f4 	teq	a3,zero,0x7
9d002594:	5080000b 	beqzl	a0,9d0025c4 <.LBE16+0x8c>
9d002598:	004b1023 	subu	v0,v0,t3
9d00259c:	00481021 	addu	v0,v0,t0
9d0025a0:	0048202b 	sltu	a0,v0,t0
9d0025a4:	14800006 	bnez	a0,9d0025c0 <.LBE16+0x88>
9d0025a8:	25a3ffff 	addiu	v1,t5,-1
9d0025ac:	004b202b 	sltu	a0,v0,t3
9d0025b0:	50800004 	beqzl	a0,9d0025c4 <.LBE16+0x8c>
9d0025b4:	004b1023 	subu	v0,v0,t3
9d0025b8:	25a3fffe 	addiu	v1,t5,-2
9d0025bc:	00481021 	addu	v0,v0,t0
9d0025c0:	004b1023 	subu	v0,v0,t3
9d0025c4:	30adffff 	andi	t5,a1,0xffff
9d0025c8:	0047001b 	divu	zero,v0,a3
9d0025cc:	00e001f4 	teq	a3,zero,0x7
9d0025d0:	00002010 	mfhi	a0
9d0025d4:	00005812 	mflo	t3
9d0025d8:	00003012 	mflo	a2
9d0025dc:	716c2802 	mul	a1,t3,t4
9d0025e0:	00042400 	sll	a0,a0,0x10
9d0025e4:	008d2025 	or	a0,a0,t5
9d0025e8:	0085682b 	sltu	t5,a0,a1
9d0025ec:	0047001b 	divu	zero,v0,a3
9d0025f0:	00e001f4 	teq	a3,zero,0x7
9d0025f4:	51a0000b 	beqzl	t5,9d002624 <.LBE16+0xec>
9d0025f8:	00031c00 	sll	v1,v1,0x10
9d0025fc:	00882021 	addu	a0,a0,t0
9d002600:	0088102b 	sltu	v0,a0,t0
9d002604:	14400006 	bnez	v0,9d002620 <.LBE16+0xe8>
9d002608:	2566ffff 	addiu	a2,t3,-1
9d00260c:	0085102b 	sltu	v0,a0,a1
9d002610:	50400004 	beqzl	v0,9d002624 <.LBE16+0xec>
9d002614:	00031c00 	sll	v1,v1,0x10
9d002618:	2566fffe 	addiu	a2,t3,-2
9d00261c:	00882021 	addu	a0,a0,t0
9d002620:	00031c00 	sll	v1,v1,0x10
9d002624:	00852023 	subu	a0,a0,a1
9d002628:	0b400922 	j	9d002488 <.LBB16>
9d00262c:	00c31825 	or	v1,a2,v1
9d002630:	00481023 	subu	v0,v0,t0
9d002634:	01073804 	sllv	a3,a3,t0
9d002638:	00461806 	srlv	v1,a2,v0
9d00263c:	00673825 	or	a3,v1,a3
9d002640:	00455806 	srlv	t3,a1,v0
9d002644:	00071c02 	srl	v1,a3,0x10
9d002648:	0163001b 	divu	zero,t3,v1
9d00264c:	006001f4 	teq	v1,zero,0x7
9d002650:	00005010 	mfhi	t2
9d002654:	00007012 	mflo	t6
9d002658:	30ecffff 	andi	t4,a3,0xffff
9d00265c:	01052804 	sllv	a1,a1,t0
9d002660:	00441006 	srlv	v0,a0,v0
9d002664:	00452825 	or	a1,v0,a1
9d002668:	00057c02 	srl	t7,a1,0x10
9d00266c:	00001012 	mflo	v0
9d002670:	71cc6802 	mul	t5,t6,t4
9d002674:	000a5400 	sll	t2,t2,0x10
9d002678:	014f5025 	or	t2,t2,t7
9d00267c:	014d782b 	sltu	t7,t2,t5
9d002680:	0163001b 	divu	zero,t3,v1
9d002684:	006001f4 	teq	v1,zero,0x7
9d002688:	11e0000a 	beqz	t7,9d0026b4 <.LBE16+0x17c>
9d00268c:	01063004 	sllv	a2,a2,t0
9d002690:	01475021 	addu	t2,t2,a3
9d002694:	0147582b 	sltu	t3,t2,a3
9d002698:	15600006 	bnez	t3,9d0026b4 <.LBE16+0x17c>
9d00269c:	25c2ffff 	addiu	v0,t6,-1
9d0026a0:	014d582b 	sltu	t3,t2,t5
9d0026a4:	51600004 	beqzl	t3,9d0026b8 <.LBE16+0x180>
9d0026a8:	014d5023 	subu	t2,t2,t5
9d0026ac:	25c2fffe 	addiu	v0,t6,-2
9d0026b0:	01475021 	addu	t2,t2,a3
9d0026b4:	014d5023 	subu	t2,t2,t5
9d0026b8:	30a5ffff 	andi	a1,a1,0xffff
9d0026bc:	0143001b 	divu	zero,t2,v1
9d0026c0:	006001f4 	teq	v1,zero,0x7
9d0026c4:	00007010 	mfhi	t6
9d0026c8:	00006812 	mflo	t5
9d0026cc:	00005812 	mflo	t3
9d0026d0:	71ac6002 	mul	t4,t5,t4
9d0026d4:	000e7400 	sll	t6,t6,0x10
9d0026d8:	01c52825 	or	a1,t6,a1
9d0026dc:	00ac702b 	sltu	t6,a1,t4
9d0026e0:	0143001b 	divu	zero,t2,v1
9d0026e4:	006001f4 	teq	v1,zero,0x7
9d0026e8:	51c0000b 	beqzl	t6,9d002718 <.LBE16+0x1e0>
9d0026ec:	00021400 	sll	v0,v0,0x10
9d0026f0:	00a72821 	addu	a1,a1,a3
9d0026f4:	00a7182b 	sltu	v1,a1,a3
9d0026f8:	14600006 	bnez	v1,9d002714 <.LBE16+0x1dc>
9d0026fc:	25abffff 	addiu	t3,t5,-1
9d002700:	00ac182b 	sltu	v1,a1,t4
9d002704:	50600004 	beqzl	v1,9d002718 <.LBE16+0x1e0>
9d002708:	00021400 	sll	v0,v0,0x10
9d00270c:	25abfffe 	addiu	t3,t5,-2
9d002710:	00a72821 	addu	a1,a1,a3
9d002714:	00021400 	sll	v0,v0,0x10
9d002718:	01621025 	or	v0,t3,v0
9d00271c:	00ac2823 	subu	a1,a1,t4

9d002720 <.LBB23>:
9d002720:	00460019 	multu	v0,a2
9d002724:	00003810 	mfhi	a3

9d002728 <.LBE23>:
9d002728:	00a7182b 	sltu	v1,a1,a3
9d00272c:	14600008 	bnez	v1,9d002750 <.LBE23+0x28>
9d002730:	00003012 	mflo	a2
9d002734:	50a70003 	beql	a1,a3,9d002744 <.LBE23+0x1c>
9d002738:	01042004 	sllv	a0,a0,t0
9d00273c:	0b4008f3 	j	9d0023cc <.LBE15>
9d002740:	00001821 	move	v1,zero
9d002744:	0086302b 	sltu	a2,a0,a2
9d002748:	50c0ff20 	beqzl	a2,9d0023cc <.LBE15>
9d00274c:	00001821 	move	v1,zero
9d002750:	2442ffff 	addiu	v0,v0,-1
9d002754:	0b4008f3 	j	9d0023cc <.LBE15>
9d002758:	00001821 	move	v1,zero
9d00275c:	0b4008f3 	j	9d0023cc <.LBE15>
9d002760:	24020001 	li	v0,1
9d002764:	0b400937 	j	9d0024dc <.LBB16+0x54>
9d002768:	00c83021 	addu	a2,a2,t0

Disassembly of section .text.dp32subadd:

9d00276c <__subdf3>:
9d00276c:	3c018000 00e13826                       ...<&8..

9d002774 <__adddf3>:
9d002774:	00055840 000b5d42 000552c0 00047d42     @X..B]...R..B}..
9d002784:	014f5025 00044ac0 3c088000 01485025     %PO..J.....<%PH.
9d002794:	00077040 000e7542 00076ac0 00067d42     @p..Bu...j..B}..
9d0027a4:	01af6825 000662c0 01a86825 256fffff     %h...b..%h....o%
9d0027b4:	2de107fe 1020008d 00000000              ...-.. .....

9d0027c0 <Blab1>:
9d0027c0:	25cfffff 	addiu	t7,t6,-1
9d0027c4:	2de107fe 	sltiu	at,t7,2046
9d0027c8:	102000bb 	beqz	at,9d002ab8 <BspecB>
9d0027cc:	00000000 	nop

9d0027d0 <Blab2>:
9d0027d0:	3c018000 	lui	at,0x8000
9d0027d4:	00a12824 	and	a1,a1,at
9d0027d8:	016e4023 	subu	t0,t3,t6
9d0027dc:	1100002c 	beqz	t0,9d002890 <Badd3>
9d0027e0:	00000000 	nop
9d0027e4:	19000015 	blez	t0,9d00283c <i1>
9d0027e8:	00000000 	nop

9d0027ec <L1>:
9d0027ec:	2d010020 	sltiu	at,t0,32
9d0027f0:	14200007 	bnez	at,9d002810 <L2>
9d0027f4:	00000000 	nop
9d0027f8:	2108ffe0 	addi	t0,t0,-32
9d0027fc:	000c302b 	sltu	a2,zero,t4
9d002800:	100d0023 	beq	zero,t5,9d002890 <Badd3>
9d002804:	01a66025 	or	t4,t5,a2
9d002808:	1000fff8 	b	9d0027ec <L1>
9d00280c:	340d0000 	li	t5,0x0

9d002810 <L2>:
9d002810:	1100001f 	beqz	t0,9d002890 <Badd3>
9d002814:	00000000 	nop
9d002818:	00082022 	neg	a0,t0
9d00281c:	008c3004 	sllv	a2,t4,a0
9d002820:	008d2004 	sllv	a0,t5,a0
9d002824:	010c6006 	srlv	t4,t4,t0
9d002828:	010d6806 	srlv	t5,t5,t0
9d00282c:	10c00018 	beqz	a2,9d002890 <Badd3>
9d002830:	008c6025 	or	t4,a0,t4
9d002834:	10000016 	b	9d002890 <Badd3>
9d002838:	358c0002 	ori	t4,t4,0x2

9d00283c <i1>:
9d00283c:	000e5825 	or	t3,zero,t6
9d002840:	00084023 	negu	t0,t0

9d002844 <L4>:
9d002844:	2d010020 	sltiu	at,t0,32
9d002848:	14200007 	bnez	at,9d002868 <L5>
9d00284c:	00000000 	nop
9d002850:	2108ffe0 	addi	t0,t0,-32
9d002854:	0009302b 	sltu	a2,zero,t1
9d002858:	100a000d 	beq	zero,t2,9d002890 <Badd3>
9d00285c:	01464825 	or	t1,t2,a2
9d002860:	1000fff8 	b	9d002844 <L4>
9d002864:	340a0000 	li	t2,0x0

9d002868 <L5>:
9d002868:	11000009 	beqz	t0,9d002890 <Badd3>
9d00286c:	00000000 	nop
9d002870:	00082022 	neg	a0,t0
9d002874:	00893004 	sllv	a2,t1,a0
9d002878:	008a2004 	sllv	a0,t2,a0
9d00287c:	01094806 	srlv	t1,t1,t0
9d002880:	010a5006 	srlv	t2,t2,t0
9d002884:	10c00002 	beqz	a2,9d002890 <Badd3>
9d002888:	00894825 	or	t1,a0,t1
9d00288c:	35290002 	ori	t1,t1,0x2

9d002890 <Badd3>:
9d002890:	00a77826 	xor	t7,a1,a3
9d002894:	05e0001c 	bltz	t7,9d002908 <Bsub1>
9d002898:	00000000 	nop
9d00289c:	012c4821 	addu	t1,t1,t4
9d0028a0:	012c782b 	sltu	t7,t1,t4
9d0028a4:	014d5021 	addu	t2,t2,t5
9d0028a8:	014f5021 	addu	t2,t2,t7
9d0028ac:	114d0002 	beq	t2,t5,9d0028b8 <L7>
9d0028b0:	00000000 	nop
9d0028b4:	014d782b 	sltu	t7,t2,t5

9d0028b8 <L7>:
9d0028b8:	11e00037 	beqz	t7,9d002998 <Bres>
9d0028bc:	00000000 	nop
9d0028c0:	312f0001 	andi	t7,t1,0x1
9d0028c4:	11e00002 	beqz	t7,9d0028d0 <i3>
9d0028c8:	00000000 	nop
9d0028cc:	35290002 	ori	t1,t1,0x2

9d0028d0 <i3>:
9d0028d0:	00094842 	srl	t1,t1,0x1
9d0028d4:	000a7fc0 	sll	t7,t2,0x1f
9d0028d8:	012f4825 	or	t1,t1,t7
9d0028dc:	000a5042 	srl	t2,t2,0x1
9d0028e0:	3c018000 	lui	at,0x8000
9d0028e4:	01415025 	or	t2,t2,at
9d0028e8:	256b0001 	addiu	t3,t3,1
9d0028ec:	240107ff 	li	at,2047
9d0028f0:	15610029 	bne	t3,at,9d002998 <Bres>
9d0028f4:	00000000 	nop
9d0028f8:	3c017ff0 	lui	at,0x7ff0
9d0028fc:	00a12825 	or	a1,a1,at
9d002900:	10000037 	b	9d0029e0 <BretA>
9d002904:	24040000 	li	a0,0

9d002908 <Bsub1>:
9d002908:	012c782b 	sltu	t7,t1,t4
9d00290c:	012c4823 	subu	t1,t1,t4
9d002910:	014f102b 	sltu	v0,t2,t7
9d002914:	014f5023 	subu	t2,t2,t7
9d002918:	014d782b 	sltu	t7,t2,t5
9d00291c:	01e27825 	or	t7,t7,v0
9d002920:	11e00007 	beqz	t7,9d002940 <i5>
9d002924:	014d5023 	subu	t2,t2,t5
9d002928:	3c018000 	lui	at,0x8000
9d00292c:	00a12826 	xor	a1,a1,at
9d002930:	0009782b 	sltu	t7,zero,t1
9d002934:	00094823 	negu	t1,t1
9d002938:	000a5023 	negu	t2,t2
9d00293c:	014f5023 	subu	t2,t2,t7

9d002940 <i5>:
9d002940:	15400008 	bnez	t2,9d002964 <L8>
9d002944:	00000000 	nop
9d002948:	15200003 	bnez	t1,9d002958 <L9>
9d00294c:	00000000 	nop
9d002950:	1000000d 	b	9d002988 <L10>
9d002954:	240b0000 	li	t3,0

9d002958 <L9>:
9d002958:	01205025 	move	t2,t1
9d00295c:	24090000 	li	t1,0
9d002960:	256bffe0 	addiu	t3,t3,-32

9d002964 <L8>:
9d002964:	71484020 	clz	t0,t2
9d002968:	11000007 	beqz	t0,9d002988 <L10>
9d00296c:	00000000 	nop
9d002970:	01685823 	subu	t3,t3,t0
9d002974:	00082022 	neg	a0,t0
9d002978:	00892006 	srlv	a0,t1,a0
9d00297c:	01094804 	sllv	t1,t1,t0
9d002980:	010a5004 	sllv	t2,t2,t0
9d002984:	01445025 	or	t2,t2,a0

9d002988 <L10>:
9d002988:	01497825 	or	t7,t2,t1
9d00298c:	15e00002 	bnez	t7,9d002998 <Bres>
9d002990:	00000000 	nop
9d002994:	24050000 	li	a1,0

9d002998 <Bres>:
9d002998:	19600068 	blez	t3,9d002b3c <Bund>
9d00299c:	00000000 	nop

9d0029a0 <Blab8>:
9d0029a0:	25290400 	addiu	t1,t1,1024
9d0029a4:	2d2f0400 	sltiu	t7,t1,1024
9d0029a8:	014f5021 	addu	t2,t2,t7
9d0029ac:	014f782b 	sltu	t7,t2,t7
9d0029b0:	016f5821 	addu	t3,t3,t7
9d0029b4:	00097ac2 	srl	t7,t1,0xb
9d0029b8:	31ef0001 	andi	t7,t7,0x1
9d0029bc:	012f4823 	subu	t1,t1,t7
9d0029c0:	000922c2 	srl	a0,t1,0xb
9d0029c4:	000a7d40 	sll	t7,t2,0x15
9d0029c8:	008f2025 	or	a0,a0,t7
9d0029cc:	000a7840 	sll	t7,t2,0x1
9d0029d0:	000f7b02 	srl	t7,t7,0xc
9d0029d4:	00af2825 	or	a1,a1,t7
9d0029d8:	000b7d00 	sll	t7,t3,0x14
9d0029dc:	00af2825 	or	a1,a1,t7

9d0029e0 <BretA>:
9d0029e0:	00041025 	or	v0,zero,a0
9d0029e4:	00051825 	or	v1,zero,a1

9d0029e8 <B999>:
9d0029e8:	03e00008 	jr	ra
9d0029ec:	00000000 	nop

9d0029f0 <BspecA>:
9d0029f0:	0120782a 	slt	t7,t1,zero
9d0029f4:	01294821 	addu	t1,t1,t1
9d0029f8:	014a5021 	addu	t2,t2,t2
9d0029fc:	15600023 	bnez	t3,9d002a8c <i7>
9d002a00:	014f5021 	addu	t2,t2,t7
9d002a04:	01497825 	or	t7,t2,t1
9d002a08:	11e00014 	beqz	t7,9d002a5c <i8>
9d002a0c:	00000000 	nop
9d002a10:	15400008 	bnez	t2,9d002a34 <L11>
9d002a14:	00000000 	nop
9d002a18:	15200003 	bnez	t1,9d002a28 <L12>
9d002a1c:	00000000 	nop
9d002a20:	1000ff67 	b	9d0027c0 <Blab1>
9d002a24:	240b0000 	li	t3,0

9d002a28 <L12>:
9d002a28:	01205025 	move	t2,t1
9d002a2c:	24090000 	li	t1,0
9d002a30:	256bffe0 	addiu	t3,t3,-32

9d002a34 <L11>:
9d002a34:	71484020 	clz	t0,t2
9d002a38:	1100ff61 	beqz	t0,9d0027c0 <Blab1>
9d002a3c:	00000000 	nop
9d002a40:	01685823 	subu	t3,t3,t0
9d002a44:	00082022 	neg	a0,t0
9d002a48:	00892006 	srlv	a0,t1,a0
9d002a4c:	01094804 	sllv	t1,t1,t0
9d002a50:	010a5004 	sllv	t2,t2,t0
9d002a54:	1000ff5a 	b	9d0027c0 <Blab1>
9d002a58:	01445025 	or	t2,t2,a0

9d002a5c <i8>:
9d002a5c:	240107ff 	li	at,2047
9d002a60:	11c10015 	beq	t6,at,9d002ab8 <BspecB>
9d002a64:	00000000 	nop
9d002a68:	00e74021 	addu	t0,a3,a3
9d002a6c:	01067825 	or	t7,t0,a2
9d002a70:	15e00003 	bnez	t7,9d002a80 <BretB>
9d002a74:	00000000 	nop
9d002a78:	04e0ffd9 	bltz	a3,9d0029e0 <BretA>
9d002a7c:	00000000 	nop

9d002a80 <BretB>:
9d002a80:	00061025 	or	v0,zero,a2
9d002a84:	1000ffd8 	b	9d0029e8 <B999>
9d002a88:	00071825 	or	v1,zero,a3

9d002a8c <i7>:
9d002a8c:	01497825 	or	t7,t2,t1
9d002a90:	15e00027 	bnez	t7,9d002b30 <Bnan>
9d002a94:	00000000 	nop
9d002a98:	240107ff 	li	at,2047
9d002a9c:	15c1ffd0 	bne	t6,at,9d0029e0 <BretA>
9d002aa0:	00000000 	nop
9d002aa4:	00a77826 	xor	t7,a1,a3
9d002aa8:	05e00021 	bltz	t7,9d002b30 <Bnan>
9d002aac:	00000000 	nop
9d002ab0:	1000fff3 	b	9d002a80 <BretB>
9d002ab4:	00000000 	nop

9d002ab8 <BspecB>:
9d002ab8:	0180782a 	slt	t7,t4,zero
9d002abc:	018c6021 	addu	t4,t4,t4
9d002ac0:	01ad6821 	addu	t5,t5,t5
9d002ac4:	15c00017 	bnez	t6,9d002b24 <i11>
9d002ac8:	01af6821 	addu	t5,t5,t7
9d002acc:	01ac7825 	or	t7,t5,t4
9d002ad0:	11e0ffc3 	beqz	t7,9d0029e0 <BretA>
9d002ad4:	00000000 	nop
9d002ad8:	15a00008 	bnez	t5,9d002afc <L14>
9d002adc:	00000000 	nop
9d002ae0:	15800003 	bnez	t4,9d002af0 <L15>
9d002ae4:	00000000 	nop
9d002ae8:	1000ff39 	b	9d0027d0 <Blab2>
9d002aec:	240e0000 	li	t6,0

9d002af0 <L15>:
9d002af0:	01806825 	move	t5,t4
9d002af4:	240c0000 	li	t4,0
9d002af8:	25ceffe0 	addiu	t6,t6,-32

9d002afc <L14>:
9d002afc:	71a84020 	clz	t0,t5
9d002b00:	1100ff33 	beqz	t0,9d0027d0 <Blab2>
9d002b04:	00000000 	nop
9d002b08:	01c87023 	subu	t6,t6,t0
9d002b0c:	00082022 	neg	a0,t0
9d002b10:	008c2006 	srlv	a0,t4,a0
9d002b14:	010c6004 	sllv	t4,t4,t0
9d002b18:	010d6804 	sllv	t5,t5,t0
9d002b1c:	1000ff2c 	b	9d0027d0 <Blab2>
9d002b20:	01a46825 	or	t5,t5,a0

9d002b24 <i11>:
9d002b24:	01ac7825 	or	t7,t5,t4
9d002b28:	11e0ffd5 	beqz	t7,9d002a80 <BretB>
9d002b2c:	00000000 	nop

9d002b30 <Bnan>:
9d002b30:	3c05fff8 	lui	a1,0xfff8
9d002b34:	1000ffaa 	b	9d0029e0 <BretA>
9d002b38:	24040000 	li	a0,0

9d002b3c <Bund>:
9d002b3c:	24080001 	li	t0,1
9d002b40:	010b4023 	subu	t0,t0,t3

9d002b44 <L17>:
9d002b44:	2d010020 	sltiu	at,t0,32
9d002b48:	14200007 	bnez	at,9d002b68 <L18>
9d002b4c:	00000000 	nop
9d002b50:	2108ffe0 	addi	t0,t0,-32
9d002b54:	0009302b 	sltu	a2,zero,t1
9d002b58:	100a000d 	beq	zero,t2,9d002b90 <L19>
9d002b5c:	01464825 	or	t1,t2,a2
9d002b60:	1000fff8 	b	9d002b44 <L17>
9d002b64:	340a0000 	li	t2,0x0

9d002b68 <L18>:
9d002b68:	11000009 	beqz	t0,9d002b90 <L19>
9d002b6c:	00000000 	nop
9d002b70:	00082022 	neg	a0,t0
9d002b74:	00893004 	sllv	a2,t1,a0
9d002b78:	008a2004 	sllv	a0,t2,a0
9d002b7c:	01094806 	srlv	t1,t1,t0
9d002b80:	010a5006 	srlv	t2,t2,t0
9d002b84:	10c00002 	beqz	a2,9d002b90 <L19>
9d002b88:	00894825 	or	t1,a0,t1
9d002b8c:	35290002 	ori	t1,t1,0x2

9d002b90 <L19>:
9d002b90:	1000ff83 	b	9d0029a0 <Blab8>
9d002b94:	240b0000 	li	t3,0
9d002b98:	00000000 	nop

Disassembly of section .text.dp32mul:

9d002b9c <__muldf3>:
9d002b9c:	00055040 000a5542 00054ac0 00047d42     @P..BU...J..B}..
9d002bac:	012f4825 000442c0 3c0e8000 012e4825     %H/..B.....<%H..
9d002bbc:	00076840 000d6d42 000762c0 00067d42     @h..Bm...b..B}..
9d002bcc:	018f6025 00065ac0 018e6025 00a72826     %`...Z..%`..&(..
9d002bdc:	00ae2824 254fffff 2de107fe 10200047     $(....O%...-G. .
9d002bec:	00000000                                ....

9d002bf0 <Clab1>:
9d002bf0:	25afffff 	addiu	t7,t5,-1
9d002bf4:	2de107fe 	sltiu	at,t7,2046
9d002bf8:	1020006f 	beqz	at,9d002db8 <CspecB>
9d002bfc:	00000000 	nop

9d002c00 <Clab2>:
9d002c00:	25affc02 	addiu	t7,t5,-1022
9d002c04:	014f5021 	addu	t2,t2,t7
9d002c08:	012c0019 	multu	t1,t4
9d002c0c:	00003812 	mflo	a3
9d002c10:	00007010 	mfhi	t6
9d002c14:	010b0019 	multu	t0,t3
9d002c18:	00002012 	mflo	a0
9d002c1c:	00003010 	mfhi	a2
9d002c20:	012b0019 	multu	t1,t3
9d002c24:	00005812 	mflo	t3
9d002c28:	00006810 	mfhi	t5
9d002c2c:	00cb3021 	addu	a2,a2,t3
9d002c30:	00cb782b 	sltu	t7,a2,t3
9d002c34:	00ed3821 	addu	a3,a3,t5
9d002c38:	00ef3821 	addu	a3,a3,t7
9d002c3c:	10ed0002 	beq	a3,t5,9d002c48 <L20>
9d002c40:	00000000 	nop
9d002c44:	00ed782b 	sltu	t7,a3,t5

9d002c48 <L20>:
9d002c48:	01cf7021 	addu	t6,t6,t7
9d002c4c:	010c0019 	multu	t0,t4
9d002c50:	00004012 	mflo	t0
9d002c54:	00004810 	mfhi	t1
9d002c58:	00c83021 	addu	a2,a2,t0
9d002c5c:	00c8782b 	sltu	t7,a2,t0
9d002c60:	00e93821 	addu	a3,a3,t1
9d002c64:	00ef3821 	addu	a3,a3,t7
9d002c68:	10e90002 	beq	a3,t1,9d002c74 <L21>
9d002c6c:	00000000 	nop
9d002c70:	00e9782b 	sltu	t7,a3,t1

9d002c74 <L21>:
9d002c74:	01cf7021 	addu	t6,t6,t7
9d002c78:	00867825 	or	t7,a0,a2
9d002c7c:	11e00002 	beqz	t7,9d002c88 <i13>
9d002c80:	00000000 	nop
9d002c84:	34e70001 	ori	a3,a3,0x1

9d002c88 <i13>:
9d002c88:	000e4825 	or	t1,zero,t6
9d002c8c:	05200006 	bltz	t1,9d002ca8 <i14>
9d002c90:	00074025 	or	t0,zero,a3
9d002c94:	0100782a 	slt	t7,t0,zero
9d002c98:	01084021 	addu	t0,t0,t0
9d002c9c:	01294821 	addu	t1,t1,t1
9d002ca0:	012f4821 	addu	t1,t1,t7
9d002ca4:	254affff 	addiu	t2,t2,-1

9d002ca8 <i14>:
9d002ca8:	254fffff 	addiu	t7,t2,-1
9d002cac:	2de107fe 	sltiu	at,t7,2046
9d002cb0:	10200068 	beqz	at,9d002e54 <Coveund>
9d002cb4:	00000000 	nop
9d002cb8:	25080400 	addiu	t0,t0,1024
9d002cbc:	2d0f0400 	sltiu	t7,t0,1024
9d002cc0:	012f4821 	addu	t1,t1,t7
9d002cc4:	012f782b 	sltu	t7,t1,t7
9d002cc8:	014f5021 	addu	t2,t2,t7

9d002ccc <Clab8>:
9d002ccc:	00087ac2 	srl	t7,t0,0xb
9d002cd0:	31ef0001 	andi	t7,t7,0x1
9d002cd4:	010f4023 	subu	t0,t0,t7
9d002cd8:	000822c2 	srl	a0,t0,0xb
9d002cdc:	00097d40 	sll	t7,t1,0x15
9d002ce0:	008f2025 	or	a0,a0,t7
9d002ce4:	00097840 	sll	t7,t1,0x1
9d002ce8:	000f7b02 	srl	t7,t7,0xc
9d002cec:	00af2825 	or	a1,a1,t7
9d002cf0:	000a7d00 	sll	t7,t2,0x14
9d002cf4:	00af2825 	or	a1,a1,t7

9d002cf8 <Cret>:
9d002cf8:	00041025 	or	v0,zero,a0
9d002cfc:	00051825 	or	v1,zero,a1

9d002d00 <C999>:
9d002d00:	03e00008 	jr	ra
9d002d04:	00000000 	nop

9d002d08 <CspecA>:
9d002d08:	0100782a 	slt	t7,t0,zero
9d002d0c:	01084021 	addu	t0,t0,t0
9d002d10:	01294821 	addu	t1,t1,t1
9d002d14:	1540001c 	bnez	t2,9d002d88 <i15>
9d002d18:	012f4821 	addu	t1,t1,t7
9d002d1c:	01287825 	or	t7,t1,t0
9d002d20:	11e00014 	beqz	t7,9d002d74 <i16>
9d002d24:	00000000 	nop
9d002d28:	15200008 	bnez	t1,9d002d4c <L22>
9d002d2c:	00000000 	nop
9d002d30:	15000003 	bnez	t0,9d002d40 <L23>
9d002d34:	00000000 	nop
9d002d38:	1000ffad 	b	9d002bf0 <Clab1>
9d002d3c:	240a0000 	li	t2,0

9d002d40 <L23>:
9d002d40:	01004825 	move	t1,t0
9d002d44:	24080000 	li	t0,0
9d002d48:	254affe0 	addiu	t2,t2,-32

9d002d4c <L22>:
9d002d4c:	712e7020 	clz	t6,t1
9d002d50:	11c0ffa7 	beqz	t6,9d002bf0 <Clab1>
9d002d54:	00000000 	nop
9d002d58:	014e5023 	subu	t2,t2,t6
9d002d5c:	000e3822 	neg	a3,t6
9d002d60:	00e83806 	srlv	a3,t0,a3
9d002d64:	01c84004 	sllv	t0,t0,t6
9d002d68:	01c94804 	sllv	t1,t1,t6
9d002d6c:	1000ffa0 	b	9d002bf0 <Clab1>
9d002d70:	01274825 	or	t1,t1,a3

9d002d74 <i16>:
9d002d74:	240107ff 	li	at,2047
9d002d78:	11a10033 	beq	t5,at,9d002e48 <Cnan>
9d002d7c:	00000000 	nop
9d002d80:	1000ffdd 	b	9d002cf8 <Cret>
9d002d84:	00000000 	nop

9d002d88 <i15>:
9d002d88:	01287825 	or	t7,t1,t0
9d002d8c:	15e0002e 	bnez	t7,9d002e48 <Cnan>
9d002d90:	00000000 	nop
9d002d94:	15a00005 	bnez	t5,9d002dac <i17>
9d002d98:	00000000 	nop
9d002d9c:	000c7840 	sll	t7,t4,0x1
9d002da0:	01eb7825 	or	t7,t7,t3
9d002da4:	11e00028 	beqz	t7,9d002e48 <Cnan>
9d002da8:	00000000 	nop

9d002dac <i17>:
9d002dac:	240107ff 	li	at,2047
9d002db0:	15a10021 	bne	t5,at,9d002e38 <Cinf>
9d002db4:	00000000 	nop

9d002db8 <CspecB>:
9d002db8:	0160782a 	slt	t7,t3,zero
9d002dbc:	016b5821 	addu	t3,t3,t3
9d002dc0:	018c6021 	addu	t4,t4,t4
9d002dc4:	15a00019 	bnez	t5,9d002e2c <i18>
9d002dc8:	018f6021 	addu	t4,t4,t7
9d002dcc:	018b7825 	or	t7,t4,t3
9d002dd0:	11e00014 	beqz	t7,9d002e24 <i19>
9d002dd4:	00000000 	nop
9d002dd8:	15800008 	bnez	t4,9d002dfc <L25>
9d002ddc:	00000000 	nop
9d002de0:	15600003 	bnez	t3,9d002df0 <L26>
9d002de4:	00000000 	nop
9d002de8:	1000ff85 	b	9d002c00 <Clab2>
9d002dec:	240d0000 	li	t5,0

9d002df0 <L26>:
9d002df0:	01606025 	move	t4,t3
9d002df4:	240b0000 	li	t3,0
9d002df8:	25adffe0 	addiu	t5,t5,-32

9d002dfc <L25>:
9d002dfc:	71863020 	clz	a2,t4
9d002e00:	10c0ff7f 	beqz	a2,9d002c00 <Clab2>
9d002e04:	00000000 	nop
9d002e08:	01a66823 	subu	t5,t5,a2
9d002e0c:	00067022 	neg	t6,a2
9d002e10:	01cb7006 	srlv	t6,t3,t6
9d002e14:	00cb5804 	sllv	t3,t3,a2
9d002e18:	00cc6004 	sllv	t4,t4,a2
9d002e1c:	1000ff78 	b	9d002c00 <Clab2>
9d002e20:	018e6025 	or	t4,t4,t6

9d002e24 <i19>:
9d002e24:	1000ffb4 	b	9d002cf8 <Cret>
9d002e28:	24040000 	li	a0,0

9d002e2c <i18>:
9d002e2c:	018b7825 	or	t7,t4,t3
9d002e30:	15e00005 	bnez	t7,9d002e48 <Cnan>
9d002e34:	00000000 	nop

9d002e38 <Cinf>:
9d002e38:	3c017ff0 	lui	at,0x7ff0
9d002e3c:	00a12825 	or	a1,a1,at
9d002e40:	1000ffad 	b	9d002cf8 <Cret>
9d002e44:	24040000 	li	a0,0

9d002e48 <Cnan>:
9d002e48:	3c05fff8 	lui	a1,0xfff8
9d002e4c:	1000ffaa 	b	9d002cf8 <Cret>
9d002e50:	24040000 	li	a0,0

9d002e54 <Coveund>:
9d002e54:	1d40fff8 	bgtz	t2,9d002e38 <Cinf>
9d002e58:	00000000 	nop
9d002e5c:	240e0001 	li	t6,1
9d002e60:	01ca7023 	subu	t6,t6,t2

9d002e64 <L28>:
9d002e64:	2dc10020 	sltiu	at,t6,32
9d002e68:	14200007 	bnez	at,9d002e88 <L29>
9d002e6c:	00000000 	nop
9d002e70:	21ceffe0 	addi	t6,t6,-32
9d002e74:	0008302b 	sltu	a2,zero,t0
9d002e78:	1009000d 	beq	zero,t1,9d002eb0 <L30>
9d002e7c:	01264025 	or	t0,t1,a2
9d002e80:	1000fff8 	b	9d002e64 <L28>
9d002e84:	34090000 	li	t1,0x0

9d002e88 <L29>:
9d002e88:	11c00009 	beqz	t6,9d002eb0 <L30>
9d002e8c:	00000000 	nop
9d002e90:	000e3822 	neg	a3,t6
9d002e94:	00e83004 	sllv	a2,t0,a3
9d002e98:	00e93804 	sllv	a3,t1,a3
9d002e9c:	01c84006 	srlv	t0,t0,t6
9d002ea0:	01c94806 	srlv	t1,t1,t6
9d002ea4:	10c00002 	beqz	a2,9d002eb0 <L30>
9d002ea8:	00e84025 	or	t0,a3,t0
9d002eac:	35080002 	ori	t0,t0,0x2

9d002eb0 <L30>:
9d002eb0:	25080400 	addiu	t0,t0,1024
9d002eb4:	2d0f0400 	sltiu	t7,t0,1024
9d002eb8:	012f4821 	addu	t1,t1,t7
9d002ebc:	1000ff83 	b	9d002ccc <Clab8>
9d002ec0:	000957c2 	srl	t2,t1,0x1f
9d002ec4:	00000000 	nop

Disassembly of section .text:

9d002ec8 <main>:
#include <stdio.h>

int main(void){
9d002ec8:	27bdff90 	addiu	sp,sp,-112
9d002ecc:	afbf006c 	sw	ra,108(sp)
9d002ed0:	afbe0068 	sw	s8,104(sp)
9d002ed4:	03a0f021 	move	s8,sp
  char c1=5,c2=6,c3;
9d002ed8:	24020005 	li	v0,5
9d002edc:	a3c20010 	sb	v0,16(s8)
9d002ee0:	24020006 	li	v0,6
9d002ee4:	a3c20011 	sb	v0,17(s8)
  int i1=5,i2=6,i3;
9d002ee8:	24020005 	li	v0,5
9d002eec:	afc20014 	sw	v0,20(s8)
9d002ef0:	24020006 	li	v0,6
9d002ef4:	afc20018 	sw	v0,24(s8)
  long long int j1=5,j2=6,j3;
9d002ef8:	24020005 	li	v0,5
9d002efc:	00001821 	move	v1,zero
9d002f00:	00400013 	mtlo	v0
9d002f04:	00600011 	mthi	v1
9d002f08:	00001012 	mflo	v0
9d002f0c:	00001810 	mfhi	v1
9d002f10:	afc20020 	sw	v0,32(s8)
9d002f14:	afc30024 	sw	v1,36(s8)
9d002f18:	24020006 	li	v0,6
9d002f1c:	00001821 	move	v1,zero
9d002f20:	00400013 	mtlo	v0
9d002f24:	00600011 	mthi	v1
9d002f28:	00001012 	mflo	v0
9d002f2c:	00001810 	mfhi	v1
9d002f30:	afc20028 	sw	v0,40(s8)
9d002f34:	afc3002c 	sw	v1,44(s8)
  float f1=1.01,f2=2.02,f3;
9d002f38:	3c029d00 	lui	v0,0x9d00
9d002f3c:	8c423d48 	lw	v0,15688(v0)
9d002f40:	afc20030 	sw	v0,48(s8)
9d002f44:	3c029d00 	lui	v0,0x9d00
9d002f48:	8c423d4c 	lw	v0,15692(v0)
9d002f4c:	afc20034 	sw	v0,52(s8)
  long double d1=1.01,d2=2.02,d3;
9d002f50:	3c029d00 	lui	v0,0x9d00
9d002f54:	8c433d54 	lw	v1,15700(v0)
9d002f58:	8c423d50 	lw	v0,15696(v0)
9d002f5c:	afc20038 	sw	v0,56(s8)
9d002f60:	afc3003c 	sw	v1,60(s8)
9d002f64:	3c029d00 	lui	v0,0x9d00
9d002f68:	8c433d5c 	lw	v1,15708(v0)
9d002f6c:	8c423d58 	lw	v0,15704(v0)
9d002f70:	afc20040 	sw	v0,64(s8)
9d002f74:	afc30044 	sw	v1,68(s8)

  c3=c1+c2;
9d002f78:	93c30010 	lbu	v1,16(s8)
9d002f7c:	93c20011 	lbu	v0,17(s8)
9d002f80:	00621021 	addu	v0,v1,v0
9d002f84:	304200ff 	andi	v0,v0,0xff
9d002f88:	a3c20048 	sb	v0,72(s8)
  c3=c1-c2;
9d002f8c:	93c30010 	lbu	v1,16(s8)
9d002f90:	93c20011 	lbu	v0,17(s8)
9d002f94:	00621023 	subu	v0,v1,v0
9d002f98:	304200ff 	andi	v0,v0,0xff
9d002f9c:	a3c20048 	sb	v0,72(s8)
  c3=c1*c2;
9d002fa0:	93c30010 	lbu	v1,16(s8)
9d002fa4:	93c20011 	lbu	v0,17(s8)
9d002fa8:	00620018 	mult	v1,v0
9d002fac:	00001812 	mflo	v1
9d002fb0:	306200ff 	andi	v0,v1,0xff
9d002fb4:	a3c20048 	sb	v0,72(s8)
  c3=c1/c2;
9d002fb8:	83c30010 	lb	v1,16(s8)
9d002fbc:	83c20011 	lb	v0,17(s8)
9d002fc0:	0062001a 	div	zero,v1,v0
9d002fc4:	004001f4 	teq	v0,zero,0x7
9d002fc8:	00001010 	mfhi	v0
9d002fcc:	00001012 	mflo	v0
9d002fd0:	a3c20048 	sb	v0,72(s8)

  i3=i1+i2;
9d002fd4:	8fc30014 	lw	v1,20(s8)
9d002fd8:	8fc20018 	lw	v0,24(s8)
9d002fdc:	00621021 	addu	v0,v1,v0
9d002fe0:	afc2004c 	sw	v0,76(s8)
  i3=i1-i2;
9d002fe4:	8fc30014 	lw	v1,20(s8)
9d002fe8:	8fc20018 	lw	v0,24(s8)
9d002fec:	00621023 	subu	v0,v1,v0
9d002ff0:	afc2004c 	sw	v0,76(s8)
  i3=i1*i2;
9d002ff4:	8fc30014 	lw	v1,20(s8)
9d002ff8:	8fc20018 	lw	v0,24(s8)
9d002ffc:	00620018 	mult	v1,v0
9d003000:	00001012 	mflo	v0
9d003004:	afc2004c 	sw	v0,76(s8)
  i3=i1/i2;
9d003008:	8fc30014 	lw	v1,20(s8)
9d00300c:	8fc20018 	lw	v0,24(s8)
9d003010:	0062001a 	div	zero,v1,v0
9d003014:	004001f4 	teq	v0,zero,0x7
9d003018:	00001010 	mfhi	v0
9d00301c:	00001812 	mflo	v1
9d003020:	afc3004c 	sw	v1,76(s8)

  j3=j1+j2;
9d003024:	8fc40020 	lw	a0,32(s8)
9d003028:	8fc50024 	lw	a1,36(s8)
9d00302c:	8fc60028 	lw	a2,40(s8)
9d003030:	8fc7002c 	lw	a3,44(s8)
9d003034:	00861021 	addu	v0,a0,a2
9d003038:	0044402b 	sltu	t0,v0,a0
9d00303c:	00a71821 	addu	v1,a1,a3
9d003040:	01032021 	addu	a0,t0,v1
9d003044:	00801821 	move	v1,a0
9d003048:	afc20050 	sw	v0,80(s8)
9d00304c:	afc30054 	sw	v1,84(s8)
  j3=j1-j2;
9d003050:	8fc40020 	lw	a0,32(s8)
9d003054:	8fc50024 	lw	a1,36(s8)
9d003058:	8fc60028 	lw	a2,40(s8)
9d00305c:	8fc7002c 	lw	a3,44(s8)
9d003060:	00861023 	subu	v0,a0,a2
9d003064:	0082402b 	sltu	t0,a0,v0
9d003068:	00a71823 	subu	v1,a1,a3
9d00306c:	00682023 	subu	a0,v1,t0
9d003070:	00801821 	move	v1,a0
9d003074:	afc20050 	sw	v0,80(s8)
9d003078:	afc30054 	sw	v1,84(s8)
  j3=j1*j2;
9d00307c:	8fc30024 	lw	v1,36(s8)
9d003080:	8fc20028 	lw	v0,40(s8)
9d003084:	70621002 	mul	v0,v1,v0
9d003088:	8fc4002c 	lw	a0,44(s8)
9d00308c:	8fc30020 	lw	v1,32(s8)
9d003090:	00830018 	mult	a0,v1
9d003094:	00001812 	mflo	v1
9d003098:	00432021 	addu	a0,v0,v1
9d00309c:	8fc30020 	lw	v1,32(s8)
9d0030a0:	8fc20028 	lw	v0,40(s8)
9d0030a4:	00620019 	multu	v1,v0
9d0030a8:	00001012 	mflo	v0
9d0030ac:	00001810 	mfhi	v1
9d0030b0:	00832021 	addu	a0,a0,v1
9d0030b4:	00801821 	move	v1,a0
9d0030b8:	afc20050 	sw	v0,80(s8)
9d0030bc:	afc30054 	sw	v1,84(s8)
9d0030c0:	afc20050 	sw	v0,80(s8)
9d0030c4:	afc30054 	sw	v1,84(s8)
  j3=j1/j2;
9d0030c8:	8fc40020 	lw	a0,32(s8)
9d0030cc:	8fc50024 	lw	a1,36(s8)
9d0030d0:	8fc60028 	lw	a2,40(s8)
9d0030d4:	8fc7002c 	lw	a3,44(s8)
9d0030d8:	0f4008ae 	jal	9d0022b8 <__divdi3>
9d0030dc:	00000000 	nop
9d0030e0:	00400013 	mtlo	v0
9d0030e4:	00600011 	mthi	v1
9d0030e8:	00001012 	mflo	v0
9d0030ec:	00001810 	mfhi	v1
9d0030f0:	afc20050 	sw	v0,80(s8)
9d0030f4:	afc30054 	sw	v1,84(s8)

  f3=f1+f2;
9d0030f8:	8fc40030 	lw	a0,48(s8)
9d0030fc:	8fc50034 	lw	a1,52(s8)
9d003100:	0f400d27 	jal	9d00349c <__addsf3>
9d003104:	00000000 	nop
9d003108:	afc20058 	sw	v0,88(s8)
  f3=f1-f2;
9d00310c:	8fc40030 	lw	a0,48(s8)
9d003110:	8fc50034 	lw	a1,52(s8)
9d003114:	0f400d25 	jal	9d003494 <__subsf3>
9d003118:	00000000 	nop
9d00311c:	afc20058 	sw	v0,88(s8)
  f3=f1*f2;
9d003120:	8fc40030 	lw	a0,48(s8)
9d003124:	8fc50034 	lw	a1,52(s8)
9d003128:	0f400e4f 	jal	9d00393c <__mulsf3>
9d00312c:	00000000 	nop
9d003130:	afc20058 	sw	v0,88(s8)
  f3=f1/f2;
9d003134:	8fc40030 	lw	a0,48(s8)
9d003138:	8fc50034 	lw	a1,52(s8)
9d00313c:	0f400dc3 	jal	9d00370c <__divsf3>
9d003140:	00000000 	nop
9d003144:	afc20058 	sw	v0,88(s8)

  d3=d1+d2;
9d003148:	8fc40038 	lw	a0,56(s8)
9d00314c:	8fc5003c 	lw	a1,60(s8)
9d003150:	8fc60040 	lw	a2,64(s8)
9d003154:	8fc70044 	lw	a3,68(s8)
9d003158:	0f4009dd 	jal	9d002774 <__adddf3>
9d00315c:	00000000 	nop
9d003160:	afc20060 	sw	v0,96(s8)
9d003164:	afc30064 	sw	v1,100(s8)
  d3=d1-d2;
9d003168:	8fc40038 	lw	a0,56(s8)
9d00316c:	8fc5003c 	lw	a1,60(s8)
9d003170:	8fc60040 	lw	a2,64(s8)
9d003174:	8fc70044 	lw	a3,68(s8)
9d003178:	0f4009db 	jal	9d00276c <.LFE1>
9d00317c:	00000000 	nop
9d003180:	afc20060 	sw	v0,96(s8)
9d003184:	afc30064 	sw	v1,100(s8)
  d3=d1*d2;
9d003188:	8fc40038 	lw	a0,56(s8)
9d00318c:	8fc5003c 	lw	a1,60(s8)
9d003190:	8fc60040 	lw	a2,64(s8)
9d003194:	8fc70044 	lw	a3,68(s8)
9d003198:	0f400ae7 	jal	9d002b9c <__muldf3>
9d00319c:	00000000 	nop
9d0031a0:	afc20060 	sw	v0,96(s8)
9d0031a4:	afc30064 	sw	v1,100(s8)
  d3=d1/d2;
9d0031a8:	8fc40038 	lw	a0,56(s8)
9d0031ac:	8fc5003c 	lw	a1,60(s8)
9d0031b0:	8fc60040 	lw	a2,64(s8)
9d0031b4:	8fc70044 	lw	a3,68(s8)
9d0031b8:	0f400780 	jal	9d001e00 <__divdf3>
9d0031bc:	00000000 	nop
9d0031c0:	afc20060 	sw	v0,96(s8)
9d0031c4:	afc30064 	sw	v1,100(s8)

  }
9d0031c8:	03c0e821 	move	sp,s8
9d0031cc:	8fbf006c 	lw	ra,108(sp)
9d0031d0:	8fbe0068 	lw	s8,104(sp)
9d0031d4:	27bd0070 	addiu	sp,sp,112
9d0031d8:	03e00008 	jr	ra
9d0031dc:	00000000 	nop

9d0031e0 <NU32_Startup>:

// Perform startup routines:
//  Make NU32_LED1 and NU32_LED2 pins outputs (NU32_USER is by default an input)
//  Initialize the serial port - UART3 (no interrupt) 
//  Enable interrupts
void NU32_Startup() {
9d0031e0:	27bdfff8 	addiu	sp,sp,-8
9d0031e4:	afbf0004 	sw	ra,4(sp)
9d0031e8:	afbe0000 	sw	s8,0(sp)
9d0031ec:	03a0f021 	move	s8,sp
  // disable interrupts
  __builtin_disable_interrupts();
9d0031f0:	41626000 	di	v0
9d0031f4:	000000c0 	ehb
9d0031f8:	00000000 	nop
  // see Chapter 2 "CPU for Devices with M4K Core" of the PIC32 reference manual
  // most of the other bits have prescribed values
  // microchip does not provide a _CP0_SET_CONFIG macro, so we directly use
  // the compiler built-in command _mtc0
  // to disable cache, use 0xa4210582 
  __builtin_mtc0(_CP0_CONFIG, _CP0_CONFIG_SELECT, 0xa4210583); 
9d0031fc:	3c02a421 	lui	v0,0xa421
9d003200:	34420583 	ori	v0,v0,0x583
9d003204:	40828000 	mtc0	v0,c0_config
9d003208:	000000c0 	ehb
  
  // set the prefectch cache wait state to 2, as per the
  // electrical characteristics data sheet
  CHECONbits.PFMWS = 0x2;   
9d00320c:	3c03bf88 	lui	v1,0xbf88
9d003210:	8c624000 	lw	v0,16384(v1)
9d003214:	24040002 	li	a0,2
9d003218:	7c821004 	ins	v0,a0,0x0,0x3
9d00321c:	ac624000 	sw	v0,16384(v1)

  //enable prefetch for cacheable and noncacheable memory
  CHECONbits.PREFEN = 0x3; 
9d003220:	3c03bf88 	lui	v1,0xbf88
9d003224:	8c624000 	lw	v0,16384(v1)
9d003228:	24040003 	li	a0,3
9d00322c:	7c822904 	ins	v0,a0,0x4,0x2
9d003230:	ac624000 	sw	v0,16384(v1)

  // 0 data RAM access wait states
  BMXCONbits.BMXWSDRM = 0x0;
9d003234:	3c03bf88 	lui	v1,0xbf88
9d003238:	8c622000 	lw	v0,8192(v1)
9d00323c:	7c023184 	ins	v0,zero,0x6,0x1
9d003240:	ac622000 	sw	v0,8192(v1)
  
  // enable multi vector interrupts
  INTCONbits.MVEC = 0x1;
9d003244:	3c03bf88 	lui	v1,0xbf88
9d003248:	8c621000 	lw	v0,4096(v1)
9d00324c:	24040001 	li	a0,1
9d003250:	7c826304 	ins	v0,a0,0xc,0x1
9d003254:	ac621000 	sw	v0,4096(v1)

  // disable JTAG to get B10, B11, B12 and B13 back
  DDPCONbits.JTAGEN = 0;
9d003258:	3c03bf81 	lui	v1,0xbf81
9d00325c:	9062f200 	lbu	v0,-3584(v1)
9d003260:	7c0218c4 	ins	v0,zero,0x3,0x1
9d003264:	a062f200 	sb	v0,-3584(v1)

  TRISFCLR = 0x0003;  // Make F0 and F1 outputs (LED1 and LED2)
9d003268:	3c02bf88 	lui	v0,0xbf88
9d00326c:	24030003 	li	v1,3
9d003270:	ac436144 	sw	v1,24900(v0)
  NU32_LED1 = 1;      // LED1 is off
9d003274:	3c03bf88 	lui	v1,0xbf88
9d003278:	90626160 	lbu	v0,24928(v1)
9d00327c:	24040001 	li	a0,1
9d003280:	7c820004 	ins	v0,a0,0x0,0x1
9d003284:	a0626160 	sb	v0,24928(v1)
  NU32_LED2 = 0;      // LED2 is on
9d003288:	3c03bf88 	lui	v1,0xbf88
9d00328c:	90626160 	lbu	v0,24928(v1)
9d003290:	7c020844 	ins	v0,zero,0x1,0x1
9d003294:	a0626160 	sb	v0,24928(v1)

  // turn on UART3 without an interrupt
  U3MODEbits.BRGH = 0; // set baud to NU32_DESIRED_BAUD
9d003298:	3c03bf80 	lui	v1,0xbf80
9d00329c:	94626400 	lhu	v0,25600(v1)
9d0032a0:	7c0218c4 	ins	v0,zero,0x3,0x1
9d0032a4:	a4626400 	sh	v0,25600(v1)
  U3BRG = ((NU32_SYS_FREQ / NU32_DESIRED_BAUD) / 16) - 1;
9d0032a8:	3c02bf80 	lui	v0,0xbf80
9d0032ac:	24030014 	li	v1,20
9d0032b0:	ac436440 	sw	v1,25664(v0)

  // 8 bit, no parity bit, and 1 stop bit (8N1 setup)
  U3MODEbits.PDSEL = 0;
9d0032b4:	3c03bf80 	lui	v1,0xbf80
9d0032b8:	94626400 	lhu	v0,25600(v1)
9d0032bc:	7c021044 	ins	v0,zero,0x1,0x2
9d0032c0:	a4626400 	sh	v0,25600(v1)
  U3MODEbits.STSEL = 0;
9d0032c4:	3c03bf80 	lui	v1,0xbf80
9d0032c8:	94626400 	lhu	v0,25600(v1)
9d0032cc:	7c020004 	ins	v0,zero,0x0,0x1
9d0032d0:	a4626400 	sh	v0,25600(v1)

  // configure TX & RX pins as output & input pins
  U3STAbits.UTXEN = 1;
9d0032d4:	3c03bf80 	lui	v1,0xbf80
9d0032d8:	8c626410 	lw	v0,25616(v1)
9d0032dc:	24040001 	li	a0,1
9d0032e0:	7c825284 	ins	v0,a0,0xa,0x1
9d0032e4:	ac626410 	sw	v0,25616(v1)
  U3STAbits.URXEN = 1;
9d0032e8:	3c03bf80 	lui	v1,0xbf80
9d0032ec:	8c626410 	lw	v0,25616(v1)
9d0032f0:	24040001 	li	a0,1
9d0032f4:	7c826304 	ins	v0,a0,0xc,0x1
9d0032f8:	ac626410 	sw	v0,25616(v1)
  // configure hardware flow control using RTS and CTS
  U3MODEbits.UEN = 2;
9d0032fc:	3c03bf80 	lui	v1,0xbf80
9d003300:	94626400 	lhu	v0,25600(v1)
9d003304:	24040002 	li	a0,2
9d003308:	7c824a04 	ins	v0,a0,0x8,0x2
9d00330c:	a4626400 	sh	v0,25600(v1)

  // enable the uart
  U3MODEbits.ON = 1;
9d003310:	3c03bf80 	lui	v1,0xbf80
9d003314:	94626400 	lhu	v0,25600(v1)
9d003318:	24040001 	li	a0,1
9d00331c:	7c827bc4 	ins	v0,a0,0xf,0x1
9d003320:	a4626400 	sh	v0,25600(v1)

  __builtin_enable_interrupts();
9d003324:	41626020 	ei	v0
}
9d003328:	03c0e821 	move	sp,s8
9d00332c:	8fbf0004 	lw	ra,4(sp)
9d003330:	8fbe0000 	lw	s8,0(sp)
9d003334:	27bd0008 	addiu	sp,sp,8
9d003338:	03e00008 	jr	ra
9d00333c:	00000000 	nop

9d003340 <NU32_ReadUART3>:

// Read from UART3
// block other functions until you get a '\r' or '\n'
// send the pointer to your char array and the number of elements in the array
void NU32_ReadUART3(char * message, int maxLength) {
9d003340:	27bdffe8 	addiu	sp,sp,-24
9d003344:	afbe0014 	sw	s8,20(sp)
9d003348:	03a0f021 	move	s8,sp
9d00334c:	afc40018 	sw	a0,24(s8)
9d003350:	afc5001c 	sw	a1,28(s8)
  char data = 0;
9d003354:	a3c00008 	sb	zero,8(s8)
  int complete = 0, num_bytes = 0;
9d003358:	afc00000 	sw	zero,0(s8)
9d00335c:	afc00004 	sw	zero,4(s8)
  // loop until you get a '\r' or '\n'
  while (!complete) {
9d003360:	0b400cfc 	j	9d0033f0 <NU32_ReadUART3+0xb0>
9d003364:	00000000 	nop
    if (U3STAbits.URXDA) { // if data is available
9d003368:	3c02bf80 	lui	v0,0xbf80
9d00336c:	8c426410 	lw	v0,25616(v0)
9d003370:	30420001 	andi	v0,v0,0x1
9d003374:	1040001e 	beqz	v0,9d0033f0 <NU32_ReadUART3+0xb0>
9d003378:	00000000 	nop
      data = U3RXREG;      // read the data
9d00337c:	3c02bf80 	lui	v0,0xbf80
9d003380:	8c426430 	lw	v0,25648(v0)
9d003384:	a3c20008 	sb	v0,8(s8)
      if ((data == '\n') || (data == '\r')) {
9d003388:	83c30008 	lb	v1,8(s8)
9d00338c:	2402000a 	li	v0,10
9d003390:	10620005 	beq	v1,v0,9d0033a8 <NU32_ReadUART3+0x68>
9d003394:	00000000 	nop
9d003398:	83c30008 	lb	v1,8(s8)
9d00339c:	2402000d 	li	v0,13
9d0033a0:	14620005 	bne	v1,v0,9d0033b8 <NU32_ReadUART3+0x78>
9d0033a4:	00000000 	nop
        complete = 1;
9d0033a8:	24020001 	li	v0,1
9d0033ac:	afc20000 	sw	v0,0(s8)
9d0033b0:	0b400cfc 	j	9d0033f0 <NU32_ReadUART3+0xb0>
9d0033b4:	00000000 	nop
      } else {
        message[num_bytes] = data;
9d0033b8:	8fc20004 	lw	v0,4(s8)
9d0033bc:	8fc30018 	lw	v1,24(s8)
9d0033c0:	00621021 	addu	v0,v1,v0
9d0033c4:	93c30008 	lbu	v1,8(s8)
9d0033c8:	a0430000 	sb	v1,0(v0)
        ++num_bytes;
9d0033cc:	8fc20004 	lw	v0,4(s8)
9d0033d0:	24420001 	addiu	v0,v0,1
9d0033d4:	afc20004 	sw	v0,4(s8)
        // roll over if the array is too small
        if (num_bytes >= maxLength) {
9d0033d8:	8fc30004 	lw	v1,4(s8)
9d0033dc:	8fc2001c 	lw	v0,28(s8)
9d0033e0:	0062102a 	slt	v0,v1,v0
9d0033e4:	14400002 	bnez	v0,9d0033f0 <NU32_ReadUART3+0xb0>
9d0033e8:	00000000 	nop
          num_bytes = 0;
9d0033ec:	afc00004 	sw	zero,4(s8)
// send the pointer to your char array and the number of elements in the array
void NU32_ReadUART3(char * message, int maxLength) {
  char data = 0;
  int complete = 0, num_bytes = 0;
  // loop until you get a '\r' or '\n'
  while (!complete) {
9d0033f0:	8fc20000 	lw	v0,0(s8)
9d0033f4:	1040ffdc 	beqz	v0,9d003368 <NU32_ReadUART3+0x28>
9d0033f8:	00000000 	nop
        }
      }
    }
  }
  // end the string
  message[num_bytes] = '\0';
9d0033fc:	8fc20004 	lw	v0,4(s8)
9d003400:	8fc30018 	lw	v1,24(s8)
9d003404:	00621021 	addu	v0,v1,v0
9d003408:	a0400000 	sb	zero,0(v0)
}
9d00340c:	03c0e821 	move	sp,s8
9d003410:	8fbe0014 	lw	s8,20(sp)
9d003414:	27bd0018 	addiu	sp,sp,24
9d003418:	03e00008 	jr	ra
9d00341c:	00000000 	nop

9d003420 <NU32_WriteUART3>:

// Write a character array using UART3
void NU32_WriteUART3(const char * string) {
9d003420:	27bdfff8 	addiu	sp,sp,-8
9d003424:	afbe0004 	sw	s8,4(sp)
9d003428:	03a0f021 	move	s8,sp
9d00342c:	afc40008 	sw	a0,8(s8)
  while (*string != '\0') {
9d003430:	0b400d1c 	j	9d003470 <NU32_WriteUART3+0x50>
9d003434:	00000000 	nop
    while (U3STAbits.UTXBF) {
9d003438:	00000000 	nop
9d00343c:	3c02bf80 	lui	v0,0xbf80
9d003440:	8c426410 	lw	v0,25616(v0)
9d003444:	30420200 	andi	v0,v0,0x200
9d003448:	1440fffc 	bnez	v0,9d00343c <NU32_WriteUART3+0x1c>
9d00344c:	00000000 	nop
      ; // wait until tx buffer isn't full
    }
    U3TXREG = *string;
9d003450:	8fc20008 	lw	v0,8(s8)
9d003454:	80420000 	lb	v0,0(v0)
9d003458:	00401821 	move	v1,v0
9d00345c:	3c02bf80 	lui	v0,0xbf80
9d003460:	ac436420 	sw	v1,25632(v0)
    ++string;
9d003464:	8fc20008 	lw	v0,8(s8)
9d003468:	24420001 	addiu	v0,v0,1
9d00346c:	afc20008 	sw	v0,8(s8)
  message[num_bytes] = '\0';
}

// Write a character array using UART3
void NU32_WriteUART3(const char * string) {
  while (*string != '\0') {
9d003470:	8fc20008 	lw	v0,8(s8)
9d003474:	80420000 	lb	v0,0(v0)
9d003478:	1440ffef 	bnez	v0,9d003438 <NU32_WriteUART3+0x18>
9d00347c:	00000000 	nop
      ; // wait until tx buffer isn't full
    }
    U3TXREG = *string;
    ++string;
  }
}
9d003480:	03c0e821 	move	sp,s8
9d003484:	8fbe0004 	lw	s8,4(sp)
9d003488:	27bd0008 	addiu	sp,sp,8
9d00348c:	03e00008 	jr	ra
9d003490:	00000000 	nop

Disassembly of section .text.fpsubadd:

9d003494 <__subsf3>:
9d003494:	3c018000 00a12826                       ...<&(..

9d00349c <__addsf3>:
9d00349c:	00044dc2 312900ff 00055dc2 316b00ff     .M....)1.]....k1
9d0034ac:	3c078000 00044200 01074025 00055200     ...<.B..%@...R..
9d0034bc:	01475025 252dffff 2da100fe 10200061     %PG...-%...-a. .
9d0034cc:	00000000                                ....

9d0034d0 <Blab1>:
9d0034d0:	256dffff 	addiu	t5,t3,-1
9d0034d4:	2da100fe 	sltiu	at,t5,254
9d0034d8:	10200077 	beqz	at,9d0036b8 <BspecB>
9d0034dc:	00000000 	nop

9d0034e0 <Blab2>:
9d0034e0:	012b6023 	subu	t4,t1,t3
9d0034e4:	0580000d 	bltz	t4,9d00351c <i1>
9d0034e8:	00000000 	nop
9d0034ec:	29810020 	slti	at,t4,32
9d0034f0:	14200003 	bnez	at,9d003500 <i2>
9d0034f4:	00000000 	nop
9d0034f8:	10000015 	b	9d003550 <e1>
9d0034fc:	240a0002 	li	t2,2

9d003500 <i2>:
9d003500:	000a3025 	or	a2,zero,t2
9d003504:	018a5006 	srlv	t2,t2,t4
9d003508:	018a6804 	sllv	t5,t2,t4
9d00350c:	11a60010 	beq	t5,a2,9d003550 <e1>
9d003510:	00000000 	nop
9d003514:	1000000e 	b	9d003550 <e1>
9d003518:	354a0002 	ori	t2,t2,0x2

9d00351c <i1>:
9d00351c:	000b4825 	or	t1,zero,t3
9d003520:	000c6023 	negu	t4,t4
9d003524:	29810020 	slti	at,t4,32
9d003528:	14200003 	bnez	at,9d003538 <i4>
9d00352c:	00000000 	nop
9d003530:	10000007 	b	9d003550 <e1>
9d003534:	24080002 	li	t0,2

9d003538 <i4>:
9d003538:	00083025 	or	a2,zero,t0
9d00353c:	01884006 	srlv	t0,t0,t4
9d003540:	01886804 	sllv	t5,t0,t4
9d003544:	11a60002 	beq	t5,a2,9d003550 <e1>
9d003548:	00000000 	nop
9d00354c:	35080002 	ori	t0,t0,0x2

9d003550 <e1>:
9d003550:	00876024 	and	t4,a0,a3
9d003554:	01856826 	xor	t5,t4,a1
9d003558:	05a00010 	bltz	t5,9d00359c <Bsub1>
9d00355c:	00000000 	nop
9d003560:	010a4021 	addu	t0,t0,t2
9d003564:	010a682b 	sltu	t5,t0,t2
9d003568:	11a00017 	beqz	t5,9d0035c8 <Bres>
9d00356c:	00000000 	nop
9d003570:	310d0001 	andi	t5,t0,0x1
9d003574:	11a00002 	beqz	t5,9d003580 <i7>
9d003578:	00000000 	nop
9d00357c:	35080002 	ori	t0,t0,0x2

9d003580 <i7>:
9d003580:	00084042 	srl	t0,t0,0x1
9d003584:	25290001 	addiu	t1,t1,1
9d003588:	240100ff 	li	at,255
9d00358c:	1521000e 	bne	t1,at,9d0035c8 <Bres>
9d003590:	00000000 	nop
9d003594:	1000000c 	b	9d0035c8 <Bres>
9d003598:	24080000 	li	t0,0

9d00359c <Bsub1>:
9d00359c:	010a682b 	sltu	t5,t0,t2
9d0035a0:	11a00004 	beqz	t5,9d0035b4 <i9>
9d0035a4:	010a4023 	subu	t0,t0,t2
9d0035a8:	00084023 	negu	t0,t0
9d0035ac:	10000003 	b	9d0035bc <e9>
9d0035b0:	01876026 	xor	t4,t4,a3

9d0035b4 <i9>:
9d0035b4:	11000050 	beqz	t0,9d0036f8 <Bzer>
9d0035b8:	00000000 	nop

9d0035bc <e9>:
9d0035bc:	71063020 	clz	a2,t0
9d0035c0:	01264823 	subu	t1,t1,a2
9d0035c4:	00c84004 	sllv	t0,t0,a2

9d0035c8 <Bres>:
9d0035c8:	1920000e 	blez	t1,9d003604 <Bund>
9d0035cc:	00000000 	nop

9d0035d0 <Blab12>:
9d0035d0:	25080080 	addiu	t0,t0,128
9d0035d4:	2d0d0080 	sltiu	t5,t0,128
9d0035d8:	012d4821 	addu	t1,t1,t5
9d0035dc:	00086a02 	srl	t5,t0,0x8
9d0035e0:	31ad0001 	andi	t5,t5,0x1
9d0035e4:	010d4023 	subu	t0,t0,t5
9d0035e8:	00084040 	sll	t0,t0,0x1
9d0035ec:	00084242 	srl	t0,t0,0x9
9d0035f0:	00096dc0 	sll	t5,t1,0x17
9d0035f4:	010d4025 	or	t0,t0,t5
9d0035f8:	010c1025 	or	v0,t0,t4

9d0035fc <B999>:
9d0035fc:	03e00008 	jr	ra
9d003600:	00000000 	nop

9d003604 <Bund>:
9d003604:	24060001 	li	a2,1
9d003608:	00c93023 	subu	a2,a2,t1
9d00360c:	2cc10020 	sltiu	at,a2,32
9d003610:	10200039 	beqz	at,9d0036f8 <Bzer>
9d003614:	00000000 	nop
9d003618:	3c018000 	lui	at,0x8000
9d00361c:	01014025 	or	t0,t0,at
9d003620:	240d0020 	li	t5,32
9d003624:	01a66823 	subu	t5,t5,a2
9d003628:	01a84804 	sllv	t1,t0,t5
9d00362c:	11200002 	beqz	t1,9d003638 <i10>
9d003630:	00c84006 	srlv	t0,t0,a2
9d003634:	35080001 	ori	t0,t0,0x1

9d003638 <i10>:
9d003638:	24090000 	li	t1,0
9d00363c:	250d0080 	addiu	t5,t0,128
9d003640:	05a1ffe3 	bgez	t5,9d0035d0 <Blab12>
9d003644:	00000000 	nop
9d003648:	1000ffe1 	b	9d0035d0 <Blab12>
9d00364c:	24090001 	li	t1,1

9d003650 <BspecA>:
9d003650:	1520000e 	bnez	t1,9d00368c <i12>
9d003654:	00000000 	nop
9d003658:	01084021 	addu	t0,t0,t0
9d00365c:	11000005 	beqz	t0,9d003674 <i13>
9d003660:	00000000 	nop
9d003664:	710c6020 	clz	t4,t0
9d003668:	012c4823 	subu	t1,t1,t4
9d00366c:	1000ff98 	b	9d0034d0 <Blab1>
9d003670:	01884004 	sllv	t0,t0,t4

9d003674 <i13>:
9d003674:	240100ff 	li	at,255
9d003678:	1161000f 	beq	t3,at,9d0036b8 <BspecB>
9d00367c:	00000000 	nop
9d003680:	3c018000 	lui	at,0x8000
9d003684:	14a10018 	bne	a1,at,9d0036e8 <BretB>
9d003688:	00000000 	nop

9d00368c <i12>:
9d00368c:	01086821 	addu	t5,t0,t0
9d003690:	15a0001b 	bnez	t5,9d003700 <Bnan>
9d003694:	00000000 	nop
9d003698:	240100ff 	li	at,255
9d00369c:	15610014 	bne	t3,at,9d0036f0 <BretA>
9d0036a0:	00000000 	nop
9d0036a4:	00856826 	xor	t5,a0,a1
9d0036a8:	05a00015 	bltz	t5,9d003700 <Bnan>
9d0036ac:	00000000 	nop
9d0036b0:	1000000d 	b	9d0036e8 <BretB>
9d0036b4:	00000000 	nop

9d0036b8 <BspecB>:
9d0036b8:	15600008 	bnez	t3,9d0036dc <i15>
9d0036bc:	00000000 	nop
9d0036c0:	014a5021 	addu	t2,t2,t2
9d0036c4:	1140000a 	beqz	t2,9d0036f0 <BretA>
9d0036c8:	00000000 	nop
9d0036cc:	714c6020 	clz	t4,t2
9d0036d0:	016c5823 	subu	t3,t3,t4
9d0036d4:	1000ff82 	b	9d0034e0 <Blab2>
9d0036d8:	018a5004 	sllv	t2,t2,t4

9d0036dc <i15>:
9d0036dc:	014a6821 	addu	t5,t2,t2
9d0036e0:	15a00007 	bnez	t5,9d003700 <Bnan>
9d0036e4:	00000000 	nop

9d0036e8 <BretB>:
9d0036e8:	1000ffc4 	b	9d0035fc <B999>
9d0036ec:	00051025 	or	v0,zero,a1

9d0036f0 <BretA>:
9d0036f0:	1000ffc2 	b	9d0035fc <B999>
9d0036f4:	00041025 	or	v0,zero,a0

9d0036f8 <Bzer>:
9d0036f8:	1000ffc0 	b	9d0035fc <B999>
9d0036fc:	24020000 	li	v0,0

9d003700 <Bnan>:
9d003700:	1000ffbe 	b	9d0035fc <B999>
9d003704:	3c02ffc0 	lui	v0,0xffc0
9d003708:	00000000 	nop

Disassembly of section .text.fp32div:

9d00370c <__divsf3>:
9d00370c:	3c0b8000 000445c2 310800ff 000555c2     ...<.E.....1.U..
9d00371c:	314a00ff 00043a00 00eb3825 00054a00     ..J1.:..%8...J..
9d00372c:	012b4825 00857026 016e5824 250effff     %H+.&p..$Xn....%
9d00373c:	2dc100fe 1020003f 00000000              ...-?. .....

9d003748 <Dlab1>:
9d003748:	254effff 	addiu	t6,t2,-1
9d00374c:	2dc100fe 	sltiu	at,t6,254
9d003750:	10200053 	beqz	at,9d0038a0 <DspecB>
9d003754:	00000000 	nop

9d003758 <Dlab2>:
9d003758:	00e9082b 	sltu	at,a3,t1
9d00375c:	14200003 	bnez	at,9d00376c <i27>
9d003760:	00000000 	nop
9d003764:	00073842 	srl	a3,a3,0x1
9d003768:	25080001 	addiu	t0,t0,1

9d00376c <i27>:
9d00376c:	00096382 	srl	t4,t1,0xe
9d003770:	018001f4 	teq	t4,zero,0x7
9d003774:	00ec001b 	divu	zero,a3,t4
9d003778:	00002012 	mflo	a0
9d00377c:	00003010 	mfhi	a2
9d003780:	312d3fff 	andi	t5,t1,0x3fff
9d003784:	01a40019 	multu	t5,a0
9d003788:	00002812 	mflo	a1
9d00378c:	00063380 	sll	a2,a2,0xe
9d003790:	00c5702b 	sltu	t6,a2,a1
9d003794:	11c00004 	beqz	t6,9d0037a8 <i28>
9d003798:	00c53023 	subu	a2,a2,a1
9d00379c:	2484ffff 	addiu	a0,a0,-1
9d0037a0:	00c93021 	addu	a2,a2,t1
9d0037a4:	00c9702b 	sltu	t6,a2,t1

9d0037a8 <i28>:
9d0037a8:	018001f4 	teq	t4,zero,0x7
9d0037ac:	00cc001b 	divu	zero,a2,t4
9d0037b0:	00003812 	mflo	a3
9d0037b4:	00003010 	mfhi	a2
9d0037b8:	01a70019 	multu	t5,a3
9d0037bc:	00002812 	mflo	a1
9d0037c0:	00063380 	sll	a2,a2,0xe
9d0037c4:	00c5702b 	sltu	t6,a2,a1
9d0037c8:	11c00004 	beqz	t6,9d0037dc <i29>
9d0037cc:	00c53023 	subu	a2,a2,a1
9d0037d0:	24e7ffff 	addiu	a3,a3,-1
9d0037d4:	00c93021 	addu	a2,a2,t1
9d0037d8:	00c9702b 	sltu	t6,a2,t1

9d0037dc <i29>:
9d0037dc:	00047380 	sll	t6,a0,0xe
9d0037e0:	00ee3821 	addu	a3,a3,t6
9d0037e4:	10c00002 	beqz	a2,9d0037f0 <i30>
9d0037e8:	00073900 	sll	a3,a3,0x4
9d0037ec:	34e70001 	ori	a3,a3,0x1

9d0037f0 <i30>:
9d0037f0:	240e007e 	li	t6,126
9d0037f4:	01ca7023 	subu	t6,t6,t2
9d0037f8:	010e4021 	addu	t0,t0,t6
9d0037fc:	250effff 	addiu	t6,t0,-1
9d003800:	2dc100fe 	sltiu	at,t6,254
9d003804:	10200034 	beqz	at,9d0038d8 <Doveund>
9d003808:	00000000 	nop

9d00380c <Dlab8>:
9d00380c:	24e70080 	addiu	a3,a3,128
9d003810:	2cee0080 	sltiu	t6,a3,128
9d003814:	010e4021 	addu	t0,t0,t6
9d003818:	00077202 	srl	t6,a3,0x8
9d00381c:	31ce0001 	andi	t6,t6,0x1
9d003820:	00ee3823 	subu	a3,a3,t6
9d003824:	00073840 	sll	a3,a3,0x1
9d003828:	00073a42 	srl	a3,a3,0x9
9d00382c:	000875c0 	sll	t6,t0,0x17
9d003830:	00ee3825 	or	a3,a3,t6
9d003834:	00eb1025 	or	v0,a3,t3

9d003838 <D999>:
9d003838:	03e00008 	jr	ra
9d00383c:	00000000 	nop

9d003840 <DspecA>:
9d003840:	15000008 	bnez	t0,9d003864 <i31>
9d003844:	00000000 	nop
9d003848:	00e73821 	addu	a3,a3,a3
9d00384c:	10e00005 	beqz	a3,9d003864 <i31>
9d003850:	00000000 	nop
9d003854:	70ec6020 	clz	t4,a3
9d003858:	010c4023 	subu	t0,t0,t4
9d00385c:	1000ffba 	b	9d003748 <Dlab1>
9d003860:	01873804 	sllv	a3,a3,t4

9d003864 <i31>:
9d003864:	15480004 	bne	t2,t0,9d003878 <i33>
9d003868:	00000000 	nop
9d00386c:	01297021 	addu	t6,t1,t1
9d003870:	11c0002f 	beqz	t6,9d003930 <Dnan>
9d003874:	00000000 	nop

9d003878 <i33>:
9d003878:	240100ff 	li	at,255
9d00387c:	11410008 	beq	t2,at,9d0038a0 <DspecB>
9d003880:	00000000 	nop
9d003884:	11000012 	beqz	t0,9d0038d0 <Dzer>
9d003888:	00000000 	nop
9d00388c:	00e77021 	addu	t6,a3,a3
9d003890:	15c00027 	bnez	t6,9d003930 <Dnan>
9d003894:	00000000 	nop
9d003898:	10000022 	b	9d003924 <Dinf>
9d00389c:	00000000 	nop

9d0038a0 <DspecB>:
9d0038a0:	15400008 	bnez	t2,9d0038c4 <i34>
9d0038a4:	00000000 	nop
9d0038a8:	01294821 	addu	t1,t1,t1
9d0038ac:	1120001d 	beqz	t1,9d003924 <Dinf>
9d0038b0:	00000000 	nop
9d0038b4:	712c6020 	clz	t4,t1
9d0038b8:	014c5023 	subu	t2,t2,t4
9d0038bc:	1000ffa6 	b	9d003758 <Dlab2>
9d0038c0:	01894804 	sllv	t1,t1,t4

9d0038c4 <i34>:
9d0038c4:	01297021 	addu	t6,t1,t1
9d0038c8:	15c00019 	bnez	t6,9d003930 <Dnan>
9d0038cc:	00000000 	nop

9d0038d0 <Dzer>:
9d0038d0:	1000ffd9 	b	9d003838 <D999>
9d0038d4:	000b1025 	or	v0,zero,t3

9d0038d8 <Doveund>:
9d0038d8:	1d000012 	bgtz	t0,9d003924 <Dinf>
9d0038dc:	00000000 	nop
9d0038e0:	240c0001 	li	t4,1
9d0038e4:	01886023 	subu	t4,t4,t0
9d0038e8:	2d810020 	sltiu	at,t4,32
9d0038ec:	1020fff8 	beqz	at,9d0038d0 <Dzer>
9d0038f0:	00000000 	nop
9d0038f4:	240e0020 	li	t6,32
9d0038f8:	01cc7023 	subu	t6,t6,t4
9d0038fc:	01c74004 	sllv	t0,a3,t6
9d003900:	11000002 	beqz	t0,9d00390c <i37>
9d003904:	01873806 	srlv	a3,a3,t4
9d003908:	34e70002 	ori	a3,a3,0x2

9d00390c <i37>:
9d00390c:	24080000 	li	t0,0
9d003910:	24ee0080 	addiu	t6,a3,128
9d003914:	05c1ffbd 	bgez	t6,9d00380c <Dlab8>
9d003918:	00000000 	nop
9d00391c:	1000ffbb 	b	9d00380c <Dlab8>
9d003920:	24080001 	li	t0,1

9d003924 <Dinf>:
9d003924:	3c017f80 	lui	at,0x7f80
9d003928:	1000ffc3 	b	9d003838 <D999>
9d00392c:	01611025 	or	v0,t3,at

9d003930 <Dnan>:
9d003930:	1000ffc1 	b	9d003838 <D999>
9d003934:	3c02ffc0 	lui	v0,0xffc0
9d003938:	00000000 	nop

Disassembly of section .text.fp32mul:

9d00393c <__mulsf3>:
9d00393c:	00043dc2 30e700ff 00054dc2 312900ff     .=.....0.M....)1
9d00394c:	3c0a8000 00043200 00ca3025 00054200     ...<.2..%0...B..
9d00395c:	010a4025 00856026 014c5024 24ecffff     %@..&`..$PL....$
9d00396c:	2d8100fe 10200021 00000000              ...-!. .....

9d003978 <Clab1>:
9d003978:	252cffff 	addiu	t4,t1,-1
9d00397c:	2d8100fe 	sltiu	at,t4,254
9d003980:	10200036 	beqz	at,9d003a5c <CspecB>
9d003984:	00000000 	nop

9d003988 <Clab2>:
9d003988:	00c80019 	multu	a2,t0
9d00398c:	00005812 	mflo	t3
9d003990:	11600002 	beqz	t3,9d00399c <i17>
9d003994:	00003010 	mfhi	a2
9d003998:	34c60001 	ori	a2,a2,0x1

9d00399c <i17>:
9d00399c:	04c00003 	bltz	a2,9d0039ac <i18>
9d0039a0:	00000000 	nop
9d0039a4:	00063040 	sll	a2,a2,0x1
9d0039a8:	24e7ffff 	addiu	a3,a3,-1

9d0039ac <i18>:
9d0039ac:	252cff82 	addiu	t4,t1,-126
9d0039b0:	00ec3821 	addu	a3,a3,t4
9d0039b4:	24ecffff 	addiu	t4,a3,-1
9d0039b8:	2d8100fe 	sltiu	at,t4,254
9d0039bc:	1020003a 	beqz	at,9d003aa8 <Coveund>
9d0039c0:	00000000 	nop

9d0039c4 <Clab8>:
9d0039c4:	24c60080 	addiu	a2,a2,128
9d0039c8:	2ccc0080 	sltiu	t4,a2,128
9d0039cc:	00ec3821 	addu	a3,a3,t4
9d0039d0:	00066202 	srl	t4,a2,0x8
9d0039d4:	318c0001 	andi	t4,t4,0x1
9d0039d8:	00cc3023 	subu	a2,a2,t4
9d0039dc:	00063040 	sll	a2,a2,0x1
9d0039e0:	00063242 	srl	a2,a2,0x9
9d0039e4:	000765c0 	sll	t4,a3,0x17
9d0039e8:	00cc3025 	or	a2,a2,t4
9d0039ec:	00ca1025 	or	v0,a2,t2

9d0039f0 <C999>:
9d0039f0:	03e00008 	jr	ra
9d0039f4:	00000000 	nop

9d0039f8 <CspecA>:
9d0039f8:	14e0000d 	bnez	a3,9d003a30 <i19>
9d0039fc:	00000000 	nop
9d003a00:	00c63021 	addu	a2,a2,a2
9d003a04:	10c00005 	beqz	a2,9d003a1c <i20>
9d003a08:	00000000 	nop
9d003a0c:	70cb5820 	clz	t3,a2
9d003a10:	00eb3823 	subu	a3,a3,t3
9d003a14:	1000ffd8 	b	9d003978 <Clab1>
9d003a18:	01663004 	sllv	a2,a2,t3

9d003a1c <i20>:
9d003a1c:	240100ff 	li	at,255
9d003a20:	1121001f 	beq	t1,at,9d003aa0 <Cnan>
9d003a24:	00000000 	nop
9d003a28:	10000015 	b	9d003a80 <Czer>
9d003a2c:	00000000 	nop

9d003a30 <i19>:
9d003a30:	00c66021 	addu	t4,a2,a2
9d003a34:	1580001a 	bnez	t4,9d003aa0 <Cnan>
9d003a38:	00000000 	nop
9d003a3c:	15200004 	bnez	t1,9d003a50 <i21>
9d003a40:	00000000 	nop
9d003a44:	01086021 	addu	t4,t0,t0
9d003a48:	11800015 	beqz	t4,9d003aa0 <Cnan>
9d003a4c:	00000000 	nop

9d003a50 <i21>:
9d003a50:	240100ff 	li	at,255
9d003a54:	1521000f 	bne	t1,at,9d003a94 <Cinf>
9d003a58:	00000000 	nop

9d003a5c <CspecB>:
9d003a5c:	1520000a 	bnez	t1,9d003a88 <i22>
9d003a60:	00000000 	nop
9d003a64:	01084021 	addu	t0,t0,t0
9d003a68:	11000005 	beqz	t0,9d003a80 <Czer>
9d003a6c:	00000000 	nop
9d003a70:	710b5820 	clz	t3,t0
9d003a74:	012b4823 	subu	t1,t1,t3
9d003a78:	1000ffc3 	b	9d003988 <Clab2>
9d003a7c:	01684004 	sllv	t0,t0,t3

9d003a80 <Czer>:
9d003a80:	1000ffdb 	b	9d0039f0 <C999>
9d003a84:	000a1025 	or	v0,zero,t2

9d003a88 <i22>:
9d003a88:	01086021 	addu	t4,t0,t0
9d003a8c:	15800004 	bnez	t4,9d003aa0 <Cnan>
9d003a90:	00000000 	nop

9d003a94 <Cinf>:
9d003a94:	3c017f80 	lui	at,0x7f80
9d003a98:	1000ffd5 	b	9d0039f0 <C999>
9d003a9c:	01411025 	or	v0,t2,at

9d003aa0 <Cnan>:
9d003aa0:	1000ffd3 	b	9d0039f0 <C999>
9d003aa4:	3c02ffc0 	lui	v0,0xffc0

9d003aa8 <Coveund>:
9d003aa8:	1ce0fffa 	bgtz	a3,9d003a94 <Cinf>
9d003aac:	00000000 	nop
9d003ab0:	240b0001 	li	t3,1
9d003ab4:	01675823 	subu	t3,t3,a3
9d003ab8:	2d610020 	sltiu	at,t3,32
9d003abc:	1020fff0 	beqz	at,9d003a80 <Czer>
9d003ac0:	00000000 	nop
9d003ac4:	240c0020 	li	t4,32
9d003ac8:	018b6023 	subu	t4,t4,t3
9d003acc:	01863804 	sllv	a3,a2,t4
9d003ad0:	10e00002 	beqz	a3,9d003adc <i25>
9d003ad4:	01663006 	srlv	a2,a2,t3
9d003ad8:	34c60002 	ori	a2,a2,0x2

9d003adc <i25>:
9d003adc:	24070000 	li	a3,0
9d003ae0:	24cc0080 	addiu	t4,a2,128
9d003ae4:	0581ffb7 	bgez	t4,9d0039c4 <Clab8>
9d003ae8:	00000000 	nop
9d003aec:	1000ffb5 	b	9d0039c4 <Clab8>
9d003af0:	24070001 	li	a3,1
9d003af4:	00000000 	nop

Disassembly of section .text.general_exception:

9d003af8 <_general_exception_context>:
9d003af8:	27bdffa8 	addiu	sp,sp,-88
9d003afc:	afa10004 	sw	at,4(sp)
9d003b00:	afa20008 	sw	v0,8(sp)
9d003b04:	afa3000c 	sw	v1,12(sp)
9d003b08:	afa40010 	sw	a0,16(sp)
9d003b0c:	afa50014 	sw	a1,20(sp)
9d003b10:	afa60018 	sw	a2,24(sp)
9d003b14:	afa7001c 	sw	a3,28(sp)
9d003b18:	afa80020 	sw	t0,32(sp)
9d003b1c:	afa90024 	sw	t1,36(sp)
9d003b20:	afaa0028 	sw	t2,40(sp)
9d003b24:	afab002c 	sw	t3,44(sp)
9d003b28:	afac0030 	sw	t4,48(sp)
9d003b2c:	afad0034 	sw	t5,52(sp)
9d003b30:	afae0038 	sw	t6,56(sp)
9d003b34:	afaf003c 	sw	t7,60(sp)
9d003b38:	afb80040 	sw	t8,64(sp)
9d003b3c:	afb90044 	sw	t9,68(sp)
9d003b40:	afbf0048 	sw	ra,72(sp)
9d003b44:	00004012 	mflo	t0
9d003b48:	afa8004c 	sw	t0,76(sp)
9d003b4c:	00004010 	mfhi	t0
9d003b50:	afa80050 	sw	t0,80(sp)
9d003b54:	3c1a9d00 	lui	k0,0x9d00
9d003b58:	275a3c70 	addiu	k0,k0,15472
9d003b5c:	00000000 	nop
9d003b60:	40046800 	mfc0	a0,c0_cause
9d003b64:	40056000 	mfc0	a1,c0_status
9d003b68:	0340f809 	jalr	k0
9d003b6c:	00000000 	nop
9d003b70:	8fa80050 	lw	t0,80(sp)
9d003b74:	01000011 	mthi	t0
9d003b78:	8fa8004c 	lw	t0,76(sp)
9d003b7c:	01000013 	mtlo	t0
9d003b80:	8fa10004 	lw	at,4(sp)
9d003b84:	8fa20008 	lw	v0,8(sp)
9d003b88:	8fa3000c 	lw	v1,12(sp)
9d003b8c:	8fa40010 	lw	a0,16(sp)
9d003b90:	8fa50014 	lw	a1,20(sp)
9d003b94:	8fa60018 	lw	a2,24(sp)
9d003b98:	8fa7001c 	lw	a3,28(sp)
9d003b9c:	8fa80020 	lw	t0,32(sp)
9d003ba0:	8fa90024 	lw	t1,36(sp)
9d003ba4:	8faa0028 	lw	t2,40(sp)
9d003ba8:	8fab002c 	lw	t3,44(sp)
9d003bac:	8fac0030 	lw	t4,48(sp)
9d003bb0:	8fad0034 	lw	t5,52(sp)
9d003bb4:	8fae0038 	lw	t6,56(sp)
9d003bb8:	8faf003c 	lw	t7,60(sp)
9d003bbc:	8fb80040 	lw	t8,64(sp)
9d003bc0:	8fb90044 	lw	t9,68(sp)
9d003bc4:	8fbf0048 	lw	ra,72(sp)
9d003bc8:	27bd0058 	addiu	sp,sp,88
9d003bcc:	000000c0 	ehb
9d003bd0:	42000018 	eret

Disassembly of section .text.main_entry:

9d003bd4 <_main_entry>:
9d003bd4:	3c040000 	lui	a0,0x0
9d003bd8:	27bdffe8 	addiu	sp,sp,-24
9d003bdc:	24840000 	addiu	a0,a0,0
9d003be0:	10800003 	beqz	a0,9d003bf0 <_main_entry+0x1c>
9d003be4:	afbf0014 	sw	ra,20(sp)
9d003be8:	0080f809 	jalr	a0
9d003bec:	00000000 	nop
9d003bf0:	30840000 	andi	a0,a0,0x0
9d003bf4:	30a50000 	andi	a1,a1,0x0
9d003bf8:	3c089d00 	lui	t0,0x9d00
9d003bfc:	25082ec8 	addiu	t0,t0,11976
9d003c00:	0100f809 	jalr	t0
9d003c04:	00000000 	nop

9d003c08 <__crt0_exit>:
9d003c08:	3c020000 24420000 10400003 00000000     ...<..B$..@.....
9d003c18:	0040f809 00000000 1000fff9 00000000     ..@.............

Disassembly of section .text._bootstrap_exception_handler:

9d003c28 <_bootstrap_exception_handler>:
9d003c28:	3c020000 	lui	v0,0x0
9d003c2c:	24420000 	addiu	v0,v0,0
9d003c30:	10400005 	beqz	v0,9d003c48 <_bootstrap_exception_handler+0x20>
9d003c34:	3c020000 	lui	v0,0x0
9d003c38:	24420000 	addiu	v0,v0,0
9d003c3c:	10400003 	beqz	v0,9d003c4c <_bootstrap_exception_handler+0x24>
9d003c40:	3c029d00 	lui	v0,0x9d00
9d003c44:	7000003f 	sdbbp
9d003c48:	3c029d00 	lui	v0,0x9d00
9d003c4c:	24423d00 	addiu	v0,v0,15616
9d003c50:	10400005 	beqz	v0,9d003c68 <_bootstrap_exception_handler+0x40>
9d003c54:	00000000 	nop
9d003c58:	27bdffe8 	addiu	sp,sp,-24
9d003c5c:	afbf0014 	sw	ra,20(sp)
9d003c60:	0040f809 	jalr	v0
9d003c64:	00000000 	nop
9d003c68:	0b400f1a 	j	9d003c68 <_bootstrap_exception_handler+0x40>
9d003c6c:	00000000 	nop

Disassembly of section .text._general_exception_handler:

9d003c70 <_general_exception_handler>:
9d003c70:	3c020000 	lui	v0,0x0
9d003c74:	24420000 	addiu	v0,v0,0
9d003c78:	10400005 	beqz	v0,9d003c90 <_general_exception_handler+0x20>
9d003c7c:	3c020000 	lui	v0,0x0
9d003c80:	24420000 	addiu	v0,v0,0
9d003c84:	10400003 	beqz	v0,9d003c94 <_general_exception_handler+0x24>
9d003c88:	3c029d00 	lui	v0,0x9d00
9d003c8c:	7000003f 	sdbbp
9d003c90:	3c029d00 	lui	v0,0x9d00
9d003c94:	24423d00 	addiu	v0,v0,15616
9d003c98:	10400005 	beqz	v0,9d003cb0 <_general_exception_handler+0x40>
9d003c9c:	00000000 	nop
9d003ca0:	27bdffe8 	addiu	sp,sp,-24
9d003ca4:	afbf0014 	sw	ra,20(sp)
9d003ca8:	0040f809 	jalr	v0
9d003cac:	00000000 	nop
9d003cb0:	0b400f2c 	j	9d003cb0 <_general_exception_handler+0x40>
9d003cb4:	00000000 	nop

Disassembly of section .vector_default:

9d003cb8 <_DefaultInterrupt>:
9d003cb8:	3c020000 	lui	v0,0x0
9d003cbc:	24420000 	addiu	v0,v0,0
9d003cc0:	10400007 	beqz	v0,9d003ce0 <_DefaultInterrupt+0x28>
9d003cc4:	3c020000 	lui	v0,0x0
9d003cc8:	24420000 	addiu	v0,v0,0
9d003ccc:	50400005 	beqzl	v0,9d003ce4 <_DefaultInterrupt+0x2c>
9d003cd0:	3c029d00 	lui	v0,0x9d00
9d003cd4:	7000003f 	sdbbp
9d003cd8:	03e00008 	jr	ra
9d003cdc:	00000000 	nop
9d003ce0:	3c029d00 	lui	v0,0x9d00
9d003ce4:	24423d00 	addiu	v0,v0,15616
9d003ce8:	10400003 	beqz	v0,9d003cf8 <_DefaultInterrupt+0x40>
9d003cec:	00000000 	nop
9d003cf0:	0040f809 	jalr	v0
9d003cf4:	00000000 	nop
9d003cf8:	03e00008 	jr	ra
9d003cfc:	00000000 	nop

Disassembly of section .text:

9d003d00 <__pic32_software_reset>:
9d003d00:	41606000 	di
9d003d04:	000000c0 	ehb
9d003d08:	3c03aa99 	lui	v1,0xaa99
9d003d0c:	3c02bf81 	lui	v0,0xbf81
9d003d10:	24636655 	addiu	v1,v1,26197
9d003d14:	ac40f230 	sw	zero,-3536(v0)
9d003d18:	ac43f230 	sw	v1,-3536(v0)
9d003d1c:	3c035566 	lui	v1,0x5566
9d003d20:	346399aa 	ori	v1,v1,0x99aa
9d003d24:	ac43f230 	sw	v1,-3536(v0)
9d003d28:	3c02bf81 	lui	v0,0xbf81
9d003d2c:	24030001 	li	v1,1
9d003d30:	ac43f618 	sw	v1,-2536(v0)
9d003d34:	3c02bf81 	lui	v0,0xbf81
9d003d38:	8c42f610 	lw	v0,-2544(v0)
9d003d3c:	0b400f42 	j	9d003d08 <__pic32_software_reset+0x8>
9d003d40:	00000000 	nop

Disassembly of section .rodata:

9d003d48 <.rodata>:
9d003d48:	3f8147ae 	0x3f8147ae
9d003d4c:	400147ae 	0x400147ae
9d003d50:	c0000000 	ll	zero,0(zero)
9d003d54:	3ff028f5 	0x3ff028f5
9d003d58:	c0000000 	ll	zero,0(zero)
9d003d5c:	400028f5 	0x400028f5

Disassembly of section .text:

9d003d60 <_nmi_handler>:
9d003d60:	401a6000 	mfc0	k0,c0_status
9d003d64:	3c1bffbf 	lui	k1,0xffbf
9d003d68:	377bffff 	ori	k1,k1,0xffff
9d003d6c:	035bd024 	and	k0,k0,k1
9d003d70:	409a6000 	mtc0	k0,c0_status
9d003d74:	42000018 	eret

Disassembly of section .dinit:

9d003d78 <.dinit>:
9d003d78:	00000000 	nop
9d003d7c:	22222222 	addi	v0,s1,8738
9d003d80:	22222222 	addi	v0,s1,8738
9d003d84:	22222222 	addi	v0,s1,8738

Disassembly of section .text._on_reset:

9d003d88 <_on_reset>:
9d003d88:	03e00008 	jr	ra
9d003d8c:	00000000 	nop

Disassembly of section .text._on_bootstrap:

9d003d90 <_on_bootstrap>:
9d003d90:	03e00008 	jr	ra
9d003d94:	00000000 	nop
