
out.elf:     file format elf32-tradlittlemips


Disassembly of section .config_BFC02FF0:

bfc02ff0 <__config_BFC02FF0>:
bfc02ff0:	ff ff fe fa                                         ....

Disassembly of section .config_BFC02FF4:

bfc02ff4 <__config_BFC02FF4>:
bfc02ff4:	d9 79 f8 ff                                         .y..

Disassembly of section .config_BFC02FF8:

bfc02ff8 <__config_BFC02FF8>:
bfc02ff8:	db ce 6c ff                                         ..l.

Disassembly of section .config_BFC02FFC:

bfc02ffc <__config_BFC02FFC>:
bfc02ffc:	ff ff ff 7e                                         ...~

Disassembly of section .reset:

bd001970 <_reset>:
bd001970:	0f40065e 	jal	bd001978 <_startup>
bd001974:	00000000 	nop

bd001978 <_startup>:
bd001978:	401a6000 	mfc0	k0,c0_status
bd00197c:	7f5a04c0 	ext	k0,k0,0x13,0x1
bd001980:	13400005 	beqz	k0,bd001998 <_no_nmi>
bd001984:	00000000 	nop
bd001988:	3c1a9d00 	lui	k0,0x9d00
bd00198c:	275a57c0 	addiu	k0,k0,22464
bd001990:	03400008 	jr	k0
bd001994:	00000000 	nop

bd001998 <_no_nmi>:
bd001998:	3c1da002 	lui	sp,0xa002
bd00199c:	27bdfff0 	addiu	sp,sp,-16
bd0019a0:	3c1ca000 	lui	gp,0xa000
bd0019a4:	279c7ff0 	addiu	gp,gp,32752
bd0019a8:	40096002 	mfc0	t1,c0_srsctl
bd0019ac:	01205820 	add	t3,t1,zero
bd0019b0:	7d2a1e80 	ext	t2,t1,0x1a,0x4
bd0019b4:	7d494984 	ins	t1,t2,0x6,0x4
bd0019b8:	40896002 	mtc0	t1,c0_srsctl
bd0019bc:	000000c0 	ehb
bd0019c0:	41dce000 	wrpgpr	gp,gp
bd0019c4:	408b6002 	mtc0	t3,c0_srsctl
bd0019c8:	000000c0 	ehb
bd0019cc:	3c089d00 	lui	t0,0x9d00
bd0019d0:	250857d8 	addiu	t0,t0,22488
bd0019d4:	0100f809 	jalr	t0
bd0019d8:	00000000 	nop
bd0019dc:	3c08a000 	lui	t0,0xa000
bd0019e0:	25080004 	addiu	t0,t0,4
bd0019e4:	3c09a000 	lui	t1,0xa000
bd0019e8:	2529000c 	addiu	t1,t1,12
bd0019ec:	10000006 	b	bd001a08 <_bss_check>
bd0019f0:	00000000 	nop

bd0019f4 <_bss_init>:
bd0019f4:	ad000000 	sw	zero,0(t0)
bd0019f8:	ad000004 	sw	zero,4(t0)
bd0019fc:	ad000008 	sw	zero,8(t0)
bd001a00:	ad00000c 	sw	zero,12(t0)
bd001a04:	25080010 	addiu	t0,t0,16

bd001a08 <_bss_check>:
bd001a08:	0109082b 	sltu	at,t0,t1
bd001a0c:	1420fff9 	bnez	at,bd0019f4 <_bss_init>
bd001a10:	00000000 	nop

bd001a14 <_dinit_init>:
bd001a14:	3c089d00 	lui	t0,0x9d00
bd001a18:	25084ef0 	addiu	t0,t0,20208
bd001a1c:	8d090000 	lw	t1,0(t0)
bd001a20:	11200018 	beqz	t1,bd001a84 <_dinit_end+0x18>
bd001a24:	25080004 	addiu	t0,t0,4
bd001a28:	8d0a0000 	lw	t2,0(t0)
bd001a2c:	25080004 	addiu	t0,t0,4
bd001a30:	8d0b0000 	lw	t3,0(t0)
bd001a34:	11600009 	beqz	t3,bd001a5c <_dinit_clear>
bd001a38:	25080004 	addiu	t0,t0,4

bd001a3c <_dinit_copy>:
bd001a3c:	910c0000 	lbu	t4,0(t0)
bd001a40:	254affff 	addiu	t2,t2,-1
bd001a44:	25080001 	addiu	t0,t0,1
bd001a48:	a12c0000 	sb	t4,0(t1)
bd001a4c:	1540fffb 	bnez	t2,bd001a3c <_dinit_copy>
bd001a50:	25290001 	addiu	t1,t1,1
bd001a54:	10000005 	b	bd001a6c <_dinit_end>
bd001a58:	00000000 	nop

bd001a5c <_dinit_clear>:
bd001a5c:	a1200000 	sb	zero,0(t1)
bd001a60:	254affff 	addiu	t2,t2,-1
bd001a64:	1540fffd 	bnez	t2,bd001a5c <_dinit_clear>
bd001a68:	25290001 	addiu	t1,t1,1

bd001a6c <_dinit_end>:
bd001a6c:	25080003 	addiu	t0,t0,3
bd001a70:	240afffc 	li	t2,-4
bd001a74:	01484024 	and	t0,t2,t0
bd001a78:	8d090000 	lw	t1,0(t0)
bd001a7c:	1520ffe7 	bnez	t1,bd001a1c <_dinit_init+0x8>
bd001a80:	00000000 	nop
bd001a84:	3c090000 	lui	t1,0x0
bd001a88:	25290000 	addiu	t1,t1,0
bd001a8c:	11200010 	beqz	t1,bd001ad0 <_ramfunc_done>
bd001a90:	00000000 	nop
bd001a94:	3c090002 	lui	t1,0x2
bd001a98:	25290000 	addiu	t1,t1,0
bd001a9c:	3c0abf88 	lui	t2,0xbf88
bd001aa0:	254a2010 	addiu	t2,t2,8208
bd001aa4:	ad490000 	sw	t1,0(t2)
bd001aa8:	3c090002 	lui	t1,0x2
bd001aac:	25290000 	addiu	t1,t1,0
bd001ab0:	3c0abf88 	lui	t2,0xbf88
bd001ab4:	254a2020 	addiu	t2,t2,8224
bd001ab8:	ad490000 	sw	t1,0(t2)
bd001abc:	3c090002 	lui	t1,0x2
bd001ac0:	25290000 	addiu	t1,t1,0
bd001ac4:	3c0abf88 	lui	t2,0xbf88
bd001ac8:	254a2030 	addiu	t2,t2,8240
bd001acc:	ad490000 	sw	t1,0(t2)

bd001ad0 <_ramfunc_done>:
bd001ad0:	40804800 	mtc0	zero,c0_count
bd001ad4:	240affff 	li	t2,-1
bd001ad8:	408a5800 	mtc0	t2,c0_compare
bd001adc:	3c099d00 	lui	t1,0x9d00
bd001ae0:	25290000 	addiu	t1,t1,0
bd001ae4:	40897801 	mtc0	t1,c0_ebase
bd001ae8:	3c090000 	lui	t1,0x0
bd001aec:	25290001 	addiu	t1,t1,1
bd001af0:	240a0000 	li	t2,0
bd001af4:	7d2a4944 	ins	t2,t1,0x5,0x5
bd001af8:	408a6001 	mtc0	t2,c0_intctl
bd001afc:	3c090080 	lui	t1,0x80
bd001b00:	40896800 	mtc0	t1,c0_cause
bd001b04:	40088000 	mfc0	t0,c0_config
bd001b08:	7d090580 	ext	t1,t0,0x16,0x1
bd001b0c:	00094c40 	sll	t1,t1,0x11
bd001b10:	40086000 	mfc0	t0,c0_status
bd001b14:	3c010058 	lui	at,0x58
bd001b18:	01014024 	and	t0,t0,at
bd001b1c:	01284025 	or	t0,t1,t0
bd001b20:	40886000 	mtc0	t0,c0_status
bd001b24:	000000c0 	ehb
bd001b28:	3c089d00 	lui	t0,0x9d00
bd001b2c:	250857e0 	addiu	t0,t0,22496
bd001b30:	0100f809 	jalr	t0
bd001b34:	00000000 	nop
bd001b38:	40086000 	mfc0	t0,c0_status
bd001b3c:	3c01ffbf 	lui	at,0xffbf
bd001b40:	3421ffff 	ori	at,at,0xffff
bd001b44:	01014024 	and	t0,t0,at
bd001b48:	40886000 	mtc0	t0,c0_status
bd001b4c:	30840000 	andi	a0,a0,0x0
bd001b50:	30a50000 	andi	a1,a1,0x0
bd001b54:	3c089d00 	lui	t0,0x9d00
bd001b58:	250855bc 	addiu	t0,t0,21948
bd001b5c:	01000008 	jr	t0
bd001b60:	00000000 	nop

Disassembly of section .bev_excpt:

bd001cf0 <_bev_exception>:
bd001cf0:	3c1a9d00 	lui	k0,0x9d00
bd001cf4:	275a56a4 	addiu	k0,k0,22180
bd001cf8:	03400008 	jr	k0
bd001cfc:	00000000 	nop

Disassembly of section .app_excpt:

9d000180 <_gen_exception>:
9d000180:	3c1a9d00 	lui	k0,0x9d00
9d000184:	275a4fd0 	addiu	k0,k0,20432
9d000188:	03400008 	jr	k0
9d00018c:	00000000 	nop

Disassembly of section .vector_0:

9d000200 <__vector_dispatch_0>:
9d000200:	0b4015cd 	j	9d005734 <.LFE0>
9d000204:	00000000 	nop

Disassembly of section .vector_1:

9d000220 <__vector_dispatch_1>:
9d000220:	0b4015cd 	j	9d005734 <.LFE0>
9d000224:	00000000 	nop

Disassembly of section .vector_2:

9d000240 <__vector_dispatch_2>:
9d000240:	0b4015cd 	j	9d005734 <.LFE0>
9d000244:	00000000 	nop

Disassembly of section .vector_3:

9d000260 <__vector_dispatch_3>:
9d000260:	0b4015cd 	j	9d005734 <.LFE0>
9d000264:	00000000 	nop

Disassembly of section .vector_4:

9d000280 <__vector_dispatch_4>:
9d000280:	0b4015cd 	j	9d005734 <.LFE0>
9d000284:	00000000 	nop

Disassembly of section .vector_5:

9d0002a0 <__vector_dispatch_5>:
9d0002a0:	0b4015cd 	j	9d005734 <.LFE0>
9d0002a4:	00000000 	nop

Disassembly of section .vector_6:

9d0002c0 <__vector_dispatch_6>:
9d0002c0:	0b4015cd 	j	9d005734 <.LFE0>
9d0002c4:	00000000 	nop

Disassembly of section .vector_7:

9d0002e0 <__vector_dispatch_7>:
9d0002e0:	0b4015cd 	j	9d005734 <.LFE0>
9d0002e4:	00000000 	nop

Disassembly of section .vector_8:

9d000300 <__vector_dispatch_8>:
9d000300:	0b4015cd 	j	9d005734 <.LFE0>
9d000304:	00000000 	nop

Disassembly of section .vector_9:

9d000320 <__vector_dispatch_9>:
9d000320:	0b4015cd 	j	9d005734 <.LFE0>
9d000324:	00000000 	nop

Disassembly of section .vector_10:

9d000340 <__vector_dispatch_10>:
9d000340:	0b4015cd 	j	9d005734 <.LFE0>
9d000344:	00000000 	nop

Disassembly of section .vector_11:

9d000360 <__vector_dispatch_11>:
9d000360:	0b400efa 	j	9d003be8 <Ext0ISR>
9d000364:	00000000 	nop

Disassembly of section .vector_12:

9d000380 <__vector_dispatch_12>:
9d000380:	0b4015cd 	j	9d005734 <.LFE0>
9d000384:	00000000 	nop

Disassembly of section .vector_13:

9d0003a0 <__vector_dispatch_13>:
9d0003a0:	0b4015cd 	j	9d005734 <.LFE0>
9d0003a4:	00000000 	nop

Disassembly of section .vector_14:

9d0003c0 <__vector_dispatch_14>:
9d0003c0:	0b4015cd 	j	9d005734 <.LFE0>
9d0003c4:	00000000 	nop

Disassembly of section .vector_15:

9d0003e0 <__vector_dispatch_15>:
9d0003e0:	0b4015cd 	j	9d005734 <.LFE0>
9d0003e4:	00000000 	nop

Disassembly of section .vector_16:

9d000400 <__vector_dispatch_16>:
9d000400:	0b4015cd 	j	9d005734 <.LFE0>
9d000404:	00000000 	nop

Disassembly of section .vector_17:

9d000420 <__vector_dispatch_17>:
9d000420:	0b4015cd 	j	9d005734 <.LFE0>
9d000424:	00000000 	nop

Disassembly of section .vector_18:

9d000440 <__vector_dispatch_18>:
9d000440:	0b4015cd 	j	9d005734 <.LFE0>
9d000444:	00000000 	nop

Disassembly of section .vector_19:

9d000460 <__vector_dispatch_19>:
9d000460:	0b4015cd 	j	9d005734 <.LFE0>
9d000464:	00000000 	nop

Disassembly of section .vector_20:

9d000480 <__vector_dispatch_20>:
9d000480:	0b4015cd 	j	9d005734 <.LFE0>
9d000484:	00000000 	nop

Disassembly of section .vector_21:

9d0004a0 <__vector_dispatch_21>:
9d0004a0:	0b4015cd 	j	9d005734 <.LFE0>
9d0004a4:	00000000 	nop

Disassembly of section .vector_22:

9d0004c0 <__vector_dispatch_22>:
9d0004c0:	0b4015cd 	j	9d005734 <.LFE0>
9d0004c4:	00000000 	nop

Disassembly of section .vector_23:

9d0004e0 <__vector_dispatch_23>:
9d0004e0:	0b4015cd 	j	9d005734 <.LFE0>
9d0004e4:	00000000 	nop

Disassembly of section .vector_24:

9d000500 <__vector_dispatch_24>:
9d000500:	0b4015cd 	j	9d005734 <.LFE0>
9d000504:	00000000 	nop

Disassembly of section .vector_25:

9d000520 <__vector_dispatch_25>:
9d000520:	0b4015cd 	j	9d005734 <.LFE0>
9d000524:	00000000 	nop

Disassembly of section .vector_26:

9d000540 <__vector_dispatch_26>:
9d000540:	0b4015cd 	j	9d005734 <.LFE0>
9d000544:	00000000 	nop

Disassembly of section .vector_27:

9d000560 <__vector_dispatch_27>:
9d000560:	0b4015cd 	j	9d005734 <.LFE0>
9d000564:	00000000 	nop

Disassembly of section .vector_28:

9d000580 <__vector_dispatch_28>:
9d000580:	0b4015cd 	j	9d005734 <.LFE0>
9d000584:	00000000 	nop

Disassembly of section .vector_29:

9d0005a0 <__vector_dispatch_29>:
9d0005a0:	0b4015cd 	j	9d005734 <.LFE0>
9d0005a4:	00000000 	nop

Disassembly of section .vector_30:

9d0005c0 <__vector_dispatch_30>:
9d0005c0:	0b4015cd 	j	9d005734 <.LFE0>
9d0005c4:	00000000 	nop

Disassembly of section .vector_31:

9d0005e0 <__vector_dispatch_31>:
9d0005e0:	0b4015cd 	j	9d005734 <.LFE0>
9d0005e4:	00000000 	nop

Disassembly of section .vector_32:

9d000600 <__vector_dispatch_32>:
9d000600:	0b4015cd 	j	9d005734 <.LFE0>
9d000604:	00000000 	nop

Disassembly of section .vector_33:

9d000620 <__vector_dispatch_33>:
9d000620:	0b4015cd 	j	9d005734 <.LFE0>
9d000624:	00000000 	nop

Disassembly of section .vector_34:

9d000640 <__vector_dispatch_34>:
9d000640:	0b4015cd 	j	9d005734 <.LFE0>
9d000644:	00000000 	nop

Disassembly of section .vector_35:

9d000660 <__vector_dispatch_35>:
9d000660:	0b4015cd 	j	9d005734 <.LFE0>
9d000664:	00000000 	nop

Disassembly of section .vector_36:

9d000680 <__vector_dispatch_36>:
9d000680:	0b4015cd 	j	9d005734 <.LFE0>
9d000684:	00000000 	nop

Disassembly of section .vector_37:

9d0006a0 <__vector_dispatch_37>:
9d0006a0:	0b4015cd 	j	9d005734 <.LFE0>
9d0006a4:	00000000 	nop

Disassembly of section .vector_38:

9d0006c0 <__vector_dispatch_38>:
9d0006c0:	0b4015cd 	j	9d005734 <.LFE0>
9d0006c4:	00000000 	nop

Disassembly of section .vector_39:

9d0006e0 <__vector_dispatch_39>:
9d0006e0:	0b4015cd 	j	9d005734 <.LFE0>
9d0006e4:	00000000 	nop

Disassembly of section .vector_40:

9d000700 <__vector_dispatch_40>:
9d000700:	0b4015cd 	j	9d005734 <.LFE0>
9d000704:	00000000 	nop

Disassembly of section .vector_41:

9d000720 <__vector_dispatch_41>:
9d000720:	0b4015cd 	j	9d005734 <.LFE0>
9d000724:	00000000 	nop

Disassembly of section .vector_42:

9d000740 <__vector_dispatch_42>:
9d000740:	0b4015cd 	j	9d005734 <.LFE0>
9d000744:	00000000 	nop

Disassembly of section .vector_43:

9d000760 <__vector_dispatch_43>:
9d000760:	0b4015cd 	j	9d005734 <.LFE0>
9d000764:	00000000 	nop

Disassembly of section .vector_44:

9d000780 <__vector_dispatch_44>:
9d000780:	0b4015cd 	j	9d005734 <.LFE0>
9d000784:	00000000 	nop

Disassembly of section .vector_45:

9d0007a0 <__vector_dispatch_45>:
9d0007a0:	0b4015cd 	j	9d005734 <.LFE0>
9d0007a4:	00000000 	nop

Disassembly of section .vector_46:

9d0007c0 <__vector_dispatch_46>:
9d0007c0:	0b4015cd 	j	9d005734 <.LFE0>
9d0007c4:	00000000 	nop

Disassembly of section .vector_47:

9d0007e0 <__vector_dispatch_47>:
9d0007e0:	0b4015cd 	j	9d005734 <.LFE0>
9d0007e4:	00000000 	nop

Disassembly of section .vector_48:

9d000800 <__vector_dispatch_48>:
9d000800:	0b4015cd 	j	9d005734 <.LFE0>
9d000804:	00000000 	nop

Disassembly of section .vector_49:

9d000820 <__vector_dispatch_49>:
9d000820:	0b4015cd 	j	9d005734 <.LFE0>
9d000824:	00000000 	nop

Disassembly of section .vector_50:

9d000840 <__vector_dispatch_50>:
9d000840:	0b4015cd 	j	9d005734 <.LFE0>
9d000844:	00000000 	nop

Disassembly of section .vector_51:

9d000860 <__vector_dispatch_51>:
9d000860:	0b4015cd 	j	9d005734 <.LFE0>
9d000864:	00000000 	nop

Disassembly of section ._debug_exception:

bfc00480 <__DbgExecReturn>:
bfc00480:	409bf800 	mtc0	k1,c0_desave
bfc00484:	000000c0 	ehb
bfc00488:	3c1b9d00 	lui	k1,0x9d00
bfc0048c:	277b577c 	addiu	k1,k1,22396
bfc00490:	13600002 	beqz	k1,bfc0049c <__DbgExecReturn+0x1c>
bfc00494:	00000000 	nop
bfc00498:	409bc000 	mtc0	k1,c0_depc
bfc0049c:	401bf800 	mfc0	k1,c0_desave
bfc004a0:	000000c0 	ehb
bfc004a4:	4200001f 	deret
bfc004a8:	00000000 	nop

Disassembly of section .text._vfprintf_fF:

9d001e00 <_vfprintf_fF>:
9d001e00:	27bdffa0 	addiu	sp,sp,-96
9d001e04:	afbf005c 	sw	ra,92(sp)
9d001e08:	afbe0058 	sw	s8,88(sp)
9d001e0c:	afb70054 	sw	s7,84(sp)
9d001e10:	afb60050 	sw	s6,80(sp)
9d001e14:	afb5004c 	sw	s5,76(sp)
9d001e18:	afb40048 	sw	s4,72(sp)
9d001e1c:	afb30044 	sw	s3,68(sp)
9d001e20:	afb20040 	sw	s2,64(sp)
9d001e24:	afb1003c 	sw	s1,60(sp)
9d001e28:	afb00038 	sw	s0,56(sp)
9d001e2c:	00809021 	move	s2,a0
9d001e30:	00a08821 	move	s1,a1
9d001e34:	afa60068 	sw	a2,104(sp)
9d001e38:	00001021 	move	v0,zero
9d001e3c:	afa20024 	sw	v0,36(sp)
9d001e40:	00008021 	move	s0,zero
9d001e44:	3c149d00 	lui	s4,0x9d00
9d001e48:	26944ded 	addiu	s4,s4,19949
9d001e4c:	82240000 	lb	a0,0(s1)
9d001e50:	26330001 	addiu	s3,s1,1
9d001e54:	10800029 	beqz	a0,9d001efc <_vfprintf_fF+0xfc>
9d001e58:	a3a40016 	sb	a0,22(sp)
9d001e5c:	24020025 	li	v0,37
9d001e60:	1482001c 	bne	a0,v0,9d001ed4 <_vfprintf_fF+0xd4>
9d001e64:	26220002 	addiu	v0,s1,2
9d001e68:	00009821 	move	s3,zero
9d001e6c:	2404002b 	li	a0,43
9d001e70:	2405002d 	li	a1,45
9d001e74:	24070030 	li	a3,48
9d001e78:	24060020 	li	a2,32
9d001e7c:	8056ffff 	lb	s6,-1(v0)
9d001e80:	2451ffff 	addiu	s1,v0,-1
9d001e84:	12c4000c 	beq	s6,a0,9d001eb8 <_vfprintf_fF+0xb8>
9d001e88:	2ac3002c 	slti	v1,s6,44
9d001e8c:	1460000d 	bnez	v1,9d001ec4 <_vfprintf_fF+0xc4>
9d001e90:	00000000 	nop
9d001e94:	52c50087 	beql	s6,a1,9d0020b4 <_vfprintf_fF+0x2b4>
9d001e98:	36730008 	ori	s3,s3,0x8
9d001e9c:	16c70024 	bne	s6,a3,9d001f30 <_vfprintf_fF+0x130>
9d001ea0:	24420001 	addiu	v0,v0,1
9d001ea4:	36730004 	ori	s3,s3,0x4
9d001ea8:	8056ffff 	lb	s6,-1(v0)
9d001eac:	2451ffff 	addiu	s1,v0,-1
9d001eb0:	16c4fff6 	bne	s6,a0,9d001e8c <_vfprintf_fF+0x8c>
9d001eb4:	2ac3002c 	slti	v1,s6,44
9d001eb8:	36730002 	ori	s3,s3,0x2
9d001ebc:	0b4007aa 	j	9d001ea8 <_vfprintf_fF+0xa8>
9d001ec0:	24420001 	addiu	v0,v0,1
9d001ec4:	16c6001a 	bne	s6,a2,9d001f30 <_vfprintf_fF+0x130>
9d001ec8:	24420001 	addiu	v0,v0,1
9d001ecc:	0b4007aa 	j	9d001ea8 <_vfprintf_fF+0xa8>
9d001ed0:	36730001 	ori	s3,s3,0x1
9d001ed4:	0f4012df 	jal	9d004b7c <fputc>
9d001ed8:	02402821 	move	a1,s2
9d001edc:	2403ffff 	li	v1,-1
9d001ee0:	1043ffda 	beq	v0,v1,9d001e4c <_vfprintf_fF+0x4c>
9d001ee4:	02608821 	move	s1,s3
9d001ee8:	26100001 	addiu	s0,s0,1
9d001eec:	82640000 	lb	a0,0(s3)
9d001ef0:	26330001 	addiu	s3,s1,1
9d001ef4:	1480ffd9 	bnez	a0,9d001e5c <_vfprintf_fF+0x5c>
9d001ef8:	a3a40016 	sb	a0,22(sp)
9d001efc:	02001021 	move	v0,s0
9d001f00:	8fbf005c 	lw	ra,92(sp)
9d001f04:	8fbe0058 	lw	s8,88(sp)
9d001f08:	8fb70054 	lw	s7,84(sp)
9d001f0c:	8fb60050 	lw	s6,80(sp)
9d001f10:	8fb5004c 	lw	s5,76(sp)
9d001f14:	8fb40048 	lw	s4,72(sp)
9d001f18:	8fb30044 	lw	s3,68(sp)
9d001f1c:	8fb20040 	lw	s2,64(sp)
9d001f20:	8fb1003c 	lw	s1,60(sp)
9d001f24:	8fb00038 	lw	s0,56(sp)
9d001f28:	03e00008 	jr	ra
9d001f2c:	27bd0060 	addiu	sp,sp,96
9d001f30:	02961021 	addu	v0,s4,s6
9d001f34:	90420000 	lbu	v0,0(v0)
9d001f38:	32640002 	andi	a0,s3,0x2
9d001f3c:	3263fffe 	andi	v1,s3,0xfffe
9d001f40:	0064980b 	movn	s3,v1,a0
9d001f44:	32640008 	andi	a0,s3,0x8
9d001f48:	3263fffb 	andi	v1,s3,0xfffb
9d001f4c:	30420004 	andi	v0,v0,0x4
9d001f50:	02202821 	move	a1,s1
9d001f54:	10400059 	beqz	v0,9d0020bc <_vfprintf_fF+0x2bc>
9d001f58:	0064980b 	movn	s3,v1,a0
9d001f5c:	02c01821 	move	v1,s6
9d001f60:	0b4007db 	j	9d001f6c <_vfprintf_fF+0x16c>
9d001f64:	0000b021 	move	s6,zero
9d001f68:	00401821 	move	v1,v0
9d001f6c:	26310001 	addiu	s1,s1,1
9d001f70:	82220000 	lb	v0,0(s1)
9d001f74:	00162840 	sll	a1,s6,0x1
9d001f78:	0016b0c0 	sll	s6,s6,0x3
9d001f7c:	02822021 	addu	a0,s4,v0
9d001f80:	90840000 	lbu	a0,0(a0)
9d001f84:	00b6b021 	addu	s6,a1,s6
9d001f88:	02c3b021 	addu	s6,s6,v1
9d001f8c:	30840004 	andi	a0,a0,0x4
9d001f90:	1480fff5 	bnez	a0,9d001f68 <_vfprintf_fF+0x168>
9d001f94:	26d6ffd0 	addiu	s6,s6,-48
9d001f98:	2403002e 	li	v1,46
9d001f9c:	5043004e 	beql	v0,v1,9d0020d8 <_vfprintf_fF+0x2d8>
9d001fa0:	82220001 	lb	v0,1(s1)
9d001fa4:	36641000 	ori	a0,s3,0x1000
9d001fa8:	00009821 	move	s3,zero
9d001fac:	2403006c 	li	v1,108
9d001fb0:	24060010 	li	a2,16
9d001fb4:	34058000 	li	a1,0x8000
9d001fb8:	104301c8 	beq	v0,v1,9d0026dc <_vfprintf_fF+0x8dc>
9d001fbc:	26310001 	addiu	s1,s1,1
9d001fc0:	2843006d 	slti	v1,v0,109
9d001fc4:	1060005a 	beqz	v1,9d002130 <_vfprintf_fF+0x330>
9d001fc8:	24030075 	li	v1,117
9d001fcc:	24030063 	li	v1,99
9d001fd0:	104301c8 	beq	v0,v1,9d0026f4 <_vfprintf_fF+0x8f4>
9d001fd4:	24030066 	li	v1,102
9d001fd8:	504301b7 	beql	v0,v1,9d0026b8 <_vfprintf_fF+0x8b8>
9d001fdc:	a3a20016 	sb	v0,22(sp)
9d001fe0:	5040ffc7 	beqzl	v0,9d001f00 <_vfprintf_fF+0x100>
9d001fe4:	02001021 	move	v0,s0
9d001fe8:	a3a20016 	sb	v0,22(sp)
9d001fec:	27b50016 	addiu	s5,sp,22
9d001ff0:	24170001 	li	s7,1
9d001ff4:	52600004 	beqzl	s3,9d002008 <_vfprintf_fF+0x208>
9d001ff8:	30930008 	andi	s3,a0,0x8
9d001ffc:	0277102b 	sltu	v0,s3,s7
9d002000:	0262b80b 	movn	s7,s3,v0
9d002004:	30930008 	andi	s3,a0,0x8
9d002008:	02f6102b 	sltu	v0,s7,s6
9d00200c:	02d7b023 	subu	s6,s6,s7
9d002010:	3273ffff 	andi	s3,s3,0xffff
9d002014:	12600022 	beqz	s3,9d0020a0 <_vfprintf_fF+0x2a0>
9d002018:	0002b00a 	movz	s6,zero,v0
9d00201c:	26f7ffff 	addiu	s7,s7,-1
9d002020:	0b400811 	j	9d002044 <_vfprintf_fF+0x244>
9d002024:	241effff 	li	s8,-1
9d002028:	80440000 	lb	a0,0(v0)
9d00202c:	26b50001 	addiu	s5,s5,1
9d002030:	0f4012df 	jal	9d004b7c <fputc>
9d002034:	26f7ffff 	addiu	s7,s7,-1
9d002038:	00021027 	nor	v0,zero,v0
9d00203c:	0002102b 	sltu	v0,zero,v0
9d002040:	02028021 	addu	s0,s0,v0
9d002044:	02a01021 	move	v0,s5
9d002048:	16fefff7 	bne	s7,s8,9d002028 <_vfprintf_fF+0x228>
9d00204c:	02402821 	move	a1,s2
9d002050:	5260ff7f 	beqzl	s3,9d001e50 <_vfprintf_fF+0x50>
9d002054:	82240000 	lb	a0,0(s1)
9d002058:	0b40081f 	j	9d00207c <_vfprintf_fF+0x27c>
9d00205c:	24040020 	li	a0,32
9d002060:	0f4012df 	jal	9d004b7c <fputc>
9d002064:	26d6ffff 	addiu	s6,s6,-1
9d002068:	00021027 	nor	v0,zero,v0
9d00206c:	0002102b 	sltu	v0,zero,v0
9d002070:	02028021 	addu	s0,s0,v0
9d002074:	24040020 	li	a0,32
9d002078:	02402821 	move	a1,s2
9d00207c:	16c0fff8 	bnez	s6,9d002060 <_vfprintf_fF+0x260>
9d002080:	00000000 	nop
9d002084:	0b400794 	j	9d001e50 <_vfprintf_fF+0x50>
9d002088:	82240000 	lb	a0,0(s1)
9d00208c:	0f4012df 	jal	9d004b7c <fputc>
9d002090:	26d6ffff 	addiu	s6,s6,-1
9d002094:	00021027 	nor	v0,zero,v0
9d002098:	0002102b 	sltu	v0,zero,v0
9d00209c:	02028021 	addu	s0,s0,v0
9d0020a0:	24040020 	li	a0,32
9d0020a4:	16c0fff9 	bnez	s6,9d00208c <_vfprintf_fF+0x28c>
9d0020a8:	02402821 	move	a1,s2
9d0020ac:	0b400807 	j	9d00201c <_vfprintf_fF+0x21c>
9d0020b0:	2416ffff 	li	s6,-1
9d0020b4:	0b4007aa 	j	9d001ea8 <_vfprintf_fF+0xa8>
9d0020b8:	24420001 	addiu	v0,v0,1
9d0020bc:	2402002a 	li	v0,42
9d0020c0:	12c201a2 	beq	s6,v0,9d00274c <_vfprintf_fF+0x94c>
9d0020c4:	2403002e 	li	v1,46
9d0020c8:	02c01021 	move	v0,s6
9d0020cc:	1443ffb5 	bne	v0,v1,9d001fa4 <_vfprintf_fF+0x1a4>
9d0020d0:	0000b021 	move	s6,zero
9d0020d4:	82220001 	lb	v0,1(s1)
9d0020d8:	2403002a 	li	v1,42
9d0020dc:	104302a7 	beq	v0,v1,9d002b7c <_vfprintf_fF+0xd7c>
9d0020e0:	36644000 	ori	a0,s3,0x4000
9d0020e4:	02821821 	addu	v1,s4,v0
9d0020e8:	90630000 	lbu	v1,0(v1)
9d0020ec:	26310001 	addiu	s1,s1,1
9d0020f0:	30630004 	andi	v1,v1,0x4
9d0020f4:	1060ffad 	beqz	v1,9d001fac <_vfprintf_fF+0x1ac>
9d0020f8:	00009821 	move	s3,zero
9d0020fc:	00131840 	sll	v1,s3,0x1
9d002100:	001398c0 	sll	s3,s3,0x3
9d002104:	26310001 	addiu	s1,s1,1
9d002108:	00739821 	addu	s3,v1,s3
9d00210c:	02629821 	addu	s3,s3,v0
9d002110:	82220000 	lb	v0,0(s1)
9d002114:	02821821 	addu	v1,s4,v0
9d002118:	90630000 	lbu	v1,0(v1)
9d00211c:	30630004 	andi	v1,v1,0x4
9d002120:	1460fff6 	bnez	v1,9d0020fc <_vfprintf_fF+0x2fc>
9d002124:	2673ffd0 	addiu	s3,s3,-48
9d002128:	0b4007ec 	j	9d001fb0 <_vfprintf_fF+0x1b0>
9d00212c:	2403006c 	li	v1,108
9d002130:	10430014 	beq	v0,v1,9d002184 <_vfprintf_fF+0x384>
9d002134:	24030078 	li	v1,120
9d002138:	10430163 	beq	v0,v1,9d0026c8 <_vfprintf_fF+0x8c8>
9d00213c:	24030073 	li	v1,115
9d002140:	1443ffaa 	bne	v0,v1,9d001fec <_vfprintf_fF+0x1ec>
9d002144:	a3a20016 	sb	v0,22(sp)
9d002148:	8fa20068 	lw	v0,104(sp)
9d00214c:	8c450000 	lw	a1,0(v0)
9d002150:	24460004 	addiu	a2,v0,4
9d002154:	10a00344 	beqz	a1,9d002e68 <_vfprintf_fF+0x1068>
9d002158:	00a0a821 	move	s5,a1
9d00215c:	80a20000 	lb	v0,0(a1)
9d002160:	10400345 	beqz	v0,9d002e78 <_vfprintf_fF+0x1078>
9d002164:	24a20001 	addiu	v0,a1,1
9d002168:	0045b823 	subu	s7,v0,a1
9d00216c:	24420001 	addiu	v0,v0,1
9d002170:	8043ffff 	lb	v1,-1(v0)
9d002174:	5460fffd 	bnezl	v1,9d00216c <_vfprintf_fF+0x36c>
9d002178:	0045b823 	subu	s7,v0,a1
9d00217c:	0b4007fd 	j	9d001ff4 <_vfprintf_fF+0x1f4>
9d002180:	afa60068 	sw	a2,104(sp)
9d002184:	a3a20016 	sb	v0,22(sp)
9d002188:	348400c0 	ori	a0,a0,0xc0
9d00218c:	afa4001c 	sw	a0,28(sp)
9d002190:	24050075 	li	a1,117
9d002194:	8fa6001c 	lw	a2,28(sp)
9d002198:	30c20700 	andi	v0,a2,0x700
9d00219c:	104000fd 	beqz	v0,9d002594 <_vfprintf_fF+0x794>
9d0021a0:	7c061620 	seh	v0,a2
9d0021a4:	30c41000 	andi	a0,a2,0x1000
9d0021a8:	30c20010 	andi	v0,a2,0x10
9d0021ac:	24030006 	li	v1,6
9d0021b0:	1440016d 	bnez	v0,9d002768 <_vfprintf_fF+0x968>
9d0021b4:	0064980b 	movn	s3,v1,a0
9d0021b8:	8fa20068 	lw	v0,104(sp)
9d0021bc:	8c570000 	lw	s7,0(v0)
9d0021c0:	24420004 	addiu	v0,v0,4
9d0021c4:	afa20068 	sw	v0,104(sp)
9d0021c8:	02e02021 	move	a0,s7
9d0021cc:	0f4014bb 	jal	9d0052ec <.LFE0>
9d0021d0:	00002821 	move	a1,zero
9d0021d4:	04400174 	bltz	v0,9d0027a8 <_vfprintf_fF+0x9a8>
9d0021d8:	3c028000 	lui	v0,0x8000
9d0021dc:	02e02021 	move	a0,s7
9d0021e0:	00002821 	move	a1,zero
9d0021e4:	0f4014bb 	jal	9d0052ec <.LFE0>
9d0021e8:	afa00010 	sw	zero,16(sp)
9d0021ec:	14400178 	bnez	v0,9d0027d0 <_vfprintf_fF+0x9d0>
9d0021f0:	0000f021 	move	s8,zero
9d0021f4:	2a620019 	slti	v0,s3,25
9d0021f8:	10400015 	beqz	v0,9d002250 <_vfprintf_fF+0x450>
9d0021fc:	2bc2000a 	slti	v0,s8,10
9d002200:	326200ff 	andi	v0,s3,0xff
9d002204:	305500ff 	andi	s5,v0,0xff
9d002208:	2ea4006e 	sltiu	a0,s5,110
9d00220c:	108002d7 	beqz	a0,9d002d6c <_vfprintf_fF+0xf6c>
9d002210:	3c0751eb 	lui	a3,0x51eb
9d002214:	2ea4000b 	sltiu	a0,s5,11
9d002218:	108002b4 	beqz	a0,9d002cec <_vfprintf_fF+0xeec>
9d00221c:	00021080 	sll	v0,v0,0x2
9d002220:	3c039d00 	lui	v1,0x9d00
9d002224:	24635528 	addiu	v1,v1,21800
9d002228:	00431021 	addu	v0,v0,v1
9d00222c:	8c440000 	lw	a0,0(v0)
9d002230:	3c029d00 	lui	v0,0x9d00
9d002234:	0f401270 	jal	9d0049c0 <.LFE4>
9d002238:	8c455244 	lw	a1,21060(v0)
9d00223c:	00402821 	move	a1,v0
9d002240:	0f400fcb 	jal	9d003f2c <__addsf3>
9d002244:	02e02021 	move	a0,s7
9d002248:	0040b821 	move	s7,v0
9d00224c:	2bc2000a 	slti	v0,s8,10
9d002250:	50400190 	beqzl	v0,9d002894 <_vfprintf_fF+0xa94>
9d002254:	8fa40024 	lw	a0,36(sp)
9d002258:	02e02021 	move	a0,s7
9d00225c:	0f4014bb 	jal	9d0052ec <.LFE0>
9d002260:	00002821 	move	a1,zero
9d002264:	10400273 	beqz	v0,9d002c34 <_vfprintf_fF+0xe34>
9d002268:	02e02021 	move	a0,s7
9d00226c:	0f401504 	jal	9d005410 <__fixunssfsi>
9d002270:	00000000 	nop
9d002274:	10400185 	beqz	v0,9d00288c <_vfprintf_fF+0xa8c>
9d002278:	2bc30002 	slti	v1,s8,2
9d00227c:	00402021 	move	a0,v0
9d002280:	0f401584 	jal	9d005610 <__floatunsisf>
9d002284:	afa2002c 	sw	v0,44(sp)
9d002288:	02e02021 	move	a0,s7
9d00228c:	0f400fc9 	jal	9d003f24 <__subsf3>
9d002290:	00402821 	move	a1,v0
9d002294:	0040f021 	move	s8,v0
9d002298:	8fac002c 	lw	t4,44(sp)
9d00229c:	0180a821 	move	s5,t4
9d0022a0:	afa00010 	sw	zero,16(sp)
9d0022a4:	00006821 	move	t5,zero
9d0022a8:	2d82000a 	sltiu	v0,t4,10
9d0022ac:	144002f5 	bnez	v0,9d002e84 <_vfprintf_fF+0x1084>
9d0022b0:	3c049d00 	lui	a0,0x9d00
9d0022b4:	24895190 	addiu	t1,a0,20880
9d0022b8:	24030002 	li	v1,2
9d0022bc:	240b0002 	li	t3,2
9d0022c0:	240a0014 	li	t2,20
9d0022c4:	8d270004 	lw	a3,4(t1)
9d0022c8:	00602821 	move	a1,v1
9d0022cc:	24660001 	addiu	a2,v1,1
9d0022d0:	14e00228 	bnez	a3,9d002b74 <_vfprintf_fF+0xd74>
9d0022d4:	00c01821 	move	v1,a2
9d0022d8:	8d220000 	lw	v0,0(t1)
9d0022dc:	7c063420 	seb	a2,a2
9d0022e0:	0182102b 	sltu	v0,t4,v0
9d0022e4:	14400223 	bnez	v0,9d002b74 <_vfprintf_fF+0xd74>
9d0022e8:	25290008 	addiu	t1,t1,8
9d0022ec:	546afff5 	bnel	v1,t2,9d0022c4 <_vfprintf_fF+0x4c4>
9d0022f0:	00c05821 	move	t3,a2
9d0022f4:	a3a60016 	sb	a2,22(sp)
9d0022f8:	24050014 	li	a1,20
9d0022fc:	02652821 	addu	a1,s3,a1
9d002300:	00ad6821 	addu	t5,a1,t5
9d002304:	02cdb023 	subu	s6,s6,t5
9d002308:	0013102b 	sltu	v0,zero,s3
9d00230c:	8fa6001c 	lw	a2,28(sp)
9d002310:	30c30003 	andi	v1,a2,0x3
9d002314:	02c2b023 	subu	s6,s6,v0
9d002318:	0003182b 	sltu	v1,zero,v1
9d00231c:	30c20004 	andi	v0,a2,0x4
9d002320:	10400172 	beqz	v0,9d0028ec <_vfprintf_fF+0xaec>
9d002324:	02c3b023 	subu	s6,s6,v1
9d002328:	30c20002 	andi	v0,a2,0x2
9d00232c:	1040024a 	beqz	v0,9d002c58 <_vfprintf_fF+0xe58>
9d002330:	8fa7001c 	lw	a3,28(sp)
9d002334:	30c40001 	andi	a0,a2,0x1
9d002338:	2402002d 	li	v0,45
9d00233c:	2403002b 	li	v1,43
9d002340:	0064100a 	movz	v0,v1,a0
9d002344:	00402021 	move	a0,v0
9d002348:	0f4012df 	jal	9d004b7c <fputc>
9d00234c:	02402821 	move	a1,s2
9d002350:	00021027 	nor	v0,zero,v0
9d002354:	0002102b 	sltu	v0,zero,v0
9d002358:	02028021 	addu	s0,s0,v0
9d00235c:	1ac002cd 	blez	s6,9d002e94 <_vfprintf_fF+0x1094>
9d002360:	8fa3001c 	lw	v1,28(sp)
9d002364:	24040030 	li	a0,48
9d002368:	0f4012df 	jal	9d004b7c <fputc>
9d00236c:	02402821 	move	a1,s2
9d002370:	00021027 	nor	v0,zero,v0
9d002374:	0002102b 	sltu	v0,zero,v0
9d002378:	26d6ffff 	addiu	s6,s6,-1
9d00237c:	16c0fff9 	bnez	s6,9d002364 <_vfprintf_fF+0x564>
9d002380:	02028021 	addu	s0,s0,v0
9d002384:	8fa6001c 	lw	a2,28(sp)
9d002388:	30d70008 	andi	s7,a2,0x8
9d00238c:	32f7ffff 	andi	s7,s7,0xffff
9d002390:	0b4008f4 	j	9d0023d0 <_vfprintf_fF+0x5d0>
9d002394:	afb70018 	sw	s7,24(sp)
9d002398:	8cc70004 	lw	a3,4(a2)
9d00239c:	0f400de4 	jal	9d003790 <__udivdi3>
9d0023a0:	8cc60000 	lw	a2,0(a2)
9d0023a4:	00402021 	move	a0,v0
9d0023a8:	00602821 	move	a1,v1
9d0023ac:	2406000a 	li	a2,10
9d0023b0:	0f400bb5 	jal	9d002ed4 <.LFE2>
9d0023b4:	00003821 	move	a3,zero
9d0023b8:	24440030 	addiu	a0,v0,48
9d0023bc:	0f4012df 	jal	9d004b7c <fputc>
9d0023c0:	02402821 	move	a1,s2
9d0023c4:	00021027 	nor	v0,zero,v0
9d0023c8:	0002102b 	sltu	v0,zero,v0
9d0023cc:	02028021 	addu	s0,s0,v0
9d0023d0:	02a02021 	move	a0,s5
9d0023d4:	00002821 	move	a1,zero
9d0023d8:	83a20016 	lb	v0,22(sp)
9d0023dc:	2443ffff 	addiu	v1,v0,-1
9d0023e0:	7c031c20 	seb	v1,v1
9d0023e4:	000330c0 	sll	a2,v1,0x3
9d0023e8:	3c079d00 	lui	a3,0x9d00
9d0023ec:	24e75180 	addiu	a3,a3,20864
9d0023f0:	00e63021 	addu	a2,a3,a2
9d0023f4:	1440ffe8 	bnez	v0,9d002398 <_vfprintf_fF+0x598>
9d0023f8:	a3a30016 	sb	v1,22(sp)
9d0023fc:	8fa20010 	lw	v0,16(sp)
9d002400:	1840000c 	blez	v0,9d002434 <_vfprintf_fF+0x634>
9d002404:	2a620013 	slti	v0,s3,19
9d002408:	24040030 	li	a0,48
9d00240c:	0f4012df 	jal	9d004b7c <fputc>
9d002410:	02402821 	move	a1,s2
9d002414:	00021027 	nor	v0,zero,v0
9d002418:	0002102b 	sltu	v0,zero,v0
9d00241c:	8fa30010 	lw	v1,16(sp)
9d002420:	2463ffff 	addiu	v1,v1,-1
9d002424:	02028021 	addu	s0,s0,v0
9d002428:	1c60fff7 	bgtz	v1,9d002408 <_vfprintf_fF+0x608>
9d00242c:	afa30010 	sw	v1,16(sp)
9d002430:	2a620013 	slti	v0,s3,19
9d002434:	14400148 	bnez	v0,9d002958 <_vfprintf_fF+0xb58>
9d002438:	7c131420 	seb	v0,s3
9d00243c:	24020012 	li	v0,18
9d002440:	a3a20016 	sb	v0,22(sp)
9d002444:	2673ffee 	addiu	s3,s3,-18
9d002448:	2404002e 	li	a0,46
9d00244c:	0f4012df 	jal	9d004b7c <fputc>
9d002450:	02402821 	move	a1,s2
9d002454:	2403ffff 	li	v1,-1
9d002458:	10430002 	beq	v0,v1,9d002464 <_vfprintf_fF+0x664>
9d00245c:	83a30016 	lb	v1,22(sp)
9d002460:	26100001 	addiu	s0,s0,1
9d002464:	00602021 	move	a0,v1
9d002468:	0f4010f3 	jal	9d0043cc <scale>
9d00246c:	afa3002c 	sw	v1,44(sp)
9d002470:	00402021 	move	a0,v0
9d002474:	0f401270 	jal	9d0049c0 <.LFE4>
9d002478:	03c02821 	move	a1,s8
9d00247c:	0f401504 	jal	9d005410 <__fixunssfsi>
9d002480:	00402021 	move	a0,v0
9d002484:	0040b821 	move	s7,v0
9d002488:	8fa3002c 	lw	v1,44(sp)
9d00248c:	2466ffff 	addiu	a2,v1,-1
9d002490:	7c063420 	seb	a2,a2
9d002494:	0000a821 	move	s5,zero
9d002498:	10600025 	beqz	v1,9d002530 <_vfprintf_fF+0x730>
9d00249c:	a3a60016 	sb	a2,22(sp)
9d0024a0:	000630c0 	sll	a2,a2,0x3
9d0024a4:	3c029d00 	lui	v0,0x9d00
9d0024a8:	24425180 	addiu	v0,v0,20864
9d0024ac:	00463021 	addu	a2,v0,a2
9d0024b0:	8cc70004 	lw	a3,4(a2)
9d0024b4:	8cc60000 	lw	a2,0(a2)
9d0024b8:	02e02021 	move	a0,s7
9d0024bc:	0f400de4 	jal	9d003790 <__udivdi3>
9d0024c0:	02a02821 	move	a1,s5
9d0024c4:	00402021 	move	a0,v0
9d0024c8:	00602821 	move	a1,v1
9d0024cc:	2406000a 	li	a2,10
9d0024d0:	0f400bb5 	jal	9d002ed4 <.LFE2>
9d0024d4:	00003821 	move	a3,zero
9d0024d8:	24440030 	addiu	a0,v0,48
9d0024dc:	0f4012df 	jal	9d004b7c <fputc>
9d0024e0:	02402821 	move	a1,s2
9d0024e4:	83be0016 	lb	s8,22(sp)
9d0024e8:	00021027 	nor	v0,zero,v0
9d0024ec:	0002102b 	sltu	v0,zero,v0
9d0024f0:	001e18c0 	sll	v1,s8,0x3
9d0024f4:	3c049d00 	lui	a0,0x9d00
9d0024f8:	24845180 	addiu	a0,a0,20864
9d0024fc:	00831821 	addu	v1,a0,v1
9d002500:	8c660000 	lw	a2,0(v1)
9d002504:	8c670004 	lw	a3,4(v1)
9d002508:	02e02021 	move	a0,s7
9d00250c:	02a02821 	move	a1,s5
9d002510:	0f400bb5 	jal	9d002ed4 <.LFE2>
9d002514:	02028021 	addu	s0,s0,v0
9d002518:	27c6ffff 	addiu	a2,s8,-1
9d00251c:	7c063420 	seb	a2,a2
9d002520:	0040b821 	move	s7,v0
9d002524:	0060a821 	move	s5,v1
9d002528:	17c0ffdd 	bnez	s8,9d0024a0 <_vfprintf_fF+0x6a0>
9d00252c:	a3a60016 	sb	a2,22(sp)
9d002530:	1260000a 	beqz	s3,9d00255c <_vfprintf_fF+0x75c>
9d002534:	8fa50018 	lw	a1,24(sp)
9d002538:	24040030 	li	a0,48
9d00253c:	0f4012df 	jal	9d004b7c <fputc>
9d002540:	02402821 	move	a1,s2
9d002544:	00021027 	nor	v0,zero,v0
9d002548:	0002102b 	sltu	v0,zero,v0
9d00254c:	2673ffff 	addiu	s3,s3,-1
9d002550:	1660fff9 	bnez	s3,9d002538 <_vfprintf_fF+0x738>
9d002554:	02028021 	addu	s0,s0,v0
9d002558:	8fa50018 	lw	a1,24(sp)
9d00255c:	50a0fe3c 	beqzl	a1,9d001e50 <_vfprintf_fF+0x50>
9d002560:	82240000 	lb	a0,0(s1)
9d002564:	5ac0fe3a 	blezl	s6,9d001e50 <_vfprintf_fF+0x50>
9d002568:	82240000 	lb	a0,0(s1)
9d00256c:	24040020 	li	a0,32
9d002570:	0f4012df 	jal	9d004b7c <fputc>
9d002574:	02402821 	move	a1,s2
9d002578:	00021027 	nor	v0,zero,v0
9d00257c:	0002102b 	sltu	v0,zero,v0
9d002580:	26d6ffff 	addiu	s6,s6,-1
9d002584:	16c0fff9 	bnez	s6,9d00256c <_vfprintf_fF+0x76c>
9d002588:	02028021 	addu	s0,s0,v0
9d00258c:	0b400794 	j	9d001e50 <_vfprintf_fF+0x50>
9d002590:	82240000 	lb	a0,0(s1)
9d002594:	0440019d 	bltz	v0,9d002c0c <_vfprintf_fF+0xe0c>
9d002598:	8fa6001c 	lw	a2,28(sp)
9d00259c:	30c20010 	andi	v0,a2,0x10
9d0025a0:	104000b0 	beqz	v0,9d002864 <_vfprintf_fF+0xa64>
9d0025a4:	8fa20068 	lw	v0,104(sp)
9d0025a8:	8fa70068 	lw	a3,104(sp)
9d0025ac:	8cf50000 	lw	s5,0(a3)
9d0025b0:	afa00018 	sw	zero,24(sp)
9d0025b4:	24e70004 	addiu	a3,a3,4
9d0025b8:	afa70068 	sw	a3,104(sp)
9d0025bc:	16600004 	bnez	s3,9d0025d0 <_vfprintf_fF+0x7d0>
9d0025c0:	8fa4001c 	lw	a0,28(sp)
9d0025c4:	8fa30018 	lw	v1,24(sp)
9d0025c8:	02a39825 	or	s3,s5,v1
9d0025cc:	2e730001 	sltiu	s3,s3,1
9d0025d0:	308400c0 	andi	a0,a0,0xc0
9d0025d4:	24020080 	li	v0,128
9d0025d8:	1082016f 	beq	a0,v0,9d002b98 <_vfprintf_fF+0xd98>
9d0025dc:	afa40020 	sw	a0,32(sp)
9d0025e0:	240200c0 	li	v0,192
9d0025e4:	1482001b 	bne	a0,v0,9d002654 <_vfprintf_fF+0x854>
9d0025e8:	00b3102a 	slt	v0,a1,s3
9d0025ec:	24020001 	li	v0,1
9d0025f0:	a3a20016 	sb	v0,22(sp)
9d0025f4:	8fa50018 	lw	a1,24(sp)
9d0025f8:	50a0022a 	beqzl	a1,9d002ea4 <_vfprintf_fF+0x10a4>
9d0025fc:	2ea2000a 	sltiu	v0,s5,10
9d002600:	3c059d00 	lui	a1,0x9d00
9d002604:	24a35190 	addiu	v1,a1,20880
9d002608:	24020003 	li	v0,3
9d00260c:	24090002 	li	t1,2
9d002610:	0b400987 	j	9d00261c <_vfprintf_fF+0x81c>
9d002614:	240a0015 	li	t2,21
9d002618:	00a04821 	move	t1,a1
9d00261c:	8c640004 	lw	a0,4(v1)
9d002620:	24470001 	addiu	a3,v0,1
9d002624:	7c022c20 	seb	a1,v0
9d002628:	8fa20018 	lw	v0,24(sp)
9d00262c:	0044302b 	sltu	a2,v0,a0
9d002630:	14c00206 	bnez	a2,9d002e4c <_vfprintf_fF+0x104c>
9d002634:	30e200ff 	andi	v0,a3,0xff
9d002638:	8fa60018 	lw	a2,24(sp)
9d00263c:	50860200 	beql	a0,a2,9d002e40 <_vfprintf_fF+0x1040>
9d002640:	8c640000 	lw	a0,0(v1)
9d002644:	144afff4 	bne	v0,t2,9d002618 <_vfprintf_fF+0x818>
9d002648:	24630008 	addiu	v1,v1,8
9d00264c:	a3a50016 	sb	a1,22(sp)
9d002650:	00b3102a 	slt	v0,a1,s3
9d002654:	104000be 	beqz	v0,9d002950 <_vfprintf_fF+0xb50>
9d002658:	0265102a 	slt	v0,s3,a1
9d00265c:	7c132c20 	seb	a1,s3
9d002660:	a3a50016 	sb	a1,22(sp)
9d002664:	12c00005 	beqz	s6,9d00267c <_vfprintf_fF+0x87c>
9d002668:	8fa3001c 	lw	v1,28(sp)
9d00266c:	8fa7001c 	lw	a3,28(sp)
9d002670:	30e20003 	andi	v0,a3,0x3
9d002674:	0002102b 	sltu	v0,zero,v0
9d002678:	02c2b023 	subu	s6,s6,v0
9d00267c:	30624000 	andi	v0,v1,0x4000
9d002680:	10400005 	beqz	v0,9d002698 <_vfprintf_fF+0x898>
9d002684:	00b6102a 	slt	v0,a1,s6
9d002688:	0276102a 	slt	v0,s3,s6
9d00268c:	02d3b023 	subu	s6,s6,s3
9d002690:	0002b00a 	movz	s6,zero,v0
9d002694:	00b6102a 	slt	v0,a1,s6
9d002698:	144000b5 	bnez	v0,9d002970 <_vfprintf_fF+0xb70>
9d00269c:	8fa6001c 	lw	a2,28(sp)
9d0026a0:	8fa3001c 	lw	v1,28(sp)
9d0026a4:	30620004 	andi	v0,v1,0x4
9d0026a8:	10400206 	beqz	v0,9d002ec4 <_vfprintf_fF+0x10c4>
9d0026ac:	30620008 	andi	v0,v1,0x8
9d0026b0:	0b400a5f 	j	9d00297c <_vfprintf_fF+0xb7c>
9d0026b4:	0000b021 	move	s6,zero
9d0026b8:	34840400 	ori	a0,a0,0x400
9d0026bc:	afa4001c 	sw	a0,28(sp)
9d0026c0:	0b400865 	j	9d002194 <_vfprintf_fF+0x394>
9d0026c4:	24050066 	li	a1,102
9d0026c8:	a3a20016 	sb	v0,22(sp)
9d0026cc:	34840080 	ori	a0,a0,0x80
9d0026d0:	afa4001c 	sw	a0,28(sp)
9d0026d4:	0b400865 	j	9d002194 <_vfprintf_fF+0x394>
9d0026d8:	24050078 	li	a1,120
9d0026dc:	30820010 	andi	v0,a0,0x10
9d0026e0:	00a03821 	move	a3,a1
9d0026e4:	00c2380a 	movz	a3,a2,v0
9d0026e8:	00e42025 	or	a0,a3,a0
9d0026ec:	0b4007ee 	j	9d001fb8 <_vfprintf_fF+0x1b8>
9d0026f0:	82220000 	lb	v0,0(s1)
9d0026f4:	8fa50068 	lw	a1,104(sp)
9d0026f8:	8ca30000 	lw	v1,0(a1)
9d0026fc:	30870010 	andi	a3,a0,0x10
9d002700:	24a60004 	addiu	a2,a1,4
9d002704:	00032fc3 	sra	a1,v1,0x1f
9d002708:	00052e00 	sll	a1,a1,0x18
9d00270c:	00031202 	srl	v0,v1,0x8
9d002710:	00a21025 	or	v0,a1,v0
9d002714:	7c022c20 	seb	a1,v0
9d002718:	10e00057 	beqz	a3,9d002878 <_vfprintf_fF+0xa78>
9d00271c:	a3a50016 	sb	a1,22(sp)
9d002720:	24420001 	addiu	v0,v0,1
9d002724:	304200ff 	andi	v0,v0,0xff
9d002728:	2c420002 	sltiu	v0,v0,2
9d00272c:	54400053 	bnezl	v0,9d00287c <_vfprintf_fF+0xa7c>
9d002730:	a3a30014 	sb	v1,20(sp)
9d002734:	a3a50014 	sb	a1,20(sp)
9d002738:	a3a30015 	sb	v1,21(sp)
9d00273c:	24170002 	li	s7,2
9d002740:	27b50014 	addiu	s5,sp,20
9d002744:	0b4007fd 	j	9d001ff4 <_vfprintf_fF+0x1f4>
9d002748:	afa60068 	sw	a2,104(sp)
9d00274c:	8fa30068 	lw	v1,104(sp)
9d002750:	8c760000 	lw	s6,0(v1)
9d002754:	26310001 	addiu	s1,s1,1
9d002758:	80a20001 	lb	v0,1(a1)
9d00275c:	24630004 	addiu	v1,v1,4
9d002760:	0b4007e6 	j	9d001f98 <_vfprintf_fF+0x198>
9d002764:	afa30068 	sw	v1,104(sp)
9d002768:	8fa70068 	lw	a3,104(sp)
9d00276c:	24e30007 	addiu	v1,a3,7
9d002770:	2402fff8 	li	v0,-8
9d002774:	00621024 	and	v0,v1,v0
9d002778:	8c440000 	lw	a0,0(v0)
9d00277c:	8c450004 	lw	a1,4(v0)
9d002780:	24420008 	addiu	v0,v0,8
9d002784:	0f40117a 	jal	9d0045e8 <.LFE1>
9d002788:	afa20068 	sw	v0,104(sp)
9d00278c:	0040b821 	move	s7,v0
9d002790:	02e02021 	move	a0,s7
9d002794:	0f4014bb 	jal	9d0052ec <.LFE0>
9d002798:	00002821 	move	a1,zero
9d00279c:	0441fe90 	bgez	v0,9d0021e0 <_vfprintf_fF+0x3e0>
9d0027a0:	02e02021 	move	a0,s7
9d0027a4:	3c028000 	lui	v0,0x8000
9d0027a8:	0057b826 	xor	s7,v0,s7
9d0027ac:	8fa3001c 	lw	v1,28(sp)
9d0027b0:	34630003 	ori	v1,v1,0x3
9d0027b4:	afa3001c 	sw	v1,28(sp)
9d0027b8:	02e02021 	move	a0,s7
9d0027bc:	00002821 	move	a1,zero
9d0027c0:	0f4014bb 	jal	9d0052ec <.LFE0>
9d0027c4:	afa00010 	sw	zero,16(sp)
9d0027c8:	1040fe8a 	beqz	v0,9d0021f4 <_vfprintf_fF+0x3f4>
9d0027cc:	0000f021 	move	s8,zero
9d0027d0:	02e02021 	move	a0,s7
9d0027d4:	0f4014e2 	jal	9d005388 <fpfrexp>
9d0027d8:	27a50010 	addiu	a1,sp,16
9d0027dc:	8fa20010 	lw	v0,16(sp)
9d0027e0:	2442ffff 	addiu	v0,v0,-1
9d0027e4:	00021840 	sll	v1,v0,0x1
9d0027e8:	00621021 	addu	v0,v1,v0
9d0027ec:	3c036666 	lui	v1,0x6666
9d0027f0:	24636667 	addiu	v1,v1,26215
9d0027f4:	00430018 	mult	v0,v1
9d0027f8:	00001810 	mfhi	v1
9d0027fc:	000217c3 	sra	v0,v0,0x1f
9d002800:	00031883 	sra	v1,v1,0x2
9d002804:	00621023 	subu	v0,v1,v0
9d002808:	2443ffff 	addiu	v1,v0,-1
9d00280c:	285e0000 	slti	s8,v0,0
9d002810:	007e100b 	movn	v0,v1,s8
9d002814:	0040f021 	move	s8,v0
9d002818:	00022023 	negu	a0,v0
9d00281c:	0f4010f3 	jal	9d0043cc <scale>
9d002820:	7c042420 	seb	a0,a0
9d002824:	00402021 	move	a0,v0
9d002828:	0f401270 	jal	9d0049c0 <.LFE4>
9d00282c:	02e02821 	move	a1,s7
9d002830:	afa20024 	sw	v0,36(sp)
9d002834:	3c029d00 	lui	v0,0x9d00
9d002838:	8c45523c 	lw	a1,21052(v0)
9d00283c:	0f4014bb 	jal	9d0052ec <.LFE0>
9d002840:	8fa40024 	lw	a0,36(sp)
9d002844:	04400147 	bltz	v0,9d002d64 <_vfprintf_fF+0xf64>
9d002848:	3c029d00 	lui	v0,0x9d00
9d00284c:	8c445240 	lw	a0,21056(v0)
9d002850:	0f4014bb 	jal	9d0052ec <.LFE0>
9d002854:	8fa50024 	lw	a1,36(sp)
9d002858:	28420001 	slti	v0,v0,1
9d00285c:	0b40087d 	j	9d0021f4 <_vfprintf_fF+0x3f4>
9d002860:	03c2f021 	addu	s8,s8,v0
9d002864:	8c550000 	lw	s5,0(v0)
9d002868:	afa00018 	sw	zero,24(sp)
9d00286c:	24420004 	addiu	v0,v0,4
9d002870:	0b40096f 	j	9d0025bc <_vfprintf_fF+0x7bc>
9d002874:	afa20068 	sw	v0,104(sp)
9d002878:	a3a30014 	sb	v1,20(sp)
9d00287c:	24170001 	li	s7,1
9d002880:	27b50014 	addiu	s5,sp,20
9d002884:	0b4007fd 	j	9d001ff4 <_vfprintf_fF+0x1f4>
9d002888:	afa60068 	sw	a2,104(sp)
9d00288c:	1460fe7b 	bnez	v1,9d00227c <_vfprintf_fF+0x47c>
9d002890:	8fa40024 	lw	a0,36(sp)
9d002894:	3c029d00 	lui	v0,0x9d00
9d002898:	24425248 	addiu	v0,v0,21064
9d00289c:	0f4014bb 	jal	9d0052ec <.LFE0>
9d0028a0:	8c450000 	lw	a1,0(v0)
9d0028a4:	044300d7 	bgezl	v0,9d002c04 <_vfprintf_fF+0xe04>
9d0028a8:	27cdffee 	addiu	t5,s8,-18
9d0028ac:	27cdffed 	addiu	t5,s8,-19
9d0028b0:	afad0010 	sw	t5,16(sp)
9d0028b4:	7c0d2420 	seb	a0,t5
9d0028b8:	0f4010f3 	jal	9d0043cc <scale>
9d0028bc:	afad002c 	sw	t5,44(sp)
9d0028c0:	afa20024 	sw	v0,36(sp)
9d0028c4:	02e02021 	move	a0,s7
9d0028c8:	0f401067 	jal	9d00419c <__divsf3>
9d0028cc:	00402821 	move	a1,v0
9d0028d0:	0f401504 	jal	9d005410 <__fixunssfsi>
9d0028d4:	00402021 	move	a0,v0
9d0028d8:	00406021 	move	t4,v0
9d0028dc:	0040a821 	move	s5,v0
9d0028e0:	0000f021 	move	s8,zero
9d0028e4:	0b4008aa 	j	9d0022a8 <_vfprintf_fF+0x4a8>
9d0028e8:	8fad002c 	lw	t5,44(sp)
9d0028ec:	8fa7001c 	lw	a3,28(sp)
9d0028f0:	30f70008 	andi	s7,a3,0x8
9d0028f4:	32f7ffff 	andi	s7,s7,0xffff
9d0028f8:	16e0000b 	bnez	s7,9d002928 <_vfprintf_fF+0xb28>
9d0028fc:	afb70018 	sw	s7,24(sp)
9d002900:	1ac0000a 	blez	s6,9d00292c <_vfprintf_fF+0xb2c>
9d002904:	8fa3001c 	lw	v1,28(sp)
9d002908:	24040020 	li	a0,32
9d00290c:	0f4012df 	jal	9d004b7c <fputc>
9d002910:	02402821 	move	a1,s2
9d002914:	00021027 	nor	v0,zero,v0
9d002918:	0002102b 	sltu	v0,zero,v0
9d00291c:	26d6ffff 	addiu	s6,s6,-1
9d002920:	16c0fff9 	bnez	s6,9d002908 <_vfprintf_fF+0xb08>
9d002924:	02028021 	addu	s0,s0,v0
9d002928:	8fa3001c 	lw	v1,28(sp)
9d00292c:	30620002 	andi	v0,v1,0x2
9d002930:	104000e9 	beqz	v0,9d002cd8 <_vfprintf_fF+0xed8>
9d002934:	8fa6001c 	lw	a2,28(sp)
9d002938:	30640001 	andi	a0,v1,0x1
9d00293c:	2402002b 	li	v0,43
9d002940:	2403002d 	li	v1,45
9d002944:	0064100b 	movn	v0,v1,a0
9d002948:	0b4008ef 	j	9d0023bc <_vfprintf_fF+0x5bc>
9d00294c:	00402021 	move	a0,v0
9d002950:	0b400999 	j	9d002664 <_vfprintf_fF+0x864>
9d002954:	00a2980b 	movn	s3,a1,v0
9d002958:	a3a20016 	sb	v0,22(sp)
9d00295c:	1440feba 	bnez	v0,9d002448 <_vfprintf_fF+0x648>
9d002960:	02629823 	subu	s3,s3,v0
9d002964:	2402ffff 	li	v0,-1
9d002968:	0b40094c 	j	9d002530 <_vfprintf_fF+0x730>
9d00296c:	a3a20016 	sb	v0,22(sp)
9d002970:	30c20004 	andi	v0,a2,0x4
9d002974:	1040006a 	beqz	v0,9d002b20 <_vfprintf_fF+0xd20>
9d002978:	02c5b023 	subu	s6,s6,a1
9d00297c:	8fa7001c 	lw	a3,28(sp)
9d002980:	30e20002 	andi	v0,a3,0x2
9d002984:	104000af 	beqz	v0,9d002c44 <_vfprintf_fF+0xe44>
9d002988:	8fa3001c 	lw	v1,28(sp)
9d00298c:	30e40001 	andi	a0,a3,0x1
9d002990:	2402002d 	li	v0,45
9d002994:	2403002b 	li	v1,43
9d002998:	0064100a 	movz	v0,v1,a0
9d00299c:	00402021 	move	a0,v0
9d0029a0:	0f4012df 	jal	9d004b7c <fputc>
9d0029a4:	02402821 	move	a1,s2
9d0029a8:	00021027 	nor	v0,zero,v0
9d0029ac:	0002102b 	sltu	v0,zero,v0
9d0029b0:	02028021 	addu	s0,s0,v0
9d0029b4:	16c00031 	bnez	s6,9d002a7c <_vfprintf_fF+0xc7c>
9d0029b8:	24040030 	li	a0,48
9d0029bc:	8fa6001c 	lw	a2,28(sp)
9d0029c0:	30c20008 	andi	v0,a2,0x8
9d0029c4:	3042ffff 	andi	v0,v0,0xffff
9d0029c8:	afa20028 	sw	v0,40(sp)
9d0029cc:	0260b821 	move	s7,s3
9d0029d0:	2669ffff 	addiu	t1,s3,-1
9d0029d4:	000998c0 	sll	s3,t1,0x3
9d0029d8:	3c049d00 	lui	a0,0x9d00
9d0029dc:	24845180 	addiu	a0,a0,20864
9d0029e0:	00939821 	addu	s3,a0,s3
9d0029e4:	0009f080 	sll	s8,t1,0x2
9d0029e8:	8fa50018 	lw	a1,24(sp)
9d0029ec:	00052840 	sll	a1,a1,0x1
9d0029f0:	12e00012 	beqz	s7,9d002a3c <_vfprintf_fF+0xc3c>
9d0029f4:	afa5001c 	sw	a1,28(sp)
9d0029f8:	8fa60020 	lw	a2,32(sp)
9d0029fc:	24070080 	li	a3,128
9d002a00:	10c70036 	beq	a2,a3,9d002adc <_vfprintf_fF+0xcdc>
9d002a04:	240200c0 	li	v0,192
9d002a08:	02a02021 	move	a0,s5
9d002a0c:	10c20027 	beq	a2,v0,9d002aac <_vfprintf_fF+0xcac>
9d002a10:	8fa50018 	lw	a1,24(sp)
9d002a14:	83a40016 	lb	a0,22(sp)
9d002a18:	0f4012df 	jal	9d004b7c <fputc>
9d002a1c:	02402821 	move	a1,s2
9d002a20:	00021027 	nor	v0,zero,v0
9d002a24:	0002102b 	sltu	v0,zero,v0
9d002a28:	02028021 	addu	s0,s0,v0
9d002a2c:	26f7ffff 	addiu	s7,s7,-1
9d002a30:	2673fff8 	addiu	s3,s3,-8
9d002a34:	16e0fff0 	bnez	s7,9d0029f8 <_vfprintf_fF+0xbf8>
9d002a38:	27defffc 	addiu	s8,s8,-4
9d002a3c:	8fa70028 	lw	a3,40(sp)
9d002a40:	50e0fd03 	beqzl	a3,9d001e50 <_vfprintf_fF+0x50>
9d002a44:	82240000 	lb	a0,0(s1)
9d002a48:	5ac0fd01 	blezl	s6,9d001e50 <_vfprintf_fF+0x50>
9d002a4c:	82240000 	lb	a0,0(s1)
9d002a50:	24040020 	li	a0,32
9d002a54:	0f4012df 	jal	9d004b7c <fputc>
9d002a58:	02402821 	move	a1,s2
9d002a5c:	00021027 	nor	v0,zero,v0
9d002a60:	0002102b 	sltu	v0,zero,v0
9d002a64:	26d6ffff 	addiu	s6,s6,-1
9d002a68:	16c0fff9 	bnez	s6,9d002a50 <_vfprintf_fF+0xc50>
9d002a6c:	02028021 	addu	s0,s0,v0
9d002a70:	0b400794 	j	9d001e50 <_vfprintf_fF+0x50>
9d002a74:	82240000 	lb	a0,0(s1)
9d002a78:	24040030 	li	a0,48
9d002a7c:	0f4012df 	jal	9d004b7c <fputc>
9d002a80:	02402821 	move	a1,s2
9d002a84:	00021027 	nor	v0,zero,v0
9d002a88:	0002102b 	sltu	v0,zero,v0
9d002a8c:	26d6ffff 	addiu	s6,s6,-1
9d002a90:	16c0fff9 	bnez	s6,9d002a78 <_vfprintf_fF+0xc78>
9d002a94:	02028021 	addu	s0,s0,v0
9d002a98:	8fa7001c 	lw	a3,28(sp)
9d002a9c:	30e20008 	andi	v0,a3,0x8
9d002aa0:	3042ffff 	andi	v0,v0,0xffff
9d002aa4:	0b400a73 	j	9d0029cc <_vfprintf_fF+0xbcc>
9d002aa8:	afa20028 	sw	v0,40(sp)
9d002aac:	8e660000 	lw	a2,0(s3)
9d002ab0:	0f400de4 	jal	9d003790 <__udivdi3>
9d002ab4:	8e670004 	lw	a3,4(s3)
9d002ab8:	00402021 	move	a0,v0
9d002abc:	00602821 	move	a1,v1
9d002ac0:	2406000a 	li	a2,10
9d002ac4:	0f400bb5 	jal	9d002ed4 <.LFE2>
9d002ac8:	00003821 	move	a3,zero
9d002acc:	24420030 	addiu	v0,v0,48
9d002ad0:	7c022420 	seb	a0,v0
9d002ad4:	0b400a86 	j	9d002a18 <_vfprintf_fF+0xc18>
9d002ad8:	a3a40016 	sb	a0,22(sp)
9d002adc:	001e1827 	nor	v1,zero,s8
9d002ae0:	8fa4001c 	lw	a0,28(sp)
9d002ae4:	00641804 	sllv	v1,a0,v1
9d002ae8:	03d51006 	srlv	v0,s5,s8
9d002aec:	33c40020 	andi	a0,s8,0x20
9d002af0:	00621025 	or	v0,v1,v0
9d002af4:	8fa50018 	lw	a1,24(sp)
9d002af8:	03c51806 	srlv	v1,a1,s8
9d002afc:	0064100b 	movn	v0,v1,a0
9d002b00:	3042000f 	andi	v0,v0,0xf
9d002b04:	3c069d00 	lui	a2,0x9d00
9d002b08:	24c65228 	addiu	a2,a2,21032
9d002b0c:	00c21021 	addu	v0,a2,v0
9d002b10:	80420000 	lb	v0,0(v0)
9d002b14:	00402021 	move	a0,v0
9d002b18:	0b400a86 	j	9d002a18 <_vfprintf_fF+0xc18>
9d002b1c:	a3a20016 	sb	v0,22(sp)
9d002b20:	16c00057 	bnez	s6,9d002c80 <_vfprintf_fF+0xe80>
9d002b24:	8fa6001c 	lw	a2,28(sp)
9d002b28:	8fa3001c 	lw	v1,28(sp)
9d002b2c:	30620008 	andi	v0,v1,0x8
9d002b30:	3042ffff 	andi	v0,v0,0xffff
9d002b34:	afa20028 	sw	v0,40(sp)
9d002b38:	8fa7001c 	lw	a3,28(sp)
9d002b3c:	30e20002 	andi	v0,a3,0x2
9d002b40:	1040004a 	beqz	v0,9d002c6c <_vfprintf_fF+0xe6c>
9d002b44:	8fa3001c 	lw	v1,28(sp)
9d002b48:	30e40001 	andi	a0,a3,0x1
9d002b4c:	2402002b 	li	v0,43
9d002b50:	2403002d 	li	v1,45
9d002b54:	0064100b 	movn	v0,v1,a0
9d002b58:	00402021 	move	a0,v0
9d002b5c:	0f4012df 	jal	9d004b7c <fputc>
9d002b60:	02402821 	move	a1,s2
9d002b64:	00021027 	nor	v0,zero,v0
9d002b68:	0002102b 	sltu	v0,zero,v0
9d002b6c:	0b400a73 	j	9d0029cc <_vfprintf_fF+0xbcc>
9d002b70:	02028021 	addu	s0,s0,v0
9d002b74:	0b4008bf 	j	9d0022fc <_vfprintf_fF+0x4fc>
9d002b78:	a3ab0016 	sb	t3,22(sp)
9d002b7c:	8fa50068 	lw	a1,104(sp)
9d002b80:	8cb30000 	lw	s3,0(a1)
9d002b84:	82220002 	lb	v0,2(s1)
9d002b88:	24a50004 	addiu	a1,a1,4
9d002b8c:	afa50068 	sw	a1,104(sp)
9d002b90:	0b4007eb 	j	9d001fac <_vfprintf_fF+0x1ac>
9d002b94:	26310002 	addiu	s1,s1,2
9d002b98:	24020001 	li	v0,1
9d002b9c:	a3a20016 	sb	v0,22(sp)
9d002ba0:	8fa70018 	lw	a3,24(sp)
9d002ba4:	50e000c3 	beqzl	a3,9d002eb4 <_vfprintf_fF+0x10b4>
9d002ba8:	2ea20010 	sltiu	v0,s5,16
9d002bac:	24050002 	li	a1,2
9d002bb0:	24030100 	li	v1,256
9d002bb4:	00001021 	move	v0,zero
9d002bb8:	0b400af1 	j	9d002bc4 <_vfprintf_fF+0xdc4>
9d002bbc:	240a0010 	li	t2,16
9d002bc0:	00802821 	move	a1,a0
9d002bc4:	24a40001 	addiu	a0,a1,1
9d002bc8:	8fa70018 	lw	a3,24(sp)
9d002bcc:	00e2302b 	sltu	a2,a3,v0
9d002bd0:	00034f02 	srl	t1,v1,0x1c
9d002bd4:	00023900 	sll	a3,v0,0x4
9d002bd8:	14c0fe9c 	bnez	a2,9d00264c <_vfprintf_fF+0x84c>
9d002bdc:	7c042420 	seb	a0,a0
9d002be0:	8fa60018 	lw	a2,24(sp)
9d002be4:	5046009c 	beql	v0,a2,9d002e58 <_vfprintf_fF+0x1058>
9d002be8:	02a3102b 	sltu	v0,s5,v1
9d002bec:	00031900 	sll	v1,v1,0x4
9d002bf0:	148afff3 	bne	a0,t2,9d002bc0 <_vfprintf_fF+0xdc0>
9d002bf4:	01271025 	or	v0,t1,a3
9d002bf8:	a3aa0016 	sb	t2,22(sp)
9d002bfc:	0b400994 	j	9d002650 <_vfprintf_fF+0x850>
9d002c00:	24050010 	li	a1,16
9d002c04:	0b400a2d 	j	9d0028b4 <_vfprintf_fF+0xab4>
9d002c08:	afad0010 	sw	t5,16(sp)
9d002c0c:	8fa70068 	lw	a3,104(sp)
9d002c10:	24e30007 	addiu	v1,a3,7
9d002c14:	2402fff8 	li	v0,-8
9d002c18:	00621024 	and	v0,v1,v0
9d002c1c:	24430008 	addiu	v1,v0,8
9d002c20:	afa30068 	sw	v1,104(sp)
9d002c24:	8c550000 	lw	s5,0(v0)
9d002c28:	8c420004 	lw	v0,4(v0)
9d002c2c:	0b40096f 	j	9d0025bc <_vfprintf_fF+0x7bc>
9d002c30:	afa20018 	sw	v0,24(sp)
9d002c34:	0f401504 	jal	9d005410 <__fixunssfsi>
9d002c38:	00000000 	nop
9d002c3c:	0b4008a0 	j	9d002280 <_vfprintf_fF+0x480>
9d002c40:	00402021 	move	a0,v0
9d002c44:	30620001 	andi	v0,v1,0x1
9d002c48:	1040ff5a 	beqz	v0,9d0029b4 <_vfprintf_fF+0xbb4>
9d002c4c:	24040020 	li	a0,32
9d002c50:	0b400a68 	j	9d0029a0 <_vfprintf_fF+0xba0>
9d002c54:	00000000 	nop
9d002c58:	30e20001 	andi	v0,a3,0x1
9d002c5c:	1040fdbf 	beqz	v0,9d00235c <_vfprintf_fF+0x55c>
9d002c60:	24040020 	li	a0,32
9d002c64:	0b4008d2 	j	9d002348 <_vfprintf_fF+0x548>
9d002c68:	00000000 	nop
9d002c6c:	30620001 	andi	v0,v1,0x1
9d002c70:	1040ff57 	beqz	v0,9d0029d0 <_vfprintf_fF+0xbd0>
9d002c74:	0260b821 	move	s7,s3
9d002c78:	0b400ad7 	j	9d002b5c <_vfprintf_fF+0xd5c>
9d002c7c:	24040020 	li	a0,32
9d002c80:	30c20008 	andi	v0,a2,0x8
9d002c84:	3042ffff 	andi	v0,v0,0xffff
9d002c88:	1440ffab 	bnez	v0,9d002b38 <_vfprintf_fF+0xd38>
9d002c8c:	afa20028 	sw	v0,40(sp)
9d002c90:	24040020 	li	a0,32
9d002c94:	0f4012df 	jal	9d004b7c <fputc>
9d002c98:	02402821 	move	a1,s2
9d002c9c:	00021027 	nor	v0,zero,v0
9d002ca0:	0002102b 	sltu	v0,zero,v0
9d002ca4:	26d6ffff 	addiu	s6,s6,-1
9d002ca8:	12c0ffa3 	beqz	s6,9d002b38 <_vfprintf_fF+0xd38>
9d002cac:	02028021 	addu	s0,s0,v0
9d002cb0:	24040020 	li	a0,32
9d002cb4:	0f4012df 	jal	9d004b7c <fputc>
9d002cb8:	02402821 	move	a1,s2
9d002cbc:	00021027 	nor	v0,zero,v0
9d002cc0:	0002102b 	sltu	v0,zero,v0
9d002cc4:	26d6ffff 	addiu	s6,s6,-1
9d002cc8:	16c0fff1 	bnez	s6,9d002c90 <_vfprintf_fF+0xe90>
9d002ccc:	02028021 	addu	s0,s0,v0
9d002cd0:	0b400acf 	j	9d002b3c <_vfprintf_fF+0xd3c>
9d002cd4:	8fa7001c 	lw	a3,28(sp)
9d002cd8:	30c20001 	andi	v0,a2,0x1
9d002cdc:	1040fdbc 	beqz	v0,9d0023d0 <_vfprintf_fF+0x5d0>
9d002ce0:	24040020 	li	a0,32
9d002ce4:	0b4008ef 	j	9d0023bc <_vfprintf_fF+0x5bc>
9d002ce8:	00000000 	nop
9d002cec:	3c06cccc 	lui	a2,0xcccc
9d002cf0:	34c6cccd 	ori	a2,a2,0xcccd
9d002cf4:	02a60019 	multu	s5,a2
9d002cf8:	00003010 	mfhi	a2
9d002cfc:	3c079d00 	lui	a3,0x9d00
9d002d00:	24e75528 	addiu	a3,a3,21800
9d002d04:	3c029d00 	lui	v0,0x9d00
9d002d08:	8c455244 	lw	a1,21060(v0)
9d002d0c:	000630c2 	srl	a2,a2,0x3
9d002d10:	24c20009 	addiu	v0,a2,9
9d002d14:	00021080 	sll	v0,v0,0x2
9d002d18:	00471021 	addu	v0,v0,a3
9d002d1c:	8c440000 	lw	a0,0(v0)
9d002d20:	afa60030 	sw	a2,48(sp)
9d002d24:	0f401270 	jal	9d0049c0 <.LFE4>
9d002d28:	afa7002c 	sw	a3,44(sp)
9d002d2c:	8fa60030 	lw	a2,48(sp)
9d002d30:	00062040 	sll	a0,a2,0x1
9d002d34:	000630c0 	sll	a2,a2,0x3
9d002d38:	00862021 	addu	a0,a0,a2
9d002d3c:	02a41823 	subu	v1,s5,a0
9d002d40:	306300ff 	andi	v1,v1,0xff
9d002d44:	00031880 	sll	v1,v1,0x2
9d002d48:	8fa7002c 	lw	a3,44(sp)
9d002d4c:	00673821 	addu	a3,v1,a3
9d002d50:	8ce50000 	lw	a1,0(a3)
9d002d54:	0f401270 	jal	9d0049c0 <.LFE4>
9d002d58:	00402021 	move	a0,v0
9d002d5c:	0b400890 	j	9d002240 <_vfprintf_fF+0x440>
9d002d60:	00402821 	move	a1,v0
9d002d64:	0b40087d 	j	9d0021f4 <_vfprintf_fF+0x3f4>
9d002d68:	27deffff 	addiu	s8,s8,-1
9d002d6c:	34e7851f 	ori	a3,a3,0x851f
9d002d70:	02a70019 	multu	s5,a3
9d002d74:	00003810 	mfhi	a3
9d002d78:	3c069d00 	lui	a2,0x9d00
9d002d7c:	24c65528 	addiu	a2,a2,21800
9d002d80:	3c029d00 	lui	v0,0x9d00
9d002d84:	8c455244 	lw	a1,21060(v0)
9d002d88:	00073942 	srl	a3,a3,0x5
9d002d8c:	24e20012 	addiu	v0,a3,18
9d002d90:	00021080 	sll	v0,v0,0x2
9d002d94:	00461021 	addu	v0,v0,a2
9d002d98:	8c440000 	lw	a0,0(v0)
9d002d9c:	afa60030 	sw	a2,48(sp)
9d002da0:	0f401270 	jal	9d0049c0 <.LFE4>
9d002da4:	afa7002c 	sw	a3,44(sp)
9d002da8:	8fa7002c 	lw	a3,44(sp)
9d002dac:	00072080 	sll	a0,a3,0x2
9d002db0:	00073900 	sll	a3,a3,0x4
9d002db4:	00872021 	addu	a0,a0,a3
9d002db8:	00042880 	sll	a1,a0,0x2
9d002dbc:	00852021 	addu	a0,a0,a1
9d002dc0:	02a42823 	subu	a1,s5,a0
9d002dc4:	3c07cccc 	lui	a3,0xcccc
9d002dc8:	34e7cccd 	ori	a3,a3,0xcccd
9d002dcc:	30a500ff 	andi	a1,a1,0xff
9d002dd0:	00a70019 	multu	a1,a3
9d002dd4:	00002810 	mfhi	a1
9d002dd8:	00402021 	move	a0,v0
9d002ddc:	000510c2 	srl	v0,a1,0x3
9d002de0:	24420009 	addiu	v0,v0,9
9d002de4:	00021080 	sll	v0,v0,0x2
9d002de8:	8fa60030 	lw	a2,48(sp)
9d002dec:	00461021 	addu	v0,v0,a2
9d002df0:	8c450000 	lw	a1,0(v0)
9d002df4:	0f401270 	jal	9d0049c0 <.LFE4>
9d002df8:	afa7002c 	sw	a3,44(sp)
9d002dfc:	8fa7002c 	lw	a3,44(sp)
9d002e00:	02a70019 	multu	s5,a3
9d002e04:	00003810 	mfhi	a3
9d002e08:	00402021 	move	a0,v0
9d002e0c:	000710c2 	srl	v0,a3,0x3
9d002e10:	00022840 	sll	a1,v0,0x1
9d002e14:	000210c0 	sll	v0,v0,0x3
9d002e18:	00a21021 	addu	v0,a1,v0
9d002e1c:	02a21023 	subu	v0,s5,v0
9d002e20:	304200ff 	andi	v0,v0,0xff
9d002e24:	00021080 	sll	v0,v0,0x2
9d002e28:	8fa60030 	lw	a2,48(sp)
9d002e2c:	00463021 	addu	a2,v0,a2
9d002e30:	0f401270 	jal	9d0049c0 <.LFE4>
9d002e34:	8cc50000 	lw	a1,0(a2)
9d002e38:	0b400890 	j	9d002240 <_vfprintf_fF+0x440>
9d002e3c:	00402821 	move	a1,v0
9d002e40:	02a4202b 	sltu	a0,s5,a0
9d002e44:	1080fdff 	beqz	a0,9d002644 <_vfprintf_fF+0x844>
9d002e48:	00000000 	nop
9d002e4c:	a3a90016 	sb	t1,22(sp)
9d002e50:	0b400994 	j	9d002650 <_vfprintf_fF+0x850>
9d002e54:	01202821 	move	a1,t1
9d002e58:	5040ff65 	beqzl	v0,9d002bf0 <_vfprintf_fF+0xdf0>
9d002e5c:	00031900 	sll	v1,v1,0x4
9d002e60:	0b400994 	j	9d002650 <_vfprintf_fF+0x850>
9d002e64:	a3a50016 	sb	a1,22(sp)
9d002e68:	3c089d00 	lui	t0,0x9d00
9d002e6c:	25155220 	addiu	s5,t0,21024
9d002e70:	0b400857 	j	9d00215c <_vfprintf_fF+0x35c>
9d002e74:	02a02821 	move	a1,s5
9d002e78:	afa60068 	sw	a2,104(sp)
9d002e7c:	0b4007fd 	j	9d001ff4 <_vfprintf_fF+0x1f4>
9d002e80:	0000b821 	move	s7,zero
9d002e84:	24020001 	li	v0,1
9d002e88:	a3a20016 	sb	v0,22(sp)
9d002e8c:	0b4008bf 	j	9d0022fc <_vfprintf_fF+0x4fc>
9d002e90:	24050001 	li	a1,1
9d002e94:	30770008 	andi	s7,v1,0x8
9d002e98:	32f7ffff 	andi	s7,s7,0xffff
9d002e9c:	0b4008f4 	j	9d0023d0 <_vfprintf_fF+0x5d0>
9d002ea0:	afb70018 	sw	s7,24(sp)
9d002ea4:	5040fdd7 	beqzl	v0,9d002604 <_vfprintf_fF+0x804>
9d002ea8:	3c059d00 	lui	a1,0x9d00
9d002eac:	0b400994 	j	9d002650 <_vfprintf_fF+0x850>
9d002eb0:	24050001 	li	a1,1
9d002eb4:	5040ff3e 	beqzl	v0,9d002bb0 <_vfprintf_fF+0xdb0>
9d002eb8:	24050002 	li	a1,2
9d002ebc:	0b400994 	j	9d002650 <_vfprintf_fF+0x850>
9d002ec0:	24050001 	li	a1,1
9d002ec4:	3042ffff 	andi	v0,v0,0xffff
9d002ec8:	afa20028 	sw	v0,40(sp)
9d002ecc:	0b400ace 	j	9d002b38 <_vfprintf_fF+0xd38>
9d002ed0:	0000b021 	move	s6,zero

Disassembly of section .text:

9d002ed4 <__umoddi3>:
9d002ed4:	00c04021 	move	t0,a2
9d002ed8:	00804821 	move	t1,a0
9d002edc:	14e0003b 	bnez	a3,9d002fcc <__umoddi3+0xf8>
9d002ee0:	00a01821 	move	v1,a1
9d002ee4:	00a6102b 	sltu	v0,a1,a2
9d002ee8:	10400048 	beqz	v0,9d00300c <__umoddi3+0x138>
9d002eec:	70c21020 	clz	v0,a2
9d002ef0:	50400008 	beqzl	v0,9d002f14 <__umoddi3+0x40>
9d002ef4:	00083402 	srl	a2,t0,0x10
9d002ef8:	00021823 	negu	v1,v0
9d002efc:	00452804 	sllv	a1,a1,v0
9d002f00:	00641806 	srlv	v1,a0,v1
9d002f04:	00464004 	sllv	t0,a2,v0
9d002f08:	00651825 	or	v1,v1,a1
9d002f0c:	00444804 	sllv	t1,a0,v0
9d002f10:	00083402 	srl	a2,t0,0x10
9d002f14:	0066001b 	divu	zero,v1,a2
9d002f18:	00c001f4 	teq	a2,zero,0x7
9d002f1c:	00002010 	mfhi	a0
9d002f20:	00005812 	mflo	t3
9d002f24:	310cffff 	andi	t4,t0,0xffff
9d002f28:	00095402 	srl	t2,t1,0x10
9d002f2c:	716c5802 	mul	t3,t3,t4
9d002f30:	00042400 	sll	a0,a0,0x10
9d002f34:	008a5025 	or	t2,a0,t2
9d002f38:	014b682b 	sltu	t5,t2,t3
9d002f3c:	0066001b 	divu	zero,v1,a2
9d002f40:	00c001f4 	teq	a2,zero,0x7
9d002f44:	51a00009 	beqzl	t5,9d002f6c <__umoddi3+0x98>
9d002f48:	014b5023 	subu	t2,t2,t3
9d002f4c:	01485021 	addu	t2,t2,t0
9d002f50:	0148182b 	sltu	v1,t2,t0
9d002f54:	54600005 	bnezl	v1,9d002f6c <__umoddi3+0x98>
9d002f58:	014b5023 	subu	t2,t2,t3
9d002f5c:	014b202b 	sltu	a0,t2,t3
9d002f60:	01481821 	addu	v1,t2,t0
9d002f64:	0064500b 	movn	t2,v1,a0
9d002f68:	014b5023 	subu	t2,t2,t3
9d002f6c:	3123ffff 	andi	v1,t1,0xffff
9d002f70:	0146001b 	divu	zero,t2,a2
9d002f74:	00c001f4 	teq	a2,zero,0x7
9d002f78:	00004810 	mfhi	t1
9d002f7c:	00002012 	mflo	a0
9d002f80:	708c2002 	mul	a0,a0,t4
9d002f84:	00094c00 	sll	t1,t1,0x10
9d002f88:	01234825 	or	t1,t1,v1
9d002f8c:	0124182b 	sltu	v1,t1,a0
9d002f90:	0146001b 	divu	zero,t2,a2
9d002f94:	00c001f4 	teq	a2,zero,0x7
9d002f98:	50600009 	beqzl	v1,9d002fc0 <__umoddi3+0xec>
9d002f9c:	01244823 	subu	t1,t1,a0
9d002fa0:	01284821 	addu	t1,t1,t0
9d002fa4:	0128182b 	sltu	v1,t1,t0
9d002fa8:	54600005 	bnezl	v1,9d002fc0 <__umoddi3+0xec>
9d002fac:	01244823 	subu	t1,t1,a0
9d002fb0:	0124182b 	sltu	v1,t1,a0
9d002fb4:	01284021 	addu	t0,t1,t0
9d002fb8:	0103480b 	movn	t1,t0,v1
9d002fbc:	01244823 	subu	t1,t1,a0
9d002fc0:	00491006 	srlv	v0,t1,v0
9d002fc4:	03e00008 	jr	ra
9d002fc8:	00001821 	move	v1,zero
9d002fcc:	00a7102b 	sltu	v0,a1,a3
9d002fd0:	14400047 	bnez	v0,9d0030f0 <__umoddi3+0x21c>
9d002fd4:	70ea5020 	clz	t2,a3
9d002fd8:	15400048 	bnez	t2,9d0030fc <__umoddi3+0x228>
9d002fdc:	240b0020 	li	t3,32
9d002fe0:	00e5102b 	sltu	v0,a3,a1
9d002fe4:	14400005 	bnez	v0,9d002ffc <__umoddi3+0x128>
9d002fe8:	00861023 	subu	v0,a0,a2
9d002fec:	0086402b 	sltu	t0,a0,a2
9d002ff0:	15000089 	bnez	t0,9d003218 <__umoddi3+0x344>
9d002ff4:	00801021 	move	v0,a0
9d002ff8:	00861023 	subu	v0,a0,a2
9d002ffc:	00a72823 	subu	a1,a1,a3
9d003000:	0082202b 	sltu	a0,a0,v0
9d003004:	03e00008 	jr	ra
9d003008:	00a41823 	subu	v1,a1,a0
9d00300c:	14c00006 	bnez	a2,9d003028 <__umoddi3+0x154>
9d003010:	71021020 	clz	v0,t0
9d003014:	24020001 	li	v0,1
9d003018:	0046001b 	divu	zero,v0,a2
9d00301c:	00c001f4 	teq	a2,zero,0x7
9d003020:	00004012 	mflo	t0
9d003024:	71021020 	clz	v0,t0
9d003028:	5440007d 	bnezl	v0,9d003220 <__umoddi3+0x34c>
9d00302c:	00484004 	sllv	t0,t0,v0
9d003030:	00a82823 	subu	a1,a1,t0
9d003034:	00081c02 	srl	v1,t0,0x10
9d003038:	3107ffff 	andi	a3,t0,0xffff
9d00303c:	00092402 	srl	a0,t1,0x10
9d003040:	00a3001b 	divu	zero,a1,v1
9d003044:	006001f4 	teq	v1,zero,0x7
9d003048:	00005010 	mfhi	t2
9d00304c:	00003012 	mflo	a2
9d003050:	70c73002 	mul	a2,a2,a3
9d003054:	000a5400 	sll	t2,t2,0x10
9d003058:	01442025 	or	a0,t2,a0
9d00305c:	0086502b 	sltu	t2,a0,a2
9d003060:	00a3001b 	divu	zero,a1,v1
9d003064:	006001f4 	teq	v1,zero,0x7
9d003068:	51400009 	beqzl	t2,9d003090 <__umoddi3+0x1bc>
9d00306c:	00862023 	subu	a0,a0,a2
9d003070:	00882021 	addu	a0,a0,t0
9d003074:	0088282b 	sltu	a1,a0,t0
9d003078:	54a00005 	bnezl	a1,9d003090 <__umoddi3+0x1bc>
9d00307c:	00862023 	subu	a0,a0,a2
9d003080:	0086502b 	sltu	t2,a0,a2
9d003084:	00882821 	addu	a1,a0,t0
9d003088:	00aa200b 	movn	a0,a1,t2
9d00308c:	00862023 	subu	a0,a0,a2
9d003090:	3126ffff 	andi	a2,t1,0xffff
9d003094:	0083001b 	divu	zero,a0,v1
9d003098:	006001f4 	teq	v1,zero,0x7
9d00309c:	00004810 	mfhi	t1
9d0030a0:	00002812 	mflo	a1
9d0030a4:	70a72802 	mul	a1,a1,a3
9d0030a8:	00094c00 	sll	t1,t1,0x10
9d0030ac:	01264825 	or	t1,t1,a2
9d0030b0:	0125302b 	sltu	a2,t1,a1
9d0030b4:	0083001b 	divu	zero,a0,v1
9d0030b8:	006001f4 	teq	v1,zero,0x7
9d0030bc:	50c00009 	beqzl	a2,9d0030e4 <__umoddi3+0x210>
9d0030c0:	01254823 	subu	t1,t1,a1
9d0030c4:	01284821 	addu	t1,t1,t0
9d0030c8:	0128182b 	sltu	v1,t1,t0
9d0030cc:	54600005 	bnezl	v1,9d0030e4 <__umoddi3+0x210>
9d0030d0:	01254823 	subu	t1,t1,a1
9d0030d4:	0125182b 	sltu	v1,t1,a1
9d0030d8:	01284021 	addu	t0,t1,t0
9d0030dc:	0103480b 	movn	t1,t0,v1
9d0030e0:	01254823 	subu	t1,t1,a1
9d0030e4:	00491006 	srlv	v0,t1,v0
9d0030e8:	03e00008 	jr	ra
9d0030ec:	00001821 	move	v1,zero
9d0030f0:	00801021 	move	v0,a0
9d0030f4:	03e00008 	jr	ra
9d0030f8:	00a01821 	move	v1,a1
9d0030fc:	016a5823 	subu	t3,t3,t2
9d003100:	01473804 	sllv	a3,a3,t2
9d003104:	01661006 	srlv	v0,a2,t3
9d003108:	00473825 	or	a3,v0,a3
9d00310c:	01656806 	srlv	t5,a1,t3
9d003110:	00074c02 	srl	t1,a3,0x10
9d003114:	01a9001b 	divu	zero,t5,t1
9d003118:	012001f4 	teq	t1,zero,0x7
9d00311c:	00006010 	mfhi	t4
9d003120:	00001812 	mflo	v1
9d003124:	30eeffff 	andi	t6,a3,0xffff
9d003128:	01452804 	sllv	a1,a1,t2
9d00312c:	01641006 	srlv	v0,a0,t3
9d003130:	00451025 	or	v0,v0,a1
9d003134:	00022c02 	srl	a1,v0,0x10
9d003138:	01463004 	sllv	a2,a2,t2
9d00313c:	00004012 	mflo	t0
9d003140:	706e7802 	mul	t7,v1,t6
9d003144:	000c6400 	sll	t4,t4,0x10
9d003148:	01856025 	or	t4,t4,a1
9d00314c:	018f282b 	sltu	a1,t4,t7
9d003150:	01a9001b 	divu	zero,t5,t1
9d003154:	012001f4 	teq	t1,zero,0x7
9d003158:	10a0000a 	beqz	a1,9d003184 <__umoddi3+0x2b0>
9d00315c:	01442004 	sllv	a0,a0,t2
9d003160:	01876021 	addu	t4,t4,a3
9d003164:	0187282b 	sltu	a1,t4,a3
9d003168:	14a00006 	bnez	a1,9d003184 <__umoddi3+0x2b0>
9d00316c:	2468ffff 	addiu	t0,v1,-1
9d003170:	018f282b 	sltu	a1,t4,t7
9d003174:	50a00004 	beqzl	a1,9d003188 <__umoddi3+0x2b4>
9d003178:	018f6023 	subu	t4,t4,t7
9d00317c:	2468fffe 	addiu	t0,v1,-2
9d003180:	01876021 	addu	t4,t4,a3
9d003184:	018f6023 	subu	t4,t4,t7
9d003188:	3042ffff 	andi	v0,v0,0xffff
9d00318c:	0189001b 	divu	zero,t4,t1
9d003190:	012001f4 	teq	t1,zero,0x7
9d003194:	00002810 	mfhi	a1
9d003198:	00001812 	mflo	v1
9d00319c:	00006812 	mflo	t5
9d0031a0:	706e7002 	mul	t6,v1,t6
9d0031a4:	00052c00 	sll	a1,a1,0x10
9d0031a8:	00a21025 	or	v0,a1,v0
9d0031ac:	004e282b 	sltu	a1,v0,t6
9d0031b0:	0189001b 	divu	zero,t4,t1
9d0031b4:	012001f4 	teq	t1,zero,0x7
9d0031b8:	50a00006 	beqzl	a1,9d0031d4 <__umoddi3+0x300>
9d0031bc:	00084400 	sll	t0,t0,0x10
9d0031c0:	00471021 	addu	v0,v0,a3
9d0031c4:	0047282b 	sltu	a1,v0,a3
9d0031c8:	10a0004c 	beqz	a1,9d0032fc <__umoddi3+0x428>
9d0031cc:	246dffff 	addiu	t5,v1,-1
9d0031d0:	00084400 	sll	t0,t0,0x10
9d0031d4:	01a84025 	or	t0,t5,t0
9d0031d8:	004e1023 	subu	v0,v0,t6
9d0031dc:	01060019 	multu	t0,a2
9d0031e0:	00004810 	mfhi	t1
9d0031e4:	0049182b 	sltu	v1,v0,t1
9d0031e8:	1460003e 	bnez	v1,9d0032e4 <__umoddi3+0x410>
9d0031ec:	00004012 	mflo	t0
9d0031f0:	1049004b 	beq	v0,t1,9d003320 <__umoddi3+0x44c>
9d0031f4:	00491823 	subu	v1,v0,t1
9d0031f8:	00003012 	mflo	a2
9d0031fc:	00863023 	subu	a2,a0,a2
9d003200:	0086202b 	sltu	a0,a0,a2
9d003204:	00641823 	subu	v1,v1,a0
9d003208:	01631004 	sllv	v0,v1,t3
9d00320c:	01463006 	srlv	a2,a2,t2
9d003210:	00461025 	or	v0,v0,a2
9d003214:	01431806 	srlv	v1,v1,t2
9d003218:	03e00008 	jr	ra
9d00321c:	00000000 	nop
9d003220:	24090020 	li	t1,32
9d003224:	01224823 	subu	t1,t1,v0
9d003228:	01255006 	srlv	t2,a1,t1
9d00322c:	00081c02 	srl	v1,t0,0x10
9d003230:	0143001b 	divu	zero,t2,v1
9d003234:	006001f4 	teq	v1,zero,0x7
9d003238:	00003010 	mfhi	a2
9d00323c:	00005812 	mflo	t3
9d003240:	3107ffff 	andi	a3,t0,0xffff
9d003244:	00452804 	sllv	a1,a1,v0
9d003248:	01244806 	srlv	t1,a0,t1
9d00324c:	01252825 	or	a1,t1,a1
9d003250:	00056402 	srl	t4,a1,0x10
9d003254:	00444804 	sllv	t1,a0,v0
9d003258:	71675802 	mul	t3,t3,a3
9d00325c:	00063400 	sll	a2,a2,0x10
9d003260:	01863025 	or	a2,t4,a2
9d003264:	00cb202b 	sltu	a0,a2,t3
9d003268:	0143001b 	divu	zero,t2,v1
9d00326c:	006001f4 	teq	v1,zero,0x7
9d003270:	50800006 	beqzl	a0,9d00328c <__umoddi3+0x3b8>
9d003274:	00cb3023 	subu	a2,a2,t3
9d003278:	00c83021 	addu	a2,a2,t0
9d00327c:	00c8202b 	sltu	a0,a2,t0
9d003280:	10800024 	beqz	a0,9d003314 <__umoddi3+0x440>
9d003284:	00cb502b 	sltu	t2,a2,t3
9d003288:	00cb3023 	subu	a2,a2,t3
9d00328c:	30aaffff 	andi	t2,a1,0xffff
9d003290:	00c3001b 	divu	zero,a2,v1
9d003294:	006001f4 	teq	v1,zero,0x7
9d003298:	00002010 	mfhi	a0
9d00329c:	00002812 	mflo	a1
9d0032a0:	70a72802 	mul	a1,a1,a3
9d0032a4:	00042400 	sll	a0,a0,0x10
9d0032a8:	008a2025 	or	a0,a0,t2
9d0032ac:	0085502b 	sltu	t2,a0,a1
9d0032b0:	00c3001b 	divu	zero,a2,v1
9d0032b4:	006001f4 	teq	v1,zero,0x7
9d0032b8:	5140ff60 	beqzl	t2,9d00303c <__umoddi3+0x168>
9d0032bc:	00852823 	subu	a1,a0,a1
9d0032c0:	00882021 	addu	a0,a0,t0
9d0032c4:	0088302b 	sltu	a2,a0,t0
9d0032c8:	54c0ff5c 	bnezl	a2,9d00303c <__umoddi3+0x168>
9d0032cc:	00852823 	subu	a1,a0,a1
9d0032d0:	0085502b 	sltu	t2,a0,a1
9d0032d4:	00883021 	addu	a2,a0,t0
9d0032d8:	00ca200b 	movn	a0,a2,t2
9d0032dc:	0b400c0f 	j	9d00303c <__umoddi3+0x168>
9d0032e0:	00852823 	subu	a1,a0,a1
9d0032e4:	01063023 	subu	a2,t0,a2
9d0032e8:	01271823 	subu	v1,t1,a3
9d0032ec:	0106402b 	sltu	t0,t0,a2
9d0032f0:	00681823 	subu	v1,v1,t0
9d0032f4:	0b400c7f 	j	9d0031fc <__umoddi3+0x328>
9d0032f8:	00431823 	subu	v1,v0,v1
9d0032fc:	004e282b 	sltu	a1,v0,t6
9d003300:	50a0ffb4 	beqzl	a1,9d0031d4 <__umoddi3+0x300>
9d003304:	00084400 	sll	t0,t0,0x10
9d003308:	246dfffe 	addiu	t5,v1,-2
9d00330c:	0b400c74 	j	9d0031d0 <__umoddi3+0x2fc>
9d003310:	00471021 	addu	v0,v0,a3
9d003314:	00c82021 	addu	a0,a2,t0
9d003318:	0b400ca2 	j	9d003288 <__umoddi3+0x3b4>
9d00331c:	008a300b 	movn	a2,a0,t2
9d003320:	0088182b 	sltu	v1,a0,t0
9d003324:	5460fff0 	bnezl	v1,9d0032e8 <__umoddi3+0x414>
9d003328:	01063023 	subu	a2,t0,a2
9d00332c:	00003012 	mflo	a2
9d003330:	0b400c7f 	j	9d0031fc <__umoddi3+0x328>
9d003334:	00001821 	move	v1,zero

// wait for the peripheral master port (PMP) to be ready
// should be called before every read and write operation
static void waitPMP(void)
{
  while(PMMODEbits.BUSY) { ; }
9d003338:	3c03bf80 	lui	v1,0xbf80
9d00333c:	8c627010 	lw	v0,28688(v1)
9d003340:	30428000 	andi	v0,v0,0x8000
9d003344:	1440fffd 	bnez	v0,9d00333c <__umoddi3+0x468>
9d003348:	00000000 	nop
}
9d00334c:	03e00008 	jr	ra
9d003350:	00000000 	nop

9d003354 <LCD_Setup>:
// pins RE0 - RE7 (PMD0 - PMD7) connect to LCD pins D0 - D7
// pin RD4 (PMENB) connects to LCD pin E
// pin RD5 (PMRD/PMWR) Connects to LCD pin R/W
// pin RB13 (PMA10) Connects to RS.
// interrupts will be disabled while this function executes
void LCD_Setup() {
9d003354:	27bdffe8 	addiu	sp,sp,-24
9d003358:	afbf0014 	sw	ra,20(sp)
9d00335c:	afb00010 	sw	s0,16(sp)
  int en = __builtin_disable_interrupts();  // disable interrupts, remember initial state
9d003360:	41706000 	di	s0
9d003364:	000000c0 	ehb
  
  IEC1bits.PMPIE = 0;    // disable PMP interrupts
9d003368:	3c02bf88 	lui	v0,0xbf88
9d00336c:	8c431070 	lw	v1,4208(v0)
9d003370:	7c031084 	ins	v1,zero,0x2,0x1
9d003374:	ac431070 	sw	v1,4208(v0)
  PMCON = 0;             // clear PMCON, like it is on reset
9d003378:	3c02bf80 	lui	v0,0xbf80
9d00337c:	ac407000 	sw	zero,28672(v0)
  PMCONbits.PTWREN = 1;  // PMENB strobe enabled
9d003380:	3c02bf80 	lui	v0,0xbf80
9d003384:	94437000 	lhu	v1,28672(v0)
9d003388:	24040001 	li	a0,1
9d00338c:	7c834a44 	ins	v1,a0,0x9,0x1
9d003390:	a4437000 	sh	v1,28672(v0)
  PMCONbits.PTRDEN = 1;  // PMRD/PMWR enabled
9d003394:	94437000 	lhu	v1,28672(v0)
9d003398:	7c834204 	ins	v1,a0,0x8,0x1
9d00339c:	a4437000 	sh	v1,28672(v0)
  PMCONbits.WRSP = 1;    // Read/write strobe is active high
9d0033a0:	94437000 	lhu	v1,28672(v0)
9d0033a4:	7c830844 	ins	v1,a0,0x1,0x1
9d0033a8:	a4437000 	sh	v1,28672(v0)
  PMCONbits.RDSP = 1;    // Read/write strobe is active high
9d0033ac:	94437000 	lhu	v1,28672(v0)
9d0033b0:	7c830004 	ins	v1,a0,0x0,0x1
9d0033b4:	a4437000 	sh	v1,28672(v0)

  PMMODE = 0;            // clear PMMODE like it is on reset
9d0033b8:	3c03bf80 	lui	v1,0xbf80
9d0033bc:	ac607010 	sw	zero,28688(v1)
  PMMODEbits.MODE = 0x3; // set master mode 1, which uses a single strobe
9d0033c0:	3c03bf80 	lui	v1,0xbf80
9d0033c4:	94657010 	lhu	a1,28688(v1)
9d0033c8:	24060003 	li	a2,3
9d0033cc:	7cc54a04 	ins	a1,a2,0x8,0x2
9d0033d0:	a4657010 	sh	a1,28688(v1)
  // The cycle is started when reading from or writing to the PMDIN SFR.
  // Note that the wait states for writes start with minimum of 1 (except WAITE)
  // We add some extra wait states to make sure we meet the time and
  // account for variations in timing amongst different HD44780 compatible parts.
  // The timing we use here is for the KS066U which is faster than the HD44780.
  PMMODEbits.WAITB = 0x3;  // Tas in the LCD datasheet is 60 ns 
9d0033d4:	94657010 	lhu	a1,28688(v1)
9d0033d8:	7cc53984 	ins	a1,a2,0x6,0x2
9d0033dc:	a4657010 	sh	a1,28688(v1)
  PMMODEbits.WAITM = 0xF;  // PWeh in the data sheet is 230 ns (we don't quite meet this)
9d0033e0:	94657010 	lhu	a1,28688(v1)
9d0033e4:	2406000f 	li	a2,15
9d0033e8:	7cc52884 	ins	a1,a2,0x2,0x4
9d0033ec:	a4657010 	sh	a1,28688(v1)
                           // If not working for your LCD you may need to reduce PBCLK
  PMMODEbits.WAITE = 0x1;  // after E is low wait Tah (10ns)
9d0033f0:	94657010 	lhu	a1,28688(v1)
9d0033f4:	7c850804 	ins	a1,a0,0x0,0x2
9d0033f8:	a4657010 	sh	a1,28688(v1)

  PMAEN |= 1 << PMABIT;   // PMA is an address line
9d0033fc:	3c03bf80 	lui	v1,0xbf80
9d003400:	8c657050 	lw	a1,28752(v1)
9d003404:	34a50400 	ori	a1,a1,0x400
9d003408:	ac657050 	sw	a1,28752(v1)
  
  PMCONbits.ON = 1;        // enable the PMP peripheral
9d00340c:	94437000 	lhu	v1,28672(v0)
9d003410:	7c837bc4 	ins	v1,a0,0xf,0x1
9d003414:	a4437000 	sh	v1,28672(v0)
// This controls some LCD settings
// You may want to clear the screen after calling this
// n : 0 one line, 1 two lines
// f : 0 small font, 1 large font (only if n == 0)
void LCD_Function(int n, int f) {
  LCD_Write(0, 0x30 | (n << 3) | (f << 2));
9d003418:	00002021 	move	a0,zero
9d00341c:	0f400da0 	jal	9d003680 <LCD_Write>
9d003420:	24050038 	li	a1,56
// Changes display settings
// d : 1 display on, 0 display off
// c : 1 cursor on, 0 cursor off
// b : 1 cursor blinks, 0 cursor doesn't blink
void LCD_Display(int d, int c, int b) {
  LCD_Write(0, 0x08 | (d << 2) | (c << 1) | b);
9d003424:	00002021 	move	a0,zero
9d003428:	0f400da0 	jal	9d003680 <LCD_Write>
9d00342c:	2405000c 	li	a1,12
  
  PMCONbits.ON = 1;        // enable the PMP peripheral
  // perform the initialization sequence
  LCD_Function(1,0);       // 2 line mode, small font
  LCD_Display(1, 0, 0);    // Display control: display on, cursor off, blinking cursor off
  LCD_Clear();             // clear the LCD 
9d003430:	0f400d18 	jal	9d003460 <LCD_Clear>
9d003434:	32100001 	andi	s0,s0,0x1
// Issue the LCD entry mode set command
// This tells the LCD what to do after writing a character
// id : 1 increment cursor, 0 decrement cursor
// s : 1 shift display right, 0 don't shift display
void LCD_Entry(int id, int s) {
  LCD_Write(0, 0x04 | (id << 1) | s);
9d003438:	00002021 	move	a0,zero
9d00343c:	0f400da0 	jal	9d003680 <LCD_Write>
9d003440:	24050006 	li	a1,6
  LCD_Function(1,0);       // 2 line mode, small font
  LCD_Display(1, 0, 0);    // Display control: display on, cursor off, blinking cursor off
  LCD_Clear();             // clear the LCD 
  LCD_Entry(1, 0);         // Cursor moves left to right. do not shift the display
  
  if(en & 0x1)             // if interrupts were enabled before, re-enable them
9d003444:	12000003 	beqz	s0,9d003454 <LCD_Setup+0x100>
9d003448:	8fbf0014 	lw	ra,20(sp)
  {
    __builtin_enable_interrupts();
9d00344c:	41626020 	ei	v0
  }
}
9d003450:	8fbf0014 	lw	ra,20(sp)
9d003454:	8fb00010 	lw	s0,16(sp)
9d003458:	03e00008 	jr	ra
9d00345c:	27bd0018 	addiu	sp,sp,24

9d003460 <LCD_Clear>:

// Clears the display and returns to the home position (0,0)
void LCD_Clear(void) {
9d003460:	27bdffe8 	addiu	sp,sp,-24
9d003464:	afbf0014 	sw	ra,20(sp)
  LCD_Write(0,0x01); //clear the whole screen
9d003468:	00002021 	move	a0,zero
9d00346c:	0f400da0 	jal	9d003680 <LCD_Write>
9d003470:	24050001 	li	a1,1
}
9d003474:	8fbf0014 	lw	ra,20(sp)
9d003478:	03e00008 	jr	ra
9d00347c:	27bd0018 	addiu	sp,sp,24

9d003480 <LCD_Home>:

// Return the cursor and display to the home position (0,0)
void LCD_Home(void) {
9d003480:	27bdffe8 	addiu	sp,sp,-24
9d003484:	afbf0014 	sw	ra,20(sp)
  LCD_Write(0,0x02);
9d003488:	00002021 	move	a0,zero
9d00348c:	0f400da0 	jal	9d003680 <LCD_Write>
9d003490:	24050002 	li	a1,2
}
9d003494:	8fbf0014 	lw	ra,20(sp)
9d003498:	03e00008 	jr	ra
9d00349c:	27bd0018 	addiu	sp,sp,24

9d0034a0 <LCD_Entry>:

// Issue the LCD entry mode set command
// This tells the LCD what to do after writing a character
// id : 1 increment cursor, 0 decrement cursor
// s : 1 shift display right, 0 don't shift display
void LCD_Entry(int id, int s) {
9d0034a0:	27bdffe8 	addiu	sp,sp,-24
9d0034a4:	afbf0014 	sw	ra,20(sp)
  LCD_Write(0, 0x04 | (id << 1) | s);
9d0034a8:	34a50004 	ori	a1,a1,0x4
9d0034ac:	00042040 	sll	a0,a0,0x1
9d0034b0:	00a42825 	or	a1,a1,a0
9d0034b4:	00002021 	move	a0,zero
9d0034b8:	0f400da0 	jal	9d003680 <LCD_Write>
9d0034bc:	30a500ff 	andi	a1,a1,0xff
}
9d0034c0:	8fbf0014 	lw	ra,20(sp)
9d0034c4:	03e00008 	jr	ra
9d0034c8:	27bd0018 	addiu	sp,sp,24

9d0034cc <LCD_Display>:
// Issue the LCD Display command
// Changes display settings
// d : 1 display on, 0 display off
// c : 1 cursor on, 0 cursor off
// b : 1 cursor blinks, 0 cursor doesn't blink
void LCD_Display(int d, int c, int b) {
9d0034cc:	27bdffe8 	addiu	sp,sp,-24
9d0034d0:	afbf0014 	sw	ra,20(sp)
  LCD_Write(0, 0x08 | (d << 2) | (c << 1) | b);
9d0034d4:	34c60008 	ori	a2,a2,0x8
9d0034d8:	00052840 	sll	a1,a1,0x1
9d0034dc:	00c53025 	or	a2,a2,a1
9d0034e0:	00042080 	sll	a0,a0,0x2
9d0034e4:	00c42825 	or	a1,a2,a0
9d0034e8:	00002021 	move	a0,zero
9d0034ec:	0f400da0 	jal	9d003680 <LCD_Write>
9d0034f0:	30a500ff 	andi	a1,a1,0xff
}
9d0034f4:	8fbf0014 	lw	ra,20(sp)
9d0034f8:	03e00008 	jr	ra
9d0034fc:	27bd0018 	addiu	sp,sp,24

9d003500 <LCD_Shift>:

// Issue the LCD display shift command
// Move the cursor or the display right or left
// sc : 0 shift cursor, 1 shift display
// rl : 0 to the left, 1 to the right
void LCD_Shift(int sc, int rl) {
9d003500:	27bdffe8 	addiu	sp,sp,-24
9d003504:	afbf0014 	sw	ra,20(sp)
  LCD_Write(0,0x1 | (sc << 3) | (rl << 2));
9d003508:	00052880 	sll	a1,a1,0x2
9d00350c:	34a50001 	ori	a1,a1,0x1
9d003510:	000420c0 	sll	a0,a0,0x3
9d003514:	00a42825 	or	a1,a1,a0
9d003518:	00002021 	move	a0,zero
9d00351c:	0f400da0 	jal	9d003680 <LCD_Write>
9d003520:	30a500fd 	andi	a1,a1,0xfd
}
9d003524:	8fbf0014 	lw	ra,20(sp)
9d003528:	03e00008 	jr	ra
9d00352c:	27bd0018 	addiu	sp,sp,24

9d003530 <LCD_Function>:
// Issue the LCD Functions set command
// This controls some LCD settings
// You may want to clear the screen after calling this
// n : 0 one line, 1 two lines
// f : 0 small font, 1 large font (only if n == 0)
void LCD_Function(int n, int f) {
9d003530:	27bdffe8 	addiu	sp,sp,-24
9d003534:	afbf0014 	sw	ra,20(sp)
  LCD_Write(0, 0x30 | (n << 3) | (f << 2));
9d003538:	00052880 	sll	a1,a1,0x2
9d00353c:	34a50030 	ori	a1,a1,0x30
9d003540:	000420c0 	sll	a0,a0,0x3
9d003544:	00a42825 	or	a1,a1,a0
9d003548:	00002021 	move	a0,zero
9d00354c:	0f400da0 	jal	9d003680 <LCD_Write>
9d003550:	30a500fc 	andi	a1,a1,0xfc
}
9d003554:	8fbf0014 	lw	ra,20(sp)
9d003558:	03e00008 	jr	ra
9d00355c:	27bd0018 	addiu	sp,sp,24

9d003560 <LCD_Move>:

// Move the cursor to the desired line and column
// Does this by issuing a DDRAM Move instruction
// line : line 0 or line 1
// col  : the desired column
void LCD_Move(int line, int col) {
9d003560:	27bdffe8 	addiu	sp,sp,-24
9d003564:	afbf0014 	sw	ra,20(sp)
  LCD_Write(0, 0x80 | (line << 6) | col);
9d003568:	2402ff80 	li	v0,-128
9d00356c:	00a22825 	or	a1,a1,v0
9d003570:	00042180 	sll	a0,a0,0x6
9d003574:	00a42825 	or	a1,a1,a0
9d003578:	00002021 	move	a0,zero
9d00357c:	0f400da0 	jal	9d003680 <LCD_Write>
9d003580:	30a500ff 	andi	a1,a1,0xff
}
9d003584:	8fbf0014 	lw	ra,20(sp)
9d003588:	03e00008 	jr	ra
9d00358c:	27bd0018 	addiu	sp,sp,24

9d003590 <LCD_CMove>:

// Sets the CGRAM address, used for creating custom
// characters
// addr address in the CGRAM to make current
void LCD_CMove(unsigned char addr) {
9d003590:	27bdffe8 	addiu	sp,sp,-24
9d003594:	afbf0014 	sw	ra,20(sp)
9d003598:	308500ff 	andi	a1,a0,0xff
  LCD_Write(0, 0x40 | addr);
9d00359c:	00002021 	move	a0,zero
9d0035a0:	0f400da0 	jal	9d003680 <LCD_Write>
9d0035a4:	34a50040 	ori	a1,a1,0x40
}
9d0035a8:	8fbf0014 	lw	ra,20(sp)
9d0035ac:	03e00008 	jr	ra
9d0035b0:	27bd0018 	addiu	sp,sp,24

9d0035b4 <LCD_WriteChar>:

// Writes the character to the LCD at the current position
void LCD_WriteChar(char c) {         
9d0035b4:	27bdffe8 	addiu	sp,sp,-24
9d0035b8:	afbf0014 	sw	ra,20(sp)
  LCD_Write(1, c); 
9d0035bc:	308500ff 	andi	a1,a0,0xff
9d0035c0:	0f400da0 	jal	9d003680 <LCD_Write>
9d0035c4:	24040001 	li	a0,1
}
9d0035c8:	8fbf0014 	lw	ra,20(sp)
9d0035cc:	03e00008 	jr	ra
9d0035d0:	27bd0018 	addiu	sp,sp,24

9d0035d4 <LCD_WriteString>:

// Write a string to the LCD starting at the current cursor
void LCD_WriteString(const char *str) {
9d0035d4:	27bdffe8 	addiu	sp,sp,-24
9d0035d8:	afbf0014 	sw	ra,20(sp)
9d0035dc:	afb00010 	sw	s0,16(sp)
9d0035e0:	00808021 	move	s0,a0
  while(*str) {
9d0035e4:	80840000 	lb	a0,0(a0)
9d0035e8:	10800006 	beqz	a0,9d003604 <LCD_WriteString+0x30>
9d0035ec:	8fbf0014 	lw	ra,20(sp)
    LCD_WriteChar(*str); // increment string pointer after char sent
9d0035f0:	0f400d6d 	jal	9d0035b4 <LCD_WriteChar>
9d0035f4:	26100001 	addiu	s0,s0,1
  LCD_Write(1, c); 
}

// Write a string to the LCD starting at the current cursor
void LCD_WriteString(const char *str) {
  while(*str) {
9d0035f8:	82040000 	lb	a0,0(s0)
9d0035fc:	1480fffc 	bnez	a0,9d0035f0 <LCD_WriteString+0x1c>
9d003600:	8fbf0014 	lw	ra,20(sp)
    LCD_WriteChar(*str); // increment string pointer after char sent
    ++str;
  }
}
9d003604:	8fb00010 	lw	s0,16(sp)
9d003608:	03e00008 	jr	ra
9d00360c:	27bd0018 	addiu	sp,sp,24

9d003610 <LCD_CustomChar>:
// Make val a custom character.  This only implements 
// The small font version
// val : between 0 and 7
// data : 7 character array.  The first 5 bits of each character
//        determine whether that pixel is on or off
void LCD_CustomChar(unsigned char val, const char * data) {
9d003610:	27bdffd8 	addiu	sp,sp,-40
9d003614:	afbf0024 	sw	ra,36(sp)
9d003618:	afb30020 	sw	s3,32(sp)
9d00361c:	afb2001c 	sw	s2,28(sp)
9d003620:	afb10018 	sw	s1,24(sp)
9d003624:	afb00014 	sw	s0,20(sp)
9d003628:	00a09821 	move	s3,a1
  int i = 0;
  for(i = 0; i < 7; ++i) {
    LCD_CMove(((val & 7) << 2) | i);
9d00362c:	30840007 	andi	a0,a0,0x7
9d003630:	00049080 	sll	s2,a0,0x2
// val : between 0 and 7
// data : 7 character array.  The first 5 bits of each character
//        determine whether that pixel is on or off
void LCD_CustomChar(unsigned char val, const char * data) {
  int i = 0;
  for(i = 0; i < 7; ++i) {
9d003634:	00008021 	move	s0,zero
9d003638:	24110007 	li	s1,7
    LCD_CMove(((val & 7) << 2) | i);
9d00363c:	02502025 	or	a0,s2,s0
9d003640:	0f400d64 	jal	9d003590 <LCD_CMove>
9d003644:	308400ff 	andi	a0,a0,0xff
9d003648:	02701021 	addu	v0,s3,s0
    LCD_Write(1, data[i]);
9d00364c:	24040001 	li	a0,1
9d003650:	0f400da0 	jal	9d003680 <LCD_Write>
9d003654:	90450000 	lbu	a1,0(v0)
// val : between 0 and 7
// data : 7 character array.  The first 5 bits of each character
//        determine whether that pixel is on or off
void LCD_CustomChar(unsigned char val, const char * data) {
  int i = 0;
  for(i = 0; i < 7; ++i) {
9d003658:	26100001 	addiu	s0,s0,1
9d00365c:	1611fff8 	bne	s0,s1,9d003640 <LCD_CustomChar+0x30>
9d003660:	02502025 	or	a0,s2,s0
    LCD_CMove(((val & 7) << 2) | i);
    LCD_Write(1, data[i]);
  }
}
9d003664:	8fbf0024 	lw	ra,36(sp)
9d003668:	8fb30020 	lw	s3,32(sp)
9d00366c:	8fb2001c 	lw	s2,28(sp)
9d003670:	8fb10018 	lw	s1,24(sp)
9d003674:	8fb00014 	lw	s0,20(sp)
9d003678:	03e00008 	jr	ra
9d00367c:	27bd0028 	addiu	sp,sp,40

9d003680 <LCD_Write>:

// Write data to the LCD and wait for it to finish by checking the busy flag. 
// rs : the value of the RS signal, 0 for an instruction 1 for data
// data : the byte to send
void LCD_Write(int rs, unsigned char data) {
9d003680:	27bdffd8 	addiu	sp,sp,-40
9d003684:	afbf0024 	sw	ra,36(sp)
9d003688:	afb10020 	sw	s1,32(sp)
9d00368c:	afb0001c 	sw	s0,28(sp)
9d003690:	00808021 	move	s0,a0
9d003694:	30b100ff 	andi	s1,a1,0xff
}

// wait for the LCD to finish its command.
// We check this by reading from the LCD
static void waitLCD() {
  volatile unsigned char val = 0x80;
9d003698:	2402ff80 	li	v0,-128
9d00369c:	a3a20010 	sb	v0,16(sp)
  
  // Read from the LCD until the Busy flag (BF, 7th bit) is 0
  while (val & 0x80) {
9d0036a0:	93a20010 	lbu	v0,16(sp)
9d0036a4:	7c021420 	seb	v0,v0
9d0036a8:	04410008 	bgez	v0,9d0036cc <LCD_Write+0x4c>
9d0036ac:	24020032 	li	v0,50
    val = LCD_Read(0);
9d0036b0:	0f400dc8 	jal	9d003720 <LCD_Read>
9d0036b4:	00002021 	move	a0,zero
9d0036b8:	a3a20010 	sb	v0,16(sp)
// We check this by reading from the LCD
static void waitLCD() {
  volatile unsigned char val = 0x80;
  
  // Read from the LCD until the Busy flag (BF, 7th bit) is 0
  while (val & 0x80) {
9d0036bc:	93a20010 	lbu	v0,16(sp)
9d0036c0:	7c021420 	seb	v0,v0
9d0036c4:	0440fffa 	bltz	v0,9d0036b0 <LCD_Write+0x30>
9d0036c8:	24020032 	li	v0,50
    val = LCD_Read(0);
  }
  int i = 0;
  for(i = 0; i < 50; ++i) { // slight delay
    _nop();
9d0036cc:	00000040 	ssnop
9d0036d0:	2442ffff 	addiu	v0,v0,-1
  // Read from the LCD until the Busy flag (BF, 7th bit) is 0
  while (val & 0x80) {
    val = LCD_Read(0);
  }
  int i = 0;
  for(i = 0; i < 50; ++i) { // slight delay
9d0036d4:	1440fffd 	bnez	v0,9d0036cc <LCD_Write+0x4c>
9d0036d8:	00000000 	nop
// Write data to the LCD and wait for it to finish by checking the busy flag. 
// rs : the value of the RS signal, 0 for an instruction 1 for data
// data : the byte to send
void LCD_Write(int rs, unsigned char data) {
  waitLCD();           // wait for the LCD to be ready
  if(rs) { // 1 for data
9d0036dc:	12000004 	beqz	s0,9d0036f0 <LCD_Write+0x70>
9d0036e0:	24030400 	li	v1,1024
    PMADDRSET = 1 << PMABIT;
9d0036e4:	3c02bf80 	lui	v0,0xbf80
9d0036e8:	0b400dbe 	j	9d0036f8 <LCD_Write+0x78>
9d0036ec:	ac437028 	sw	v1,28712(v0)
  } else { // 0 for command
    PMADDRCLR = 1 << PMABIT; 
9d0036f0:	3c02bf80 	lui	v0,0xbf80
9d0036f4:	ac437024 	sw	v1,28708(v0)
  }
  waitPMP();           // Wait for the PMP to be ready
9d0036f8:	0f400cce 	jal	9d003338 <__umoddi3+0x464>
9d0036fc:	00000000 	nop
  PMDIN = data;        // send the data
9d003700:	3c02bf80 	lui	v0,0xbf80
9d003704:	ac517040 	sw	s1,28736(v0)
}
9d003708:	0b400dc4 	j	9d003710 <LCD_Write+0x90>
9d00370c:	8fbf0024 	lw	ra,36(sp)
9d003710:	8fb10020 	lw	s1,32(sp)
9d003714:	8fb0001c 	lw	s0,28(sp)
9d003718:	03e00008 	jr	ra
9d00371c:	27bd0028 	addiu	sp,sp,40

9d003720 <LCD_Read>:

// read data from the LCD.  
// rs : the value of the RS signal 0 for instructions status, 1 for data
unsigned char LCD_Read(int rs) {
9d003720:	27bdffe0 	addiu	sp,sp,-32
9d003724:	afbf001c 	sw	ra,28(sp)
9d003728:	afb00018 	sw	s0,24(sp)
  volatile unsigned char val = 0; // volatile so 1st read doesn't get optimized away
9d00372c:	a3a00010 	sb	zero,16(sp)
  if(rs) { // 1 to read data
9d003730:	10800005 	beqz	a0,9d003748 <LCD_Read+0x28>
9d003734:	24030400 	li	v1,1024
    PMADDRSET = 1 << PMABIT;
9d003738:	3c02bf80 	lui	v0,0xbf80
9d00373c:	ac437028 	sw	v1,28712(v0)
9d003740:	0b400dd4 	j	9d003750 <LCD_Read+0x30>
9d003744:	00000000 	nop
  } else { // 0 to read command status
    PMADDRCLR = 1 << PMABIT;
9d003748:	3c02bf80 	lui	v0,0xbf80
9d00374c:	ac437024 	sw	v1,28708(v0)
  }
  // from the PIC32 reference manual, you must read twice to actually get the data
  waitPMP();                  // wait for the PMP to be ready
9d003750:	0f400cce 	jal	9d003338 <__umoddi3+0x464>
9d003754:	3c10bf80 	lui	s0,0xbf80
  val = PMDIN;
9d003758:	8e027040 	lw	v0,28736(s0)
9d00375c:	304200ff 	andi	v0,v0,0xff
9d003760:	a3a20010 	sb	v0,16(sp)
  waitPMP();
9d003764:	0f400cce 	jal	9d003338 <__umoddi3+0x464>
9d003768:	00000000 	nop
  val = PMDIN;
9d00376c:	8e027040 	lw	v0,28736(s0)
9d003770:	304200ff 	andi	v0,v0,0xff
9d003774:	a3a20010 	sb	v0,16(sp)
  return val;
9d003778:	93a20010 	lbu	v0,16(sp)
}
9d00377c:	304200ff 	andi	v0,v0,0xff
9d003780:	8fbf001c 	lw	ra,28(sp)
9d003784:	8fb00018 	lw	s0,24(sp)
9d003788:	03e00008 	jr	ra
9d00378c:	27bd0020 	addiu	sp,sp,32

9d003790 <__udivdi3>:
9d003790:	00c04021 	move	t0,a2
9d003794:	00801021 	move	v0,a0
9d003798:	14e0003f 	bnez	a3,9d003898 <__udivdi3+0x108>
9d00379c:	00a04821 	move	t1,a1
9d0037a0:	00a6182b 	sltu	v1,a1,a2
9d0037a4:	10600047 	beqz	v1,9d0038c4 <__udivdi3+0x134>
9d0037a8:	70c31820 	clz	v1,a2
9d0037ac:	50600008 	beqzl	v1,9d0037d0 <__udivdi3+0x40>
9d0037b0:	00081c02 	srl	v1,t0,0x10
9d0037b4:	00034823 	negu	t1,v1
9d0037b8:	00652804 	sllv	a1,a1,v1
9d0037bc:	01244806 	srlv	t1,a0,t1
9d0037c0:	00664004 	sllv	t0,a2,v1
9d0037c4:	01254825 	or	t1,t1,a1
9d0037c8:	00641004 	sllv	v0,a0,v1
9d0037cc:	00081c02 	srl	v1,t0,0x10
9d0037d0:	0123001b 	divu	zero,t1,v1
9d0037d4:	006001f4 	teq	v1,zero,0x7
9d0037d8:	00006010 	mfhi	t4
9d0037dc:	00005812 	mflo	t3
9d0037e0:	310affff 	andi	t2,t0,0xffff
9d0037e4:	00022402 	srl	a0,v0,0x10
9d0037e8:	00003012 	mflo	a2
9d0037ec:	716a3802 	mul	a3,t3,t2
9d0037f0:	000c6400 	sll	t4,t4,0x10
9d0037f4:	01842025 	or	a0,t4,a0
9d0037f8:	0087602b 	sltu	t4,a0,a3
9d0037fc:	0123001b 	divu	zero,t1,v1
9d003800:	006001f4 	teq	v1,zero,0x7
9d003804:	1180000b 	beqz	t4,9d003834 <__udivdi3+0xa4>
9d003808:	00872823 	subu	a1,a0,a3
9d00380c:	00882021 	addu	a0,a0,t0
9d003810:	0088282b 	sltu	a1,a0,t0
9d003814:	14a00006 	bnez	a1,9d003830 <__udivdi3+0xa0>
9d003818:	2566ffff 	addiu	a2,t3,-1
9d00381c:	0087282b 	sltu	a1,a0,a3
9d003820:	10a00004 	beqz	a1,9d003834 <__udivdi3+0xa4>
9d003824:	00872823 	subu	a1,a0,a3
9d003828:	2566fffe 	addiu	a2,t3,-2
9d00382c:	00882021 	addu	a0,a0,t0
9d003830:	00872823 	subu	a1,a0,a3
9d003834:	3042ffff 	andi	v0,v0,0xffff
9d003838:	00a3001b 	divu	zero,a1,v1
9d00383c:	006001f4 	teq	v1,zero,0x7
9d003840:	00004810 	mfhi	t1
9d003844:	00003812 	mflo	a3
9d003848:	00002012 	mflo	a0
9d00384c:	70ea5002 	mul	t2,a3,t2
9d003850:	00094c00 	sll	t1,t1,0x10
9d003854:	01221025 	or	v0,t1,v0
9d003858:	004a482b 	sltu	t1,v0,t2
9d00385c:	00a3001b 	divu	zero,a1,v1
9d003860:	006001f4 	teq	v1,zero,0x7
9d003864:	51200009 	beqzl	t1,9d00388c <__udivdi3+0xfc>
9d003868:	00061400 	sll	v0,a2,0x10
9d00386c:	00481021 	addu	v0,v0,t0
9d003870:	0048402b 	sltu	t0,v0,t0
9d003874:	15000004 	bnez	t0,9d003888 <__udivdi3+0xf8>
9d003878:	24e4ffff 	addiu	a0,a3,-1
9d00387c:	004a502b 	sltu	t2,v0,t2
9d003880:	24e7fffe 	addiu	a3,a3,-2
9d003884:	00ea200b 	movn	a0,a3,t2
9d003888:	00061400 	sll	v0,a2,0x10
9d00388c:	00821025 	or	v0,a0,v0
9d003890:	03e00008 	jr	ra
9d003894:	00001821 	move	v1,zero
9d003898:	00a7102b 	sltu	v0,a1,a3
9d00389c:	14400044 	bnez	v0,9d0039b0 <__udivdi3+0x220>
9d0038a0:	70e84020 	clz	t0,a3
9d0038a4:	55000045 	bnezl	t0,9d0039bc <__udivdi3+0x22c>
9d0038a8:	24020020 	li	v0,32
9d0038ac:	00e5282b 	sltu	a1,a3,a1
9d0038b0:	14a000c8 	bnez	a1,9d003bd4 <__udivdi3+0x444>
9d0038b4:	0086302b 	sltu	a2,a0,a2
9d0038b8:	38c20001 	xori	v0,a2,0x1
9d0038bc:	03e00008 	jr	ra
9d0038c0:	00001821 	move	v1,zero
9d0038c4:	14c00006 	bnez	a2,9d0038e0 <__udivdi3+0x150>
9d0038c8:	71031820 	clz	v1,t0
9d0038cc:	24030001 	li	v1,1
9d0038d0:	0066001b 	divu	zero,v1,a2
9d0038d4:	00c001f4 	teq	a2,zero,0x7
9d0038d8:	00004012 	mflo	t0
9d0038dc:	71031820 	clz	v1,t0
9d0038e0:	5460007b 	bnezl	v1,9d003ad0 <__udivdi3+0x340>
9d0038e4:	00684004 	sllv	t0,t0,v1
9d0038e8:	00a82023 	subu	a0,a1,t0
9d0038ec:	00083c02 	srl	a3,t0,0x10
9d0038f0:	310bffff 	andi	t3,t0,0xffff
9d0038f4:	24030001 	li	v1,1
9d0038f8:	00023402 	srl	a2,v0,0x10
9d0038fc:	0087001b 	divu	zero,a0,a3
9d003900:	00e001f4 	teq	a3,zero,0x7
9d003904:	00006810 	mfhi	t5
9d003908:	00006012 	mflo	t4
9d00390c:	00004812 	mflo	t1
9d003910:	718b5002 	mul	t2,t4,t3
9d003914:	000d6c00 	sll	t5,t5,0x10
9d003918:	01a63025 	or	a2,t5,a2
9d00391c:	00ca682b 	sltu	t5,a2,t2
9d003920:	0087001b 	divu	zero,a0,a3
9d003924:	00e001f4 	teq	a3,zero,0x7
9d003928:	11a00009 	beqz	t5,9d003950 <__udivdi3+0x1c0>
9d00392c:	00ca2823 	subu	a1,a2,t2
9d003930:	00c83021 	addu	a2,a2,t0
9d003934:	00c8202b 	sltu	a0,a2,t0
9d003938:	14800004 	bnez	a0,9d00394c <__udivdi3+0x1bc>
9d00393c:	2589ffff 	addiu	t1,t4,-1
9d003940:	00ca202b 	sltu	a0,a2,t2
9d003944:	548000a6 	bnezl	a0,9d003be0 <__udivdi3+0x450>
9d003948:	2589fffe 	addiu	t1,t4,-2
9d00394c:	00ca2823 	subu	a1,a2,t2
9d003950:	3042ffff 	andi	v0,v0,0xffff
9d003954:	00a7001b 	divu	zero,a1,a3
9d003958:	00e001f4 	teq	a3,zero,0x7
9d00395c:	00005010 	mfhi	t2
9d003960:	00003012 	mflo	a2
9d003964:	00002012 	mflo	a0
9d003968:	70cb5802 	mul	t3,a2,t3
9d00396c:	000a5400 	sll	t2,t2,0x10
9d003970:	01421025 	or	v0,t2,v0
9d003974:	004b502b 	sltu	t2,v0,t3
9d003978:	00a7001b 	divu	zero,a1,a3
9d00397c:	00e001f4 	teq	a3,zero,0x7
9d003980:	51400009 	beqzl	t2,9d0039a8 <__udivdi3+0x218>
9d003984:	00091400 	sll	v0,t1,0x10
9d003988:	00481021 	addu	v0,v0,t0
9d00398c:	0048402b 	sltu	t0,v0,t0
9d003990:	15000004 	bnez	t0,9d0039a4 <__udivdi3+0x214>
9d003994:	24c4ffff 	addiu	a0,a2,-1
9d003998:	004b582b 	sltu	t3,v0,t3
9d00399c:	24c6fffe 	addiu	a2,a2,-2
9d0039a0:	00cb200b 	movn	a0,a2,t3
9d0039a4:	00091400 	sll	v0,t1,0x10
9d0039a8:	03e00008 	jr	ra
9d0039ac:	00821025 	or	v0,a0,v0
9d0039b0:	00001821 	move	v1,zero
9d0039b4:	03e00008 	jr	ra
9d0039b8:	00001021 	move	v0,zero
9d0039bc:	00481023 	subu	v0,v0,t0
9d0039c0:	01073804 	sllv	a3,a3,t0
9d0039c4:	00461806 	srlv	v1,a2,v0
9d0039c8:	00673825 	or	a3,v1,a3
9d0039cc:	00455006 	srlv	t2,a1,v0
9d0039d0:	00071c02 	srl	v1,a3,0x10
9d0039d4:	0143001b 	divu	zero,t2,v1
9d0039d8:	006001f4 	teq	v1,zero,0x7
9d0039dc:	00004810 	mfhi	t1
9d0039e0:	00006812 	mflo	t5
9d0039e4:	30ebffff 	andi	t3,a3,0xffff
9d0039e8:	01052804 	sllv	a1,a1,t0
9d0039ec:	00441006 	srlv	v0,a0,v0
9d0039f0:	00452825 	or	a1,v0,a1
9d0039f4:	00057402 	srl	t6,a1,0x10
9d0039f8:	00001012 	mflo	v0
9d0039fc:	71ab6002 	mul	t4,t5,t3
9d003a00:	00094c00 	sll	t1,t1,0x10
9d003a04:	012e4825 	or	t1,t1,t6
9d003a08:	012c702b 	sltu	t6,t1,t4
9d003a0c:	0143001b 	divu	zero,t2,v1
9d003a10:	006001f4 	teq	v1,zero,0x7
9d003a14:	11c0000a 	beqz	t6,9d003a40 <__udivdi3+0x2b0>
9d003a18:	01063004 	sllv	a2,a2,t0
9d003a1c:	01274821 	addu	t1,t1,a3
9d003a20:	0127502b 	sltu	t2,t1,a3
9d003a24:	15400006 	bnez	t2,9d003a40 <__udivdi3+0x2b0>
9d003a28:	25a2ffff 	addiu	v0,t5,-1
9d003a2c:	012c502b 	sltu	t2,t1,t4
9d003a30:	51400004 	beqzl	t2,9d003a44 <__udivdi3+0x2b4>
9d003a34:	012c4823 	subu	t1,t1,t4
9d003a38:	25a2fffe 	addiu	v0,t5,-2
9d003a3c:	01274821 	addu	t1,t1,a3
9d003a40:	012c4823 	subu	t1,t1,t4
9d003a44:	30a5ffff 	andi	a1,a1,0xffff
9d003a48:	0123001b 	divu	zero,t1,v1
9d003a4c:	006001f4 	teq	v1,zero,0x7
9d003a50:	00006810 	mfhi	t5
9d003a54:	00006012 	mflo	t4
9d003a58:	00005012 	mflo	t2
9d003a5c:	718b5802 	mul	t3,t4,t3
9d003a60:	000d6c00 	sll	t5,t5,0x10
9d003a64:	01a52825 	or	a1,t5,a1
9d003a68:	00ab682b 	sltu	t5,a1,t3
9d003a6c:	0123001b 	divu	zero,t1,v1
9d003a70:	006001f4 	teq	v1,zero,0x7
9d003a74:	51a0000b 	beqzl	t5,9d003aa4 <__udivdi3+0x314>
9d003a78:	00021400 	sll	v0,v0,0x10
9d003a7c:	00a72821 	addu	a1,a1,a3
9d003a80:	00a7182b 	sltu	v1,a1,a3
9d003a84:	14600006 	bnez	v1,9d003aa0 <__udivdi3+0x310>
9d003a88:	258affff 	addiu	t2,t4,-1
9d003a8c:	00ab182b 	sltu	v1,a1,t3
9d003a90:	50600004 	beqzl	v1,9d003aa4 <__udivdi3+0x314>
9d003a94:	00021400 	sll	v0,v0,0x10
9d003a98:	258afffe 	addiu	t2,t4,-2
9d003a9c:	00a72821 	addu	a1,a1,a3
9d003aa0:	00021400 	sll	v0,v0,0x10
9d003aa4:	01421025 	or	v0,t2,v0
9d003aa8:	00ab2823 	subu	a1,a1,t3
9d003aac:	00460019 	multu	v0,a2
9d003ab0:	00003810 	mfhi	a3
9d003ab4:	00a7182b 	sltu	v1,a1,a3
9d003ab8:	14600044 	bnez	v1,9d003bcc <__udivdi3+0x43c>
9d003abc:	00003012 	mflo	a2
9d003ac0:	10a7003f 	beq	a1,a3,9d003bc0 <__udivdi3+0x430>
9d003ac4:	01042004 	sllv	a0,a0,t0
9d003ac8:	03e00008 	jr	ra
9d003acc:	00001821 	move	v1,zero
9d003ad0:	24020020 	li	v0,32
9d003ad4:	00431023 	subu	v0,v0,v1
9d003ad8:	00454806 	srlv	t1,a1,v0
9d003adc:	00083c02 	srl	a3,t0,0x10
9d003ae0:	0127001b 	divu	zero,t1,a3
9d003ae4:	00e001f4 	teq	a3,zero,0x7
9d003ae8:	00003010 	mfhi	a2
9d003aec:	00006012 	mflo	t4
9d003af0:	310bffff 	andi	t3,t0,0xffff
9d003af4:	00652804 	sllv	a1,a1,v1
9d003af8:	00441006 	srlv	v0,a0,v0
9d003afc:	00452825 	or	a1,v0,a1
9d003b00:	00056c02 	srl	t5,a1,0x10
9d003b04:	00641004 	sllv	v0,a0,v1
9d003b08:	00001812 	mflo	v1
9d003b0c:	718b5002 	mul	t2,t4,t3
9d003b10:	00063400 	sll	a2,a2,0x10
9d003b14:	01a63025 	or	a2,t5,a2
9d003b18:	00ca202b 	sltu	a0,a2,t2
9d003b1c:	0127001b 	divu	zero,t1,a3
9d003b20:	00e001f4 	teq	a3,zero,0x7
9d003b24:	5080000b 	beqzl	a0,9d003b54 <__udivdi3+0x3c4>
9d003b28:	00ca3023 	subu	a2,a2,t2
9d003b2c:	00c83021 	addu	a2,a2,t0
9d003b30:	00c8202b 	sltu	a0,a2,t0
9d003b34:	14800006 	bnez	a0,9d003b50 <__udivdi3+0x3c0>
9d003b38:	2583ffff 	addiu	v1,t4,-1
9d003b3c:	00ca202b 	sltu	a0,a2,t2
9d003b40:	50800004 	beqzl	a0,9d003b54 <__udivdi3+0x3c4>
9d003b44:	00ca3023 	subu	a2,a2,t2
9d003b48:	2583fffe 	addiu	v1,t4,-2
9d003b4c:	00c83021 	addu	a2,a2,t0
9d003b50:	00ca3023 	subu	a2,a2,t2
9d003b54:	30acffff 	andi	t4,a1,0xffff
9d003b58:	00c7001b 	divu	zero,a2,a3
9d003b5c:	00e001f4 	teq	a3,zero,0x7
9d003b60:	00002010 	mfhi	a0
9d003b64:	00005012 	mflo	t2
9d003b68:	00004812 	mflo	t1
9d003b6c:	714b2802 	mul	a1,t2,t3
9d003b70:	00042400 	sll	a0,a0,0x10
9d003b74:	008c2025 	or	a0,a0,t4
9d003b78:	0085602b 	sltu	t4,a0,a1
9d003b7c:	00c7001b 	divu	zero,a2,a3
9d003b80:	00e001f4 	teq	a3,zero,0x7
9d003b84:	5180000b 	beqzl	t4,9d003bb4 <__udivdi3+0x424>
9d003b88:	00031c00 	sll	v1,v1,0x10
9d003b8c:	00882021 	addu	a0,a0,t0
9d003b90:	0088302b 	sltu	a2,a0,t0
9d003b94:	14c00006 	bnez	a2,9d003bb0 <__udivdi3+0x420>
9d003b98:	2549ffff 	addiu	t1,t2,-1
9d003b9c:	0085302b 	sltu	a2,a0,a1
9d003ba0:	50c00004 	beqzl	a2,9d003bb4 <__udivdi3+0x424>
9d003ba4:	00031c00 	sll	v1,v1,0x10
9d003ba8:	2549fffe 	addiu	t1,t2,-2
9d003bac:	00882021 	addu	a0,a0,t0
9d003bb0:	00031c00 	sll	v1,v1,0x10
9d003bb4:	00852023 	subu	a0,a0,a1
9d003bb8:	0b400e3e 	j	9d0038f8 <__udivdi3+0x168>
9d003bbc:	01231825 	or	v1,t1,v1
9d003bc0:	0086302b 	sltu	a2,a0,a2
9d003bc4:	10c0ffc0 	beqz	a2,9d003ac8 <__udivdi3+0x338>
9d003bc8:	00000000 	nop
9d003bcc:	0b400eb2 	j	9d003ac8 <__udivdi3+0x338>
9d003bd0:	2442ffff 	addiu	v0,v0,-1
9d003bd4:	00001821 	move	v1,zero
9d003bd8:	03e00008 	jr	ra
9d003bdc:	24020001 	li	v0,1
9d003be0:	0b400e53 	j	9d00394c <__udivdi3+0x1bc>
9d003be4:	00c83021 	addu	a2,a2,t0

9d003be8 <Ext0ISR>:
#include <cp0defs.h>
#include "LCD.h"

unsigned int TIMERSTART = 0;
unsigned int TIMERSTOP = 0;
void __ISR(_EXTERNAL_2_VECTOR, IPL6SRS) Ext0ISR(void) { // step 1: the ISR
9d003be8:	415de800 	rdpgpr	sp,sp
9d003bec:	401a7000 	mfc0	k0,c0_epc
9d003bf0:	401b6000 	mfc0	k1,c0_status
9d003bf4:	27bdff70 	addiu	sp,sp,-144
9d003bf8:	afba008c 	sw	k0,140(sp)
9d003bfc:	401a6002 	mfc0	k0,c0_srsctl
9d003c00:	afbb0088 	sw	k1,136(sp)
9d003c04:	afba0084 	sw	k0,132(sp)
9d003c08:	7c1b7844 	ins	k1,zero,0x1,0xf
9d003c0c:	377b1800 	ori	k1,k1,0x1800
9d003c10:	409b6000 	mtc0	k1,c0_status
9d003c14:	00001012 	mflo	v0
9d003c18:	afa2007c 	sw	v0,124(sp)
9d003c1c:	00001810 	mfhi	v1
9d003c20:	afa30078 	sw	v1,120(sp)
  LATFINV=0x3;                 // Setting the bits to be turned off
9d003c24:	24030003 	li	v1,3
9d003c28:	3c02bf88 	lui	v0,0xbf88
9d003c2c:	ac43616c 	sw	v1,24940(v0)
  char msg[100];
if(TIMERSTART == TIMERSTOP) {
9d003c30:	8f828018 	lw	v0,-32744(gp)
9d003c34:	8f838014 	lw	v1,-32748(gp)
9d003c38:	14620037 	bne	v1,v0,9d003d18 <Ext0ISR+0x130>
9d003c3c:	3c029d00 	lui	v0,0x9d00
  sprintf(msg,"Press USER to"); // Writing to LCD
9d003c40:	8c45565c 	lw	a1,22108(v0)
9d003c44:	2442565c 	addiu	v0,v0,22108
9d003c48:	8c440004 	lw	a0,4(v0)
9d003c4c:	8c430008 	lw	v1,8(v0)
9d003c50:	afa50010 	sw	a1,16(sp)
9d003c54:	afa40014 	sw	a0,20(sp)
9d003c58:	afa30018 	sw	v1,24(sp)
9d003c5c:	9442000c 	lhu	v0,12(v0)
  LCD_Clear();
9d003c60:	0f400d18 	jal	9d003460 <LCD_Clear>
9d003c64:	a7a2001c 	sh	v0,28(sp)
  LCD_Move(0,0);
9d003c68:	00002021 	move	a0,zero
9d003c6c:	0f400d58 	jal	9d003560 <LCD_Move>
9d003c70:	00002821 	move	a1,zero
  LCD_WriteString(msg);
9d003c74:	0f400d75 	jal	9d0035d4 <LCD_WriteString>
9d003c78:	27a40010 	addiu	a0,sp,16
  LCD_Move(1,0);
9d003c7c:	24040001 	li	a0,1
9d003c80:	0f400d58 	jal	9d003560 <LCD_Move>
9d003c84:	00002821 	move	a1,zero
  sprintf(msg,"stop timer");
9d003c88:	3c029d00 	lui	v0,0x9d00
9d003c8c:	8c44566c 	lw	a0,22124(v0)
9d003c90:	2442566c 	addiu	v0,v0,22124
9d003c94:	8c430004 	lw	v1,4(v0)
9d003c98:	afa40010 	sw	a0,16(sp)
9d003c9c:	afa30014 	sw	v1,20(sp)
9d003ca0:	94430008 	lhu	v1,8(v0)
9d003ca4:	a7a30018 	sh	v1,24(sp)
9d003ca8:	9042000a 	lbu	v0,10(v0)
9d003cac:	a3a2001a 	sb	v0,26(sp)
  LCD_WriteString(msg);
9d003cb0:	0f400d75 	jal	9d0035d4 <LCD_WriteString>
9d003cb4:	27a40010 	addiu	a0,sp,16
  _CP0_SET_COUNT(0);
9d003cb8:	00001021 	move	v0,zero
9d003cbc:	40824800 	mtc0	v0,c0_count
9d003cc0:	000000c0 	ehb
  while(_CP0_GET_COUNT() < 10000000 ) {;}
9d003cc4:	3c030098 	lui	v1,0x98
9d003cc8:	34639680 	ori	v1,v1,0x9680
9d003ccc:	40024800 	mfc0	v0,c0_count
9d003cd0:	0043102b 	sltu	v0,v0,v1
9d003cd4:	1440fffd 	bnez	v0,9d003ccc <Ext0ISR+0xe4>
9d003cd8:	00000000 	nop
  TIMERSTOP = _CP0_GET_COUNT()*25.0/1000000.0; //Making TIMERSTOP different to
9d003cdc:	40044800 	mfc0	a0,c0_count
9d003ce0:	0f401584 	jal	9d005610 <__floatunsisf>
9d003ce4:	00000000 	nop
9d003ce8:	00402021 	move	a0,v0
9d003cec:	3c029d00 	lui	v0,0x9d00
9d003cf0:	0f401270 	jal	9d0049c0 <.LFE4>
9d003cf4:	8c455698 	lw	a1,22168(v0)
9d003cf8:	00402021 	move	a0,v0
9d003cfc:	3c029d00 	lui	v0,0x9d00
9d003d00:	0f401067 	jal	9d00419c <__divsf3>
9d003d04:	8c45569c 	lw	a1,22172(v0)
9d003d08:	0f401504 	jal	9d005410 <__fixunssfsi>
9d003d0c:	00402021 	move	a0,v0
9d003d10:	0b400f76 	j	9d003dd8 <Ext0ISR+0x1f0>
9d003d14:	af828018 	sw	v0,-32744(gp)
} //make sure the second condition is used on next interrupt

  else {
    TIMERSTOP = _CP0_GET_COUNT()*25.0/1000000.0+TIMERSTART;
9d003d18:	40044800 	mfc0	a0,c0_count
9d003d1c:	0f401584 	jal	9d005610 <__floatunsisf>
9d003d20:	00000000 	nop
9d003d24:	00402021 	move	a0,v0
9d003d28:	3c029d00 	lui	v0,0x9d00
9d003d2c:	0f401270 	jal	9d0049c0 <.LFE4>
9d003d30:	8c455698 	lw	a1,22168(v0)
9d003d34:	00402021 	move	a0,v0
9d003d38:	3c029d00 	lui	v0,0x9d00
9d003d3c:	0f401067 	jal	9d00419c <__divsf3>
9d003d40:	8c45569c 	lw	a1,22172(v0)
9d003d44:	00408021 	move	s0,v0
9d003d48:	0f401584 	jal	9d005610 <__floatunsisf>
9d003d4c:	8f848014 	lw	a0,-32748(gp)
9d003d50:	02002021 	move	a0,s0
9d003d54:	0f400fcb 	jal	9d003f2c <__addsf3>
9d003d58:	00402821 	move	a1,v0
9d003d5c:	0f401504 	jal	9d005410 <__fixunssfsi>
9d003d60:	00402021 	move	a0,v0
9d003d64:	af828018 	sw	v0,-32744(gp)
    TIMERSTART = TIMERSTOP;
9d003d68:	af828014 	sw	v0,-32748(gp)
    sprintf(msg,"%3.2f s elapsed.", TIMERSTOP/1000.0);
9d003d6c:	0f401584 	jal	9d005610 <__floatunsisf>
9d003d70:	00402021 	move	a0,v0
9d003d74:	00402021 	move	a0,v0
9d003d78:	3c029d00 	lui	v0,0x9d00
9d003d7c:	0f401067 	jal	9d00419c <__divsf3>
9d003d80:	8c4556a0 	lw	a1,22176(v0)
9d003d84:	27a40010 	addiu	a0,sp,16
9d003d88:	3c059d00 	lui	a1,0x9d00
9d003d8c:	24a55678 	addiu	a1,a1,22136
9d003d90:	0f401523 	jal	9d00548c <_sprintf_fF>
9d003d94:	00403021 	move	a2,v0
    LCD_Clear();
9d003d98:	0f400d18 	jal	9d003460 <LCD_Clear>
9d003d9c:	00000000 	nop
    LCD_Move(0,0);
9d003da0:	00002021 	move	a0,zero
9d003da4:	0f400d58 	jal	9d003560 <LCD_Move>
9d003da8:	00002821 	move	a1,zero
    LCD_WriteString(msg);
9d003dac:	0f400d75 	jal	9d0035d4 <LCD_WriteString>
9d003db0:	27a40010 	addiu	a0,sp,16
    _CP0_SET_COUNT(0);
9d003db4:	00001021 	move	v0,zero
9d003db8:	40824800 	mtc0	v0,c0_count
9d003dbc:	000000c0 	ehb
    while(_CP0_GET_COUNT() < 10000000) {;}
9d003dc0:	3c030098 	lui	v1,0x98
9d003dc4:	34639680 	ori	v1,v1,0x9680
9d003dc8:	40024800 	mfc0	v0,c0_count
9d003dcc:	0043102b 	sltu	v0,v0,v1
9d003dd0:	1440fffd 	bnez	v0,9d003dc8 <Ext0ISR+0x1e0>
9d003dd4:	00000000 	nop
  }
  IFS0bits.INT2IF = 0;     // clear interrupt flag IFS0<3>
9d003dd8:	3c02bf88 	lui	v0,0xbf88
9d003ddc:	8c431030 	lw	v1,4144(v0)
9d003de0:	7c035ac4 	ins	v1,zero,0xb,0x1
9d003de4:	ac431030 	sw	v1,4144(v0)
}
9d003de8:	8fa2007c 	lw	v0,124(sp)
9d003dec:	00400013 	mtlo	v0
9d003df0:	8fa30078 	lw	v1,120(sp)
9d003df4:	00600011 	mthi	v1
9d003df8:	41606000 	di
9d003dfc:	000000c0 	ehb
9d003e00:	8fbb0084 	lw	k1,132(sp)
9d003e04:	8fba008c 	lw	k0,140(sp)
9d003e08:	409b6002 	mtc0	k1,c0_srsctl
9d003e0c:	8fbb0088 	lw	k1,136(sp)
9d003e10:	409a7000 	mtc0	k0,c0_epc
9d003e14:	27bd0090 	addiu	sp,sp,144
9d003e18:	41dde800 	wrpgpr	sp,sp
9d003e1c:	409b6000 	mtc0	k1,c0_status
9d003e20:	42000018 	eret

9d003e24 <main>:

int main(void) {
9d003e24:	27bdff80 	addiu	sp,sp,-128
9d003e28:	afbf007c 	sw	ra,124(sp)
  char msg[100];
  NU32_Startup(); // cache on, min flash wait, interrupts on, LED/button init, UART init
9d003e2c:	0f4011ff 	jal	9d0047fc <.LFE29>
9d003e30:	00000000 	nop
  LCD_Setup();
9d003e34:	0f400cd5 	jal	9d003354 <LCD_Setup>
9d003e38:	00000000 	nop
  LCD_Clear();
9d003e3c:	0f400d18 	jal	9d003460 <LCD_Clear>
9d003e40:	00000000 	nop
  LCD_Move(0,0);
9d003e44:	00002021 	move	a0,zero
9d003e48:	0f400d58 	jal	9d003560 <LCD_Move>
9d003e4c:	00002821 	move	a1,zero
  __builtin_disable_interrupts(); // step 2: disable interrupts
9d003e50:	41626000 	di	v0
9d003e54:	000000c0 	ehb
  INTCONbits.INT2EP = 0;          // step 3: INT2 triggers on falling edge
9d003e58:	3c02bf88 	lui	v0,0xbf88
9d003e5c:	8c431000 	lw	v1,4096(v0)
9d003e60:	7c031084 	ins	v1,zero,0x2,0x1
9d003e64:	ac431000 	sw	v1,4096(v0)
  IPC2bits.INT2IP = 6;            // step 4: interrupt priority 2
9d003e68:	3c02bf88 	lui	v0,0xbf88
9d003e6c:	8c4310b0 	lw	v1,4272(v0)
9d003e70:	24040006 	li	a0,6
9d003e74:	7c83e684 	ins	v1,a0,0x1a,0x3
9d003e78:	ac4310b0 	sw	v1,4272(v0)
  IPC2bits.INT2IS = 1;            // step 4: interrupt priority 1
9d003e7c:	8c4310b0 	lw	v1,4272(v0)
9d003e80:	24040001 	li	a0,1
9d003e84:	7c83ce04 	ins	v1,a0,0x18,0x2
9d003e88:	ac4310b0 	sw	v1,4272(v0)
  IFS0bits.INT2IF = 0;            // step 5: clear the int flag
9d003e8c:	3c02bf88 	lui	v0,0xbf88
9d003e90:	8c431030 	lw	v1,4144(v0)
9d003e94:	7c035ac4 	ins	v1,zero,0xb,0x1
9d003e98:	ac431030 	sw	v1,4144(v0)
  IEC0SET=0x800;                  // step 6: enable INT2 by setting IEC0<3>
9d003e9c:	24030800 	li	v1,2048
9d003ea0:	3c02bf88 	lui	v0,0xbf88
9d003ea4:	ac431068 	sw	v1,4200(v0)
  __builtin_enable_interrupts();  // step 7: enable interrupts
9d003ea8:	41626020 	ei	v0
  sprintf(msg,"Press USER to");
9d003eac:	3c029d00 	lui	v0,0x9d00
9d003eb0:	8c45565c 	lw	a1,22108(v0)
9d003eb4:	2442565c 	addiu	v0,v0,22108
9d003eb8:	8c440004 	lw	a0,4(v0)
9d003ebc:	8c430008 	lw	v1,8(v0)
9d003ec0:	afa50010 	sw	a1,16(sp)
9d003ec4:	afa40014 	sw	a0,20(sp)
9d003ec8:	afa30018 	sw	v1,24(sp)
9d003ecc:	9442000c 	lhu	v0,12(v0)
9d003ed0:	a7a2001c 	sh	v0,28(sp)
  LCD_WriteString(msg);
9d003ed4:	0f400d75 	jal	9d0035d4 <LCD_WriteString>
9d003ed8:	27a40010 	addiu	a0,sp,16
  LCD_Move(1,0);
9d003edc:	24040001 	li	a0,1
9d003ee0:	0f400d58 	jal	9d003560 <LCD_Move>
9d003ee4:	00002821 	move	a1,zero
  sprintf(msg,"start timer");
9d003ee8:	3c029d00 	lui	v0,0x9d00
9d003eec:	8c44568c 	lw	a0,22156(v0)
9d003ef0:	2442568c 	addiu	v0,v0,22156
9d003ef4:	8c430004 	lw	v1,4(v0)
9d003ef8:	8c420008 	lw	v0,8(v0)
9d003efc:	afa40010 	sw	a0,16(sp)
9d003f00:	afa30014 	sw	v1,20(sp)
9d003f04:	afa20018 	sw	v0,24(sp)
  LCD_WriteString(msg);
9d003f08:	0f400d75 	jal	9d0035d4 <LCD_WriteString>
9d003f0c:	27a40010 	addiu	a0,sp,16
  LATFSET=0x3;
9d003f10:	24030003 	li	v1,3
9d003f14:	3c02bf88 	lui	v0,0xbf88
9d003f18:	ac436168 	sw	v1,24936(v0)
9d003f1c:	0b400fc7 	j	9d003f1c <main+0xf8>
9d003f20:	00000000 	nop

Disassembly of section .text.fpsubadd:

9d003f24 <__subsf3>:
9d003f24:	3c018000 00a12826                       ...<&(..

9d003f2c <__addsf3>:
9d003f2c:	00044dc2 312900ff 00055dc2 316b00ff     .M....)1.]....k1
9d003f3c:	3c078000 00044200 01074025 00055200     ...<.B..%@...R..
9d003f4c:	01475025 252dffff 2da100fe 10200061     %PG...-%...-a. .
9d003f5c:	00000000                                ....

9d003f60 <Blab1>:
9d003f60:	256dffff 	addiu	t5,t3,-1
9d003f64:	2da100fe 	sltiu	at,t5,254
9d003f68:	10200077 	beqz	at,9d004148 <BspecB>
9d003f6c:	00000000 	nop

9d003f70 <Blab2>:
9d003f70:	012b6023 	subu	t4,t1,t3
9d003f74:	0580000d 	bltz	t4,9d003fac <i1>
9d003f78:	00000000 	nop
9d003f7c:	29810020 	slti	at,t4,32
9d003f80:	14200003 	bnez	at,9d003f90 <i2>
9d003f84:	00000000 	nop
9d003f88:	10000015 	b	9d003fe0 <e1>
9d003f8c:	240a0002 	li	t2,2

9d003f90 <i2>:
9d003f90:	000a3025 	or	a2,zero,t2
9d003f94:	018a5006 	srlv	t2,t2,t4
9d003f98:	018a6804 	sllv	t5,t2,t4
9d003f9c:	11a60010 	beq	t5,a2,9d003fe0 <e1>
9d003fa0:	00000000 	nop
9d003fa4:	1000000e 	b	9d003fe0 <e1>
9d003fa8:	354a0002 	ori	t2,t2,0x2

9d003fac <i1>:
9d003fac:	000b4825 	or	t1,zero,t3
9d003fb0:	000c6023 	negu	t4,t4
9d003fb4:	29810020 	slti	at,t4,32
9d003fb8:	14200003 	bnez	at,9d003fc8 <i4>
9d003fbc:	00000000 	nop
9d003fc0:	10000007 	b	9d003fe0 <e1>
9d003fc4:	24080002 	li	t0,2

9d003fc8 <i4>:
9d003fc8:	00083025 	or	a2,zero,t0
9d003fcc:	01884006 	srlv	t0,t0,t4
9d003fd0:	01886804 	sllv	t5,t0,t4
9d003fd4:	11a60002 	beq	t5,a2,9d003fe0 <e1>
9d003fd8:	00000000 	nop
9d003fdc:	35080002 	ori	t0,t0,0x2

9d003fe0 <e1>:
9d003fe0:	00876024 	and	t4,a0,a3
9d003fe4:	01856826 	xor	t5,t4,a1
9d003fe8:	05a00010 	bltz	t5,9d00402c <Bsub1>
9d003fec:	00000000 	nop
9d003ff0:	010a4021 	addu	t0,t0,t2
9d003ff4:	010a682b 	sltu	t5,t0,t2
9d003ff8:	11a00017 	beqz	t5,9d004058 <Bres>
9d003ffc:	00000000 	nop
9d004000:	310d0001 	andi	t5,t0,0x1
9d004004:	11a00002 	beqz	t5,9d004010 <i7>
9d004008:	00000000 	nop
9d00400c:	35080002 	ori	t0,t0,0x2

9d004010 <i7>:
9d004010:	00084042 	srl	t0,t0,0x1
9d004014:	25290001 	addiu	t1,t1,1
9d004018:	240100ff 	li	at,255
9d00401c:	1521000e 	bne	t1,at,9d004058 <Bres>
9d004020:	00000000 	nop
9d004024:	1000000c 	b	9d004058 <Bres>
9d004028:	24080000 	li	t0,0

9d00402c <Bsub1>:
9d00402c:	010a682b 	sltu	t5,t0,t2
9d004030:	11a00004 	beqz	t5,9d004044 <i9>
9d004034:	010a4023 	subu	t0,t0,t2
9d004038:	00084023 	negu	t0,t0
9d00403c:	10000003 	b	9d00404c <e9>
9d004040:	01876026 	xor	t4,t4,a3

9d004044 <i9>:
9d004044:	11000050 	beqz	t0,9d004188 <Bzer>
9d004048:	00000000 	nop

9d00404c <e9>:
9d00404c:	71063020 	clz	a2,t0
9d004050:	01264823 	subu	t1,t1,a2
9d004054:	00c84004 	sllv	t0,t0,a2

9d004058 <Bres>:
9d004058:	1920000e 	blez	t1,9d004094 <Bund>
9d00405c:	00000000 	nop

9d004060 <Blab12>:
9d004060:	25080080 	addiu	t0,t0,128
9d004064:	2d0d0080 	sltiu	t5,t0,128
9d004068:	012d4821 	addu	t1,t1,t5
9d00406c:	00086a02 	srl	t5,t0,0x8
9d004070:	31ad0001 	andi	t5,t5,0x1
9d004074:	010d4023 	subu	t0,t0,t5
9d004078:	00084040 	sll	t0,t0,0x1
9d00407c:	00084242 	srl	t0,t0,0x9
9d004080:	00096dc0 	sll	t5,t1,0x17
9d004084:	010d4025 	or	t0,t0,t5
9d004088:	010c1025 	or	v0,t0,t4

9d00408c <B999>:
9d00408c:	03e00008 	jr	ra
9d004090:	00000000 	nop

9d004094 <Bund>:
9d004094:	24060001 	li	a2,1
9d004098:	00c93023 	subu	a2,a2,t1
9d00409c:	2cc10020 	sltiu	at,a2,32
9d0040a0:	10200039 	beqz	at,9d004188 <Bzer>
9d0040a4:	00000000 	nop
9d0040a8:	3c018000 	lui	at,0x8000
9d0040ac:	01014025 	or	t0,t0,at
9d0040b0:	240d0020 	li	t5,32
9d0040b4:	01a66823 	subu	t5,t5,a2
9d0040b8:	01a84804 	sllv	t1,t0,t5
9d0040bc:	11200002 	beqz	t1,9d0040c8 <i10>
9d0040c0:	00c84006 	srlv	t0,t0,a2
9d0040c4:	35080001 	ori	t0,t0,0x1

9d0040c8 <i10>:
9d0040c8:	24090000 	li	t1,0
9d0040cc:	250d0080 	addiu	t5,t0,128
9d0040d0:	05a1ffe3 	bgez	t5,9d004060 <Blab12>
9d0040d4:	00000000 	nop
9d0040d8:	1000ffe1 	b	9d004060 <Blab12>
9d0040dc:	24090001 	li	t1,1

9d0040e0 <BspecA>:
9d0040e0:	1520000e 	bnez	t1,9d00411c <i12>
9d0040e4:	00000000 	nop
9d0040e8:	01084021 	addu	t0,t0,t0
9d0040ec:	11000005 	beqz	t0,9d004104 <i13>
9d0040f0:	00000000 	nop
9d0040f4:	710c6020 	clz	t4,t0
9d0040f8:	012c4823 	subu	t1,t1,t4
9d0040fc:	1000ff98 	b	9d003f60 <Blab1>
9d004100:	01884004 	sllv	t0,t0,t4

9d004104 <i13>:
9d004104:	240100ff 	li	at,255
9d004108:	1161000f 	beq	t3,at,9d004148 <BspecB>
9d00410c:	00000000 	nop
9d004110:	3c018000 	lui	at,0x8000
9d004114:	14a10018 	bne	a1,at,9d004178 <BretB>
9d004118:	00000000 	nop

9d00411c <i12>:
9d00411c:	01086821 	addu	t5,t0,t0
9d004120:	15a0001b 	bnez	t5,9d004190 <Bnan>
9d004124:	00000000 	nop
9d004128:	240100ff 	li	at,255
9d00412c:	15610014 	bne	t3,at,9d004180 <BretA>
9d004130:	00000000 	nop
9d004134:	00856826 	xor	t5,a0,a1
9d004138:	05a00015 	bltz	t5,9d004190 <Bnan>
9d00413c:	00000000 	nop
9d004140:	1000000d 	b	9d004178 <BretB>
9d004144:	00000000 	nop

9d004148 <BspecB>:
9d004148:	15600008 	bnez	t3,9d00416c <i15>
9d00414c:	00000000 	nop
9d004150:	014a5021 	addu	t2,t2,t2
9d004154:	1140000a 	beqz	t2,9d004180 <BretA>
9d004158:	00000000 	nop
9d00415c:	714c6020 	clz	t4,t2
9d004160:	016c5823 	subu	t3,t3,t4
9d004164:	1000ff82 	b	9d003f70 <Blab2>
9d004168:	018a5004 	sllv	t2,t2,t4

9d00416c <i15>:
9d00416c:	014a6821 	addu	t5,t2,t2
9d004170:	15a00007 	bnez	t5,9d004190 <Bnan>
9d004174:	00000000 	nop

9d004178 <BretB>:
9d004178:	1000ffc4 	b	9d00408c <B999>
9d00417c:	00051025 	or	v0,zero,a1

9d004180 <BretA>:
9d004180:	1000ffc2 	b	9d00408c <B999>
9d004184:	00041025 	or	v0,zero,a0

9d004188 <Bzer>:
9d004188:	1000ffc0 	b	9d00408c <B999>
9d00418c:	24020000 	li	v0,0

9d004190 <Bnan>:
9d004190:	1000ffbe 	b	9d00408c <B999>
9d004194:	3c02ffc0 	lui	v0,0xffc0
9d004198:	00000000 	nop

Disassembly of section .text.fp32div:

9d00419c <__divsf3>:
9d00419c:	3c0b8000 000445c2 310800ff 000555c2     ...<.E.....1.U..
9d0041ac:	314a00ff 00043a00 00eb3825 00054a00     ..J1.:..%8...J..
9d0041bc:	012b4825 00857026 016e5824 250effff     %H+.&p..$Xn....%
9d0041cc:	2dc100fe 1020003f 00000000              ...-?. .....

9d0041d8 <Dlab1>:
9d0041d8:	254effff 	addiu	t6,t2,-1
9d0041dc:	2dc100fe 	sltiu	at,t6,254
9d0041e0:	10200053 	beqz	at,9d004330 <DspecB>
9d0041e4:	00000000 	nop

9d0041e8 <Dlab2>:
9d0041e8:	00e9082b 	sltu	at,a3,t1
9d0041ec:	14200003 	bnez	at,9d0041fc <i27>
9d0041f0:	00000000 	nop
9d0041f4:	00073842 	srl	a3,a3,0x1
9d0041f8:	25080001 	addiu	t0,t0,1

9d0041fc <i27>:
9d0041fc:	00096382 	srl	t4,t1,0xe
9d004200:	018001f4 	teq	t4,zero,0x7
9d004204:	00ec001b 	divu	zero,a3,t4
9d004208:	00002012 	mflo	a0
9d00420c:	00003010 	mfhi	a2
9d004210:	312d3fff 	andi	t5,t1,0x3fff
9d004214:	01a40019 	multu	t5,a0
9d004218:	00002812 	mflo	a1
9d00421c:	00063380 	sll	a2,a2,0xe
9d004220:	00c5702b 	sltu	t6,a2,a1
9d004224:	11c00004 	beqz	t6,9d004238 <i28>
9d004228:	00c53023 	subu	a2,a2,a1
9d00422c:	2484ffff 	addiu	a0,a0,-1
9d004230:	00c93021 	addu	a2,a2,t1
9d004234:	00c9702b 	sltu	t6,a2,t1

9d004238 <i28>:
9d004238:	018001f4 	teq	t4,zero,0x7
9d00423c:	00cc001b 	divu	zero,a2,t4
9d004240:	00003812 	mflo	a3
9d004244:	00003010 	mfhi	a2
9d004248:	01a70019 	multu	t5,a3
9d00424c:	00002812 	mflo	a1
9d004250:	00063380 	sll	a2,a2,0xe
9d004254:	00c5702b 	sltu	t6,a2,a1
9d004258:	11c00004 	beqz	t6,9d00426c <i29>
9d00425c:	00c53023 	subu	a2,a2,a1
9d004260:	24e7ffff 	addiu	a3,a3,-1
9d004264:	00c93021 	addu	a2,a2,t1
9d004268:	00c9702b 	sltu	t6,a2,t1

9d00426c <i29>:
9d00426c:	00047380 	sll	t6,a0,0xe
9d004270:	00ee3821 	addu	a3,a3,t6
9d004274:	10c00002 	beqz	a2,9d004280 <i30>
9d004278:	00073900 	sll	a3,a3,0x4
9d00427c:	34e70001 	ori	a3,a3,0x1

9d004280 <i30>:
9d004280:	240e007e 	li	t6,126
9d004284:	01ca7023 	subu	t6,t6,t2
9d004288:	010e4021 	addu	t0,t0,t6
9d00428c:	250effff 	addiu	t6,t0,-1
9d004290:	2dc100fe 	sltiu	at,t6,254
9d004294:	10200034 	beqz	at,9d004368 <Doveund>
9d004298:	00000000 	nop

9d00429c <Dlab8>:
9d00429c:	24e70080 	addiu	a3,a3,128
9d0042a0:	2cee0080 	sltiu	t6,a3,128
9d0042a4:	010e4021 	addu	t0,t0,t6
9d0042a8:	00077202 	srl	t6,a3,0x8
9d0042ac:	31ce0001 	andi	t6,t6,0x1
9d0042b0:	00ee3823 	subu	a3,a3,t6
9d0042b4:	00073840 	sll	a3,a3,0x1
9d0042b8:	00073a42 	srl	a3,a3,0x9
9d0042bc:	000875c0 	sll	t6,t0,0x17
9d0042c0:	00ee3825 	or	a3,a3,t6
9d0042c4:	00eb1025 	or	v0,a3,t3

9d0042c8 <D999>:
9d0042c8:	03e00008 	jr	ra
9d0042cc:	00000000 	nop

9d0042d0 <DspecA>:
9d0042d0:	15000008 	bnez	t0,9d0042f4 <i31>
9d0042d4:	00000000 	nop
9d0042d8:	00e73821 	addu	a3,a3,a3
9d0042dc:	10e00005 	beqz	a3,9d0042f4 <i31>
9d0042e0:	00000000 	nop
9d0042e4:	70ec6020 	clz	t4,a3
9d0042e8:	010c4023 	subu	t0,t0,t4
9d0042ec:	1000ffba 	b	9d0041d8 <Dlab1>
9d0042f0:	01873804 	sllv	a3,a3,t4

9d0042f4 <i31>:
9d0042f4:	15480004 	bne	t2,t0,9d004308 <i33>
9d0042f8:	00000000 	nop
9d0042fc:	01297021 	addu	t6,t1,t1
9d004300:	11c0002f 	beqz	t6,9d0043c0 <Dnan>
9d004304:	00000000 	nop

9d004308 <i33>:
9d004308:	240100ff 	li	at,255
9d00430c:	11410008 	beq	t2,at,9d004330 <DspecB>
9d004310:	00000000 	nop
9d004314:	11000012 	beqz	t0,9d004360 <Dzer>
9d004318:	00000000 	nop
9d00431c:	00e77021 	addu	t6,a3,a3
9d004320:	15c00027 	bnez	t6,9d0043c0 <Dnan>
9d004324:	00000000 	nop
9d004328:	10000022 	b	9d0043b4 <Dinf>
9d00432c:	00000000 	nop

9d004330 <DspecB>:
9d004330:	15400008 	bnez	t2,9d004354 <i34>
9d004334:	00000000 	nop
9d004338:	01294821 	addu	t1,t1,t1
9d00433c:	1120001d 	beqz	t1,9d0043b4 <Dinf>
9d004340:	00000000 	nop
9d004344:	712c6020 	clz	t4,t1
9d004348:	014c5023 	subu	t2,t2,t4
9d00434c:	1000ffa6 	b	9d0041e8 <Dlab2>
9d004350:	01894804 	sllv	t1,t1,t4

9d004354 <i34>:
9d004354:	01297021 	addu	t6,t1,t1
9d004358:	15c00019 	bnez	t6,9d0043c0 <Dnan>
9d00435c:	00000000 	nop

9d004360 <Dzer>:
9d004360:	1000ffd9 	b	9d0042c8 <D999>
9d004364:	000b1025 	or	v0,zero,t3

9d004368 <Doveund>:
9d004368:	1d000012 	bgtz	t0,9d0043b4 <Dinf>
9d00436c:	00000000 	nop
9d004370:	240c0001 	li	t4,1
9d004374:	01886023 	subu	t4,t4,t0
9d004378:	2d810020 	sltiu	at,t4,32
9d00437c:	1020fff8 	beqz	at,9d004360 <Dzer>
9d004380:	00000000 	nop
9d004384:	240e0020 	li	t6,32
9d004388:	01cc7023 	subu	t6,t6,t4
9d00438c:	01c74004 	sllv	t0,a3,t6
9d004390:	11000002 	beqz	t0,9d00439c <i37>
9d004394:	01873806 	srlv	a3,a3,t4
9d004398:	34e70002 	ori	a3,a3,0x2

9d00439c <i37>:
9d00439c:	24080000 	li	t0,0
9d0043a0:	24ee0080 	addiu	t6,a3,128
9d0043a4:	05c1ffbd 	bgez	t6,9d00429c <Dlab8>
9d0043a8:	00000000 	nop
9d0043ac:	1000ffbb 	b	9d00429c <Dlab8>
9d0043b0:	24080001 	li	t0,1

9d0043b4 <Dinf>:
9d0043b4:	3c017f80 	lui	at,0x7f80
9d0043b8:	1000ffc3 	b	9d0042c8 <D999>
9d0043bc:	01611025 	or	v0,t3,at

9d0043c0 <Dnan>:
9d0043c0:	1000ffc1 	b	9d0042c8 <D999>
9d0043c4:	3c02ffc0 	lui	v0,0xffc0
9d0043c8:	00000000 	nop

Disassembly of section .text.scale:

9d0043cc <scale>:
9d0043cc:	27bdffd8 	addiu	sp,sp,-40
9d0043d0:	afbf0024 	sw	ra,36(sp)
9d0043d4:	afb30020 	sw	s3,32(sp)
9d0043d8:	afb2001c 	sw	s2,28(sp)
9d0043dc:	afb10018 	sw	s1,24(sp)
9d0043e0:	afb00014 	sw	s0,20(sp)
9d0043e4:	04800045 	bltz	a0,9d0044fc <scale+0x130>
9d0043e8:	00808021 	move	s0,a0
9d0043ec:	2882006e 	slti	v0,a0,110
9d0043f0:	1040000f 	beqz	v0,9d004430 <scale+0x64>
9d0043f4:	2882000b 	slti	v0,a0,11
9d0043f8:	1040006f 	beqz	v0,9d0045b8 <scale+0x1ec>
9d0043fc:	3c026666 	lui	v0,0x6666
9d004400:	00048080 	sll	s0,a0,0x2
9d004404:	3c029d00 	lui	v0,0x9d00
9d004408:	244254f4 	addiu	v0,v0,21748
9d00440c:	02028021 	addu	s0,s0,v0
9d004410:	8e020000 	lw	v0,0(s0)
9d004414:	8fbf0024 	lw	ra,36(sp)
9d004418:	8fb30020 	lw	s3,32(sp)
9d00441c:	8fb2001c 	lw	s2,28(sp)
9d004420:	8fb10018 	lw	s1,24(sp)
9d004424:	8fb00014 	lw	s0,20(sp)
9d004428:	03e00008 	jr	ra
9d00442c:	27bd0028 	addiu	sp,sp,40
9d004430:	3c0351eb 	lui	v1,0x51eb
9d004434:	3463851f 	ori	v1,v1,0x851f
9d004438:	00830018 	mult	a0,v1
9d00443c:	00001810 	mfhi	v1
9d004440:	000497c3 	sra	s2,a0,0x1f
9d004444:	3c136666 	lui	s3,0x6666
9d004448:	26736667 	addiu	s3,s3,26215
9d00444c:	3c119d00 	lui	s1,0x9d00
9d004450:	263154f4 	addiu	s1,s1,21748
9d004454:	8e24004c 	lw	a0,76(s1)
9d004458:	00031943 	sra	v1,v1,0x5
9d00445c:	00721823 	subu	v1,v1,s2
9d004460:	00031080 	sll	v0,v1,0x2
9d004464:	00031900 	sll	v1,v1,0x4
9d004468:	00431021 	addu	v0,v0,v1
9d00446c:	00021880 	sll	v1,v0,0x2
9d004470:	00431021 	addu	v0,v0,v1
9d004474:	02021023 	subu	v0,s0,v0
9d004478:	7c021420 	seb	v0,v0
9d00447c:	00530018 	mult	v0,s3
9d004480:	00001810 	mfhi	v1
9d004484:	000217c3 	sra	v0,v0,0x1f
9d004488:	00031883 	sra	v1,v1,0x2
9d00448c:	00621023 	subu	v0,v1,v0
9d004490:	7c021420 	seb	v0,v0
9d004494:	24420009 	addiu	v0,v0,9
9d004498:	00021080 	sll	v0,v0,0x2
9d00449c:	00511021 	addu	v0,v0,s1
9d0044a0:	0f401270 	jal	9d0049c0 <.LFE4>
9d0044a4:	8c450000 	lw	a1,0(v0)
9d0044a8:	02130018 	mult	s0,s3
9d0044ac:	00009810 	mfhi	s3
9d0044b0:	00402021 	move	a0,v0
9d0044b4:	00139883 	sra	s3,s3,0x2
9d0044b8:	02729023 	subu	s2,s3,s2
9d0044bc:	00121040 	sll	v0,s2,0x1
9d0044c0:	001290c0 	sll	s2,s2,0x3
9d0044c4:	00529021 	addu	s2,v0,s2
9d0044c8:	02128023 	subu	s0,s0,s2
9d0044cc:	7c108420 	seb	s0,s0
9d0044d0:	00108080 	sll	s0,s0,0x2
9d0044d4:	02118821 	addu	s1,s0,s1
9d0044d8:	0f401270 	jal	9d0049c0 <.LFE4>
9d0044dc:	8e250000 	lw	a1,0(s1)
9d0044e0:	8fbf0024 	lw	ra,36(sp)
9d0044e4:	8fb30020 	lw	s3,32(sp)
9d0044e8:	8fb2001c 	lw	s2,28(sp)
9d0044ec:	8fb10018 	lw	s1,24(sp)
9d0044f0:	8fb00014 	lw	s0,20(sp)
9d0044f4:	03e00008 	jr	ra
9d0044f8:	27bd0028 	addiu	sp,sp,40
9d0044fc:	00048023 	negu	s0,a0
9d004500:	7c108420 	seb	s0,s0
9d004504:	2a02006e 	slti	v0,s0,110
9d004508:	10400021 	beqz	v0,9d004590 <scale+0x1c4>
9d00450c:	2a02000b 	slti	v0,s0,11
9d004510:	54400030 	bnezl	v0,9d0045d4 <scale+0x208>
9d004514:	00108080 	sll	s0,s0,0x2
9d004518:	3c026666 	lui	v0,0x6666
9d00451c:	24426667 	addiu	v0,v0,26215
9d004520:	02020018 	mult	s0,v0
9d004524:	00001010 	mfhi	v0
9d004528:	001027c3 	sra	a0,s0,0x1f
9d00452c:	3c039d00 	lui	v1,0x9d00
9d004530:	24635528 	addiu	v1,v1,21800
9d004534:	00021083 	sra	v0,v0,0x2
9d004538:	00441023 	subu	v0,v0,a0
9d00453c:	00022840 	sll	a1,v0,0x1
9d004540:	000220c0 	sll	a0,v0,0x3
9d004544:	00a42021 	addu	a0,a1,a0
9d004548:	7c021420 	seb	v0,v0
9d00454c:	02048023 	subu	s0,s0,a0
9d004550:	24420009 	addiu	v0,v0,9
9d004554:	7c108420 	seb	s0,s0
9d004558:	00021080 	sll	v0,v0,0x2
9d00455c:	00108080 	sll	s0,s0,0x2
9d004560:	00431021 	addu	v0,v0,v1
9d004564:	02031821 	addu	v1,s0,v1
9d004568:	8c440000 	lw	a0,0(v0)
9d00456c:	0f401270 	jal	9d0049c0 <.LFE4>
9d004570:	8c650000 	lw	a1,0(v1)
9d004574:	8fbf0024 	lw	ra,36(sp)
9d004578:	8fb30020 	lw	s3,32(sp)
9d00457c:	8fb2001c 	lw	s2,28(sp)
9d004580:	8fb10018 	lw	s1,24(sp)
9d004584:	8fb00014 	lw	s0,20(sp)
9d004588:	03e00008 	jr	ra
9d00458c:	27bd0028 	addiu	sp,sp,40
9d004590:	3c0351eb 	lui	v1,0x51eb
9d004594:	3463851f 	ori	v1,v1,0x851f
9d004598:	02030018 	mult	s0,v1
9d00459c:	00001810 	mfhi	v1
9d0045a0:	001097c3 	sra	s2,s0,0x1f
9d0045a4:	3c136666 	lui	s3,0x6666
9d0045a8:	26736667 	addiu	s3,s3,26215
9d0045ac:	3c119d00 	lui	s1,0x9d00
9d0045b0:	0b401115 	j	9d004454 <scale+0x88>
9d0045b4:	26315528 	addiu	s1,s1,21800
9d0045b8:	24426667 	addiu	v0,v0,26215
9d0045bc:	00820018 	mult	a0,v0
9d0045c0:	00001010 	mfhi	v0
9d0045c4:	000427c3 	sra	a0,a0,0x1f
9d0045c8:	3c039d00 	lui	v1,0x9d00
9d0045cc:	0b40114d 	j	9d004534 <scale+0x168>
9d0045d0:	246354f4 	addiu	v1,v1,21748
9d0045d4:	3c029d00 	lui	v0,0x9d00
9d0045d8:	24425528 	addiu	v0,v0,21800
9d0045dc:	02028021 	addu	s0,s0,v0
9d0045e0:	0b401105 	j	9d004414 <scale+0x48>
9d0045e4:	8e020000 	lw	v0,0(s0)

Disassembly of section .text.__floatdisf:

9d0045e8 <__floatdisf>:
9d0045e8:	00851825 	or	v1,a0,a1
9d0045ec:	10600045 	beqz	v1,9d004704 <__floatdisf+0x11c>
9d0045f0:	00001021 	move	v0,zero
9d0045f4:	24020001 	li	v0,1
9d0045f8:	10820044 	beq	a0,v0,9d00470c <__floatdisf+0x124>
9d0045fc:	00053fc2 	srl	a3,a1,0x1f
9d004600:	2402ffff 	li	v0,-1
9d004604:	10820062 	beq	a0,v0,9d004790 <__floatdisf+0x1a8>
9d004608:	2402000a 	li	v0,10
9d00460c:	10820064 	beq	a0,v0,9d0047a0 <__floatdisf+0x1b8>
9d004610:	2402fff6 	li	v0,-10
9d004614:	10820057 	beq	a0,v0,9d004774 <__floatdisf+0x18c>
9d004618:	2402ffff 	li	v0,-1
9d00461c:	10e00008 	beqz	a3,9d004640 <__floatdisf+0x58>
9d004620:	00051940 	sll	v1,a1,0x5
9d004624:	1080003f 	beqz	a0,9d004724 <__floatdisf+0x13c>
9d004628:	3c028000 	lui	v0,0x8000
9d00462c:	00042023 	negu	a0,a0
9d004630:	0004102b 	sltu	v0,zero,a0
9d004634:	00052823 	negu	a1,a1
9d004638:	00a22823 	subu	a1,a1,v0
9d00463c:	00051940 	sll	v1,a1,0x5
9d004640:	000416c2 	srl	v0,a0,0x1b
9d004644:	00621025 	or	v0,v1,v0
9d004648:	00051ec2 	srl	v1,a1,0x1b
9d00464c:	00431025 	or	v0,v0,v1
9d004650:	14400038 	bnez	v0,9d004734 <__floatdisf+0x14c>
9d004654:	00051980 	sll	v1,a1,0x6
9d004658:	00041682 	srl	v0,a0,0x1a
9d00465c:	00621025 	or	v0,v1,v0
9d004660:	00051e82 	srl	v1,a1,0x1a
9d004664:	00431825 	or	v1,v0,v1
9d004668:	14600051 	bnez	v1,9d0047b0 <__floatdisf+0x1c8>
9d00466c:	2402001a 	li	v0,26
9d004670:	00041fc2 	srl	v1,a0,0x1f
9d004674:	00052840 	sll	a1,a1,0x1
9d004678:	00652825 	or	a1,v1,a1
9d00467c:	00042040 	sll	a0,a0,0x1
9d004680:	00053180 	sll	a2,a1,0x6
9d004684:	00041e82 	srl	v1,a0,0x1a
9d004688:	00c31825 	or	v1,a2,v1
9d00468c:	00053682 	srl	a2,a1,0x1a
9d004690:	00661825 	or	v1,v1,a2
9d004694:	1060fff6 	beqz	v1,9d004670 <__floatdisf+0x88>
9d004698:	2442ffff 	addiu	v0,v0,-1
9d00469c:	2443007f 	addiu	v1,v0,127
9d0046a0:	58600049 	blezl	v1,9d0047c8 <__floatdisf+0x1e0>
9d0046a4:	2403ff82 	li	v1,-126
9d0046a8:	30820007 	andi	v0,a0,0x7
9d0046ac:	1040000a 	beqz	v0,9d0046d8 <__floatdisf+0xf0>
9d0046b0:	286200ff 	slti	v0,v1,255
9d0046b4:	7c8500c0 	ext	a1,a0,0x3,0x1
9d0046b8:	24840003 	addiu	a0,a0,3
9d0046bc:	00852021 	addu	a0,a0,a1
9d0046c0:	000416c2 	srl	v0,a0,0x1b
9d0046c4:	10400004 	beqz	v0,9d0046d8 <__floatdisf+0xf0>
9d0046c8:	286200ff 	slti	v0,v1,255
9d0046cc:	00042042 	srl	a0,a0,0x1
9d0046d0:	24630001 	addiu	v1,v1,1
9d0046d4:	286200ff 	slti	v0,v1,255
9d0046d8:	10400037 	beqz	v0,9d0047b8 <__floatdisf+0x1d0>
9d0046dc:	000420c2 	srl	a0,a0,0x3
9d0046e0:	7c8205c0 	ext	v0,a0,0x17,0x1
9d0046e4:	50400002 	beqzl	v0,9d0046f0 <__floatdisf+0x108>
9d0046e8:	00001821 	move	v1,zero
9d0046ec:	7c84b000 	ext	a0,a0,0x0,0x17
9d0046f0:	00071200 	sll	v0,a3,0x8
9d0046f4:	00621025 	or	v0,v1,v0
9d0046f8:	000215c0 	sll	v0,v0,0x17
9d0046fc:	03e00008 	jr	ra
9d004700:	00441025 	or	v0,v0,a0
9d004704:	03e00008 	jr	ra
9d004708:	00000000 	nop
9d00470c:	54a0ffbd 	bnezl	a1,9d004604 <__floatdisf+0x1c>
9d004710:	2402ffff 	li	v0,-1
9d004714:	00071200 	sll	v0,a3,0x8
9d004718:	3442007f 	ori	v0,v0,0x7f
9d00471c:	03e00008 	jr	ra
9d004720:	000215c0 	sll	v0,v0,0x17
9d004724:	14a2ffc2 	bne	a1,v0,9d004630 <__floatdisf+0x48>
9d004728:	00042023 	negu	a0,a0
9d00472c:	00002021 	move	a0,zero
9d004730:	3c058000 	lui	a1,0x8000
9d004734:	2402001a 	li	v0,26
9d004738:	000537c0 	sll	a2,a1,0x1f
9d00473c:	00041842 	srl	v1,a0,0x1
9d004740:	00c31825 	or	v1,a2,v1
9d004744:	30840001 	andi	a0,a0,0x1
9d004748:	00052842 	srl	a1,a1,0x1
9d00474c:	00832025 	or	a0,a0,v1
9d004750:	00053140 	sll	a2,a1,0x5
9d004754:	00041ec2 	srl	v1,a0,0x1b
9d004758:	00c31825 	or	v1,a2,v1
9d00475c:	000536c2 	srl	a2,a1,0x1b
9d004760:	00661825 	or	v1,v1,a2
9d004764:	1460fff4 	bnez	v1,9d004738 <__floatdisf+0x150>
9d004768:	24420001 	addiu	v0,v0,1
9d00476c:	0b4011a8 	j	9d0046a0 <__floatdisf+0xb8>
9d004770:	2443007f 	addiu	v1,v0,127
9d004774:	14a2ffa9 	bne	a1,v0,9d00461c <__floatdisf+0x34>
9d004778:	00071200 	sll	v0,a3,0x8
9d00477c:	34420082 	ori	v0,v0,0x82
9d004780:	000215c0 	sll	v0,v0,0x17
9d004784:	3c030020 	lui	v1,0x20
9d004788:	03e00008 	jr	ra
9d00478c:	00431025 	or	v0,v0,v1
9d004790:	54a4ff9e 	bnel	a1,a0,9d00460c <__floatdisf+0x24>
9d004794:	2402000a 	li	v0,10
9d004798:	0b4011c6 	j	9d004718 <__floatdisf+0x130>
9d00479c:	00071200 	sll	v0,a3,0x8
9d0047a0:	54a0ff9c 	bnezl	a1,9d004614 <__floatdisf+0x2c>
9d0047a4:	2402fff6 	li	v0,-10
9d0047a8:	0b4011df 	j	9d00477c <__floatdisf+0x194>
9d0047ac:	00071200 	sll	v0,a3,0x8
9d0047b0:	0b4011aa 	j	9d0046a8 <__floatdisf+0xc0>
9d0047b4:	24030099 	li	v1,153
9d0047b8:	00071200 	sll	v0,a3,0x8
9d0047bc:	344200ff 	ori	v0,v0,0xff
9d0047c0:	03e00008 	jr	ra
9d0047c4:	000215c0 	sll	v0,v0,0x17
9d0047c8:	00621823 	subu	v1,v1,v0
9d0047cc:	2865001b 	slti	a1,v1,27
9d0047d0:	50a00008 	beqzl	a1,9d0047f4 <__floatdisf+0x20c>
9d0047d4:	00002021 	move	a0,zero
9d0047d8:	2442009e 	addiu	v0,v0,158
9d0047dc:	00441004 	sllv	v0,a0,v0
9d0047e0:	00642006 	srlv	a0,a0,v1
9d0047e4:	0002102b 	sltu	v0,zero,v0
9d0047e8:	00442025 	or	a0,v0,a0
9d0047ec:	0b4011aa 	j	9d0046a8 <__floatdisf+0xc0>
9d0047f0:	24030001 	li	v1,1
9d0047f4:	0b4011bc 	j	9d0046f0 <__floatdisf+0x108>
9d0047f8:	00001821 	move	v1,zero

Disassembly of section .text:

9d0047fc <NU32_Startup>:

// Perform startup routines:
//  Make NU32_LED1 and NU32_LED2 pins outputs (NU32_USER is by default an input)
//  Initialize the serial port - UART3 (no interrupt) 
//  Enable interrupts
void NU32_Startup() {
9d0047fc:	27bdfff8 	addiu	sp,sp,-8
9d004800:	afbf0004 	sw	ra,4(sp)
  // disable interrupts
  __builtin_disable_interrupts();
9d004804:	41626000 	di	v0
9d004808:	000000c0 	ehb
  // see Chapter 2 "CPU for Devices with M4K Core" of the PIC32 reference manual
  // most of the other bits have prescribed values
  // microchip does not provide a _CP0_SET_CONFIG macro, so we directly use
  // the compiler built-in command _mtc0
  // to disable cache, use 0xa4210582 
  __builtin_mtc0(_CP0_CONFIG, _CP0_CONFIG_SELECT, 0xa4210583); 
9d00480c:	3c02a421 	lui	v0,0xa421
9d004810:	24420583 	addiu	v0,v0,1411
9d004814:	40828000 	mtc0	v0,c0_config
9d004818:	000000c0 	ehb
  
  // set the prefectch cache wait state to 2, as per the
  // electrical characteristics data sheet
  CHECONbits.PFMWS = 0x2;   
9d00481c:	3c02bf88 	lui	v0,0xbf88
9d004820:	8c434000 	lw	v1,16384(v0)
9d004824:	24050002 	li	a1,2
9d004828:	7ca31004 	ins	v1,a1,0x0,0x3
9d00482c:	ac434000 	sw	v1,16384(v0)

  //enable prefetch for cacheable and noncacheable memory
  CHECONbits.PREFEN = 0x3; 
9d004830:	8c434000 	lw	v1,16384(v0)
9d004834:	24040003 	li	a0,3
9d004838:	7c832904 	ins	v1,a0,0x4,0x2
9d00483c:	ac434000 	sw	v1,16384(v0)

  // 0 data RAM access wait states
  BMXCONbits.BMXWSDRM = 0x0;
9d004840:	3c02bf88 	lui	v0,0xbf88
9d004844:	8c432000 	lw	v1,8192(v0)
9d004848:	7c033184 	ins	v1,zero,0x6,0x1
9d00484c:	ac432000 	sw	v1,8192(v0)
  
  // enable multi vector interrupts
  INTCONbits.MVEC = 0x1;
9d004850:	3c02bf88 	lui	v0,0xbf88
9d004854:	8c461000 	lw	a2,4096(v0)
9d004858:	24030001 	li	v1,1
9d00485c:	7c666304 	ins	a2,v1,0xc,0x1
9d004860:	ac461000 	sw	a2,4096(v0)

  // disable JTAG to get B10, B11, B12 and B13 back
  DDPCONbits.JTAGEN = 0;
9d004864:	3c02bf81 	lui	v0,0xbf81
9d004868:	9046f200 	lbu	a2,-3584(v0)
9d00486c:	7c0618c4 	ins	a2,zero,0x3,0x1
9d004870:	a046f200 	sb	a2,-3584(v0)

  TRISFCLR = 0x0003;  // Make F0 and F1 outputs (LED1 and LED2)
9d004874:	3c02bf88 	lui	v0,0xbf88
9d004878:	ac446144 	sw	a0,24900(v0)
  NU32_LED1 = 1;      // LED1 is off
9d00487c:	3c02bf88 	lui	v0,0xbf88
9d004880:	90446160 	lbu	a0,24928(v0)
9d004884:	7c640004 	ins	a0,v1,0x0,0x1
9d004888:	a0446160 	sb	a0,24928(v0)
  NU32_LED2 = 0;      // LED2 is on
9d00488c:	90446160 	lbu	a0,24928(v0)
9d004890:	7c040844 	ins	a0,zero,0x1,0x1
9d004894:	a0446160 	sb	a0,24928(v0)

  // turn on UART3 without an interrupt
  U3MODEbits.BRGH = 0; // set baud to NU32_DESIRED_BAUD
9d004898:	3c02bf80 	lui	v0,0xbf80
9d00489c:	94446400 	lhu	a0,25600(v0)
9d0048a0:	7c0418c4 	ins	a0,zero,0x3,0x1
9d0048a4:	a4446400 	sh	a0,25600(v0)
  U3BRG = ((NU32_SYS_FREQ / NU32_DESIRED_BAUD) / 16) - 1;
9d0048a8:	24060014 	li	a2,20
9d0048ac:	3c04bf80 	lui	a0,0xbf80
9d0048b0:	ac866440 	sw	a2,25664(a0)

  // 8 bit, no parity bit, and 1 stop bit (8N1 setup)
  U3MODEbits.PDSEL = 0;
9d0048b4:	94446400 	lhu	a0,25600(v0)
9d0048b8:	7c041044 	ins	a0,zero,0x1,0x2
9d0048bc:	a4446400 	sh	a0,25600(v0)
  U3MODEbits.STSEL = 0;
9d0048c0:	94446400 	lhu	a0,25600(v0)
9d0048c4:	7c040004 	ins	a0,zero,0x0,0x1
9d0048c8:	a4446400 	sh	a0,25600(v0)

  // configure TX & RX pins as output & input pins
  U3STAbits.UTXEN = 1;
9d0048cc:	3c04bf80 	lui	a0,0xbf80
9d0048d0:	8c866410 	lw	a2,25616(a0)
9d0048d4:	7c665284 	ins	a2,v1,0xa,0x1
9d0048d8:	ac866410 	sw	a2,25616(a0)
  U3STAbits.URXEN = 1;
9d0048dc:	8c866410 	lw	a2,25616(a0)
9d0048e0:	7c666304 	ins	a2,v1,0xc,0x1
9d0048e4:	ac866410 	sw	a2,25616(a0)
  // configure hardware flow control using RTS and CTS
  U3MODEbits.UEN = 2;
9d0048e8:	94446400 	lhu	a0,25600(v0)
9d0048ec:	7ca44a04 	ins	a0,a1,0x8,0x2
9d0048f0:	a4446400 	sh	a0,25600(v0)

  // enable the uart
  U3MODEbits.ON = 1;
9d0048f4:	94446400 	lhu	a0,25600(v0)
9d0048f8:	7c647bc4 	ins	a0,v1,0xf,0x1
9d0048fc:	a4446400 	sh	a0,25600(v0)

  __builtin_enable_interrupts();
9d004900:	41626020 	ei	v0
}
9d004904:	8fbf0004 	lw	ra,4(sp)
9d004908:	03e00008 	jr	ra
9d00490c:	27bd0008 	addiu	sp,sp,8

9d004910 <NU32_ReadUART3>:
// Read from UART3
// block other functions until you get a '\r' or '\n'
// send the pointer to your char array and the number of elements in the array
void NU32_ReadUART3(char * message, int maxLength) {
  char data = 0;
  int complete = 0, num_bytes = 0;
9d004910:	00003021 	move	a2,zero
  // loop until you get a '\r' or '\n'
  while (!complete) {
    if (U3STAbits.URXDA) { // if data is available
9d004914:	3c03bf80 	lui	v1,0xbf80
      data = U3RXREG;      // read the data
9d004918:	3c08bf80 	lui	t0,0xbf80
      if ((data == '\n') || (data == '\r')) {
9d00491c:	2407000a 	li	a3,10
9d004920:	0b401258 	j	9d004960 <NU32_ReadUART3+0x50>
9d004924:	2409000d 	li	t1,13
void NU32_ReadUART3(char * message, int maxLength) {
  char data = 0;
  int complete = 0, num_bytes = 0;
  // loop until you get a '\r' or '\n'
  while (!complete) {
    if (U3STAbits.URXDA) { // if data is available
9d004928:	8c626410 	lw	v0,25616(v1)
9d00492c:	30420001 	andi	v0,v0,0x1
9d004930:	1040fffd 	beqz	v0,9d004928 <NU32_ReadUART3+0x18>
9d004934:	00000000 	nop
      data = U3RXREG;      // read the data
9d004938:	8d026430 	lw	v0,25648(t0)
9d00493c:	7c021420 	seb	v0,v0
      if ((data == '\n') || (data == '\r')) {
9d004940:	5047000e 	beql	v0,a3,9d00497c <NU32_ReadUART3+0x6c>
9d004944:	00862021 	addu	a0,a0,a2
9d004948:	1049000b 	beq	v0,t1,9d004978 <NU32_ReadUART3+0x68>
9d00494c:	00865021 	addu	t2,a0,a2
        complete = 1;
      } else {
        message[num_bytes] = data;
9d004950:	a1420000 	sb	v0,0(t2)
        ++num_bytes;
9d004954:	24c60001 	addiu	a2,a2,1
        // roll over if the array is too small
        if (num_bytes >= maxLength) {
9d004958:	00c5102a 	slt	v0,a2,a1
          num_bytes = 0;
9d00495c:	0002300a 	movz	a2,zero,v0
void NU32_ReadUART3(char * message, int maxLength) {
  char data = 0;
  int complete = 0, num_bytes = 0;
  // loop until you get a '\r' or '\n'
  while (!complete) {
    if (U3STAbits.URXDA) { // if data is available
9d004960:	8c626410 	lw	v0,25616(v1)
9d004964:	30420001 	andi	v0,v0,0x1
9d004968:	1040ffef 	beqz	v0,9d004928 <NU32_ReadUART3+0x18>
9d00496c:	00000000 	nop
9d004970:	0b40124e 	j	9d004938 <NU32_ReadUART3+0x28>
9d004974:	00000000 	nop
        }
      }
    }
  }
  // end the string
  message[num_bytes] = '\0';
9d004978:	00862021 	addu	a0,a0,a2
9d00497c:	03e00008 	jr	ra
9d004980:	a0800000 	sb	zero,0(a0)

9d004984 <NU32_WriteUART3>:
}

// Write a character array using UART3
void NU32_WriteUART3(const char * string) {
  while (*string != '\0') {
9d004984:	80850000 	lb	a1,0(a0)
9d004988:	10a0000b 	beqz	a1,9d0049b8 <NU32_WriteUART3+0x34>
9d00498c:	3c03bf80 	lui	v1,0xbf80
    while (U3STAbits.UTXBF) {
      ; // wait until tx buffer isn't full
    }
    U3TXREG = *string;
9d004990:	3c06bf80 	lui	a2,0xbf80
}

// Write a character array using UART3
void NU32_WriteUART3(const char * string) {
  while (*string != '\0') {
    while (U3STAbits.UTXBF) {
9d004994:	8c626410 	lw	v0,25616(v1)
9d004998:	30420200 	andi	v0,v0,0x200
9d00499c:	1440fffd 	bnez	v0,9d004994 <NU32_WriteUART3+0x10>
9d0049a0:	00000000 	nop
      ; // wait until tx buffer isn't full
    }
    U3TXREG = *string;
9d0049a4:	acc56420 	sw	a1,25632(a2)
    ++string;
9d0049a8:	24840001 	addiu	a0,a0,1
  message[num_bytes] = '\0';
}

// Write a character array using UART3
void NU32_WriteUART3(const char * string) {
  while (*string != '\0') {
9d0049ac:	80850000 	lb	a1,0(a0)
9d0049b0:	14a0fff8 	bnez	a1,9d004994 <NU32_WriteUART3+0x10>
9d0049b4:	00000000 	nop
9d0049b8:	03e00008 	jr	ra
9d0049bc:	00000000 	nop

Disassembly of section .text.fp32mul:

9d0049c0 <__mulsf3>:
9d0049c0:	00043dc2 30e700ff 00054dc2 312900ff     .=.....0.M....)1
9d0049d0:	3c0a8000 00043200 00ca3025 00054200     ...<.2..%0...B..
9d0049e0:	010a4025 00856026 014c5024 24ecffff     %@..&`..$PL....$
9d0049f0:	2d8100fe 10200021 00000000              ...-!. .....

9d0049fc <Clab1>:
9d0049fc:	252cffff 	addiu	t4,t1,-1
9d004a00:	2d8100fe 	sltiu	at,t4,254
9d004a04:	10200036 	beqz	at,9d004ae0 <CspecB>
9d004a08:	00000000 	nop

9d004a0c <Clab2>:
9d004a0c:	00c80019 	multu	a2,t0
9d004a10:	00005812 	mflo	t3
9d004a14:	11600002 	beqz	t3,9d004a20 <i17>
9d004a18:	00003010 	mfhi	a2
9d004a1c:	34c60001 	ori	a2,a2,0x1

9d004a20 <i17>:
9d004a20:	04c00003 	bltz	a2,9d004a30 <i18>
9d004a24:	00000000 	nop
9d004a28:	00063040 	sll	a2,a2,0x1
9d004a2c:	24e7ffff 	addiu	a3,a3,-1

9d004a30 <i18>:
9d004a30:	252cff82 	addiu	t4,t1,-126
9d004a34:	00ec3821 	addu	a3,a3,t4
9d004a38:	24ecffff 	addiu	t4,a3,-1
9d004a3c:	2d8100fe 	sltiu	at,t4,254
9d004a40:	1020003a 	beqz	at,9d004b2c <Coveund>
9d004a44:	00000000 	nop

9d004a48 <Clab8>:
9d004a48:	24c60080 	addiu	a2,a2,128
9d004a4c:	2ccc0080 	sltiu	t4,a2,128
9d004a50:	00ec3821 	addu	a3,a3,t4
9d004a54:	00066202 	srl	t4,a2,0x8
9d004a58:	318c0001 	andi	t4,t4,0x1
9d004a5c:	00cc3023 	subu	a2,a2,t4
9d004a60:	00063040 	sll	a2,a2,0x1
9d004a64:	00063242 	srl	a2,a2,0x9
9d004a68:	000765c0 	sll	t4,a3,0x17
9d004a6c:	00cc3025 	or	a2,a2,t4
9d004a70:	00ca1025 	or	v0,a2,t2

9d004a74 <C999>:
9d004a74:	03e00008 	jr	ra
9d004a78:	00000000 	nop

9d004a7c <CspecA>:
9d004a7c:	14e0000d 	bnez	a3,9d004ab4 <i19>
9d004a80:	00000000 	nop
9d004a84:	00c63021 	addu	a2,a2,a2
9d004a88:	10c00005 	beqz	a2,9d004aa0 <i20>
9d004a8c:	00000000 	nop
9d004a90:	70cb5820 	clz	t3,a2
9d004a94:	00eb3823 	subu	a3,a3,t3
9d004a98:	1000ffd8 	b	9d0049fc <Clab1>
9d004a9c:	01663004 	sllv	a2,a2,t3

9d004aa0 <i20>:
9d004aa0:	240100ff 	li	at,255
9d004aa4:	1121001f 	beq	t1,at,9d004b24 <Cnan>
9d004aa8:	00000000 	nop
9d004aac:	10000015 	b	9d004b04 <Czer>
9d004ab0:	00000000 	nop

9d004ab4 <i19>:
9d004ab4:	00c66021 	addu	t4,a2,a2
9d004ab8:	1580001a 	bnez	t4,9d004b24 <Cnan>
9d004abc:	00000000 	nop
9d004ac0:	15200004 	bnez	t1,9d004ad4 <i21>
9d004ac4:	00000000 	nop
9d004ac8:	01086021 	addu	t4,t0,t0
9d004acc:	11800015 	beqz	t4,9d004b24 <Cnan>
9d004ad0:	00000000 	nop

9d004ad4 <i21>:
9d004ad4:	240100ff 	li	at,255
9d004ad8:	1521000f 	bne	t1,at,9d004b18 <Cinf>
9d004adc:	00000000 	nop

9d004ae0 <CspecB>:
9d004ae0:	1520000a 	bnez	t1,9d004b0c <i22>
9d004ae4:	00000000 	nop
9d004ae8:	01084021 	addu	t0,t0,t0
9d004aec:	11000005 	beqz	t0,9d004b04 <Czer>
9d004af0:	00000000 	nop
9d004af4:	710b5820 	clz	t3,t0
9d004af8:	012b4823 	subu	t1,t1,t3
9d004afc:	1000ffc3 	b	9d004a0c <Clab2>
9d004b00:	01684004 	sllv	t0,t0,t3

9d004b04 <Czer>:
9d004b04:	1000ffdb 	b	9d004a74 <C999>
9d004b08:	000a1025 	or	v0,zero,t2

9d004b0c <i22>:
9d004b0c:	01086021 	addu	t4,t0,t0
9d004b10:	15800004 	bnez	t4,9d004b24 <Cnan>
9d004b14:	00000000 	nop

9d004b18 <Cinf>:
9d004b18:	3c017f80 	lui	at,0x7f80
9d004b1c:	1000ffd5 	b	9d004a74 <C999>
9d004b20:	01411025 	or	v0,t2,at

9d004b24 <Cnan>:
9d004b24:	1000ffd3 	b	9d004a74 <C999>
9d004b28:	3c02ffc0 	lui	v0,0xffc0

9d004b2c <Coveund>:
9d004b2c:	1ce0fffa 	bgtz	a3,9d004b18 <Cinf>
9d004b30:	00000000 	nop
9d004b34:	240b0001 	li	t3,1
9d004b38:	01675823 	subu	t3,t3,a3
9d004b3c:	2d610020 	sltiu	at,t3,32
9d004b40:	1020fff0 	beqz	at,9d004b04 <Czer>
9d004b44:	00000000 	nop
9d004b48:	240c0020 	li	t4,32
9d004b4c:	018b6023 	subu	t4,t4,t3
9d004b50:	01863804 	sllv	a3,a2,t4
9d004b54:	10e00002 	beqz	a3,9d004b60 <i25>
9d004b58:	01663006 	srlv	a2,a2,t3
9d004b5c:	34c60002 	ori	a2,a2,0x2

9d004b60 <i25>:
9d004b60:	24070000 	li	a3,0
9d004b64:	24cc0080 	addiu	t4,a2,128
9d004b68:	0581ffb7 	bgez	t4,9d004a48 <Clab8>
9d004b6c:	00000000 	nop
9d004b70:	1000ffb5 	b	9d004a48 <Clab8>
9d004b74:	24070001 	li	a3,1
9d004b78:	00000000 	nop

Disassembly of section .text.fputc:

9d004b7c <fputc>:
9d004b7c:	27bdffe0 	addiu	sp,sp,-32
9d004b80:	afbf001c 	sw	ra,28(sp)
9d004b84:	afb10018 	sw	s1,24(sp)
9d004b88:	afb00014 	sw	s0,20(sp)
9d004b8c:	94a2000c 	lhu	v0,12(a1)
9d004b90:	30430002 	andi	v1,v0,0x2
9d004b94:	10600048 	beqz	v1,9d004cb8 <fputc+0x13c>
9d004b98:	00a08021 	move	s0,a1
9d004b9c:	30430200 	andi	v1,v0,0x200
9d004ba0:	1060001c 	beqz	v1,9d004c14 <fputc+0x98>
9d004ba4:	8ca30004 	lw	v1,4(a1)
9d004ba8:	34450200 	ori	a1,v0,0x200
9d004bac:	a605000c 	sh	a1,12(s0)
9d004bb0:	1060001c 	beqz	v1,9d004c24 <fputc+0xa8>
9d004bb4:	309100ff 	andi	s1,a0,0xff
9d004bb8:	2404000a 	li	a0,10
9d004bbc:	1224001f 	beq	s1,a0,9d004c3c <fputc+0xc0>
9d004bc0:	30420080 	andi	v0,v0,0x80
9d004bc4:	8e020010 	lw	v0,16(s0)
9d004bc8:	10620036 	beq	v1,v0,9d004ca4 <fputc+0x128>
9d004bcc:	24630001 	addiu	v1,v1,1
9d004bd0:	8e020000 	lw	v0,0(s0)
9d004bd4:	24440001 	addiu	a0,v0,1
9d004bd8:	ae040000 	sw	a0,0(s0)
9d004bdc:	ae030004 	sw	v1,4(s0)
9d004be0:	a0510000 	sb	s1,0(v0)
9d004be4:	24030001 	li	v1,1
9d004be8:	3c02a000 	lui	v0,0xa000
9d004bec:	a04300b0 	sb	v1,176(v0)
9d004bf0:	2402000a 	li	v0,10
9d004bf4:	52220018 	beql	s1,v0,9d004c58 <fputc+0xdc>
9d004bf8:	9603000c 	lhu	v1,12(s0)
9d004bfc:	02201021 	move	v0,s1
9d004c00:	8fbf001c 	lw	ra,28(sp)
9d004c04:	8fb10018 	lw	s1,24(sp)
9d004c08:	8fb00014 	lw	s0,20(sp)
9d004c0c:	03e00008 	jr	ra
9d004c10:	27bd0020 	addiu	sp,sp,32
9d004c14:	14600028 	bnez	v1,9d004cb8 <fputc+0x13c>
9d004c18:	34450200 	ori	a1,v0,0x200
9d004c1c:	a605000c 	sh	a1,12(s0)
9d004c20:	309100ff 	andi	s1,a0,0xff
9d004c24:	8e040008 	lw	a0,8(s0)
9d004c28:	ae040000 	sw	a0,0(s0)
9d004c2c:	2404000a 	li	a0,10
9d004c30:	5624ffe5 	bnel	s1,a0,9d004bc8 <fputc+0x4c>
9d004c34:	8e020010 	lw	v0,16(s0)
9d004c38:	30420080 	andi	v0,v0,0x80
9d004c3c:	5440ffe2 	bnezl	v0,9d004bc8 <fputc+0x4c>
9d004c40:	8e020010 	lw	v0,16(s0)
9d004c44:	2404000d 	li	a0,13
9d004c48:	0f4012df 	jal	9d004b7c <fputc>
9d004c4c:	02002821 	move	a1,s0
9d004c50:	0b4012f1 	j	9d004bc4 <fputc+0x48>
9d004c54:	8e030004 	lw	v1,4(s0)
9d004c58:	30630100 	andi	v1,v1,0x100
9d004c5c:	1060ffe8 	beqz	v1,9d004c00 <fputc+0x84>
9d004c60:	2402000a 	li	v0,10
9d004c64:	9604000e 	lhu	a0,14(s0)
9d004c68:	8e050008 	lw	a1,8(s0)
9d004c6c:	0f401494 	jal	9d005250 <write>
9d004c70:	8e060004 	lw	a2,4(s0)
9d004c74:	8e030004 	lw	v1,4(s0)
9d004c78:	50430006 	beql	v0,v1,9d004c94 <fputc+0x118>
9d004c7c:	8e030008 	lw	v1,8(s0)
9d004c80:	9602000c 	lhu	v0,12(s0)
9d004c84:	2411ffff 	li	s1,-1
9d004c88:	34420030 	ori	v0,v0,0x30
9d004c8c:	a602000c 	sh	v0,12(s0)
9d004c90:	8e030008 	lw	v1,8(s0)
9d004c94:	ae000004 	sw	zero,4(s0)
9d004c98:	02201021 	move	v0,s1
9d004c9c:	0b401300 	j	9d004c00 <fputc+0x84>
9d004ca0:	ae030000 	sw	v1,0(s0)
9d004ca4:	7c112420 	seb	a0,s1
9d004ca8:	0f401330 	jal	9d004cc0 <.LFE0>
9d004cac:	02002821 	move	a1,s0
9d004cb0:	0b401301 	j	9d004c04 <fputc+0x88>
9d004cb4:	8fbf001c 	lw	ra,28(sp)
9d004cb8:	0b401300 	j	9d004c00 <fputc+0x84>
9d004cbc:	2402ffff 	li	v0,-1

Disassembly of section .text._flsbuf:

9d004cc0 <_flsbuf>:
9d004cc0:	27bdffe8 	addiu	sp,sp,-24
9d004cc4:	afbf0014 	sw	ra,20(sp)
9d004cc8:	afb00010 	sw	s0,16(sp)
9d004ccc:	00a08021 	move	s0,a1
9d004cd0:	94a2000c 	lhu	v0,12(a1)
9d004cd4:	30430040 	andi	v1,v0,0x40
9d004cd8:	1460001c 	bnez	v1,9d004d4c <_flsbuf+0x8c>
9d004cdc:	a3a40018 	sb	a0,24(sp)
9d004ce0:	30430002 	andi	v1,v0,0x2
9d004ce4:	5060003d 	beqzl	v1,9d004ddc <_flsbuf+0x11c>
9d004ce8:	34420030 	ori	v0,v0,0x30
9d004cec:	8ca30010 	lw	v1,16(a1)
9d004cf0:	5060001b 	beqzl	v1,9d004d60 <_flsbuf+0xa0>
9d004cf4:	94a4000e 	lhu	a0,14(a1)
9d004cf8:	8ca50008 	lw	a1,8(a1)
9d004cfc:	50a0002d 	beqzl	a1,9d004db4 <_flsbuf+0xf4>
9d004d00:	3c05a000 	lui	a1,0xa000
9d004d04:	8e060004 	lw	a2,4(s0)
9d004d08:	0f401494 	jal	9d005250 <write>
9d004d0c:	9604000e 	lhu	a0,14(s0)
9d004d10:	8e020008 	lw	v0,8(s0)
9d004d14:	83a30018 	lb	v1,24(sp)
9d004d18:	24440001 	addiu	a0,v0,1
9d004d1c:	2405ffff 	li	a1,-1
9d004d20:	ae050004 	sw	a1,4(s0)
9d004d24:	ae040000 	sw	a0,0(s0)
9d004d28:	a0430000 	sb	v1,0(v0)
9d004d2c:	83a20018 	lb	v0,24(sp)
9d004d30:	2403000a 	li	v1,10
9d004d34:	50430013 	beql	v0,v1,9d004d84 <_flsbuf+0xc4>
9d004d38:	9603000c 	lhu	v1,12(s0)
9d004d3c:	8fbf0014 	lw	ra,20(sp)
9d004d40:	8fb00010 	lw	s0,16(sp)
9d004d44:	03e00008 	jr	ra
9d004d48:	27bd0018 	addiu	sp,sp,24
9d004d4c:	7c041420 	seb	v0,a0
9d004d50:	8fbf0014 	lw	ra,20(sp)
9d004d54:	8fb00010 	lw	s0,16(sp)
9d004d58:	03e00008 	jr	ra
9d004d5c:	27bd0018 	addiu	sp,sp,24
9d004d60:	27a50018 	addiu	a1,sp,24
9d004d64:	0f401494 	jal	9d005250 <write>
9d004d68:	24060001 	li	a2,1
9d004d6c:	ae000004 	sw	zero,4(s0)
9d004d70:	83a20018 	lb	v0,24(sp)
9d004d74:	8fbf0014 	lw	ra,20(sp)
9d004d78:	8fb00010 	lw	s0,16(sp)
9d004d7c:	03e00008 	jr	ra
9d004d80:	27bd0018 	addiu	sp,sp,24
9d004d84:	30630100 	andi	v1,v1,0x100
9d004d88:	1060ffed 	beqz	v1,9d004d40 <_flsbuf+0x80>
9d004d8c:	8fbf0014 	lw	ra,20(sp)
9d004d90:	9604000e 	lhu	a0,14(s0)
9d004d94:	8e050008 	lw	a1,8(s0)
9d004d98:	0f401494 	jal	9d005250 <write>
9d004d9c:	8e060004 	lw	a2,4(s0)
9d004da0:	8e030008 	lw	v1,8(s0)
9d004da4:	83a20018 	lb	v0,24(sp)
9d004da8:	ae000004 	sw	zero,4(s0)
9d004dac:	0b40134f 	j	9d004d3c <_flsbuf+0x7c>
9d004db0:	ae030000 	sw	v1,0(s0)
9d004db4:	24a500d4 	addiu	a1,a1,212
9d004db8:	24030020 	li	v1,32
9d004dbc:	34420008 	ori	v0,v0,0x8
9d004dc0:	ae050008 	sw	a1,8(s0)
9d004dc4:	ae050000 	sw	a1,0(s0)
9d004dc8:	ae030010 	sw	v1,16(s0)
9d004dcc:	ae030004 	sw	v1,4(s0)
9d004dd0:	a602000c 	sh	v0,12(s0)
9d004dd4:	0b401342 	j	9d004d08 <_flsbuf+0x48>
9d004dd8:	24060020 	li	a2,32
9d004ddc:	a4a2000c 	sh	v0,12(a1)
9d004de0:	aca00004 	sw	zero,4(a1)
9d004de4:	0b40134f 	j	9d004d3c <_flsbuf+0x7c>
9d004de8:	2402ffff 	li	v0,-1

Disassembly of section .rodata:

9d004dec <_ctype>:
9d004dec:	20202000 20202020 28282020 20282828     .         ((((( 
9d004dfc:	20202020 20202020 20202020 20202020                     
9d004e0c:	10108020 10101010 10101010 10101010      ...............
9d004e1c:	04040410 04040404 10040404 10101010     ................
9d004e2c:	41411010 41414141 01010101 01010101     ..AAAAAA........
9d004e3c:	01010101 01010101 01010101 10101010     ................
9d004e4c:	42421010 42424242 02020202 02020202     ..BBBBBB........
9d004e5c:	02020202 02020202 02020202 10101010     ................
9d004e6c:	00000020 00000000 00000000 00000000      ...............
	...

Disassembly of section .dinit:

9d004ef0 <.dinit>:
9d004ef0:	a0000004 	sb	zero,4(zero)
9d004ef4:	00000008 	jr	zero
9d004ef8:	00000000 	nop
9d004efc:	a000000c 	sb	zero,12(zero)
9d004f00:	000000a4 	0xa4
9d004f04:	00000001 	movf	zero,zero,$fcc0
9d004f08:	a00000b4 	sb	zero,180(zero)
9d004f0c:	00000000 	nop
9d004f10:	a00000b4 	sb	zero,180(zero)
9d004f14:	00000009 	jalr	zero,zero
9d004f18:	00000020 	add	zero,zero,zero
9d004f1c:	a00000d4 	sb	zero,212(zero)
9d004f20:	00000000 	nop
9d004f24:	a00000d4 	sb	zero,212(zero)
9d004f28:	0001020e 	0x1020e
	...
9d004f3c:	00020206 	0x20206
	...
9d004fa8:	a000000c 	sb	zero,12(zero)
9d004fac:	a00000b0 	sb	zero,176(zero)
9d004fb0:	00000044 	0x44
9d004fb4:	00000000 	nop
9d004fb8:	a0000000 	sb	zero,0(zero)
9d004fbc:	00000004 	sllv	zero,zero,zero
9d004fc0:	00000001 	movf	zero,zero,$fcc0
9d004fc4:	00000002 	srl	zero,zero,0x0
9d004fc8:	00000000 	nop
9d004fcc:	22222222 	addi	v0,s1,8738

Disassembly of section .text.general_exception:

9d004fd0 <_general_exception_context>:
9d004fd0:	27bdffa8 	addiu	sp,sp,-88
9d004fd4:	afa10004 	sw	at,4(sp)
9d004fd8:	afa20008 	sw	v0,8(sp)
9d004fdc:	afa3000c 	sw	v1,12(sp)
9d004fe0:	afa40010 	sw	a0,16(sp)
9d004fe4:	afa50014 	sw	a1,20(sp)
9d004fe8:	afa60018 	sw	a2,24(sp)
9d004fec:	afa7001c 	sw	a3,28(sp)
9d004ff0:	afa80020 	sw	t0,32(sp)
9d004ff4:	afa90024 	sw	t1,36(sp)
9d004ff8:	afaa0028 	sw	t2,40(sp)
9d004ffc:	afab002c 	sw	t3,44(sp)
9d005000:	afac0030 	sw	t4,48(sp)
9d005004:	afad0034 	sw	t5,52(sp)
9d005008:	afae0038 	sw	t6,56(sp)
9d00500c:	afaf003c 	sw	t7,60(sp)
9d005010:	afb80040 	sw	t8,64(sp)
9d005014:	afb90044 	sw	t9,68(sp)
9d005018:	afbf0048 	sw	ra,72(sp)
9d00501c:	00004012 	mflo	t0
9d005020:	afa8004c 	sw	t0,76(sp)
9d005024:	00004010 	mfhi	t0
9d005028:	afa80050 	sw	t0,80(sp)
9d00502c:	3c1a9d00 	lui	k0,0x9d00
9d005030:	275a56ec 	addiu	k0,k0,22252
9d005034:	00000000 	nop
9d005038:	40046800 	mfc0	a0,c0_cause
9d00503c:	40056000 	mfc0	a1,c0_status
9d005040:	0340f809 	jalr	k0
9d005044:	00000000 	nop
9d005048:	8fa80050 	lw	t0,80(sp)
9d00504c:	01000011 	mthi	t0
9d005050:	8fa8004c 	lw	t0,76(sp)
9d005054:	01000013 	mtlo	t0
9d005058:	8fa10004 	lw	at,4(sp)
9d00505c:	8fa20008 	lw	v0,8(sp)
9d005060:	8fa3000c 	lw	v1,12(sp)
9d005064:	8fa40010 	lw	a0,16(sp)
9d005068:	8fa50014 	lw	a1,20(sp)
9d00506c:	8fa60018 	lw	a2,24(sp)
9d005070:	8fa7001c 	lw	a3,28(sp)
9d005074:	8fa80020 	lw	t0,32(sp)
9d005078:	8fa90024 	lw	t1,36(sp)
9d00507c:	8faa0028 	lw	t2,40(sp)
9d005080:	8fab002c 	lw	t3,44(sp)
9d005084:	8fac0030 	lw	t4,48(sp)
9d005088:	8fad0034 	lw	t5,52(sp)
9d00508c:	8fae0038 	lw	t6,56(sp)
9d005090:	8faf003c 	lw	t7,60(sp)
9d005094:	8fb80040 	lw	t8,64(sp)
9d005098:	8fb90044 	lw	t9,68(sp)
9d00509c:	8fbf0048 	lw	ra,72(sp)
9d0050a0:	27bd0058 	addiu	sp,sp,88
9d0050a4:	000000c0 	ehb
9d0050a8:	42000018 	eret

Disassembly of section .text._mon_putc:

9d0050ac <_mon_putc>:
9d0050ac:	27bdffe8 	addiu	sp,sp,-24
9d0050b0:	afbf0014 	sw	ra,20(sp)
9d0050b4:	3c02a000 	lui	v0,0xa000
9d0050b8:	8c420000 	lw	v0,0(v0)
9d0050bc:	1440000a 	bnez	v0,9d0050e8 <_mon_putc+0x3c>
9d0050c0:	7c042420 	seb	a0,a0
9d0050c4:	3c020000 	lui	v0,0x0
9d0050c8:	24420000 	addiu	v0,v0,0
9d0050cc:	10400025 	beqz	v0,9d005164 <_mon_putc+0xb8>
9d0050d0:	3c020000 	lui	v0,0x0
9d0050d4:	0c000000 	jal	90000000 <_bmxdkpba_address+0x8ffe0000>
9d0050d8:	00000000 	nop
9d0050dc:	8fbf0014 	lw	ra,20(sp)
9d0050e0:	03e00008 	jr	ra
9d0050e4:	27bd0018 	addiu	sp,sp,24
9d0050e8:	24030001 	li	v1,1
9d0050ec:	10430015 	beq	v0,v1,9d005144 <_mon_putc+0x98>
9d0050f0:	3c05bf80 	lui	a1,0xbf80
9d0050f4:	3c05bf80 	lui	a1,0xbf80
9d0050f8:	24a56820 	addiu	a1,a1,26656
9d0050fc:	3c02bf80 	lui	v0,0xbf80
9d005100:	24426818 	addiu	v0,v0,26648
9d005104:	3c06bf80 	lui	a2,0xbf80
9d005108:	24c66808 	addiu	a2,a2,26632
9d00510c:	3c03bf80 	lui	v1,0xbf80
9d005110:	24636810 	addiu	v1,v1,26640
9d005114:	34078000 	li	a3,0x8000
9d005118:	acc70000 	sw	a3,0(a2)
9d00511c:	24060400 	li	a2,1024
9d005120:	ac460000 	sw	a2,0(v0)
9d005124:	8c620000 	lw	v0,0(v1)
9d005128:	30420100 	andi	v0,v0,0x100
9d00512c:	1040fffd 	beqz	v0,9d005124 <_mon_putc+0x78>
9d005130:	00000000 	nop
9d005134:	aca40000 	sw	a0,0(a1)
9d005138:	8fbf0014 	lw	ra,20(sp)
9d00513c:	03e00008 	jr	ra
9d005140:	27bd0018 	addiu	sp,sp,24
9d005144:	24a56020 	addiu	a1,a1,24608
9d005148:	3c02bf80 	lui	v0,0xbf80
9d00514c:	24426018 	addiu	v0,v0,24600
9d005150:	3c06bf80 	lui	a2,0xbf80
9d005154:	24c66008 	addiu	a2,a2,24584
9d005158:	3c03bf80 	lui	v1,0xbf80
9d00515c:	0b401445 	j	9d005114 <_mon_putc+0x68>
9d005160:	24636010 	addiu	v1,v1,24592
9d005164:	24420000 	addiu	v0,v0,0
9d005168:	1040ffe3 	beqz	v0,9d0050f8 <_mon_putc+0x4c>
9d00516c:	3c05bf80 	lui	a1,0xbf80
9d005170:	0c000000 	jal	90000000 <_bmxdkpba_address+0x8ffe0000>
9d005174:	00000000 	nop
9d005178:	0b401438 	j	9d0050e0 <_mon_putc+0x34>
9d00517c:	8fbf0014 	lw	ra,20(sp)

Disassembly of section .rodata:

9d005180 <dpowers>:
9d005180:	00000001 00000000 0000000a 00000000     ................
9d005190:	00000064 00000000 000003e8 00000000     d...............
9d0051a0:	00002710 00000000 000186a0 00000000     .'..............
9d0051b0:	000f4240 00000000 00989680 00000000     @B..............
9d0051c0:	05f5e100 00000000 3b9aca00 00000000     ...........;....
9d0051d0:	540be400 00000002 4876e800 00000017     ...T......vH....
9d0051e0:	d4a51000 000000e8 4e72a000 00000918     ..........rN....
9d0051f0:	107a4000 00005af3 a4c68000 00038d7e     .@z..Z......~...
9d005200:	6fc10000 002386f2 5d8a0000 01634578     ...o..#....]xEc.
9d005210:	a7640000 0de0b6b3 89e80000 8ac72304     ..d..........#..
9d005220:	6c756e28 0000296c 33323130 37363534     (null)..01234567
9d005230:	62613938 66656463 00000000 3f800000     89abcdef.......?
9d005240:	41200000 3f000000 4089705f 00000000     .. A...?_p.@....

Disassembly of section .text.write:

9d005250 <write>:
9d005250:	10a00018 	beqz	a1,9d0052b4 <write+0x64>
9d005254:	00001021 	move	v0,zero
9d005258:	10c00012 	beqz	a2,9d0052a4 <write+0x54>
9d00525c:	2c840003 	sltiu	a0,a0,3
9d005260:	10800012 	beqz	a0,9d0052ac <write+0x5c>
9d005264:	00000000 	nop
9d005268:	27bdffe0 	addiu	sp,sp,-32
9d00526c:	afbf001c 	sw	ra,28(sp)
9d005270:	3c020000 	lui	v0,0x0
9d005274:	24420000 	addiu	v0,v0,0
9d005278:	10400010 	beqz	v0,9d0052bc <write+0x6c>
9d00527c:	afb00018 	sw	s0,24(sp)
9d005280:	00a02021 	move	a0,a1
9d005284:	00c02821 	move	a1,a2
9d005288:	0c000000 	jal	90000000 <_bmxdkpba_address+0x8ffe0000>
9d00528c:	afa60014 	sw	a2,20(sp)
9d005290:	8fa60014 	lw	a2,20(sp)
9d005294:	00c01021 	move	v0,a2
9d005298:	8fbf001c 	lw	ra,28(sp)
9d00529c:	8fb00018 	lw	s0,24(sp)
9d0052a0:	27bd0020 	addiu	sp,sp,32
9d0052a4:	03e00008 	jr	ra
9d0052a8:	00000000 	nop
9d0052ac:	03e00008 	jr	ra
9d0052b0:	00c01021 	move	v0,a2
9d0052b4:	03e00008 	jr	ra
9d0052b8:	00000000 	nop
9d0052bc:	00c08021 	move	s0,a2
9d0052c0:	80a40000 	lb	a0,0(a1)
9d0052c4:	2610ffff 	addiu	s0,s0,-1
9d0052c8:	24a50001 	addiu	a1,a1,1
9d0052cc:	afa50010 	sw	a1,16(sp)
9d0052d0:	0f40142b 	jal	9d0050ac <_mon_putc>
9d0052d4:	afa60014 	sw	a2,20(sp)
9d0052d8:	8fa50010 	lw	a1,16(sp)
9d0052dc:	1600fff8 	bnez	s0,9d0052c0 <write+0x70>
9d0052e0:	8fa60014 	lw	a2,20(sp)
9d0052e4:	0b4014a6 	j	9d005298 <write+0x48>
9d0052e8:	00c01021 	move	v0,a2

Disassembly of section .text.fpcmp:

9d0052ec <__eqsf2>:
9d0052ec:	2408fffe 00043040 00053840 00c74825     ...$@0..@8..%H..
9d0052fc:	1120001b 00000000 3c01ff00 34210001     .. ........<..!4
9d00530c:	00c1082b 1020001a 00000000 3c01ff00     +..... ........<
9d00531c:	34210001 00e1082b 10200015 00000000     ..!4+..... .....
9d00532c:	04810002 00063042 00063023              ....B0..#0..

9d005338 <i48>:
9d005338:	04a10002 	bgez	a1,9d005344 <i49>
9d00533c:	00073842 	srl	a3,a3,0x1
9d005340:	00073823 	negu	a3,a3

9d005344 <i49>:
9d005344:	00c7082a 	slt	at,a2,a3
9d005348:	10200003 	beqz	at,9d005358 <i50>
9d00534c:	00000000 	nop
9d005350:	10000007 	b	9d005370 <J999>
9d005354:	2402ffff 	li	v0,-1

9d005358 <i50>:
9d005358:	00e6082a 	slt	at,a3,a2
9d00535c:	10200003 	beqz	at,9d00536c <Jequ>
9d005360:	00000000 	nop
9d005364:	10000002 	b	9d005370 <J999>
9d005368:	24020001 	li	v0,1

9d00536c <Jequ>:
9d00536c:	24020000 	li	v0,0

9d005370 <J999>:
9d005370:	03e00008 	jr	ra
9d005374:	00000000 	nop
9d005378:	00000000 	nop

9d00537c <Jnan>:
9d00537c:	1000fffc 	b	9d005370 <J999>
9d005380:	00081025 	or	v0,zero,t0
9d005384:	00000000 	nop

Disassembly of section .text.libm:

9d005388 <fpfrexp>:
9d005388:	000435c2 30c600ff 24c9ffff 2d2100fe     .5.....0...$..!-
9d005398:	1020000b 00000000                       .. .....

9d0053a0 <Blab1>:
9d0053a0:	24c6ff82 	addiu	a2,a2,-126
9d0053a4:	3c01807f 	lui	at,0x807f
9d0053a8:	3421ffff 	ori	at,at,0xffff
9d0053ac:	00812024 	and	a0,a0,at
9d0053b0:	3c013f00 	lui	at,0x3f00
9d0053b4:	00812025 	or	a0,a0,at

9d0053b8 <Bret>:
9d0053b8:	aca60000 	sw	a2,0(a1)
9d0053bc:	00041025 	or	v0,zero,a0

9d0053c0 <B999>:
9d0053c0:	03e00008 	jr	ra
9d0053c4:	00000000 	nop

9d0053c8 <Bspec>:
9d0053c8:	14c0000d 	bnez	a2,9d005400 <i8>
9d0053cc:	00000000 	nop
9d0053d0:	00844821 	addu	t1,a0,a0
9d0053d4:	1120fff8 	beqz	t1,9d0053b8 <Bret>
9d0053d8:	00000000 	nop
9d0053dc:	00043a40 	sll	a3,a0,0x9
9d0053e0:	70e84020 	clz	t0,a3
9d0053e4:	00c83023 	subu	a2,a2,t0
9d0053e8:	01073804 	sllv	a3,a3,t0
9d0053ec:	3c018000 	lui	at,0x8000
9d0053f0:	00812024 	and	a0,a0,at
9d0053f4:	00074a02 	srl	t1,a3,0x8
9d0053f8:	1000ffe9 	b	9d0053a0 <Blab1>
9d0053fc:	00892025 	or	a0,a0,t1

9d005400 <i8>:
9d005400:	3c04ffc0 	lui	a0,0xffc0
9d005404:	1000ffec 	b	9d0053b8 <Bret>
9d005408:	24060000 	li	a2,0
9d00540c:	00000000 	nop

Disassembly of section .text.fptoul:

9d005410 <__fixunssfsi>:
9d005410:	00042a00 3c018000 00a12825 00043dc2     .*.....<%(...=..
9d005420:	30e700ff 2406009e 00c73023 04c0000d     ...0...$#0......
9d005430:	00000000 28c10020 14200003 00000000     .... ..(.. .....
9d005440:	10000005 24020000                       .......$

9d005448 <i45>:
9d005448:	04810002 	bgez	a0,9d005454 <i46>
9d00544c:	00c52806 	srlv	a1,a1,a2
9d005450:	00052823 	negu	a1,a1

9d005454 <i46>:
9d005454:	00051025 	or	v0,zero,a1

9d005458 <I999>:
9d005458:	03e00008 	jr	ra
9d00545c:	00000000 	nop
9d005460:	00000000 	nop

9d005464 <Ispec>:
9d005464:	3c017f80 	lui	at,0x7f80
9d005468:	34210001 	ori	at,at,0x1
9d00546c:	0081082b 	sltu	at,a0,at
9d005470:	14200003 	bnez	at,9d005480 <i47>
9d005474:	00000000 	nop
9d005478:	1000fff7 	b	9d005458 <I999>
9d00547c:	3c028000 	lui	v0,0x8000

9d005480 <i47>:
9d005480:	1000fff5 	b	9d005458 <I999>
9d005484:	2402ffff 	li	v0,-1
9d005488:	00000000 	nop

Disassembly of section .text._sprintf_fF:

9d00548c <_sprintf_fF>:
9d00548c:	27bdffd0 	addiu	sp,sp,-48
9d005490:	afbf002c 	sw	ra,44(sp)
9d005494:	afb00028 	sw	s0,40(sp)
9d005498:	27a20038 	addiu	v0,sp,56
9d00549c:	00808021 	move	s0,a0
9d0054a0:	afa60038 	sw	a2,56(sp)
9d0054a4:	27a40010 	addiu	a0,sp,16
9d0054a8:	00403021 	move	a2,v0
9d0054ac:	afa7003c 	sw	a3,60(sp)
9d0054b0:	afa20024 	sw	v0,36(sp)
9d0054b4:	24027fff 	li	v0,32767
9d0054b8:	afa20020 	sw	v0,32(sp)
9d0054bc:	afa00014 	sw	zero,20(sp)
9d0054c0:	afb00010 	sw	s0,16(sp)
9d0054c4:	afb00018 	sw	s0,24(sp)
9d0054c8:	240200c2 	li	v0,194
9d0054cc:	0f400780 	jal	9d001e00 <_vfprintf_fF>
9d0054d0:	a7a2001c 	sh	v0,28(sp)
9d0054d4:	8fa20010 	lw	v0,16(sp)
9d0054d8:	a0400000 	sb	zero,0(v0)
9d0054dc:	8fa20010 	lw	v0,16(sp)
9d0054e0:	00501023 	subu	v0,v0,s0
9d0054e4:	8fbf002c 	lw	ra,44(sp)
9d0054e8:	8fb00028 	lw	s0,40(sp)
9d0054ec:	03e00008 	jr	ra
9d0054f0:	27bd0030 	addiu	sp,sp,48

Disassembly of section .rodata:

9d0054f4 <_powers_f>:
9d0054f4:	3f800000 41200000 42c80000 447a0000     ...?.. A...B..zD
9d005504:	461c4000 47c35000 49742400 4b189680     .@.F.P.G.$tI...K
9d005514:	4cbebc20 4e6e6b28 501502f9 60ad78ec      ..L(knN...P.x.`
9d005524:	7149f2ca                                ..Iq

9d005528 <_npowers_f>:
9d005528:	3f800000 3dcccccd 3c23d70a 3a83126f     ...?...=..#<o..:
9d005538:	38d1b717 3727c5ac 358637bd 33d6bf95     ...8..'7.7.5...3
9d005548:	322bcc77 3089705f 2edbe6ff 1e3ce508     w.+2_p.0......<.
9d005558:	0da24260                                `B..

Disassembly of section .text.sitofp:

9d00555c <__floatsisf>:
9d00555c:	3c018000 10800012 00813024 04810002     ...<....$0......
9d00556c:	00000000 00042023                       ....# ..

9d005574 <i40>:
9d005574:	2405009e 	li	a1,158
9d005578:	70873820 	clz	a3,a0
9d00557c:	00a72823 	subu	a1,a1,a3
9d005580:	00e42004 	sllv	a0,a0,a3
9d005584:	24840080 	addiu	a0,a0,128
9d005588:	2c880080 	sltiu	t0,a0,128
9d00558c:	00a82821 	addu	a1,a1,t0
9d005590:	00044203 	sra	t0,a0,0x8
9d005594:	31080001 	andi	t0,t0,0x1
9d005598:	00882023 	subu	a0,a0,t0
9d00559c:	00042040 	sll	a0,a0,0x1
9d0055a0:	00042242 	srl	a0,a0,0x9
9d0055a4:	000545c0 	sll	t0,a1,0x17
9d0055a8:	00882025 	or	a0,a0,t0

9d0055ac <i39>:
9d0055ac:	00861025 	or	v0,a0,a2

9d0055b0 <E999>:
9d0055b0:	03e00008 	jr	ra
9d0055b4:	00000000 	nop
9d0055b8:	00000000 	nop

Disassembly of section .text.main_entry:

9d0055bc <_main_entry>:
9d0055bc:	3c040000 	lui	a0,0x0
9d0055c0:	27bdffe8 	addiu	sp,sp,-24
9d0055c4:	24840000 	addiu	a0,a0,0
9d0055c8:	10800003 	beqz	a0,9d0055d8 <_main_entry+0x1c>
9d0055cc:	afbf0014 	sw	ra,20(sp)
9d0055d0:	0080f809 	jalr	a0
9d0055d4:	00000000 	nop
9d0055d8:	30840000 	andi	a0,a0,0x0
9d0055dc:	30a50000 	andi	a1,a1,0x0
9d0055e0:	3c089d00 	lui	t0,0x9d00
9d0055e4:	25083e24 	addiu	t0,t0,15908
9d0055e8:	0100f809 	jalr	t0
9d0055ec:	00000000 	nop

9d0055f0 <__crt0_exit>:
9d0055f0:	3c020000 24420000 10400003 00000000     ...<..B$..@.....
9d005600:	0040f809 00000000 1000fff9 00000000     ..@.............

Disassembly of section .text:

9d005610 <__floatunsisf>:
9d005610:	27bdffe8 	addiu	sp,sp,-24
9d005614:	afbf0014 	sw	ra,20(sp)
9d005618:	04800006 	bltz	a0,9d005634 <__floatunsisf+0x24>
9d00561c:	00801021 	move	v0,a0
9d005620:	0f401557 	jal	9d00555c <__floatsisf>
9d005624:	00000000 	nop
9d005628:	8fbf0014 	lw	ra,20(sp)
9d00562c:	03e00008 	jr	ra
9d005630:	27bd0018 	addiu	sp,sp,24
9d005634:	00042042 	srl	a0,a0,0x1
9d005638:	30420001 	andi	v0,v0,0x1
9d00563c:	0f401557 	jal	9d00555c <__floatsisf>
9d005640:	00822025 	or	a0,a0,v0
9d005644:	00402021 	move	a0,v0
9d005648:	0f400fcb 	jal	9d003f2c <__addsf3>
9d00564c:	00402821 	move	a1,v0
9d005650:	8fbf0014 	lw	ra,20(sp)
9d005654:	03e00008 	jr	ra
9d005658:	27bd0018 	addiu	sp,sp,24

Disassembly of section .rodata:

9d00565c <.LC4-0x1c>:
9d00565c:	73657250 	udi0	k1,a1,t6,0x9
9d005660:	53552073 	beql	k0,s5,9d00d830 <.LFE0+0x8048>
9d005664:	74205245 	jalx	90814914 <_bmxdkpba_address+0x907f4914>
9d005668:	0000006f 	0x6f
9d00566c:	706f7473 	0x706f7473
9d005670:	6d697420 	0x6d697420
9d005674:	00007265 	0x7265

9d005678 <.LC4>:
9d005678:	322e3325 	andi	t6,s1,0x3325
9d00567c:	20732066 	addi	s3,v1,8294
9d005680:	70616c65 	0x70616c65
9d005684:	2e646573 	sltiu	a0,s3,25971
9d005688:	00000000 	nop
9d00568c:	72617473 	0x72617473
9d005690:	69742074 	0x69742074
9d005694:	0072656d 	0x72656d
9d005698:	41c80000 	wrpgpr	zero,t0
9d00569c:	49742400 	0x49742400
9d0056a0:	447a0000 	mfhc1	k0,$f0

Disassembly of section .text._bootstrap_exception_handler:

9d0056a4 <_bootstrap_exception_handler>:
9d0056a4:	3c020000 	lui	v0,0x0
9d0056a8:	24420000 	addiu	v0,v0,0
9d0056ac:	10400005 	beqz	v0,9d0056c4 <_bootstrap_exception_handler+0x20>
9d0056b0:	3c020000 	lui	v0,0x0
9d0056b4:	24420000 	addiu	v0,v0,0
9d0056b8:	10400003 	beqz	v0,9d0056c8 <_bootstrap_exception_handler+0x24>
9d0056bc:	3c029d00 	lui	v0,0x9d00
9d0056c0:	7000003f 	sdbbp
9d0056c4:	3c029d00 	lui	v0,0x9d00
9d0056c8:	2442577c 	addiu	v0,v0,22396
9d0056cc:	10400005 	beqz	v0,9d0056e4 <_bootstrap_exception_handler+0x40>
9d0056d0:	00000000 	nop
9d0056d4:	27bdffe8 	addiu	sp,sp,-24
9d0056d8:	afbf0014 	sw	ra,20(sp)
9d0056dc:	0040f809 	jalr	v0
9d0056e0:	00000000 	nop
9d0056e4:	0b4015b9 	j	9d0056e4 <_bootstrap_exception_handler+0x40>
9d0056e8:	00000000 	nop

Disassembly of section .text._general_exception_handler:

9d0056ec <_general_exception_handler>:
9d0056ec:	3c020000 	lui	v0,0x0
9d0056f0:	24420000 	addiu	v0,v0,0
9d0056f4:	10400005 	beqz	v0,9d00570c <_general_exception_handler+0x20>
9d0056f8:	3c020000 	lui	v0,0x0
9d0056fc:	24420000 	addiu	v0,v0,0
9d005700:	10400003 	beqz	v0,9d005710 <_general_exception_handler+0x24>
9d005704:	3c029d00 	lui	v0,0x9d00
9d005708:	7000003f 	sdbbp
9d00570c:	3c029d00 	lui	v0,0x9d00
9d005710:	2442577c 	addiu	v0,v0,22396
9d005714:	10400005 	beqz	v0,9d00572c <_general_exception_handler+0x40>
9d005718:	00000000 	nop
9d00571c:	27bdffe8 	addiu	sp,sp,-24
9d005720:	afbf0014 	sw	ra,20(sp)
9d005724:	0040f809 	jalr	v0
9d005728:	00000000 	nop
9d00572c:	0b4015cb 	j	9d00572c <_general_exception_handler+0x40>
9d005730:	00000000 	nop

Disassembly of section .vector_default:

9d005734 <_DefaultInterrupt>:
9d005734:	3c020000 	lui	v0,0x0
9d005738:	24420000 	addiu	v0,v0,0
9d00573c:	10400007 	beqz	v0,9d00575c <_DefaultInterrupt+0x28>
9d005740:	3c020000 	lui	v0,0x0
9d005744:	24420000 	addiu	v0,v0,0
9d005748:	50400005 	beqzl	v0,9d005760 <_DefaultInterrupt+0x2c>
9d00574c:	3c029d00 	lui	v0,0x9d00
9d005750:	7000003f 	sdbbp
9d005754:	03e00008 	jr	ra
9d005758:	00000000 	nop
9d00575c:	3c029d00 	lui	v0,0x9d00
9d005760:	2442577c 	addiu	v0,v0,22396
9d005764:	10400003 	beqz	v0,9d005774 <_DefaultInterrupt+0x40>
9d005768:	00000000 	nop
9d00576c:	0040f809 	jalr	v0
9d005770:	00000000 	nop
9d005774:	03e00008 	jr	ra
9d005778:	00000000 	nop

Disassembly of section .text:

9d00577c <__pic32_software_reset>:
9d00577c:	41606000 	di
9d005780:	000000c0 	ehb
9d005784:	3c03aa99 	lui	v1,0xaa99
9d005788:	3c02bf81 	lui	v0,0xbf81
9d00578c:	24636655 	addiu	v1,v1,26197
9d005790:	ac40f230 	sw	zero,-3536(v0)
9d005794:	ac43f230 	sw	v1,-3536(v0)
9d005798:	3c035566 	lui	v1,0x5566
9d00579c:	346399aa 	ori	v1,v1,0x99aa
9d0057a0:	ac43f230 	sw	v1,-3536(v0)
9d0057a4:	3c02bf81 	lui	v0,0xbf81
9d0057a8:	24030001 	li	v1,1
9d0057ac:	ac43f618 	sw	v1,-2536(v0)
9d0057b0:	3c02bf81 	lui	v0,0xbf81
9d0057b4:	8c42f610 	lw	v0,-2544(v0)
9d0057b8:	0b4015e1 	j	9d005784 <__pic32_software_reset+0x8>
9d0057bc:	00000000 	nop

9d0057c0 <_nmi_handler>:
9d0057c0:	401a6000 	mfc0	k0,c0_status
9d0057c4:	3c1bffbf 	lui	k1,0xffbf
9d0057c8:	377bffff 	ori	k1,k1,0xffff
9d0057cc:	035bd024 	and	k0,k0,k1
9d0057d0:	409a6000 	mtc0	k0,c0_status
9d0057d4:	42000018 	eret

Disassembly of section .text._on_reset:

9d0057d8 <_on_reset>:
9d0057d8:	03e00008 	jr	ra
9d0057dc:	00000000 	nop

Disassembly of section .text._on_bootstrap:

9d0057e0 <_on_bootstrap>:
9d0057e0:	03e00008 	jr	ra
9d0057e4:	00000000 	nop
