
out.elf:     file format elf32-tradlittlemips


Disassembly of section .config_BFC02FF0:

bfc02ff0 <__config_BFC02FF0>:
bfc02ff0:	ff ff fe fa                                         ....

Disassembly of section .config_BFC02FF4:

bfc02ff4 <__config_BFC02FF4>:
bfc02ff4:	d9 79 f8 ff                                         .y..

Disassembly of section .config_BFC02FF8:

bfc02ff8 <__config_BFC02FF8>:
bfc02ff8:	db ce 6c ff                                         ..l.

Disassembly of section .config_BFC02FFC:

bfc02ffc <__config_BFC02FFC>:
bfc02ffc:	ff ff ff 7e                                         ...~

Disassembly of section .reset:

bd001970 <_reset>:
bd001970:	0f40065e 	jal	bd001978 <_startup>
bd001974:	00000000 	nop

bd001978 <_startup>:
bd001978:	401a6000 	mfc0	k0,c0_status
bd00197c:	7f5a04c0 	ext	k0,k0,0x13,0x1
bd001980:	13400005 	beqz	k0,bd001998 <_no_nmi>
bd001984:	00000000 	nop
bd001988:	3c1a9d01 	lui	k0,0x9d01
bd00198c:	275a9e5c 	addiu	k0,k0,-24996
bd001990:	03400008 	jr	k0
bd001994:	00000000 	nop

bd001998 <_no_nmi>:
bd001998:	3c1da002 	lui	sp,0xa002
bd00199c:	27bdfff0 	addiu	sp,sp,-16
bd0019a0:	3c1ca000 	lui	gp,0xa000
bd0019a4:	279c7ff0 	addiu	gp,gp,32752
bd0019a8:	40096002 	mfc0	t1,c0_srsctl
bd0019ac:	01205820 	add	t3,t1,zero
bd0019b0:	7d2a1e80 	ext	t2,t1,0x1a,0x4
bd0019b4:	7d494984 	ins	t1,t2,0x6,0x4
bd0019b8:	40896002 	mtc0	t1,c0_srsctl
bd0019bc:	000000c0 	ehb
bd0019c0:	41dce000 	wrpgpr	gp,gp
bd0019c4:	408b6002 	mtc0	t3,c0_srsctl
bd0019c8:	000000c0 	ehb
bd0019cc:	3c089d01 	lui	t0,0x9d01
bd0019d0:	25089fa8 	addiu	t0,t0,-24664
bd0019d4:	0100f809 	jalr	t0
bd0019d8:	00000000 	nop
bd0019dc:	3c08a000 	lui	t0,0xa000
bd0019e0:	25080014 	addiu	t0,t0,20
bd0019e4:	3c09a000 	lui	t1,0xa000
bd0019e8:	252900c4 	addiu	t1,t1,196
bd0019ec:	10000006 	b	bd001a08 <_bss_check>
bd0019f0:	00000000 	nop

bd0019f4 <_bss_init>:
bd0019f4:	ad000000 	sw	zero,0(t0)
bd0019f8:	ad000004 	sw	zero,4(t0)
bd0019fc:	ad000008 	sw	zero,8(t0)
bd001a00:	ad00000c 	sw	zero,12(t0)
bd001a04:	25080010 	addiu	t0,t0,16

bd001a08 <_bss_check>:
bd001a08:	0109082b 	sltu	at,t0,t1
bd001a0c:	1420fff9 	bnez	at,bd0019f4 <_bss_init>
bd001a10:	00000000 	nop

bd001a14 <_dinit_init>:
bd001a14:	3c089d01 	lui	t0,0x9d01
bd001a18:	250885c0 	addiu	t0,t0,-31296
bd001a1c:	8d090000 	lw	t1,0(t0)
bd001a20:	11200018 	beqz	t1,bd001a84 <_dinit_end+0x18>
bd001a24:	25080004 	addiu	t0,t0,4
bd001a28:	8d0a0000 	lw	t2,0(t0)
bd001a2c:	25080004 	addiu	t0,t0,4
bd001a30:	8d0b0000 	lw	t3,0(t0)
bd001a34:	11600009 	beqz	t3,bd001a5c <_dinit_clear>
bd001a38:	25080004 	addiu	t0,t0,4

bd001a3c <_dinit_copy>:
bd001a3c:	910c0000 	lbu	t4,0(t0)
bd001a40:	254affff 	addiu	t2,t2,-1
bd001a44:	25080001 	addiu	t0,t0,1
bd001a48:	a12c0000 	sb	t4,0(t1)
bd001a4c:	1540fffb 	bnez	t2,bd001a3c <_dinit_copy>
bd001a50:	25290001 	addiu	t1,t1,1
bd001a54:	10000005 	b	bd001a6c <_dinit_end>
bd001a58:	00000000 	nop

bd001a5c <_dinit_clear>:
bd001a5c:	a1200000 	sb	zero,0(t1)
bd001a60:	254affff 	addiu	t2,t2,-1
bd001a64:	1540fffd 	bnez	t2,bd001a5c <_dinit_clear>
bd001a68:	25290001 	addiu	t1,t1,1

bd001a6c <_dinit_end>:
bd001a6c:	25080003 	addiu	t0,t0,3
bd001a70:	240afffc 	li	t2,-4
bd001a74:	01484024 	and	t0,t2,t0
bd001a78:	8d090000 	lw	t1,0(t0)
bd001a7c:	1520ffe7 	bnez	t1,bd001a1c <_dinit_init+0x8>
bd001a80:	00000000 	nop
bd001a84:	3c090000 	lui	t1,0x0
bd001a88:	25290000 	addiu	t1,t1,0
bd001a8c:	11200010 	beqz	t1,bd001ad0 <_ramfunc_done>
bd001a90:	00000000 	nop
bd001a94:	3c090002 	lui	t1,0x2
bd001a98:	25290000 	addiu	t1,t1,0
bd001a9c:	3c0abf88 	lui	t2,0xbf88
bd001aa0:	254a2010 	addiu	t2,t2,8208
bd001aa4:	ad490000 	sw	t1,0(t2)
bd001aa8:	3c090002 	lui	t1,0x2
bd001aac:	25290000 	addiu	t1,t1,0
bd001ab0:	3c0abf88 	lui	t2,0xbf88
bd001ab4:	254a2020 	addiu	t2,t2,8224
bd001ab8:	ad490000 	sw	t1,0(t2)
bd001abc:	3c090002 	lui	t1,0x2
bd001ac0:	25290000 	addiu	t1,t1,0
bd001ac4:	3c0abf88 	lui	t2,0xbf88
bd001ac8:	254a2030 	addiu	t2,t2,8240
bd001acc:	ad490000 	sw	t1,0(t2)

bd001ad0 <_ramfunc_done>:
bd001ad0:	40804800 	mtc0	zero,c0_count
bd001ad4:	240affff 	li	t2,-1
bd001ad8:	408a5800 	mtc0	t2,c0_compare
bd001adc:	3c099d00 	lui	t1,0x9d00
bd001ae0:	25290000 	addiu	t1,t1,0
bd001ae4:	40897801 	mtc0	t1,c0_ebase
bd001ae8:	3c090000 	lui	t1,0x0
bd001aec:	25290001 	addiu	t1,t1,1
bd001af0:	240a0000 	li	t2,0
bd001af4:	7d2a4944 	ins	t2,t1,0x5,0x5
bd001af8:	408a6001 	mtc0	t2,c0_intctl
bd001afc:	3c090080 	lui	t1,0x80
bd001b00:	40896800 	mtc0	t1,c0_cause
bd001b04:	40088000 	mfc0	t0,c0_config
bd001b08:	7d090580 	ext	t1,t0,0x16,0x1
bd001b0c:	00094c40 	sll	t1,t1,0x11
bd001b10:	40086000 	mfc0	t0,c0_status
bd001b14:	3c010058 	lui	at,0x58
bd001b18:	01014024 	and	t0,t0,at
bd001b1c:	01284025 	or	t0,t1,t0
bd001b20:	40886000 	mtc0	t0,c0_status
bd001b24:	000000c0 	ehb
bd001b28:	3c089d01 	lui	t0,0x9d01
bd001b2c:	25089fb0 	addiu	t0,t0,-24656
bd001b30:	0100f809 	jalr	t0
bd001b34:	00000000 	nop
bd001b38:	40086000 	mfc0	t0,c0_status
bd001b3c:	3c01ffbf 	lui	at,0xffbf
bd001b40:	3421ffff 	ori	at,at,0xffff
bd001b44:	01014024 	and	t0,t0,at
bd001b48:	40886000 	mtc0	t0,c0_status
bd001b4c:	30840000 	andi	a0,a0,0x0
bd001b50:	30a50000 	andi	a1,a1,0x0
bd001b54:	3c089d01 	lui	t0,0x9d01
bd001b58:	25089a34 	addiu	t0,t0,-26060
bd001b5c:	01000008 	jr	t0
bd001b60:	00000000 	nop

Disassembly of section .bev_excpt:

bd001cf0 <_bev_exception>:
bd001cf0:	3c1a9d01 	lui	k0,0x9d01
bd001cf4:	275a9b74 	addiu	k0,k0,-25740
bd001cf8:	03400008 	jr	k0
bd001cfc:	00000000 	nop

Disassembly of section .app_excpt:

9d000180 <_gen_exception>:
9d000180:	3c1a9d01 	lui	k0,0x9d01
9d000184:	275a8f40 	addiu	k0,k0,-28864
9d000188:	03400008 	jr	k0
9d00018c:	00000000 	nop

Disassembly of section .vector_0:

9d000200 <__vector_dispatch_0>:
9d000200:	0b402701 	j	9d009c04 <.LFE0>
9d000204:	00000000 	nop

Disassembly of section .vector_1:

9d000220 <__vector_dispatch_1>:
9d000220:	0b402701 	j	9d009c04 <.LFE0>
9d000224:	00000000 	nop

Disassembly of section .vector_2:

9d000240 <__vector_dispatch_2>:
9d000240:	0b402701 	j	9d009c04 <.LFE0>
9d000244:	00000000 	nop

Disassembly of section .vector_3:

9d000260 <__vector_dispatch_3>:
9d000260:	0b402701 	j	9d009c04 <.LFE0>
9d000264:	00000000 	nop

Disassembly of section .vector_4:

9d000280 <__vector_dispatch_4>:
9d000280:	0b402701 	j	9d009c04 <.LFE0>
9d000284:	00000000 	nop

Disassembly of section .vector_5:

9d0002a0 <__vector_dispatch_5>:
9d0002a0:	0b402701 	j	9d009c04 <.LFE0>
9d0002a4:	00000000 	nop

Disassembly of section .vector_6:

9d0002c0 <__vector_dispatch_6>:
9d0002c0:	0b402701 	j	9d009c04 <.LFE0>
9d0002c4:	00000000 	nop

Disassembly of section .vector_7:

9d0002e0 <__vector_dispatch_7>:
9d0002e0:	0b402701 	j	9d009c04 <.LFE0>
9d0002e4:	00000000 	nop

Disassembly of section .vector_8:

9d000300 <__vector_dispatch_8>:
9d000300:	0b400f3b 	j	9d003cec <Controller>
9d000304:	00000000 	nop

Disassembly of section .vector_9:

9d000320 <__vector_dispatch_9>:
9d000320:	0b402701 	j	9d009c04 <.LFE0>
9d000324:	00000000 	nop

Disassembly of section .vector_10:

9d000340 <__vector_dispatch_10>:
9d000340:	0b402701 	j	9d009c04 <.LFE0>
9d000344:	00000000 	nop

Disassembly of section .vector_11:

9d000360 <__vector_dispatch_11>:
9d000360:	0b402701 	j	9d009c04 <.LFE0>
9d000364:	00000000 	nop

Disassembly of section .vector_12:

9d000380 <__vector_dispatch_12>:
9d000380:	0b402701 	j	9d009c04 <.LFE0>
9d000384:	00000000 	nop

Disassembly of section .vector_13:

9d0003a0 <__vector_dispatch_13>:
9d0003a0:	0b402701 	j	9d009c04 <.LFE0>
9d0003a4:	00000000 	nop

Disassembly of section .vector_14:

9d0003c0 <__vector_dispatch_14>:
9d0003c0:	0b402701 	j	9d009c04 <.LFE0>
9d0003c4:	00000000 	nop

Disassembly of section .vector_15:

9d0003e0 <__vector_dispatch_15>:
9d0003e0:	0b402701 	j	9d009c04 <.LFE0>
9d0003e4:	00000000 	nop

Disassembly of section .vector_16:

9d000400 <__vector_dispatch_16>:
9d000400:	0b400e45 	j	9d003914 <PController>
9d000404:	00000000 	nop

Disassembly of section .vector_17:

9d000420 <__vector_dispatch_17>:
9d000420:	0b402701 	j	9d009c04 <.LFE0>
9d000424:	00000000 	nop

Disassembly of section .vector_18:

9d000440 <__vector_dispatch_18>:
9d000440:	0b402701 	j	9d009c04 <.LFE0>
9d000444:	00000000 	nop

Disassembly of section .vector_19:

9d000460 <__vector_dispatch_19>:
9d000460:	0b402701 	j	9d009c04 <.LFE0>
9d000464:	00000000 	nop

Disassembly of section .vector_20:

9d000480 <__vector_dispatch_20>:
9d000480:	0b402701 	j	9d009c04 <.LFE0>
9d000484:	00000000 	nop

Disassembly of section .vector_21:

9d0004a0 <__vector_dispatch_21>:
9d0004a0:	0b402701 	j	9d009c04 <.LFE0>
9d0004a4:	00000000 	nop

Disassembly of section .vector_22:

9d0004c0 <__vector_dispatch_22>:
9d0004c0:	0b402701 	j	9d009c04 <.LFE0>
9d0004c4:	00000000 	nop

Disassembly of section .vector_23:

9d0004e0 <__vector_dispatch_23>:
9d0004e0:	0b402701 	j	9d009c04 <.LFE0>
9d0004e4:	00000000 	nop

Disassembly of section .vector_24:

9d000500 <__vector_dispatch_24>:
9d000500:	0b402701 	j	9d009c04 <.LFE0>
9d000504:	00000000 	nop

Disassembly of section .vector_25:

9d000520 <__vector_dispatch_25>:
9d000520:	0b402701 	j	9d009c04 <.LFE0>
9d000524:	00000000 	nop

Disassembly of section .vector_26:

9d000540 <__vector_dispatch_26>:
9d000540:	0b402701 	j	9d009c04 <.LFE0>
9d000544:	00000000 	nop

Disassembly of section .vector_27:

9d000560 <__vector_dispatch_27>:
9d000560:	0b402701 	j	9d009c04 <.LFE0>
9d000564:	00000000 	nop

Disassembly of section .vector_28:

9d000580 <__vector_dispatch_28>:
9d000580:	0b402701 	j	9d009c04 <.LFE0>
9d000584:	00000000 	nop

Disassembly of section .vector_29:

9d0005a0 <__vector_dispatch_29>:
9d0005a0:	0b402701 	j	9d009c04 <.LFE0>
9d0005a4:	00000000 	nop

Disassembly of section .vector_30:

9d0005c0 <__vector_dispatch_30>:
9d0005c0:	0b402701 	j	9d009c04 <.LFE0>
9d0005c4:	00000000 	nop

Disassembly of section .vector_31:

9d0005e0 <__vector_dispatch_31>:
9d0005e0:	0b402701 	j	9d009c04 <.LFE0>
9d0005e4:	00000000 	nop

Disassembly of section .vector_32:

9d000600 <__vector_dispatch_32>:
9d000600:	0b402701 	j	9d009c04 <.LFE0>
9d000604:	00000000 	nop

Disassembly of section .vector_33:

9d000620 <__vector_dispatch_33>:
9d000620:	0b402701 	j	9d009c04 <.LFE0>
9d000624:	00000000 	nop

Disassembly of section .vector_34:

9d000640 <__vector_dispatch_34>:
9d000640:	0b402701 	j	9d009c04 <.LFE0>
9d000644:	00000000 	nop

Disassembly of section .vector_35:

9d000660 <__vector_dispatch_35>:
9d000660:	0b402701 	j	9d009c04 <.LFE0>
9d000664:	00000000 	nop

Disassembly of section .vector_36:

9d000680 <__vector_dispatch_36>:
9d000680:	0b402701 	j	9d009c04 <.LFE0>
9d000684:	00000000 	nop

Disassembly of section .vector_37:

9d0006a0 <__vector_dispatch_37>:
9d0006a0:	0b402701 	j	9d009c04 <.LFE0>
9d0006a4:	00000000 	nop

Disassembly of section .vector_38:

9d0006c0 <__vector_dispatch_38>:
9d0006c0:	0b402701 	j	9d009c04 <.LFE0>
9d0006c4:	00000000 	nop

Disassembly of section .vector_39:

9d0006e0 <__vector_dispatch_39>:
9d0006e0:	0b402701 	j	9d009c04 <.LFE0>
9d0006e4:	00000000 	nop

Disassembly of section .vector_40:

9d000700 <__vector_dispatch_40>:
9d000700:	0b402701 	j	9d009c04 <.LFE0>
9d000704:	00000000 	nop

Disassembly of section .vector_41:

9d000720 <__vector_dispatch_41>:
9d000720:	0b402701 	j	9d009c04 <.LFE0>
9d000724:	00000000 	nop

Disassembly of section .vector_42:

9d000740 <__vector_dispatch_42>:
9d000740:	0b402701 	j	9d009c04 <.LFE0>
9d000744:	00000000 	nop

Disassembly of section .vector_43:

9d000760 <__vector_dispatch_43>:
9d000760:	0b402701 	j	9d009c04 <.LFE0>
9d000764:	00000000 	nop

Disassembly of section .vector_44:

9d000780 <__vector_dispatch_44>:
9d000780:	0b402701 	j	9d009c04 <.LFE0>
9d000784:	00000000 	nop

Disassembly of section .vector_45:

9d0007a0 <__vector_dispatch_45>:
9d0007a0:	0b402701 	j	9d009c04 <.LFE0>
9d0007a4:	00000000 	nop

Disassembly of section .vector_46:

9d0007c0 <__vector_dispatch_46>:
9d0007c0:	0b402701 	j	9d009c04 <.LFE0>
9d0007c4:	00000000 	nop

Disassembly of section .vector_47:

9d0007e0 <__vector_dispatch_47>:
9d0007e0:	0b402701 	j	9d009c04 <.LFE0>
9d0007e4:	00000000 	nop

Disassembly of section .vector_48:

9d000800 <__vector_dispatch_48>:
9d000800:	0b402701 	j	9d009c04 <.LFE0>
9d000804:	00000000 	nop

Disassembly of section .vector_49:

9d000820 <__vector_dispatch_49>:
9d000820:	0b402701 	j	9d009c04 <.LFE0>
9d000824:	00000000 	nop

Disassembly of section .vector_50:

9d000840 <__vector_dispatch_50>:
9d000840:	0b402701 	j	9d009c04 <.LFE0>
9d000844:	00000000 	nop

Disassembly of section .vector_51:

9d000860 <__vector_dispatch_51>:
9d000860:	0b402701 	j	9d009c04 <.LFE0>
9d000864:	00000000 	nop

Disassembly of section ._debug_exception:

bfc00480 <__DbgExecReturn>:
bfc00480:	409bf800 	mtc0	k1,c0_desave
bfc00484:	000000c0 	ehb
bfc00488:	3c1b9d01 	lui	k1,0x9d01
bfc0048c:	277b9c94 	addiu	k1,k1,-25452
bfc00490:	13600002 	beqz	k1,bfc0049c <__DbgExecReturn+0x1c>
bfc00494:	00000000 	nop
bfc00498:	409bc000 	mtc0	k1,c0_depc
bfc0049c:	401bf800 	mfc0	k1,c0_desave
bfc004a0:	000000c0 	ehb
bfc004a4:	4200001f 	deret
bfc004a8:	00000000 	nop

Disassembly of section .text._vfprintf_cdfFnopsuxX:

9d001e00 <_vfprintf_cdfFnopsuxX>:
9d001e00:	27bdffa0 	addiu	sp,sp,-96
9d001e04:	afbf005c 	sw	ra,92(sp)
9d001e08:	afbe0058 	sw	s8,88(sp)
9d001e0c:	afb70054 	sw	s7,84(sp)
9d001e10:	afb60050 	sw	s6,80(sp)
9d001e14:	afb5004c 	sw	s5,76(sp)
9d001e18:	afb40048 	sw	s4,72(sp)
9d001e1c:	afb30044 	sw	s3,68(sp)
9d001e20:	afb20040 	sw	s2,64(sp)
9d001e24:	afb1003c 	sw	s1,60(sp)
9d001e28:	afb00038 	sw	s0,56(sp)
9d001e2c:	00809021 	move	s2,a0
9d001e30:	00a08821 	move	s1,a1
9d001e34:	afa60068 	sw	a2,104(sp)
9d001e38:	00001021 	move	v0,zero
9d001e3c:	afa20024 	sw	v0,36(sp)
9d001e40:	00008021 	move	s0,zero
9d001e44:	82240000 	lb	a0,0(s1)
9d001e48:	26330001 	addiu	s3,s1,1
9d001e4c:	10800028 	beqz	a0,9d001ef0 <_vfprintf_cdfFnopsuxX+0xf0>
9d001e50:	a3a40016 	sb	a0,22(sp)
9d001e54:	24020025 	li	v0,37
9d001e58:	1482001b 	bne	a0,v0,9d001ec8 <_vfprintf_cdfFnopsuxX+0xc8>
9d001e5c:	26220002 	addiu	v0,s1,2
9d001e60:	0000b021 	move	s6,zero
9d001e64:	2404002b 	li	a0,43
9d001e68:	2405002d 	li	a1,45
9d001e6c:	24070030 	li	a3,48
9d001e70:	24060020 	li	a2,32
9d001e74:	8057ffff 	lb	s7,-1(v0)
9d001e78:	12e4000c 	beq	s7,a0,9d001eac <_vfprintf_cdfFnopsuxX+0xac>
9d001e7c:	2451ffff 	addiu	s1,v0,-1
9d001e80:	2ae3002c 	slti	v1,s7,44
9d001e84:	1460000c 	bnez	v1,9d001eb8 <_vfprintf_cdfFnopsuxX+0xb8>
9d001e88:	00000000 	nop
9d001e8c:	52e501df 	beql	s7,a1,9d00260c <_vfprintf_cdfFnopsuxX+0x80c>
9d001e90:	36d60008 	ori	s6,s6,0x8
9d001e94:	16e70023 	bne	s7,a3,9d001f24 <_vfprintf_cdfFnopsuxX+0x124>
9d001e98:	24420001 	addiu	v0,v0,1
9d001e9c:	36d60004 	ori	s6,s6,0x4
9d001ea0:	8057ffff 	lb	s7,-1(v0)
9d001ea4:	16e4fff6 	bne	s7,a0,9d001e80 <_vfprintf_cdfFnopsuxX+0x80>
9d001ea8:	2451ffff 	addiu	s1,v0,-1
9d001eac:	36d60002 	ori	s6,s6,0x2
9d001eb0:	0b4007a8 	j	9d001ea0 <_vfprintf_cdfFnopsuxX+0xa0>
9d001eb4:	24420001 	addiu	v0,v0,1
9d001eb8:	16e6001a 	bne	s7,a2,9d001f24 <_vfprintf_cdfFnopsuxX+0x124>
9d001ebc:	24420001 	addiu	v0,v0,1
9d001ec0:	0b4007a8 	j	9d001ea0 <_vfprintf_cdfFnopsuxX+0xa0>
9d001ec4:	36d60001 	ori	s6,s6,0x1
9d001ec8:	0f40211f 	jal	9d00847c <.LFE0>
9d001ecc:	02402821 	move	a1,s2
9d001ed0:	2403ffff 	li	v1,-1
9d001ed4:	1043ffdb 	beq	v0,v1,9d001e44 <_vfprintf_cdfFnopsuxX+0x44>
9d001ed8:	02608821 	move	s1,s3
9d001edc:	26100001 	addiu	s0,s0,1
9d001ee0:	82640000 	lb	a0,0(s3)
9d001ee4:	26330001 	addiu	s3,s1,1
9d001ee8:	1480ffda 	bnez	a0,9d001e54 <_vfprintf_cdfFnopsuxX+0x54>
9d001eec:	a3a40016 	sb	a0,22(sp)
9d001ef0:	02001021 	move	v0,s0
9d001ef4:	8fbf005c 	lw	ra,92(sp)
9d001ef8:	8fbe0058 	lw	s8,88(sp)
9d001efc:	8fb70054 	lw	s7,84(sp)
9d001f00:	8fb60050 	lw	s6,80(sp)
9d001f04:	8fb5004c 	lw	s5,76(sp)
9d001f08:	8fb40048 	lw	s4,72(sp)
9d001f0c:	8fb30044 	lw	s3,68(sp)
9d001f10:	8fb20040 	lw	s2,64(sp)
9d001f14:	8fb1003c 	lw	s1,60(sp)
9d001f18:	8fb00038 	lw	s0,56(sp)
9d001f1c:	03e00008 	jr	ra
9d001f20:	27bd0060 	addiu	sp,sp,96
9d001f24:	3c039d01 	lui	v1,0x9d01
9d001f28:	24638b55 	addiu	v1,v1,-29867
9d001f2c:	00771021 	addu	v0,v1,s7
9d001f30:	90420000 	lbu	v0,0(v0)
9d001f34:	32c40002 	andi	a0,s6,0x2
9d001f38:	32c3fffe 	andi	v1,s6,0xfffe
9d001f3c:	0064b00b 	movn	s6,v1,a0
9d001f40:	32c40008 	andi	a0,s6,0x8
9d001f44:	32c3fffb 	andi	v1,s6,0xfffb
9d001f48:	30420004 	andi	v0,v0,0x4
9d001f4c:	02202821 	move	a1,s1
9d001f50:	104001b0 	beqz	v0,9d002614 <_vfprintf_cdfFnopsuxX+0x814>
9d001f54:	0064b00b 	movn	s6,v1,a0
9d001f58:	02e01821 	move	v1,s7
9d001f5c:	0b4007da 	j	9d001f68 <_vfprintf_cdfFnopsuxX+0x168>
9d001f60:	0000b821 	move	s7,zero
9d001f64:	00401821 	move	v1,v0
9d001f68:	26310001 	addiu	s1,s1,1
9d001f6c:	82220000 	lb	v0,0(s1)
9d001f70:	00172840 	sll	a1,s7,0x1
9d001f74:	0017b8c0 	sll	s7,s7,0x3
9d001f78:	3c069d01 	lui	a2,0x9d01
9d001f7c:	24c68b55 	addiu	a2,a2,-29867
9d001f80:	00c22021 	addu	a0,a2,v0
9d001f84:	90840000 	lbu	a0,0(a0)
9d001f88:	00b7b821 	addu	s7,a1,s7
9d001f8c:	02e3b821 	addu	s7,s7,v1
9d001f90:	30840004 	andi	a0,a0,0x4
9d001f94:	1480fff3 	bnez	a0,9d001f64 <_vfprintf_cdfFnopsuxX+0x164>
9d001f98:	26f7ffd0 	addiu	s7,s7,-48
9d001f9c:	2403002e 	li	v1,46
9d001fa0:	504301a3 	beql	v0,v1,9d002630 <_vfprintf_cdfFnopsuxX+0x830>
9d001fa4:	82220001 	lb	v0,1(s1)
9d001fa8:	36d61000 	ori	s6,s6,0x1000
9d001fac:	00009821 	move	s3,zero
9d001fb0:	24060010 	li	a2,16
9d001fb4:	34058000 	li	a1,0x8000
9d001fb8:	304300ff 	andi	v1,v0,0xff
9d001fbc:	2c640079 	sltiu	a0,v1,121
9d001fc0:	1080016e 	beqz	a0,9d00257c <_vfprintf_cdfFnopsuxX+0x77c>
9d001fc4:	26310001 	addiu	s1,s1,1
9d001fc8:	00031880 	sll	v1,v1,0x2
9d001fcc:	3c079d00 	lui	a3,0x9d00
9d001fd0:	24e71fe4 	addiu	a3,a3,8164
9d001fd4:	00e31821 	addu	v1,a3,v1
9d001fd8:	8c630000 	lw	v1,0(v1)
9d001fdc:	00600008 	jr	v1
9d001fe0:	00000000 	nop
9d001fe4:	9d001ef0 	0x9d001ef0
9d001fe8:	9d00257c 	0x9d00257c
9d001fec:	9d00257c 	0x9d00257c
9d001ff0:	9d00257c 	0x9d00257c
9d001ff4:	9d00257c 	0x9d00257c
9d001ff8:	9d00257c 	0x9d00257c
9d001ffc:	9d00257c 	0x9d00257c
9d002000:	9d00257c 	0x9d00257c
9d002004:	9d00257c 	0x9d00257c
9d002008:	9d00257c 	0x9d00257c
9d00200c:	9d00257c 	0x9d00257c
9d002010:	9d00257c 	0x9d00257c
9d002014:	9d00257c 	0x9d00257c
9d002018:	9d00257c 	0x9d00257c
9d00201c:	9d00257c 	0x9d00257c
9d002020:	9d00257c 	0x9d00257c
9d002024:	9d00257c 	0x9d00257c
9d002028:	9d00257c 	0x9d00257c
9d00202c:	9d00257c 	0x9d00257c
9d002030:	9d00257c 	0x9d00257c
9d002034:	9d00257c 	0x9d00257c
9d002038:	9d00257c 	0x9d00257c
9d00203c:	9d00257c 	0x9d00257c
9d002040:	9d00257c 	0x9d00257c
9d002044:	9d00257c 	0x9d00257c
9d002048:	9d00257c 	0x9d00257c
9d00204c:	9d00257c 	0x9d00257c
9d002050:	9d00257c 	0x9d00257c
9d002054:	9d00257c 	0x9d00257c
9d002058:	9d00257c 	0x9d00257c
9d00205c:	9d00257c 	0x9d00257c
9d002060:	9d00257c 	0x9d00257c
9d002064:	9d00257c 	0x9d00257c
9d002068:	9d00257c 	0x9d00257c
9d00206c:	9d00257c 	0x9d00257c
9d002070:	9d00257c 	0x9d00257c
9d002074:	9d00257c 	0x9d00257c
9d002078:	9d00257c 	0x9d00257c
9d00207c:	9d00257c 	0x9d00257c
9d002080:	9d00257c 	0x9d00257c
9d002084:	9d00257c 	0x9d00257c
9d002088:	9d00257c 	0x9d00257c
9d00208c:	9d00257c 	0x9d00257c
9d002090:	9d00257c 	0x9d00257c
9d002094:	9d00257c 	0x9d00257c
9d002098:	9d00257c 	0x9d00257c
9d00209c:	9d00257c 	0x9d00257c
9d0020a0:	9d00257c 	0x9d00257c
9d0020a4:	9d00257c 	0x9d00257c
9d0020a8:	9d00257c 	0x9d00257c
9d0020ac:	9d00257c 	0x9d00257c
9d0020b0:	9d00257c 	0x9d00257c
9d0020b4:	9d00257c 	0x9d00257c
9d0020b8:	9d00257c 	0x9d00257c
9d0020bc:	9d00257c 	0x9d00257c
9d0020c0:	9d00257c 	0x9d00257c
9d0020c4:	9d00257c 	0x9d00257c
9d0020c8:	9d00257c 	0x9d00257c
9d0020cc:	9d00257c 	0x9d00257c
9d0020d0:	9d00257c 	0x9d00257c
9d0020d4:	9d00257c 	0x9d00257c
9d0020d8:	9d00257c 	0x9d00257c
9d0020dc:	9d00257c 	0x9d00257c
9d0020e0:	9d00257c 	0x9d00257c
9d0020e4:	9d00257c 	0x9d00257c
9d0020e8:	9d00257c 	0x9d00257c
9d0020ec:	9d00257c 	0x9d00257c
9d0020f0:	9d00257c 	0x9d00257c
9d0020f4:	9d00257c 	0x9d00257c
9d0020f8:	9d00257c 	0x9d00257c
9d0020fc:	9d00257c 	0x9d00257c
9d002100:	9d00257c 	0x9d00257c
9d002104:	9d00257c 	0x9d00257c
9d002108:	9d00257c 	0x9d00257c
9d00210c:	9d00257c 	0x9d00257c
9d002110:	9d00257c 	0x9d00257c
9d002114:	9d00257c 	0x9d00257c
9d002118:	9d00257c 	0x9d00257c
9d00211c:	9d00257c 	0x9d00257c
9d002120:	9d00257c 	0x9d00257c
9d002124:	9d00257c 	0x9d00257c
9d002128:	9d00257c 	0x9d00257c
9d00212c:	9d00257c 	0x9d00257c
9d002130:	9d00257c 	0x9d00257c
9d002134:	9d00257c 	0x9d00257c
9d002138:	9d00257c 	0x9d00257c
9d00213c:	9d00257c 	0x9d00257c
9d002140:	9d00257c 	0x9d00257c
9d002144:	9d002600 	0x9d002600
9d002148:	9d00257c 	0x9d00257c
9d00214c:	9d00257c 	0x9d00257c
9d002150:	9d00257c 	0x9d00257c
9d002154:	9d00257c 	0x9d00257c
9d002158:	9d00257c 	0x9d00257c
9d00215c:	9d00257c 	0x9d00257c
9d002160:	9d00257c 	0x9d00257c
9d002164:	9d00257c 	0x9d00257c
9d002168:	9d00257c 	0x9d00257c
9d00216c:	9d00257c 	0x9d00257c
9d002170:	9d0025a4 	0x9d0025a4
9d002174:	9d00259c 	0x9d00259c
9d002178:	9d00257c 	0x9d00257c
9d00217c:	9d00258c 	0x9d00258c
9d002180:	9d00257c 	0x9d00257c
9d002184:	9d00257c 	0x9d00257c
9d002188:	9d00259c 	0x9d00259c
9d00218c:	9d00257c 	0x9d00257c
9d002190:	9d00257c 	0x9d00257c
9d002194:	9d002558 	0x9d002558
9d002198:	9d00257c 	0x9d00257c
9d00219c:	9d00257c 	0x9d00257c
9d0021a0:	9d002548 	0x9d002548
9d0021a4:	9d002600 	0x9d002600
9d0021a8:	9d00257c 	0x9d00257c
9d0021ac:	9d00257c 	0x9d00257c
9d0021b0:	9d002458 	0x9d002458
9d0021b4:	9d00257c 	0x9d00257c
9d0021b8:	9d0022f4 	0x9d0022f4
9d0021bc:	9d00257c 	0x9d00257c
9d0021c0:	9d00257c 	0x9d00257c
9d0021c4:	9d0021c8 	0x9d0021c8
9d0021c8:	24020078 	li	v0,120
9d0021cc:	a3a20016 	sb	v0,22(sp)
9d0021d0:	36d60080 	ori	s6,s6,0x80
9d0021d4:	32c20700 	andi	v0,s6,0x700
9d0021d8:	1040004d 	beqz	v0,9d002310 <_vfprintf_cdfFnopsuxX+0x510>
9d0021dc:	32c200c0 	andi	v0,s6,0xc0
9d0021e0:	32c41000 	andi	a0,s6,0x1000
9d0021e4:	32c20010 	andi	v0,s6,0x10
9d0021e8:	24030006 	li	v1,6
9d0021ec:	104001fd 	beqz	v0,9d0029e4 <_vfprintf_cdfFnopsuxX+0xbe4>
9d0021f0:	0064980b 	movn	s3,v1,a0
9d0021f4:	8fa20068 	lw	v0,104(sp)
9d0021f8:	24430007 	addiu	v1,v0,7
9d0021fc:	2402fff8 	li	v0,-8
9d002200:	00621024 	and	v0,v1,v0
9d002204:	8c440000 	lw	a0,0(v0)
9d002208:	8c450004 	lw	a1,4(v0)
9d00220c:	24420008 	addiu	v0,v0,8
9d002210:	0f401dd6 	jal	9d007758 <.LFE1>
9d002214:	afa20068 	sw	v0,104(sp)
9d002218:	0040a021 	move	s4,v0
9d00221c:	02802021 	move	a0,s4
9d002220:	0f402540 	jal	9d009500 <.LFE0>
9d002224:	00002821 	move	a1,zero
9d002228:	044001f8 	bltz	v0,9d002a0c <_vfprintf_cdfFnopsuxX+0xc0c>
9d00222c:	3c028000 	lui	v0,0x8000
9d002230:	02802021 	move	a0,s4
9d002234:	00002821 	move	a1,zero
9d002238:	0f402540 	jal	9d009500 <.LFE0>
9d00223c:	afa00010 	sw	zero,16(sp)
9d002240:	144001fa 	bnez	v0,9d002a2c <_vfprintf_cdfFnopsuxX+0xc2c>
9d002244:	0000f021 	move	s8,zero
9d002248:	2a620019 	slti	v0,s3,25
9d00224c:	10400015 	beqz	v0,9d0022a4 <_vfprintf_cdfFnopsuxX+0x4a4>
9d002250:	2bc2000a 	slti	v0,s8,10
9d002254:	326200ff 	andi	v0,s3,0xff
9d002258:	305500ff 	andi	s5,v0,0xff
9d00225c:	2ea4006e 	sltiu	a0,s5,110
9d002260:	1080022a 	beqz	a0,9d002b0c <_vfprintf_cdfFnopsuxX+0xd0c>
9d002264:	3c0751eb 	lui	a3,0x51eb
9d002268:	2ea4000b 	sltiu	a0,s5,11
9d00226c:	108003ab 	beqz	a0,9d00311c <_vfprintf_cdfFnopsuxX+0x131c>
9d002270:	00021080 	sll	v0,v0,0x2
9d002274:	3c039d01 	lui	v1,0x9d01
9d002278:	24639940 	addiu	v1,v1,-26304
9d00227c:	00431021 	addu	v0,v0,v1
9d002280:	8c440000 	lw	a0,0(v0)
9d002284:	3c029d01 	lui	v0,0x9d01
9d002288:	0f401ecc 	jal	9d007b30 <.LFE4>
9d00228c:	8c458f38 	lw	a1,-28872(v0)
9d002290:	00402821 	move	a1,v0
9d002294:	0f401c27 	jal	9d00709c <__addsf3>
9d002298:	02802021 	move	a0,s4
9d00229c:	0040a021 	move	s4,v0
9d0022a0:	2bc2000a 	slti	v0,s8,10
9d0022a4:	50400104 	beqzl	v0,9d0026b8 <_vfprintf_cdfFnopsuxX+0x8b8>
9d0022a8:	8fa40024 	lw	a0,36(sp)
9d0022ac:	02802021 	move	a0,s4
9d0022b0:	0f402540 	jal	9d009500 <.LFE0>
9d0022b4:	00002821 	move	a1,zero
9d0022b8:	144000f7 	bnez	v0,9d002698 <_vfprintf_cdfFnopsuxX+0x898>
9d0022bc:	02802021 	move	a0,s4
9d0022c0:	0f4025cf 	jal	9d00973c <__fixunssfsi>
9d0022c4:	00000000 	nop
9d0022c8:	0040f021 	move	s8,v0
9d0022cc:	0f4026ca 	jal	9d009b28 <__floatunsisf>
9d0022d0:	00402021 	move	a0,v0
9d0022d4:	02802021 	move	a0,s4
9d0022d8:	0f401c25 	jal	9d007094 <__subsf3>
9d0022dc:	00402821 	move	a1,v0
9d0022e0:	afa2001c 	sw	v0,28(sp)
9d0022e4:	03c0a821 	move	s5,s8
9d0022e8:	afa00010 	sw	zero,16(sp)
9d0022ec:	0b4009c4 	j	9d002710 <_vfprintf_cdfFnopsuxX+0x910>
9d0022f0:	00005021 	move	t2,zero
9d0022f4:	24020075 	li	v0,117
9d0022f8:	a3a20016 	sb	v0,22(sp)
9d0022fc:	36d600c0 	ori	s6,s6,0xc0
9d002300:	32c20700 	andi	v0,s6,0x700
9d002304:	1440ffb7 	bnez	v0,9d0021e4 <_vfprintf_cdfFnopsuxX+0x3e4>
9d002308:	32c41000 	andi	a0,s6,0x1000
9d00230c:	32c200c0 	andi	v0,s6,0xc0
9d002310:	144001eb 	bnez	v0,9d002ac0 <_vfprintf_cdfFnopsuxX+0xcc0>
9d002314:	7c161620 	seh	v0,s6
9d002318:	0440036d 	bltz	v0,9d0030d0 <_vfprintf_cdfFnopsuxX+0x12d0>
9d00231c:	8fa70068 	lw	a3,104(sp)
9d002320:	32c20010 	andi	v0,s6,0x10
9d002324:	10400233 	beqz	v0,9d002bf4 <_vfprintf_cdfFnopsuxX+0xdf4>
9d002328:	8fa40068 	lw	a0,104(sp)
9d00232c:	8fa30068 	lw	v1,104(sp)
9d002330:	8c620000 	lw	v0,0(v1)
9d002334:	24630004 	addiu	v1,v1,4
9d002338:	afa30068 	sw	v1,104(sp)
9d00233c:	00021fc3 	sra	v1,v0,0x1f
9d002340:	0040a821 	move	s5,v0
9d002344:	0060f021 	move	s8,v1
9d002348:	00602021 	move	a0,v1
9d00234c:	04810006 	bgez	a0,9d002368 <_vfprintf_cdfFnopsuxX+0x568>
9d002350:	00024023 	negu	t0,v0
9d002354:	0008102b 	sltu	v0,zero,t0
9d002358:	00031823 	negu	v1,v1
9d00235c:	36d60003 	ori	s6,s6,0x3
9d002360:	0100a821 	move	s5,t0
9d002364:	0062f023 	subu	s8,v1,v0
9d002368:	16600003 	bnez	s3,9d002378 <_vfprintf_cdfFnopsuxX+0x578>
9d00236c:	32d400c0 	andi	s4,s6,0xc0
9d002370:	02be9825 	or	s3,s5,s8
9d002374:	2e730001 	sltiu	s3,s3,1
9d002378:	24020040 	li	v0,64
9d00237c:	12820332 	beq	s4,v0,9d003048 <_vfprintf_cdfFnopsuxX+0x1248>
9d002380:	2e820041 	sltiu	v0,s4,65
9d002384:	14400228 	bnez	v0,9d002c28 <_vfprintf_cdfFnopsuxX+0xe28>
9d002388:	24020080 	li	v0,128
9d00238c:	12820309 	beq	s4,v0,9d002fb4 <_vfprintf_cdfFnopsuxX+0x11b4>
9d002390:	24020001 	li	v0,1
9d002394:	240200c0 	li	v0,192
9d002398:	16820226 	bne	s4,v0,9d002c34 <_vfprintf_cdfFnopsuxX+0xe34>
9d00239c:	83a20016 	lb	v0,22(sp)
9d0023a0:	24020001 	li	v0,1
9d0023a4:	13c0038b 	beqz	s8,9d0031d4 <_vfprintf_cdfFnopsuxX+0x13d4>
9d0023a8:	a3a20016 	sb	v0,22(sp)
9d0023ac:	3c039d01 	lui	v1,0x9d01
9d0023b0:	24638e70 	addiu	v1,v1,-29072
9d0023b4:	24020003 	li	v0,3
9d0023b8:	24060002 	li	a2,2
9d0023bc:	0b4008f2 	j	9d0023c8 <_vfprintf_cdfFnopsuxX+0x5c8>
9d0023c0:	24070015 	li	a3,21
9d0023c4:	00803021 	move	a2,a0
9d0023c8:	8c640004 	lw	a0,4(v1)
9d0023cc:	03c4282b 	sltu	a1,s8,a0
9d0023d0:	54a002eb 	bnezl	a1,9d002f80 <_vfprintf_cdfFnopsuxX+0x1180>
9d0023d4:	a3a60016 	sb	a2,22(sp)
9d0023d8:	509e0373 	beql	a0,s8,9d0031a8 <_vfprintf_cdfFnopsuxX+0x13a8>
9d0023dc:	8c640000 	lw	a0,0(v1)
9d0023e0:	24450001 	addiu	a1,v0,1
9d0023e4:	7c022420 	seb	a0,v0
9d0023e8:	30a200ff 	andi	v0,a1,0xff
9d0023ec:	1447fff5 	bne	v0,a3,9d0023c4 <_vfprintf_cdfFnopsuxX+0x5c4>
9d0023f0:	24630008 	addiu	v1,v1,8
9d0023f4:	00801021 	move	v0,a0
9d0023f8:	0053182a 	slt	v1,v0,s3
9d0023fc:	14600210 	bnez	v1,9d002c40 <_vfprintf_cdfFnopsuxX+0xe40>
9d002400:	a3a40016 	sb	a0,22(sp)
9d002404:	0262182a 	slt	v1,s3,v0
9d002408:	0043980b 	movn	s3,v0,v1
9d00240c:	12e00005 	beqz	s7,9d002424 <_vfprintf_cdfFnopsuxX+0x624>
9d002410:	32c34000 	andi	v1,s6,0x4000
9d002414:	32c30003 	andi	v1,s6,0x3
9d002418:	0003182b 	sltu	v1,zero,v1
9d00241c:	02e3b823 	subu	s7,s7,v1
9d002420:	32c34000 	andi	v1,s6,0x4000
9d002424:	10600005 	beqz	v1,9d00243c <_vfprintf_cdfFnopsuxX+0x63c>
9d002428:	0057182a 	slt	v1,v0,s7
9d00242c:	0277182a 	slt	v1,s3,s7
9d002430:	02f3b823 	subu	s7,s7,s3
9d002434:	0003b80a 	movz	s7,zero,v1
9d002438:	0057182a 	slt	v1,v0,s7
9d00243c:	54600225 	bnezl	v1,9d002cd4 <_vfprintf_cdfFnopsuxX+0xed4>
9d002440:	32c30004 	andi	v1,s6,0x4
9d002444:	32c20004 	andi	v0,s6,0x4
9d002448:	10400371 	beqz	v0,9d003210 <_vfprintf_cdfFnopsuxX+0x1410>
9d00244c:	32c20008 	andi	v0,s6,0x8
9d002450:	0b400b37 	j	9d002cdc <_vfprintf_cdfFnopsuxX+0xedc>
9d002454:	0000b821 	move	s7,zero
9d002458:	24020073 	li	v0,115
9d00245c:	a3a20016 	sb	v0,22(sp)
9d002460:	8fa50068 	lw	a1,104(sp)
9d002464:	8ca40000 	lw	a0,0(a1)
9d002468:	24a50004 	addiu	a1,a1,4
9d00246c:	10800323 	beqz	a0,9d0030fc <_vfprintf_cdfFnopsuxX+0x12fc>
9d002470:	0080a821 	move	s5,a0
9d002474:	80820000 	lb	v0,0(a0)
9d002478:	10400353 	beqz	v0,9d0031c8 <_vfprintf_cdfFnopsuxX+0x13c8>
9d00247c:	24820001 	addiu	v0,a0,1
9d002480:	0044a023 	subu	s4,v0,a0
9d002484:	24420001 	addiu	v0,v0,1
9d002488:	8043ffff 	lb	v1,-1(v0)
9d00248c:	5460fffd 	bnezl	v1,9d002484 <_vfprintf_cdfFnopsuxX+0x684>
9d002490:	0044a023 	subu	s4,v0,a0
9d002494:	afa50068 	sw	a1,104(sp)
9d002498:	12600003 	beqz	s3,9d0024a8 <_vfprintf_cdfFnopsuxX+0x6a8>
9d00249c:	32d60008 	andi	s6,s6,0x8
9d0024a0:	0274102b 	sltu	v0,s3,s4
9d0024a4:	0262a00b 	movn	s4,s3,v0
9d0024a8:	0297102b 	sltu	v0,s4,s7
9d0024ac:	02f4b823 	subu	s7,s7,s4
9d0024b0:	32d6ffff 	andi	s6,s6,0xffff
9d0024b4:	16c0000c 	bnez	s6,9d0024e8 <_vfprintf_cdfFnopsuxX+0x6e8>
9d0024b8:	0002b80a 	movz	s7,zero,v0
9d0024bc:	52e0000a 	beqzl	s7,9d0024e8 <_vfprintf_cdfFnopsuxX+0x6e8>
9d0024c0:	2417ffff 	li	s7,-1
9d0024c4:	24040020 	li	a0,32
9d0024c8:	0f40211f 	jal	9d00847c <.LFE0>
9d0024cc:	02402821 	move	a1,s2
9d0024d0:	00021027 	nor	v0,zero,v0
9d0024d4:	0002102b 	sltu	v0,zero,v0
9d0024d8:	26f7ffff 	addiu	s7,s7,-1
9d0024dc:	16e0fff9 	bnez	s7,9d0024c4 <_vfprintf_cdfFnopsuxX+0x6c4>
9d0024e0:	02028021 	addu	s0,s0,v0
9d0024e4:	2417ffff 	li	s7,-1
9d0024e8:	2694ffff 	addiu	s4,s4,-1
9d0024ec:	2413ffff 	li	s3,-1
9d0024f0:	1293000a 	beq	s4,s3,9d00251c <_vfprintf_cdfFnopsuxX+0x71c>
9d0024f4:	00000000 	nop
9d0024f8:	82a40000 	lb	a0,0(s5)
9d0024fc:	02402821 	move	a1,s2
9d002500:	0f40211f 	jal	9d00847c <.LFE0>
9d002504:	26b50001 	addiu	s5,s5,1
9d002508:	00021027 	nor	v0,zero,v0
9d00250c:	0002102b 	sltu	v0,zero,v0
9d002510:	2694ffff 	addiu	s4,s4,-1
9d002514:	1693fff8 	bne	s4,s3,9d0024f8 <_vfprintf_cdfFnopsuxX+0x6f8>
9d002518:	02028021 	addu	s0,s0,v0
9d00251c:	52c0fe4a 	beqzl	s6,9d001e48 <_vfprintf_cdfFnopsuxX+0x48>
9d002520:	82240000 	lb	a0,0(s1)
9d002524:	12e0fe47 	beqz	s7,9d001e44 <_vfprintf_cdfFnopsuxX+0x44>
9d002528:	24040020 	li	a0,32
9d00252c:	0f40211f 	jal	9d00847c <.LFE0>
9d002530:	02402821 	move	a1,s2
9d002534:	00021027 	nor	v0,zero,v0
9d002538:	0002102b 	sltu	v0,zero,v0
9d00253c:	02028021 	addu	s0,s0,v0
9d002540:	0b400949 	j	9d002524 <_vfprintf_cdfFnopsuxX+0x724>
9d002544:	26f7ffff 	addiu	s7,s7,-1
9d002548:	2402006f 	li	v0,111
9d00254c:	a3a20016 	sb	v0,22(sp)
9d002550:	0b400875 	j	9d0021d4 <_vfprintf_cdfFnopsuxX+0x3d4>
9d002554:	36d60040 	ori	s6,s6,0x40
9d002558:	32c20010 	andi	v0,s6,0x10
9d00255c:	00a01821 	move	v1,a1
9d002560:	00c2180a 	movz	v1,a2,v0
9d002564:	0076b025 	or	s6,v1,s6
9d002568:	82220000 	lb	v0,0(s1)
9d00256c:	304300ff 	andi	v1,v0,0xff
9d002570:	2c640079 	sltiu	a0,v1,121
9d002574:	1480fe94 	bnez	a0,9d001fc8 <_vfprintf_cdfFnopsuxX+0x1c8>
9d002578:	26310001 	addiu	s1,s1,1
9d00257c:	a3a20016 	sb	v0,22(sp)
9d002580:	27b50016 	addiu	s5,sp,22
9d002584:	0b400926 	j	9d002498 <_vfprintf_cdfFnopsuxX+0x698>
9d002588:	24140001 	li	s4,1
9d00258c:	24020066 	li	v0,102
9d002590:	a3a20016 	sb	v0,22(sp)
9d002594:	0b400875 	j	9d0021d4 <_vfprintf_cdfFnopsuxX+0x3d4>
9d002598:	36d60400 	ori	s6,s6,0x400
9d00259c:	0b400875 	j	9d0021d4 <_vfprintf_cdfFnopsuxX+0x3d4>
9d0025a0:	a3a20016 	sb	v0,22(sp)
9d0025a4:	8fa60068 	lw	a2,104(sp)
9d0025a8:	8cc30000 	lw	v1,0(a2)
9d0025ac:	32c60010 	andi	a2,s6,0x10
9d0025b0:	8fa70068 	lw	a3,104(sp)
9d0025b4:	24e50004 	addiu	a1,a3,4
9d0025b8:	000327c3 	sra	a0,v1,0x1f
9d0025bc:	00042600 	sll	a0,a0,0x18
9d0025c0:	00031202 	srl	v0,v1,0x8
9d0025c4:	00821025 	or	v0,a0,v0
9d0025c8:	7c022420 	seb	a0,v0
9d0025cc:	10c00191 	beqz	a2,9d002c14 <_vfprintf_cdfFnopsuxX+0xe14>
9d0025d0:	a3a40016 	sb	a0,22(sp)
9d0025d4:	24420001 	addiu	v0,v0,1
9d0025d8:	304200ff 	andi	v0,v0,0xff
9d0025dc:	2c420002 	sltiu	v0,v0,2
9d0025e0:	5440018d 	bnezl	v0,9d002c18 <_vfprintf_cdfFnopsuxX+0xe18>
9d0025e4:	a3a30014 	sb	v1,20(sp)
9d0025e8:	a3a40014 	sb	a0,20(sp)
9d0025ec:	a3a30015 	sb	v1,21(sp)
9d0025f0:	24140002 	li	s4,2
9d0025f4:	27b50014 	addiu	s5,sp,20
9d0025f8:	0b400926 	j	9d002498 <_vfprintf_cdfFnopsuxX+0x698>
9d0025fc:	afa50068 	sw	a1,104(sp)
9d002600:	a3a20016 	sb	v0,22(sp)
9d002604:	0b400874 	j	9d0021d0 <_vfprintf_cdfFnopsuxX+0x3d0>
9d002608:	36d60020 	ori	s6,s6,0x20
9d00260c:	0b4007a8 	j	9d001ea0 <_vfprintf_cdfFnopsuxX+0xa0>
9d002610:	24420001 	addiu	v0,v0,1
9d002614:	2402002a 	li	v0,42
9d002618:	12e20133 	beq	s7,v0,9d002ae8 <_vfprintf_cdfFnopsuxX+0xce8>
9d00261c:	2403002e 	li	v1,46
9d002620:	02e01021 	move	v0,s7
9d002624:	1443fe60 	bne	v0,v1,9d001fa8 <_vfprintf_cdfFnopsuxX+0x1a8>
9d002628:	0000b821 	move	s7,zero
9d00262c:	82220001 	lb	v0,1(s1)
9d002630:	2403002a 	li	v1,42
9d002634:	10430254 	beq	v0,v1,9d002f88 <_vfprintf_cdfFnopsuxX+0x1188>
9d002638:	36d64000 	ori	s6,s6,0x4000
9d00263c:	3c049d01 	lui	a0,0x9d01
9d002640:	24848b55 	addiu	a0,a0,-29867
9d002644:	00821821 	addu	v1,a0,v0
9d002648:	90630000 	lbu	v1,0(v1)
9d00264c:	26310001 	addiu	s1,s1,1
9d002650:	30630004 	andi	v1,v1,0x4
9d002654:	1060fe56 	beqz	v1,9d001fb0 <_vfprintf_cdfFnopsuxX+0x1b0>
9d002658:	00009821 	move	s3,zero
9d00265c:	00131840 	sll	v1,s3,0x1
9d002660:	001398c0 	sll	s3,s3,0x3
9d002664:	26310001 	addiu	s1,s1,1
9d002668:	00739821 	addu	s3,v1,s3
9d00266c:	02629821 	addu	s3,s3,v0
9d002670:	82220000 	lb	v0,0(s1)
9d002674:	3c069d01 	lui	a2,0x9d01
9d002678:	24c68b55 	addiu	a2,a2,-29867
9d00267c:	00c21821 	addu	v1,a2,v0
9d002680:	90630000 	lbu	v1,0(v1)
9d002684:	30630004 	andi	v1,v1,0x4
9d002688:	1460fff4 	bnez	v1,9d00265c <_vfprintf_cdfFnopsuxX+0x85c>
9d00268c:	2673ffd0 	addiu	s3,s3,-48
9d002690:	0b4007ed 	j	9d001fb4 <_vfprintf_cdfFnopsuxX+0x1b4>
9d002694:	24060010 	li	a2,16
9d002698:	0f4025cf 	jal	9d00973c <__fixunssfsi>
9d00269c:	00000000 	nop
9d0026a0:	5440ff0a 	bnezl	v0,9d0022cc <_vfprintf_cdfFnopsuxX+0x4cc>
9d0026a4:	0040f021 	move	s8,v0
9d0026a8:	2bc30002 	slti	v1,s8,2
9d0026ac:	5460ff07 	bnezl	v1,9d0022cc <_vfprintf_cdfFnopsuxX+0x4cc>
9d0026b0:	0040f021 	move	s8,v0
9d0026b4:	8fa40024 	lw	a0,36(sp)
9d0026b8:	3c029d01 	lui	v0,0x9d01
9d0026bc:	24428f3c 	addiu	v0,v0,-28868
9d0026c0:	0f402540 	jal	9d009500 <.LFE0>
9d0026c4:	8c450000 	lw	a1,0(v0)
9d0026c8:	0440010e 	bltz	v0,9d002b04 <_vfprintf_cdfFnopsuxX+0xd04>
9d0026cc:	27caffed 	addiu	t2,s8,-19
9d0026d0:	27caffee 	addiu	t2,s8,-18
9d0026d4:	afaa0010 	sw	t2,16(sp)
9d0026d8:	7c0a2420 	seb	a0,t2
9d0026dc:	0f401d4f 	jal	9d00753c <scale>
9d0026e0:	afaa002c 	sw	t2,44(sp)
9d0026e4:	afa20024 	sw	v0,36(sp)
9d0026e8:	02802021 	move	a0,s4
9d0026ec:	0f401cc3 	jal	9d00730c <__divsf3>
9d0026f0:	00402821 	move	a1,v0
9d0026f4:	0f4025cf 	jal	9d00973c <__fixunssfsi>
9d0026f8:	00402021 	move	a0,v0
9d0026fc:	0040f021 	move	s8,v0
9d002700:	0040a821 	move	s5,v0
9d002704:	00001821 	move	v1,zero
9d002708:	afa3001c 	sw	v1,28(sp)
9d00270c:	8faa002c 	lw	t2,44(sp)
9d002710:	2fc2000a 	sltiu	v0,s8,10
9d002714:	1440027d 	bnez	v0,9d00310c <_vfprintf_cdfFnopsuxX+0x130c>
9d002718:	3c039d01 	lui	v1,0x9d01
9d00271c:	24638e70 	addiu	v1,v1,-29072
9d002720:	24050002 	li	a1,2
9d002724:	24060002 	li	a2,2
9d002728:	24090014 	li	t1,20
9d00272c:	8c670004 	lw	a3,4(v1)
9d002730:	54e0000c 	bnezl	a3,9d002764 <_vfprintf_cdfFnopsuxX+0x964>
9d002734:	a3a60016 	sb	a2,22(sp)
9d002738:	8c620000 	lw	v0,0(v1)
9d00273c:	03c2102b 	sltu	v0,s8,v0
9d002740:	54400008 	bnezl	v0,9d002764 <_vfprintf_cdfFnopsuxX+0x964>
9d002744:	a3a60016 	sb	a2,22(sp)
9d002748:	24a60001 	addiu	a2,a1,1
9d00274c:	00c02821 	move	a1,a2
9d002750:	7c063420 	seb	a2,a2
9d002754:	14a9fff5 	bne	a1,t1,9d00272c <_vfprintf_cdfFnopsuxX+0x92c>
9d002758:	24630008 	addiu	v1,v1,8
9d00275c:	a3a60016 	sb	a2,22(sp)
9d002760:	24050014 	li	a1,20
9d002764:	02652821 	addu	a1,s3,a1
9d002768:	00aa5021 	addu	t2,a1,t2
9d00276c:	02eab823 	subu	s7,s7,t2
9d002770:	0013102b 	sltu	v0,zero,s3
9d002774:	32c30003 	andi	v1,s6,0x3
9d002778:	02e2b823 	subu	s7,s7,v0
9d00277c:	0003182b 	sltu	v1,zero,v1
9d002780:	32c20004 	andi	v0,s6,0x4
9d002784:	10400137 	beqz	v0,9d002c64 <_vfprintf_cdfFnopsuxX+0xe64>
9d002788:	02e3b823 	subu	s7,s7,v1
9d00278c:	32c20002 	andi	v0,s6,0x2
9d002790:	10400221 	beqz	v0,9d003018 <_vfprintf_cdfFnopsuxX+0x1218>
9d002794:	32c20001 	andi	v0,s6,0x1
9d002798:	32c40001 	andi	a0,s6,0x1
9d00279c:	2402002d 	li	v0,45
9d0027a0:	2403002b 	li	v1,43
9d0027a4:	0064100a 	movz	v0,v1,a0
9d0027a8:	00402021 	move	a0,v0
9d0027ac:	0f40211f 	jal	9d00847c <.LFE0>
9d0027b0:	02402821 	move	a1,s2
9d0027b4:	00021027 	nor	v0,zero,v0
9d0027b8:	0002102b 	sltu	v0,zero,v0
9d0027bc:	02028021 	addu	s0,s0,v0
9d0027c0:	5ae0000a 	blezl	s7,9d0027ec <_vfprintf_cdfFnopsuxX+0x9ec>
9d0027c4:	32d60008 	andi	s6,s6,0x8
9d0027c8:	24040030 	li	a0,48
9d0027cc:	0f40211f 	jal	9d00847c <.LFE0>
9d0027d0:	02402821 	move	a1,s2
9d0027d4:	00021027 	nor	v0,zero,v0
9d0027d8:	0002102b 	sltu	v0,zero,v0
9d0027dc:	26f7ffff 	addiu	s7,s7,-1
9d0027e0:	16e0fff9 	bnez	s7,9d0027c8 <_vfprintf_cdfFnopsuxX+0x9c8>
9d0027e4:	02028021 	addu	s0,s0,v0
9d0027e8:	32d60008 	andi	s6,s6,0x8
9d0027ec:	32d6ffff 	andi	s6,s6,0xffff
9d0027f0:	afb60018 	sw	s6,24(sp)
9d0027f4:	3c049d01 	lui	a0,0x9d01
9d0027f8:	0b400a12 	j	9d002848 <_vfprintf_cdfFnopsuxX+0xa48>
9d0027fc:	24948e60 	addiu	s4,a0,-29088
9d002800:	000318c0 	sll	v1,v1,0x3
9d002804:	02831821 	addu	v1,s4,v1
9d002808:	8c660000 	lw	a2,0(v1)
9d00280c:	8c670004 	lw	a3,4(v1)
9d002810:	02a02021 	move	a0,s5
9d002814:	0f40176e 	jal	9d005db8 <__udivdi3>
9d002818:	00002821 	move	a1,zero
9d00281c:	00402021 	move	a0,v0
9d002820:	00602821 	move	a1,v1
9d002824:	2406000a 	li	a2,10
9d002828:	0f40153f 	jal	9d0054fc <__umoddi3>
9d00282c:	00003821 	move	a3,zero
9d002830:	24440030 	addiu	a0,v0,48
9d002834:	0f40211f 	jal	9d00847c <.LFE0>
9d002838:	02402821 	move	a1,s2
9d00283c:	00021027 	nor	v0,zero,v0
9d002840:	0002102b 	sltu	v0,zero,v0
9d002844:	02028021 	addu	s0,s0,v0
9d002848:	83a20016 	lb	v0,22(sp)
9d00284c:	2443ffff 	addiu	v1,v0,-1
9d002850:	7c031c20 	seb	v1,v1
9d002854:	1440ffea 	bnez	v0,9d002800 <_vfprintf_cdfFnopsuxX+0xa00>
9d002858:	a3a30016 	sb	v1,22(sp)
9d00285c:	8fa20010 	lw	v0,16(sp)
9d002860:	1840000c 	blez	v0,9d002894 <_vfprintf_cdfFnopsuxX+0xa94>
9d002864:	2a620013 	slti	v0,s3,19
9d002868:	24040030 	li	a0,48
9d00286c:	0f40211f 	jal	9d00847c <.LFE0>
9d002870:	02402821 	move	a1,s2
9d002874:	00021027 	nor	v0,zero,v0
9d002878:	0002102b 	sltu	v0,zero,v0
9d00287c:	8fa30010 	lw	v1,16(sp)
9d002880:	2463ffff 	addiu	v1,v1,-1
9d002884:	02028021 	addu	s0,s0,v0
9d002888:	1c60fff7 	bgtz	v1,9d002868 <_vfprintf_cdfFnopsuxX+0xa68>
9d00288c:	afa30010 	sw	v1,16(sp)
9d002890:	2a620013 	slti	v0,s3,19
9d002894:	144000ed 	bnez	v0,9d002c4c <_vfprintf_cdfFnopsuxX+0xe4c>
9d002898:	7c131420 	seb	v0,s3
9d00289c:	24020012 	li	v0,18
9d0028a0:	a3a20016 	sb	v0,22(sp)
9d0028a4:	2674ffee 	addiu	s4,s3,-18
9d0028a8:	2404002e 	li	a0,46
9d0028ac:	0f40211f 	jal	9d00847c <.LFE0>
9d0028b0:	02402821 	move	a1,s2
9d0028b4:	2403ffff 	li	v1,-1
9d0028b8:	10430002 	beq	v0,v1,9d0028c4 <_vfprintf_cdfFnopsuxX+0xac4>
9d0028bc:	83b30016 	lb	s3,22(sp)
9d0028c0:	26100001 	addiu	s0,s0,1
9d0028c4:	0f401d4f 	jal	9d00753c <scale>
9d0028c8:	02602021 	move	a0,s3
9d0028cc:	00402021 	move	a0,v0
9d0028d0:	0f401ecc 	jal	9d007b30 <.LFE4>
9d0028d4:	8fa5001c 	lw	a1,28(sp)
9d0028d8:	0f4025cf 	jal	9d00973c <__fixunssfsi>
9d0028dc:	00402021 	move	a0,v0
9d0028e0:	0040a821 	move	s5,v0
9d0028e4:	2666ffff 	addiu	a2,s3,-1
9d0028e8:	7c063420 	seb	a2,a2
9d0028ec:	0000f021 	move	s8,zero
9d0028f0:	12600023 	beqz	s3,9d002980 <_vfprintf_cdfFnopsuxX+0xb80>
9d0028f4:	a3a60016 	sb	a2,22(sp)
9d0028f8:	3c059d01 	lui	a1,0x9d01
9d0028fc:	24b38e60 	addiu	s3,a1,-29088
9d002900:	000630c0 	sll	a2,a2,0x3
9d002904:	02663021 	addu	a2,s3,a2
9d002908:	8cc70004 	lw	a3,4(a2)
9d00290c:	8cc60000 	lw	a2,0(a2)
9d002910:	02a02021 	move	a0,s5
9d002914:	0f40176e 	jal	9d005db8 <__udivdi3>
9d002918:	03c02821 	move	a1,s8
9d00291c:	00402021 	move	a0,v0
9d002920:	00602821 	move	a1,v1
9d002924:	2406000a 	li	a2,10
9d002928:	0f40153f 	jal	9d0054fc <__umoddi3>
9d00292c:	00003821 	move	a3,zero
9d002930:	24440030 	addiu	a0,v0,48
9d002934:	0f40211f 	jal	9d00847c <.LFE0>
9d002938:	02402821 	move	a1,s2
9d00293c:	83b60016 	lb	s6,22(sp)
9d002940:	00021027 	nor	v0,zero,v0
9d002944:	0002102b 	sltu	v0,zero,v0
9d002948:	001618c0 	sll	v1,s6,0x3
9d00294c:	02631821 	addu	v1,s3,v1
9d002950:	8c660000 	lw	a2,0(v1)
9d002954:	8c670004 	lw	a3,4(v1)
9d002958:	02a02021 	move	a0,s5
9d00295c:	03c02821 	move	a1,s8
9d002960:	0f40153f 	jal	9d0054fc <__umoddi3>
9d002964:	02028021 	addu	s0,s0,v0
9d002968:	26c6ffff 	addiu	a2,s6,-1
9d00296c:	7c063420 	seb	a2,a2
9d002970:	0040a821 	move	s5,v0
9d002974:	0060f021 	move	s8,v1
9d002978:	16c0ffe1 	bnez	s6,9d002900 <_vfprintf_cdfFnopsuxX+0xb00>
9d00297c:	a3a60016 	sb	a2,22(sp)
9d002980:	1280000a 	beqz	s4,9d0029ac <_vfprintf_cdfFnopsuxX+0xbac>
9d002984:	8fa60018 	lw	a2,24(sp)
9d002988:	24040030 	li	a0,48
9d00298c:	0f40211f 	jal	9d00847c <.LFE0>
9d002990:	02402821 	move	a1,s2
9d002994:	00021027 	nor	v0,zero,v0
9d002998:	0002102b 	sltu	v0,zero,v0
9d00299c:	2694ffff 	addiu	s4,s4,-1
9d0029a0:	1680fff9 	bnez	s4,9d002988 <_vfprintf_cdfFnopsuxX+0xb88>
9d0029a4:	02028021 	addu	s0,s0,v0
9d0029a8:	8fa60018 	lw	a2,24(sp)
9d0029ac:	50c0fd26 	beqzl	a2,9d001e48 <_vfprintf_cdfFnopsuxX+0x48>
9d0029b0:	82240000 	lb	a0,0(s1)
9d0029b4:	5ae0fd24 	blezl	s7,9d001e48 <_vfprintf_cdfFnopsuxX+0x48>
9d0029b8:	82240000 	lb	a0,0(s1)
9d0029bc:	24040020 	li	a0,32
9d0029c0:	0f40211f 	jal	9d00847c <.LFE0>
9d0029c4:	02402821 	move	a1,s2
9d0029c8:	00021027 	nor	v0,zero,v0
9d0029cc:	0002102b 	sltu	v0,zero,v0
9d0029d0:	26f7ffff 	addiu	s7,s7,-1
9d0029d4:	16e0fff9 	bnez	s7,9d0029bc <_vfprintf_cdfFnopsuxX+0xbbc>
9d0029d8:	02028021 	addu	s0,s0,v0
9d0029dc:	0b400792 	j	9d001e48 <_vfprintf_cdfFnopsuxX+0x48>
9d0029e0:	82240000 	lb	a0,0(s1)
9d0029e4:	8fa30068 	lw	v1,104(sp)
9d0029e8:	8c740000 	lw	s4,0(v1)
9d0029ec:	24630004 	addiu	v1,v1,4
9d0029f0:	afa30068 	sw	v1,104(sp)
9d0029f4:	02802021 	move	a0,s4
9d0029f8:	0f402540 	jal	9d009500 <.LFE0>
9d0029fc:	00002821 	move	a1,zero
9d002a00:	0441fe0c 	bgez	v0,9d002234 <_vfprintf_cdfFnopsuxX+0x434>
9d002a04:	02802021 	move	a0,s4
9d002a08:	3c028000 	lui	v0,0x8000
9d002a0c:	0054a026 	xor	s4,v0,s4
9d002a10:	36d60003 	ori	s6,s6,0x3
9d002a14:	02802021 	move	a0,s4
9d002a18:	00002821 	move	a1,zero
9d002a1c:	0f402540 	jal	9d009500 <.LFE0>
9d002a20:	afa00010 	sw	zero,16(sp)
9d002a24:	1040fe08 	beqz	v0,9d002248 <_vfprintf_cdfFnopsuxX+0x448>
9d002a28:	0000f021 	move	s8,zero
9d002a2c:	02802021 	move	a0,s4
9d002a30:	0f40258d 	jal	9d009634 <fpfrexp>
9d002a34:	27a50010 	addiu	a1,sp,16
9d002a38:	8fa20010 	lw	v0,16(sp)
9d002a3c:	2442ffff 	addiu	v0,v0,-1
9d002a40:	00021840 	sll	v1,v0,0x1
9d002a44:	00621021 	addu	v0,v1,v0
9d002a48:	3c036666 	lui	v1,0x6666
9d002a4c:	24636667 	addiu	v1,v1,26215
9d002a50:	00430018 	mult	v0,v1
9d002a54:	00001810 	mfhi	v1
9d002a58:	000217c3 	sra	v0,v0,0x1f
9d002a5c:	00031883 	sra	v1,v1,0x2
9d002a60:	00621023 	subu	v0,v1,v0
9d002a64:	2443ffff 	addiu	v1,v0,-1
9d002a68:	285e0000 	slti	s8,v0,0
9d002a6c:	007e100b 	movn	v0,v1,s8
9d002a70:	0040f021 	move	s8,v0
9d002a74:	00022023 	negu	a0,v0
9d002a78:	0f401d4f 	jal	9d00753c <scale>
9d002a7c:	7c042420 	seb	a0,a0
9d002a80:	00402021 	move	a0,v0
9d002a84:	0f401ecc 	jal	9d007b30 <.LFE4>
9d002a88:	02802821 	move	a1,s4
9d002a8c:	afa20024 	sw	v0,36(sp)
9d002a90:	3c029d01 	lui	v0,0x9d01
9d002a94:	8c458f30 	lw	a1,-28880(v0)
9d002a98:	0f402540 	jal	9d009500 <.LFE0>
9d002a9c:	8fa40024 	lw	a0,36(sp)
9d002aa0:	044001c7 	bltz	v0,9d0031c0 <_vfprintf_cdfFnopsuxX+0x13c0>
9d002aa4:	3c029d01 	lui	v0,0x9d01
9d002aa8:	8c448f34 	lw	a0,-28876(v0)
9d002aac:	0f402540 	jal	9d009500 <.LFE0>
9d002ab0:	8fa50024 	lw	a1,36(sp)
9d002ab4:	28420001 	slti	v0,v0,1
9d002ab8:	0b400892 	j	9d002248 <_vfprintf_cdfFnopsuxX+0x448>
9d002abc:	03c2f021 	addu	s8,s8,v0
9d002ac0:	0440017a 	bltz	v0,9d0030ac <_vfprintf_cdfFnopsuxX+0x12ac>
9d002ac4:	32c20010 	andi	v0,s6,0x10
9d002ac8:	10400045 	beqz	v0,9d002be0 <_vfprintf_cdfFnopsuxX+0xde0>
9d002acc:	8fa20068 	lw	v0,104(sp)
9d002ad0:	8fa70068 	lw	a3,104(sp)
9d002ad4:	8cf50000 	lw	s5,0(a3)
9d002ad8:	0000f021 	move	s8,zero
9d002adc:	24e70004 	addiu	a3,a3,4
9d002ae0:	0b4008da 	j	9d002368 <_vfprintf_cdfFnopsuxX+0x568>
9d002ae4:	afa70068 	sw	a3,104(sp)
9d002ae8:	8fa70068 	lw	a3,104(sp)
9d002aec:	8cf70000 	lw	s7,0(a3)
9d002af0:	26310001 	addiu	s1,s1,1
9d002af4:	80a20001 	lb	v0,1(a1)
9d002af8:	24e70004 	addiu	a3,a3,4
9d002afc:	0b4007e7 	j	9d001f9c <_vfprintf_cdfFnopsuxX+0x19c>
9d002b00:	afa70068 	sw	a3,104(sp)
9d002b04:	0b4009b6 	j	9d0026d8 <_vfprintf_cdfFnopsuxX+0x8d8>
9d002b08:	afaa0010 	sw	t2,16(sp)
9d002b0c:	34e7851f 	ori	a3,a3,0x851f
9d002b10:	02a70019 	multu	s5,a3
9d002b14:	00003810 	mfhi	a3
9d002b18:	3c069d01 	lui	a2,0x9d01
9d002b1c:	24c69940 	addiu	a2,a2,-26304
9d002b20:	3c029d01 	lui	v0,0x9d01
9d002b24:	8c458f38 	lw	a1,-28872(v0)
9d002b28:	00073942 	srl	a3,a3,0x5
9d002b2c:	24e20012 	addiu	v0,a3,18
9d002b30:	00021080 	sll	v0,v0,0x2
9d002b34:	00461021 	addu	v0,v0,a2
9d002b38:	8c440000 	lw	a0,0(v0)
9d002b3c:	afa60030 	sw	a2,48(sp)
9d002b40:	0f401ecc 	jal	9d007b30 <.LFE4>
9d002b44:	afa7002c 	sw	a3,44(sp)
9d002b48:	8fa7002c 	lw	a3,44(sp)
9d002b4c:	00072080 	sll	a0,a3,0x2
9d002b50:	00073900 	sll	a3,a3,0x4
9d002b54:	00872021 	addu	a0,a0,a3
9d002b58:	00042880 	sll	a1,a0,0x2
9d002b5c:	00852021 	addu	a0,a0,a1
9d002b60:	02a42823 	subu	a1,s5,a0
9d002b64:	3c07cccc 	lui	a3,0xcccc
9d002b68:	34e7cccd 	ori	a3,a3,0xcccd
9d002b6c:	30a500ff 	andi	a1,a1,0xff
9d002b70:	00a70019 	multu	a1,a3
9d002b74:	00002810 	mfhi	a1
9d002b78:	00402021 	move	a0,v0
9d002b7c:	000510c2 	srl	v0,a1,0x3
9d002b80:	24420009 	addiu	v0,v0,9
9d002b84:	00021080 	sll	v0,v0,0x2
9d002b88:	8fa60030 	lw	a2,48(sp)
9d002b8c:	00461021 	addu	v0,v0,a2
9d002b90:	8c450000 	lw	a1,0(v0)
9d002b94:	0f401ecc 	jal	9d007b30 <.LFE4>
9d002b98:	afa7002c 	sw	a3,44(sp)
9d002b9c:	8fa7002c 	lw	a3,44(sp)
9d002ba0:	02a70019 	multu	s5,a3
9d002ba4:	00003810 	mfhi	a3
9d002ba8:	00402021 	move	a0,v0
9d002bac:	000710c2 	srl	v0,a3,0x3
9d002bb0:	00022840 	sll	a1,v0,0x1
9d002bb4:	000210c0 	sll	v0,v0,0x3
9d002bb8:	00a21021 	addu	v0,a1,v0
9d002bbc:	02a21023 	subu	v0,s5,v0
9d002bc0:	304200ff 	andi	v0,v0,0xff
9d002bc4:	00021080 	sll	v0,v0,0x2
9d002bc8:	8fa60030 	lw	a2,48(sp)
9d002bcc:	00463021 	addu	a2,v0,a2
9d002bd0:	0f401ecc 	jal	9d007b30 <.LFE4>
9d002bd4:	8cc50000 	lw	a1,0(a2)
9d002bd8:	0b4008a5 	j	9d002294 <_vfprintf_cdfFnopsuxX+0x494>
9d002bdc:	00402821 	move	a1,v0
9d002be0:	8c550000 	lw	s5,0(v0)
9d002be4:	0000f021 	move	s8,zero
9d002be8:	24420004 	addiu	v0,v0,4
9d002bec:	0b4008da 	j	9d002368 <_vfprintf_cdfFnopsuxX+0x568>
9d002bf0:	afa20068 	sw	v0,104(sp)
9d002bf4:	8c820000 	lw	v0,0(a0)
9d002bf8:	24840004 	addiu	a0,a0,4
9d002bfc:	afa40068 	sw	a0,104(sp)
9d002c00:	00021fc3 	sra	v1,v0,0x1f
9d002c04:	0040a821 	move	s5,v0
9d002c08:	0060f021 	move	s8,v1
9d002c0c:	0b4008d3 	j	9d00234c <_vfprintf_cdfFnopsuxX+0x54c>
9d002c10:	00602021 	move	a0,v1
9d002c14:	a3a30014 	sb	v1,20(sp)
9d002c18:	24140001 	li	s4,1
9d002c1c:	27b50014 	addiu	s5,sp,20
9d002c20:	0b400926 	j	9d002498 <_vfprintf_cdfFnopsuxX+0x698>
9d002c24:	afa50068 	sw	a1,104(sp)
9d002c28:	1280fdde 	beqz	s4,9d0023a4 <_vfprintf_cdfFnopsuxX+0x5a4>
9d002c2c:	24020001 	li	v0,1
9d002c30:	83a20016 	lb	v0,22(sp)
9d002c34:	0053182a 	slt	v1,v0,s3
9d002c38:	1060fdf3 	beqz	v1,9d002408 <_vfprintf_cdfFnopsuxX+0x608>
9d002c3c:	0262182a 	slt	v1,s3,v0
9d002c40:	7c131420 	seb	v0,s3
9d002c44:	0b400903 	j	9d00240c <_vfprintf_cdfFnopsuxX+0x60c>
9d002c48:	a3a20016 	sb	v0,22(sp)
9d002c4c:	a3a20016 	sb	v0,22(sp)
9d002c50:	1440ff15 	bnez	v0,9d0028a8 <_vfprintf_cdfFnopsuxX+0xaa8>
9d002c54:	0262a023 	subu	s4,s3,v0
9d002c58:	2402ffff 	li	v0,-1
9d002c5c:	0b400a60 	j	9d002980 <_vfprintf_cdfFnopsuxX+0xb80>
9d002c60:	a3a20016 	sb	v0,22(sp)
9d002c64:	32de0008 	andi	s8,s6,0x8
9d002c68:	33deffff 	andi	s8,s8,0xffff
9d002c6c:	17c0000b 	bnez	s8,9d002c9c <_vfprintf_cdfFnopsuxX+0xe9c>
9d002c70:	afbe0018 	sw	s8,24(sp)
9d002c74:	1ae0000a 	blez	s7,9d002ca0 <_vfprintf_cdfFnopsuxX+0xea0>
9d002c78:	32c20002 	andi	v0,s6,0x2
9d002c7c:	24040020 	li	a0,32
9d002c80:	0f40211f 	jal	9d00847c <.LFE0>
9d002c84:	02402821 	move	a1,s2
9d002c88:	00021027 	nor	v0,zero,v0
9d002c8c:	0002102b 	sltu	v0,zero,v0
9d002c90:	26f7ffff 	addiu	s7,s7,-1
9d002c94:	16e0fff9 	bnez	s7,9d002c7c <_vfprintf_cdfFnopsuxX+0xe7c>
9d002c98:	02028021 	addu	s0,s0,v0
9d002c9c:	32c20002 	andi	v0,s6,0x2
9d002ca0:	504000c0 	beqzl	v0,9d002fa4 <_vfprintf_cdfFnopsuxX+0x11a4>
9d002ca4:	32d60001 	andi	s6,s6,0x1
9d002ca8:	32c40001 	andi	a0,s6,0x1
9d002cac:	2402002b 	li	v0,43
9d002cb0:	2403002d 	li	v1,45
9d002cb4:	0064100b 	movn	v0,v1,a0
9d002cb8:	00402021 	move	a0,v0
9d002cbc:	0f40211f 	jal	9d00847c <.LFE0>
9d002cc0:	02402821 	move	a1,s2
9d002cc4:	00021027 	nor	v0,zero,v0
9d002cc8:	0002102b 	sltu	v0,zero,v0
9d002ccc:	0b4009fd 	j	9d0027f4 <_vfprintf_cdfFnopsuxX+0x9f4>
9d002cd0:	02028021 	addu	s0,s0,v0
9d002cd4:	1060001c 	beqz	v1,9d002d48 <_vfprintf_cdfFnopsuxX+0xf48>
9d002cd8:	02e2b823 	subu	s7,s7,v0
9d002cdc:	32c20002 	andi	v0,s6,0x2
9d002ce0:	104000d5 	beqz	v0,9d003038 <_vfprintf_cdfFnopsuxX+0x1238>
9d002ce4:	32c20001 	andi	v0,s6,0x1
9d002ce8:	32c40001 	andi	a0,s6,0x1
9d002cec:	2402002d 	li	v0,45
9d002cf0:	2403002b 	li	v1,43
9d002cf4:	0064100a 	movz	v0,v1,a0
9d002cf8:	00402021 	move	a0,v0
9d002cfc:	0f40211f 	jal	9d00847c <.LFE0>
9d002d00:	02402821 	move	a1,s2
9d002d04:	00021027 	nor	v0,zero,v0
9d002d08:	0002102b 	sltu	v0,zero,v0
9d002d0c:	02028021 	addu	s0,s0,v0
9d002d10:	12e0000a 	beqz	s7,9d002d3c <_vfprintf_cdfFnopsuxX+0xf3c>
9d002d14:	32c20008 	andi	v0,s6,0x8
9d002d18:	24040030 	li	a0,48
9d002d1c:	0f40211f 	jal	9d00847c <.LFE0>
9d002d20:	02402821 	move	a1,s2
9d002d24:	00021027 	nor	v0,zero,v0
9d002d28:	0002102b 	sltu	v0,zero,v0
9d002d2c:	26f7ffff 	addiu	s7,s7,-1
9d002d30:	16e0fff9 	bnez	s7,9d002d18 <_vfprintf_cdfFnopsuxX+0xf18>
9d002d34:	02028021 	addu	s0,s0,v0
9d002d38:	32c20008 	andi	v0,s6,0x8
9d002d3c:	3042ffff 	andi	v0,v0,0xffff
9d002d40:	0b400b65 	j	9d002d94 <_vfprintf_cdfFnopsuxX+0xf94>
9d002d44:	afa20028 	sw	v0,40(sp)
9d002d48:	32c20008 	andi	v0,s6,0x8
9d002d4c:	3042ffff 	andi	v0,v0,0xffff
9d002d50:	12e00003 	beqz	s7,9d002d60 <_vfprintf_cdfFnopsuxX+0xf60>
9d002d54:	afa20028 	sw	v0,40(sp)
9d002d58:	10400045 	beqz	v0,9d002e70 <_vfprintf_cdfFnopsuxX+0x1070>
9d002d5c:	24040020 	li	a0,32
9d002d60:	32c20002 	andi	v0,s6,0x2
9d002d64:	104000b0 	beqz	v0,9d003028 <_vfprintf_cdfFnopsuxX+0x1228>
9d002d68:	32c20001 	andi	v0,s6,0x1
9d002d6c:	32c40001 	andi	a0,s6,0x1
9d002d70:	2402002d 	li	v0,45
9d002d74:	2403002b 	li	v1,43
9d002d78:	0064100a 	movz	v0,v1,a0
9d002d7c:	00402021 	move	a0,v0
9d002d80:	0f40211f 	jal	9d00847c <.LFE0>
9d002d84:	02402821 	move	a1,s2
9d002d88:	00021027 	nor	v0,zero,v0
9d002d8c:	0002102b 	sltu	v0,zero,v0
9d002d90:	02028021 	addu	s0,s0,v0
9d002d94:	2662ffff 	addiu	v0,s3,-1
9d002d98:	000220c0 	sll	a0,v0,0x3
9d002d9c:	3c039d01 	lui	v1,0x9d01
9d002da0:	24738e60 	addiu	s3,v1,-29088
9d002da4:	00024840 	sll	t1,v0,0x1
9d002da8:	32c30020 	andi	v1,s6,0x20
9d002dac:	02649821 	addu	s3,s3,a0
9d002db0:	afb30018 	sw	s3,24(sp)
9d002db4:	00029880 	sll	s3,v0,0x2
9d002db8:	0122b021 	addu	s6,t1,v0
9d002dbc:	001e2040 	sll	a0,s8,0x1
9d002dc0:	afa4001c 	sw	a0,28(sp)
9d002dc4:	3063ffff 	andi	v1,v1,0xffff
9d002dc8:	2402fffd 	li	v0,-3
9d002dcc:	12c20018 	beq	s6,v0,9d002e30 <_vfprintf_cdfFnopsuxX+0x1030>
9d002dd0:	afa30020 	sw	v1,32(sp)
9d002dd4:	24020040 	li	v0,64
9d002dd8:	12820059 	beq	s4,v0,9d002f40 <_vfprintf_cdfFnopsuxX+0x1140>
9d002ddc:	2e820041 	sltiu	v0,s4,65
9d002de0:	14400034 	bnez	v0,9d002eb4 <_vfprintf_cdfFnopsuxX+0x10b4>
9d002de4:	24020080 	li	v0,128
9d002de8:	12820043 	beq	s4,v0,9d002ef8 <_vfprintf_cdfFnopsuxX+0x10f8>
9d002dec:	00131827 	nor	v1,zero,s3
9d002df0:	240200c0 	li	v0,192
9d002df4:	12820032 	beq	s4,v0,9d002ec0 <_vfprintf_cdfFnopsuxX+0x10c0>
9d002df8:	8fa50018 	lw	a1,24(sp)
9d002dfc:	83a40016 	lb	a0,22(sp)
9d002e00:	0f40211f 	jal	9d00847c <.LFE0>
9d002e04:	02402821 	move	a1,s2
9d002e08:	00021027 	nor	v0,zero,v0
9d002e0c:	0002102b 	sltu	v0,zero,v0
9d002e10:	02028021 	addu	s0,s0,v0
9d002e14:	8fa70018 	lw	a3,24(sp)
9d002e18:	24e7fff8 	addiu	a3,a3,-8
9d002e1c:	afa70018 	sw	a3,24(sp)
9d002e20:	26d6fffd 	addiu	s6,s6,-3
9d002e24:	2402fffd 	li	v0,-3
9d002e28:	16c2ffea 	bne	s6,v0,9d002dd4 <_vfprintf_cdfFnopsuxX+0xfd4>
9d002e2c:	2673fffc 	addiu	s3,s3,-4
9d002e30:	8fa20028 	lw	v0,40(sp)
9d002e34:	5040fc04 	beqzl	v0,9d001e48 <_vfprintf_cdfFnopsuxX+0x48>
9d002e38:	82240000 	lb	a0,0(s1)
9d002e3c:	5ae0fc02 	blezl	s7,9d001e48 <_vfprintf_cdfFnopsuxX+0x48>
9d002e40:	82240000 	lb	a0,0(s1)
9d002e44:	24040020 	li	a0,32
9d002e48:	0f40211f 	jal	9d00847c <.LFE0>
9d002e4c:	02402821 	move	a1,s2
9d002e50:	00021027 	nor	v0,zero,v0
9d002e54:	0002102b 	sltu	v0,zero,v0
9d002e58:	26f7ffff 	addiu	s7,s7,-1
9d002e5c:	16e0fff9 	bnez	s7,9d002e44 <_vfprintf_cdfFnopsuxX+0x1044>
9d002e60:	02028021 	addu	s0,s0,v0
9d002e64:	0b400792 	j	9d001e48 <_vfprintf_cdfFnopsuxX+0x48>
9d002e68:	82240000 	lb	a0,0(s1)
9d002e6c:	24040020 	li	a0,32
9d002e70:	0f40211f 	jal	9d00847c <.LFE0>
9d002e74:	02402821 	move	a1,s2
9d002e78:	00021027 	nor	v0,zero,v0
9d002e7c:	0002102b 	sltu	v0,zero,v0
9d002e80:	26f7ffff 	addiu	s7,s7,-1
9d002e84:	12e0ffb6 	beqz	s7,9d002d60 <_vfprintf_cdfFnopsuxX+0xf60>
9d002e88:	02028021 	addu	s0,s0,v0
9d002e8c:	24040020 	li	a0,32
9d002e90:	0f40211f 	jal	9d00847c <.LFE0>
9d002e94:	02402821 	move	a1,s2
9d002e98:	00021027 	nor	v0,zero,v0
9d002e9c:	0002102b 	sltu	v0,zero,v0
9d002ea0:	26f7ffff 	addiu	s7,s7,-1
9d002ea4:	16e0fff1 	bnez	s7,9d002e6c <_vfprintf_cdfFnopsuxX+0x106c>
9d002ea8:	02028021 	addu	s0,s0,v0
9d002eac:	0b400b59 	j	9d002d64 <_vfprintf_cdfFnopsuxX+0xf64>
9d002eb0:	32c20002 	andi	v0,s6,0x2
9d002eb4:	5680ffd2 	bnezl	s4,9d002e00 <_vfprintf_cdfFnopsuxX+0x1000>
9d002eb8:	83a40016 	lb	a0,22(sp)
9d002ebc:	8fa50018 	lw	a1,24(sp)
9d002ec0:	8ca60000 	lw	a2,0(a1)
9d002ec4:	8ca70004 	lw	a3,4(a1)
9d002ec8:	02a02021 	move	a0,s5
9d002ecc:	0f40176e 	jal	9d005db8 <__udivdi3>
9d002ed0:	03c02821 	move	a1,s8
9d002ed4:	00402021 	move	a0,v0
9d002ed8:	00602821 	move	a1,v1
9d002edc:	2406000a 	li	a2,10
9d002ee0:	0f40153f 	jal	9d0054fc <__umoddi3>
9d002ee4:	00003821 	move	a3,zero
9d002ee8:	24420030 	addiu	v0,v0,48
9d002eec:	7c022420 	seb	a0,v0
9d002ef0:	0b400b80 	j	9d002e00 <_vfprintf_cdfFnopsuxX+0x1000>
9d002ef4:	a3a40016 	sb	a0,22(sp)
9d002ef8:	8fa6001c 	lw	a2,28(sp)
9d002efc:	00661804 	sllv	v1,a2,v1
9d002f00:	02751006 	srlv	v0,s5,s3
9d002f04:	32660020 	andi	a2,s3,0x20
9d002f08:	00621025 	or	v0,v1,v0
9d002f0c:	027e2806 	srlv	a1,s8,s3
9d002f10:	3c079d01 	lui	a3,0x9d01
9d002f14:	24e38f08 	addiu	v1,a3,-28920
9d002f18:	3c079d01 	lui	a3,0x9d01
9d002f1c:	24e48f1c 	addiu	a0,a3,-28900
9d002f20:	00a6100b 	movn	v0,a1,a2
9d002f24:	8fa50020 	lw	a1,32(sp)
9d002f28:	0085180a 	movz	v1,a0,a1
9d002f2c:	3042000f 	andi	v0,v0,0xf
9d002f30:	00621821 	addu	v1,v1,v0
9d002f34:	80640000 	lb	a0,0(v1)
9d002f38:	0b400b80 	j	9d002e00 <_vfprintf_cdfFnopsuxX+0x1000>
9d002f3c:	a3a40016 	sb	a0,22(sp)
9d002f40:	00161027 	nor	v0,zero,s6
9d002f44:	8fa6001c 	lw	a2,28(sp)
9d002f48:	00461004 	sllv	v0,a2,v0
9d002f4c:	02d52006 	srlv	a0,s5,s6
9d002f50:	32c30020 	andi	v1,s6,0x20
9d002f54:	00442025 	or	a0,v0,a0
9d002f58:	02de1006 	srlv	v0,s8,s6
9d002f5c:	0043200b 	movn	a0,v0,v1
9d002f60:	30840007 	andi	a0,a0,0x7
9d002f64:	24840030 	addiu	a0,a0,48
9d002f68:	0b400b80 	j	9d002e00 <_vfprintf_cdfFnopsuxX+0x1000>
9d002f6c:	a3a40016 	sb	a0,22(sp)
9d002f70:	02a4282b 	sltu	a1,s5,a0
9d002f74:	10a00044 	beqz	a1,9d003088 <_vfprintf_cdfFnopsuxX+0x1288>
9d002f78:	00043f42 	srl	a3,a0,0x1d
9d002f7c:	a3a60016 	sb	a2,22(sp)
9d002f80:	0b400b0d 	j	9d002c34 <_vfprintf_cdfFnopsuxX+0xe34>
9d002f84:	00c01021 	move	v0,a2
9d002f88:	8fa50068 	lw	a1,104(sp)
9d002f8c:	8cb30000 	lw	s3,0(a1)
9d002f90:	82220002 	lb	v0,2(s1)
9d002f94:	24a50004 	addiu	a1,a1,4
9d002f98:	afa50068 	sw	a1,104(sp)
9d002f9c:	0b4007ec 	j	9d001fb0 <_vfprintf_cdfFnopsuxX+0x1b0>
9d002fa0:	26310002 	addiu	s1,s1,2
9d002fa4:	52c0fe14 	beqzl	s6,9d0027f8 <_vfprintf_cdfFnopsuxX+0x9f8>
9d002fa8:	3c049d01 	lui	a0,0x9d01
9d002fac:	0b400b2f 	j	9d002cbc <_vfprintf_cdfFnopsuxX+0xebc>
9d002fb0:	24040020 	li	a0,32
9d002fb4:	13c00091 	beqz	s8,9d0031fc <_vfprintf_cdfFnopsuxX+0x13fc>
9d002fb8:	a3a20016 	sb	v0,22(sp)
9d002fbc:	24030003 	li	v1,3
9d002fc0:	24060002 	li	a2,2
9d002fc4:	24040100 	li	a0,256
9d002fc8:	00001021 	move	v0,zero
9d002fcc:	0b400bf6 	j	9d002fd8 <_vfprintf_cdfFnopsuxX+0x11d8>
9d002fd0:	240a0011 	li	t2,17
9d002fd4:	00a03021 	move	a2,a1
9d002fd8:	03c2282b 	sltu	a1,s8,v0
9d002fdc:	54a0ffe8 	bnezl	a1,9d002f80 <_vfprintf_cdfFnopsuxX+0x1180>
9d002fe0:	a3a60016 	sb	a2,22(sp)
9d002fe4:	105e006b 	beq	v0,s8,9d003194 <_vfprintf_cdfFnopsuxX+0x1394>
9d002fe8:	02a4282b 	sltu	a1,s5,a0
9d002fec:	24690001 	addiu	t1,v1,1
9d002ff0:	00043f02 	srl	a3,a0,0x1c
9d002ff4:	00023100 	sll	a2,v0,0x4
9d002ff8:	7c032c20 	seb	a1,v1
9d002ffc:	312300ff 	andi	v1,t1,0xff
9d003000:	00e61025 	or	v0,a3,a2
9d003004:	146afff3 	bne	v1,t2,9d002fd4 <_vfprintf_cdfFnopsuxX+0x11d4>
9d003008:	00042100 	sll	a0,a0,0x4
9d00300c:	a3a50016 	sb	a1,22(sp)
9d003010:	0b400b0d 	j	9d002c34 <_vfprintf_cdfFnopsuxX+0xe34>
9d003014:	00a01021 	move	v0,a1
9d003018:	1040fde9 	beqz	v0,9d0027c0 <_vfprintf_cdfFnopsuxX+0x9c0>
9d00301c:	24040020 	li	a0,32
9d003020:	0b4009eb 	j	9d0027ac <_vfprintf_cdfFnopsuxX+0x9ac>
9d003024:	00000000 	nop
9d003028:	1040ff5b 	beqz	v0,9d002d98 <_vfprintf_cdfFnopsuxX+0xf98>
9d00302c:	2662ffff 	addiu	v0,s3,-1
9d003030:	0b400b60 	j	9d002d80 <_vfprintf_cdfFnopsuxX+0xf80>
9d003034:	24040020 	li	a0,32
9d003038:	1040ff35 	beqz	v0,9d002d10 <_vfprintf_cdfFnopsuxX+0xf10>
9d00303c:	24040020 	li	a0,32
9d003040:	0b400b3f 	j	9d002cfc <_vfprintf_cdfFnopsuxX+0xefc>
9d003044:	00000000 	nop
9d003048:	24020001 	li	v0,1
9d00304c:	13c00066 	beqz	s8,9d0031e8 <_vfprintf_cdfFnopsuxX+0x13e8>
9d003050:	a3a20016 	sb	v0,22(sp)
9d003054:	24030003 	li	v1,3
9d003058:	24060002 	li	a2,2
9d00305c:	24040040 	li	a0,64
9d003060:	00001021 	move	v0,zero
9d003064:	0b400c1c 	j	9d003070 <_vfprintf_cdfFnopsuxX+0x1270>
9d003068:	240a0016 	li	t2,22
9d00306c:	00a03021 	move	a2,a1
9d003070:	03c2282b 	sltu	a1,s8,v0
9d003074:	54a0ffc2 	bnezl	a1,9d002f80 <_vfprintf_cdfFnopsuxX+0x1180>
9d003078:	a3a60016 	sb	a2,22(sp)
9d00307c:	105effbc 	beq	v0,s8,9d002f70 <_vfprintf_cdfFnopsuxX+0x1170>
9d003080:	24690001 	addiu	t1,v1,1
9d003084:	00043f42 	srl	a3,a0,0x1d
9d003088:	000230c0 	sll	a2,v0,0x3
9d00308c:	7c032c20 	seb	a1,v1
9d003090:	312300ff 	andi	v1,t1,0xff
9d003094:	00e61025 	or	v0,a3,a2
9d003098:	146afff4 	bne	v1,t2,9d00306c <_vfprintf_cdfFnopsuxX+0x126c>
9d00309c:	000420c0 	sll	a0,a0,0x3
9d0030a0:	a3a50016 	sb	a1,22(sp)
9d0030a4:	0b400b0d 	j	9d002c34 <_vfprintf_cdfFnopsuxX+0xe34>
9d0030a8:	00a01021 	move	v0,a1
9d0030ac:	8fa50068 	lw	a1,104(sp)
9d0030b0:	24a30007 	addiu	v1,a1,7
9d0030b4:	2402fff8 	li	v0,-8
9d0030b8:	00621024 	and	v0,v1,v0
9d0030bc:	24460008 	addiu	a2,v0,8
9d0030c0:	afa60068 	sw	a2,104(sp)
9d0030c4:	8c550000 	lw	s5,0(v0)
9d0030c8:	0b4008da 	j	9d002368 <_vfprintf_cdfFnopsuxX+0x568>
9d0030cc:	8c5e0004 	lw	s8,4(v0)
9d0030d0:	24e30007 	addiu	v1,a3,7
9d0030d4:	2402fff8 	li	v0,-8
9d0030d8:	00621824 	and	v1,v1,v0
9d0030dc:	8c640004 	lw	a0,4(v1)
9d0030e0:	8c620000 	lw	v0,0(v1)
9d0030e4:	24630008 	addiu	v1,v1,8
9d0030e8:	afa30068 	sw	v1,104(sp)
9d0030ec:	00801821 	move	v1,a0
9d0030f0:	0040a821 	move	s5,v0
9d0030f4:	0b4008d3 	j	9d00234c <_vfprintf_cdfFnopsuxX+0x54c>
9d0030f8:	0080f021 	move	s8,a0
9d0030fc:	3c089d01 	lui	t0,0x9d01
9d003100:	25158f00 	addiu	s5,t0,-28928
9d003104:	0b40091d 	j	9d002474 <_vfprintf_cdfFnopsuxX+0x674>
9d003108:	02a02021 	move	a0,s5
9d00310c:	24020001 	li	v0,1
9d003110:	a3a20016 	sb	v0,22(sp)
9d003114:	0b4009d9 	j	9d002764 <_vfprintf_cdfFnopsuxX+0x964>
9d003118:	24050001 	li	a1,1
9d00311c:	3c06cccc 	lui	a2,0xcccc
9d003120:	34c6cccd 	ori	a2,a2,0xcccd
9d003124:	02a60019 	multu	s5,a2
9d003128:	00003010 	mfhi	a2
9d00312c:	3c079d01 	lui	a3,0x9d01
9d003130:	24e79940 	addiu	a3,a3,-26304
9d003134:	3c029d01 	lui	v0,0x9d01
9d003138:	8c458f38 	lw	a1,-28872(v0)
9d00313c:	000630c2 	srl	a2,a2,0x3
9d003140:	24c20009 	addiu	v0,a2,9
9d003144:	00021080 	sll	v0,v0,0x2
9d003148:	00471021 	addu	v0,v0,a3
9d00314c:	8c440000 	lw	a0,0(v0)
9d003150:	afa60030 	sw	a2,48(sp)
9d003154:	0f401ecc 	jal	9d007b30 <.LFE4>
9d003158:	afa7002c 	sw	a3,44(sp)
9d00315c:	8fa60030 	lw	a2,48(sp)
9d003160:	00062040 	sll	a0,a2,0x1
9d003164:	000630c0 	sll	a2,a2,0x3
9d003168:	00862021 	addu	a0,a0,a2
9d00316c:	02a41823 	subu	v1,s5,a0
9d003170:	306300ff 	andi	v1,v1,0xff
9d003174:	00031880 	sll	v1,v1,0x2
9d003178:	8fa7002c 	lw	a3,44(sp)
9d00317c:	00673821 	addu	a3,v1,a3
9d003180:	8ce50000 	lw	a1,0(a3)
9d003184:	0f401ecc 	jal	9d007b30 <.LFE4>
9d003188:	00402021 	move	a0,v0
9d00318c:	0b4008a5 	j	9d002294 <_vfprintf_cdfFnopsuxX+0x494>
9d003190:	00402821 	move	a1,v0
9d003194:	10a0ff96 	beqz	a1,9d002ff0 <_vfprintf_cdfFnopsuxX+0x11f0>
9d003198:	24690001 	addiu	t1,v1,1
9d00319c:	a3a60016 	sb	a2,22(sp)
9d0031a0:	0b400b0d 	j	9d002c34 <_vfprintf_cdfFnopsuxX+0xe34>
9d0031a4:	00c01021 	move	v0,a2
9d0031a8:	02a4202b 	sltu	a0,s5,a0
9d0031ac:	1080fc8d 	beqz	a0,9d0023e4 <_vfprintf_cdfFnopsuxX+0x5e4>
9d0031b0:	24450001 	addiu	a1,v0,1
9d0031b4:	a3a60016 	sb	a2,22(sp)
9d0031b8:	0b400b0d 	j	9d002c34 <_vfprintf_cdfFnopsuxX+0xe34>
9d0031bc:	00c01021 	move	v0,a2
9d0031c0:	0b400892 	j	9d002248 <_vfprintf_cdfFnopsuxX+0x448>
9d0031c4:	27deffff 	addiu	s8,s8,-1
9d0031c8:	afa50068 	sw	a1,104(sp)
9d0031cc:	0b400926 	j	9d002498 <_vfprintf_cdfFnopsuxX+0x698>
9d0031d0:	0000a021 	move	s4,zero
9d0031d4:	2ea2000a 	sltiu	v0,s5,10
9d0031d8:	1040fc75 	beqz	v0,9d0023b0 <_vfprintf_cdfFnopsuxX+0x5b0>
9d0031dc:	3c039d01 	lui	v1,0x9d01
9d0031e0:	0b400b0d 	j	9d002c34 <_vfprintf_cdfFnopsuxX+0xe34>
9d0031e4:	24020001 	li	v0,1
9d0031e8:	2ea20008 	sltiu	v0,s5,8
9d0031ec:	1040ff9a 	beqz	v0,9d003058 <_vfprintf_cdfFnopsuxX+0x1258>
9d0031f0:	24030003 	li	v1,3
9d0031f4:	0b400b0d 	j	9d002c34 <_vfprintf_cdfFnopsuxX+0xe34>
9d0031f8:	24020001 	li	v0,1
9d0031fc:	2ea20010 	sltiu	v0,s5,16
9d003200:	1040ff6f 	beqz	v0,9d002fc0 <_vfprintf_cdfFnopsuxX+0x11c0>
9d003204:	24030003 	li	v1,3
9d003208:	0b400b0d 	j	9d002c34 <_vfprintf_cdfFnopsuxX+0xe34>
9d00320c:	24020001 	li	v0,1
9d003210:	3042ffff 	andi	v0,v0,0xffff
9d003214:	afa20028 	sw	v0,40(sp)
9d003218:	0b400b58 	j	9d002d60 <_vfprintf_cdfFnopsuxX+0xf60>
9d00321c:	0000b821 	move	s7,zero

Disassembly of section .text:

9d003220 <FFAngleInfo>:
// and then averaged over.
static volatile double total; // sum of all ADC values read per counter iteration
unsigned volatile int start_time; // time when sampling begins
unsigned volatile int end_time; // time when sampling ends

void FFAngleInfo(void){
9d003220:	27bdffe8 	addiu	sp,sp,-24
9d003224:	afbf0014 	sw	ra,20(sp)
  oldTheta = Theta;
9d003228:	8f8280b4 	lw	v0,-32588(gp)
9d00322c:	af8280b0 	sw	v0,-32592(gp)
  Theta = encoder_counts();
9d003230:	0f402265 	jal	9d008994 <encoder_counts>
9d003234:	00000000 	nop

9d003238 <.LVL0>:
9d003238:	af8280b4 	sw	v0,-32588(gp)
  Theta = encoder_counts();
9d00323c:	0f402265 	jal	9d008994 <encoder_counts>
9d003240:	00000000 	nop

9d003244 <.LVL1>:
9d003244:	af8280b4 	sw	v0,-32588(gp)
  oldThetaV = ThetaV;
9d003248:	8f8280a4 	lw	v0,-32604(gp)
9d00324c:	af8280ac 	sw	v0,-32596(gp)
  ThetaV = Theta - oldTheta;
9d003250:	8f8380b4 	lw	v1,-32588(gp)
9d003254:	8f8280b0 	lw	v0,-32592(gp)
9d003258:	00621023 	subu	v0,v1,v0
9d00325c:	af8280a4 	sw	v0,-32604(gp)
  ThetaA = ThetaV - oldThetaV;
9d003260:	8f8380a4 	lw	v1,-32604(gp)
9d003264:	8f8280ac 	lw	v0,-32596(gp)
9d003268:	00621023 	subu	v0,v1,v0
9d00326c:	af8280a8 	sw	v0,-32600(gp)
}
9d003270:	8fbf0014 	lw	ra,20(sp)
9d003274:	03e00008 	jr	ra
9d003278:	27bd0018 	addiu	sp,sp,24

9d00327c <FFAngleInit>:

void FFAngleInit(void)
{
  oldTheta = 0;
9d00327c:	af8080b0 	sw	zero,-32592(gp)
  Theta = 0;
9d003280:	af8080b4 	sw	zero,-32588(gp)
  oldThetaV = 0;
9d003284:	af8080ac 	sw	zero,-32596(gp)
  ThetaV = 0;
9d003288:	af8080a4 	sw	zero,-32604(gp)
  ThetaA = 0;
9d00328c:	af8080a8 	sw	zero,-32600(gp)
9d003290:	03e00008 	jr	ra
9d003294:	00000000 	nop

9d003298 <initADC>:
}
void initADC(void){
  ADC = 0;
9d003298:	af80802c 	sw	zero,-32724(gp)
9d00329c:	03e00008 	jr	ra
9d0032a0:	00000000 	nop

9d0032a4 <ADCtoCurrent>:
}

int ADCtoCurrent(void){
9d0032a4:	27bdffe8 	addiu	sp,sp,-24
9d0032a8:	afbf0014 	sw	ra,20(sp)
  return (int) (2.2436*ADC - 1135);
9d0032ac:	8f84802c 	lw	a0,-32724(gp)
9d0032b0:	0f40265d 	jal	9d009974 <__floatsisf>
9d0032b4:	00000000 	nop
9d0032b8:	00402021 	move	a0,v0
9d0032bc:	3c029d01 	lui	v0,0x9d01
9d0032c0:	0f401ecc 	jal	9d007b30 <.LFE4>
9d0032c4:	8c459628 	lw	a1,-27096(v0)
9d0032c8:	00402021 	move	a0,v0
9d0032cc:	3c029d01 	lui	v0,0x9d01
9d0032d0:	0f401c25 	jal	9d007094 <__subsf3>
9d0032d4:	8c45962c 	lw	a1,-27092(v0)
9d0032d8:	0f4025af 	jal	9d0096bc <__fixsfsi>
9d0032dc:	00402021 	move	a0,v0
}
9d0032e0:	8fbf0014 	lw	ra,20(sp)
9d0032e4:	03e00008 	jr	ra
9d0032e8:	27bd0018 	addiu	sp,sp,24

9d0032ec <readADC>:

int readADC(void){
9d0032ec:	27bdffd0 	addiu	sp,sp,-48
9d0032f0:	afbf002c 	sw	ra,44(sp)
9d0032f4:	afb50028 	sw	s5,40(sp)
9d0032f8:	afb40024 	sw	s4,36(sp)
9d0032fc:	afb30020 	sw	s3,32(sp)
9d003300:	afb2001c 	sw	s2,28(sp)
9d003304:	afb10018 	sw	s1,24(sp)
9d003308:	afb00014 	sw	s0,20(sp)
  _CP0_SET_COUNT(0); // Start the timer
9d00330c:	00001021 	move	v0,zero
9d003310:	40824800 	mtc0	v0,c0_count
9d003314:	000000c0 	ehb
  total = 0;
9d003318:	00001021 	move	v0,zero
9d00331c:	af8280bc 	sw	v0,-32580(gp)
  for (i=0; i<avg_num; i++){
9d003320:	af80808c 	sw	zero,-32628(gp)
9d003324:	8f83808c 	lw	v1,-32628(gp)
9d003328:	8f82801c 	lw	v0,-32740(gp)
9d00332c:	0062102a 	slt	v0,v1,v0
9d003330:	1040002c 	beqz	v0,9d0033e4 <readADC+0xf8>
9d003334:	3c11bf81 	lui	s1,0xbf81
    AD1CHSbits.CH0SA = 15; // Set Pin for data collection
9d003338:	2414000f 	li	s4,15
    AD1CON1bits.SAMP = 1; // make SHA begin sampling
9d00333c:	3c10bf81 	lui	s0,0xbf81
9d003340:	24130001 	li	s3,1
    }
    AD1CON1bits.SAMP = 0; // make SHA stop sampling
    while(!AD1CON1bits.DONE){ // wait for cnversion
      ;
    }
    total = ADC1BUF0 + total;
9d003344:	3c12bf81 	lui	s2,0xbf81

int readADC(void){
  _CP0_SET_COUNT(0); // Start the timer
  total = 0;
  for (i=0; i<avg_num; i++){
    AD1CHSbits.CH0SA = 15; // Set Pin for data collection
9d003348:	8e229040 	lw	v0,-28608(s1)
9d00334c:	7e829c04 	ins	v0,s4,0x10,0x4
9d003350:	ae229040 	sw	v0,-28608(s1)
    AD1CON1bits.SAMP = 1; // make SHA begin sampling
9d003354:	96029000 	lhu	v0,-28672(s0)
9d003358:	7e620844 	ins	v0,s3,0x1,0x1
9d00335c:	a6029000 	sh	v0,-28672(s0)
    start_time = _CP0_GET_COUNT(); // Get clock count for sampling time
9d003360:	40024800 	mfc0	v0,c0_count
9d003364:	af8280d0 	sw	v0,-32560(gp)
    end_time = start_time + 20; // Sampling for 20*25ns=500ns
9d003368:	8f8280d0 	lw	v0,-32560(gp)
9d00336c:	24420014 	addiu	v0,v0,20
9d003370:	af8280cc 	sw	v0,-32564(gp)
        while(_CP0_GET_COUNT() < end_time){
9d003374:	40024800 	mfc0	v0,c0_count
9d003378:	8f8380cc 	lw	v1,-32564(gp)
9d00337c:	0043102b 	sltu	v0,v0,v1
9d003380:	1440fffc 	bnez	v0,9d003374 <readADC+0x88>
9d003384:	00000000 	nop
      ;
    }
    AD1CON1bits.SAMP = 0; // make SHA stop sampling
9d003388:	96029000 	lhu	v0,-28672(s0)
9d00338c:	7c020844 	ins	v0,zero,0x1,0x1
9d003390:	a6029000 	sh	v0,-28672(s0)
    while(!AD1CON1bits.DONE){ // wait for cnversion
9d003394:	8e029000 	lw	v0,-28672(s0)
9d003398:	30420001 	andi	v0,v0,0x1
9d00339c:	1040fffd 	beqz	v0,9d003394 <readADC+0xa8>
9d0033a0:	00000000 	nop
      ;
    }
    total = ADC1BUF0 + total;
9d0033a4:	8e449070 	lw	a0,-28560(s2)
9d0033a8:	8f9580bc 	lw	s5,-32580(gp)
9d0033ac:	0f4026ca 	jal	9d009b28 <__floatunsisf>
9d0033b0:	00000000 	nop
9d0033b4:	00402021 	move	a0,v0
9d0033b8:	0f401c27 	jal	9d00709c <__addsf3>
9d0033bc:	02a02821 	move	a1,s5
9d0033c0:	af8280bc 	sw	v0,-32580(gp)
}

int readADC(void){
  _CP0_SET_COUNT(0); // Start the timer
  total = 0;
  for (i=0; i<avg_num; i++){
9d0033c4:	8f82808c 	lw	v0,-32628(gp)
9d0033c8:	24420001 	addiu	v0,v0,1
9d0033cc:	af82808c 	sw	v0,-32628(gp)
9d0033d0:	8f83808c 	lw	v1,-32628(gp)
9d0033d4:	8f82801c 	lw	v0,-32740(gp)
9d0033d8:	0062102a 	slt	v0,v1,v0
9d0033dc:	1440ffda 	bnez	v0,9d003348 <readADC+0x5c>
9d0033e0:	00000000 	nop
    while(!AD1CON1bits.DONE){ // wait for cnversion
      ;
    }
    total = ADC1BUF0 + total;
  }
  ADC = (int) total/avg_num ; // Get the average value from ADC
9d0033e4:	8f8480bc 	lw	a0,-32580(gp)
9d0033e8:	8f90801c 	lw	s0,-32740(gp)
9d0033ec:	0f4025af 	jal	9d0096bc <__fixsfsi>
9d0033f0:	00000000 	nop
9d0033f4:	0050001a 	div	zero,v0,s0
9d0033f8:	020001f4 	teq	s0,zero,0x7
9d0033fc:	00001012 	mflo	v0
9d003400:	af82802c 	sw	v0,-32724(gp)
  return ADC;
9d003404:	8f82802c 	lw	v0,-32724(gp)
}
9d003408:	8fbf002c 	lw	ra,44(sp)
9d00340c:	8fb50028 	lw	s5,40(sp)
9d003410:	8fb40024 	lw	s4,36(sp)
9d003414:	8fb30020 	lw	s3,32(sp)
9d003418:	8fb2001c 	lw	s2,28(sp)
9d00341c:	8fb10018 	lw	s1,24(sp)
9d003420:	8fb00014 	lw	s0,20(sp)
9d003424:	03e00008 	jr	ra
9d003428:	27bd0030 	addiu	sp,sp,48

9d00342c <Icontrol>:


void Icontrol(int Iref, int Iact){
9d00342c:	27bdffe0 	addiu	sp,sp,-32
9d003430:	afbf001c 	sw	ra,28(sp)
9d003434:	afb20018 	sw	s2,24(sp)
9d003438:	afb10014 	sw	s1,20(sp)
9d00343c:	afb00010 	sw	s0,16(sp)
  Ie = Iref-Iact;
9d003440:	00852023 	subu	a0,a0,a1
9d003444:	af848054 	sw	a0,-32684(gp)
  INTIe = INTIe + Ie;
9d003448:	8f838058 	lw	v1,-32680(gp)
9d00344c:	8f828054 	lw	v0,-32684(gp)
9d003450:	00621021 	addu	v0,v1,v0
9d003454:	af828058 	sw	v0,-32680(gp)
  uI = Ie*IKp + INTIe*IKi;
9d003458:	8f848054 	lw	a0,-32684(gp)
9d00345c:	8f908040 	lw	s0,-32704(gp)
9d003460:	8f928058 	lw	s2,-32680(gp)
9d003464:	8f918044 	lw	s1,-32700(gp)
9d003468:	0f40265d 	jal	9d009974 <__floatsisf>
9d00346c:	00000000 	nop
9d003470:	00402021 	move	a0,v0
9d003474:	0f401ecc 	jal	9d007b30 <.LFE4>
9d003478:	02002821 	move	a1,s0
9d00347c:	00408021 	move	s0,v0
9d003480:	0f40265d 	jal	9d009974 <__floatsisf>
9d003484:	02402021 	move	a0,s2
9d003488:	00402021 	move	a0,v0
9d00348c:	0f401ecc 	jal	9d007b30 <.LFE4>
9d003490:	02202821 	move	a1,s1
9d003494:	02002021 	move	a0,s0
9d003498:	0f401c27 	jal	9d00709c <__addsf3>
9d00349c:	00402821 	move	a1,v0
9d0034a0:	0f4025af 	jal	9d0096bc <__fixsfsi>
9d0034a4:	00402021 	move	a0,v0
9d0034a8:	af82807c 	sw	v0,-32644(gp)

  if(getModeSimple()=='c'){
9d0034ac:	0f402413 	jal	9d00904c <getModeSimple>
9d0034b0:	00000000 	nop

9d0034b4 <.LVL17>:
9d0034b4:	24030063 	li	v1,99
9d0034b8:	1443000b 	bne	v0,v1,9d0034e8 <.LVL17+0x34>
9d0034bc:	24020001 	li	v0,1
    PHASE = 1;
9d0034c0:	af828010 	sw	v0,-32752(gp)
    if (uI<0){
9d0034c4:	8f82807c 	lw	v0,-32644(gp)
9d0034c8:	04420001 	bltzl	v0,9d0034d0 <.LVL17+0x1c>
9d0034cc:	af808010 	sw	zero,-32752(gp)
      PHASE = 0;
    }
    NU32_LED2 = PHASE;
9d0034d0:	8f848010 	lw	a0,-32752(gp)
9d0034d4:	3c02bf88 	lui	v0,0xbf88
9d0034d8:	90436160 	lbu	v1,24928(v0)
9d0034dc:	7c830844 	ins	v1,a0,0x1,0x1
9d0034e0:	a0436160 	sb	v1,24928(v0)
  }
  PHASE = 1;
9d0034e4:	24020001 	li	v0,1
9d0034e8:	af828010 	sw	v0,-32752(gp)
  if (uI<0){
9d0034ec:	8f82807c 	lw	v0,-32644(gp)
9d0034f0:	04410005 	bgez	v0,9d003508 <.LVL17+0x54>
9d0034f4:	00000000 	nop
    uI = -uI;
9d0034f8:	8f82807c 	lw	v0,-32644(gp)
9d0034fc:	00021023 	negu	v0,v0
9d003500:	af82807c 	sw	v0,-32644(gp)
    PHASE = 0;
9d003504:	af808010 	sw	zero,-32752(gp)
  }
  if (uI > 400){ //set upper limit
9d003508:	8f82807c 	lw	v0,-32644(gp)
9d00350c:	28420191 	slti	v0,v0,401
9d003510:	14400002 	bnez	v0,9d00351c <.LVL17+0x68>
9d003514:	24020190 	li	v0,400
    uI = 400;
9d003518:	af82807c 	sw	v0,-32644(gp)
  }
  OC1RS = (unsigned int) uI*10;
9d00351c:	8f82807c 	lw	v0,-32644(gp)
9d003520:	00021840 	sll	v1,v0,0x1
9d003524:	000210c0 	sll	v0,v0,0x3
9d003528:	00621021 	addu	v0,v1,v0
9d00352c:	3c03bf80 	lui	v1,0xbf80
9d003530:	ac623020 	sw	v0,12320(v1)
}
9d003534:	8fbf001c 	lw	ra,28(sp)
9d003538:	8fb20018 	lw	s2,24(sp)
9d00353c:	8fb10014 	lw	s1,20(sp)
9d003540:	8fb00010 	lw	s0,16(sp)
9d003544:	03e00008 	jr	ra
9d003548:	27bd0020 	addiu	sp,sp,32

9d00354c <Pcontrol>:

void Pcontrol(int Pref, int Pact){
9d00354c:	27bdffd0 	addiu	sp,sp,-48
9d003550:	afbf002c 	sw	ra,44(sp)
9d003554:	afb50028 	sw	s5,40(sp)
9d003558:	afb40024 	sw	s4,36(sp)
9d00355c:	afb30020 	sw	s3,32(sp)
9d003560:	afb2001c 	sw	s2,28(sp)
9d003564:	afb10018 	sw	s1,24(sp)
9d003568:	afb00014 	sw	s0,20(sp)
  PHASE = 1;
9d00356c:	24100001 	li	s0,1
9d003570:	af908010 	sw	s0,-32752(gp)
  Pelast = Pe;
9d003574:	8f82805c 	lw	v0,-32676(gp)
9d003578:	af828068 	sw	v0,-32664(gp)
  Pe = Pref - Pact;
9d00357c:	00852023 	subu	a0,a0,a1
9d003580:	af84805c 	sw	a0,-32676(gp)
  Pie = Pie + Pe;
9d003584:	8f838064 	lw	v1,-32668(gp)
9d003588:	8f82805c 	lw	v0,-32676(gp)
9d00358c:	00621021 	addu	v0,v1,v0
9d003590:	af828064 	sw	v0,-32668(gp)
  Pde = Pe - Pelast;
9d003594:	8f83805c 	lw	v1,-32676(gp)
9d003598:	8f828068 	lw	v0,-32664(gp)
9d00359c:	00621023 	subu	v0,v1,v0
9d0035a0:	af828060 	sw	v0,-32672(gp)
  //FFAngleInfo();
  uP = PKp*Pe + PKd*Pde + PKi*Pie/1000;  //(int) FFon*(1/Kt * (ThetaA + sin(Theta) + ThetaV));
9d0035a4:	8f84805c 	lw	a0,-32676(gp)
9d0035a8:	8f918048 	lw	s1,-32696(gp)
9d0035ac:	8f958060 	lw	s5,-32672(gp)
9d0035b0:	8f94804c 	lw	s4,-32692(gp)
9d0035b4:	8f938064 	lw	s3,-32668(gp)
9d0035b8:	8f928050 	lw	s2,-32688(gp)
9d0035bc:	0f40265d 	jal	9d009974 <__floatsisf>
9d0035c0:	00000000 	nop
9d0035c4:	00402021 	move	a0,v0
9d0035c8:	0f401ecc 	jal	9d007b30 <.LFE4>
9d0035cc:	02202821 	move	a1,s1
9d0035d0:	00408821 	move	s1,v0
9d0035d4:	0f40265d 	jal	9d009974 <__floatsisf>
9d0035d8:	02a02021 	move	a0,s5
9d0035dc:	00402021 	move	a0,v0
9d0035e0:	0f401ecc 	jal	9d007b30 <.LFE4>
9d0035e4:	02802821 	move	a1,s4
9d0035e8:	02202021 	move	a0,s1
9d0035ec:	0f401c27 	jal	9d00709c <__addsf3>
9d0035f0:	00402821 	move	a1,v0
9d0035f4:	00408821 	move	s1,v0
9d0035f8:	0f40265d 	jal	9d009974 <__floatsisf>
9d0035fc:	02602021 	move	a0,s3
9d003600:	00402021 	move	a0,v0
9d003604:	0f401ecc 	jal	9d007b30 <.LFE4>
9d003608:	02402821 	move	a1,s2
9d00360c:	00402021 	move	a0,v0
9d003610:	3c029d01 	lui	v0,0x9d01
9d003614:	0f401cc3 	jal	9d00730c <__divsf3>
9d003618:	8c459630 	lw	a1,-27088(v0)
9d00361c:	02202021 	move	a0,s1
9d003620:	0f401c27 	jal	9d00709c <__addsf3>
9d003624:	00402821 	move	a1,v0
9d003628:	0f4025af 	jal	9d0096bc <__fixsfsi>
9d00362c:	00402021 	move	a0,v0
9d003630:	af828080 	sw	v0,-32640(gp)
  PHASE = 1;
9d003634:	af908010 	sw	s0,-32752(gp)
  if (uP<0){
9d003638:	8f828080 	lw	v0,-32640(gp)
9d00363c:	04410005 	bgez	v0,9d003654 <Pcontrol+0x108>
9d003640:	00000000 	nop
    PHASE = 0;
9d003644:	af808010 	sw	zero,-32752(gp)
    uP = -uP;
9d003648:	8f828080 	lw	v0,-32640(gp)
9d00364c:	00021023 	negu	v0,v0
9d003650:	af828080 	sw	v0,-32640(gp)
  }
  if (uP > 400){ //set upper limit
9d003654:	8f828080 	lw	v0,-32640(gp)
9d003658:	28420191 	slti	v0,v0,401
9d00365c:	14400002 	bnez	v0,9d003668 <Pcontrol+0x11c>
9d003660:	24020190 	li	v0,400
    uP = 400;
9d003664:	af828080 	sw	v0,-32640(gp)
  }
  NU32_LED2 = PHASE;
9d003668:	8f848010 	lw	a0,-32752(gp)
9d00366c:	3c02bf88 	lui	v0,0xbf88
9d003670:	90436160 	lbu	v1,24928(v0)
9d003674:	7c830844 	ins	v1,a0,0x1,0x1
9d003678:	a0436160 	sb	v1,24928(v0)

  if (PHASE){
9d00367c:	8f828010 	lw	v0,-32752(gp)
9d003680:	10400008 	beqz	v0,9d0036a4 <Pcontrol+0x158>
9d003684:	00000000 	nop
    Current  = (int) uP*10;
9d003688:	8f828080 	lw	v0,-32640(gp)
9d00368c:	00021840 	sll	v1,v0,0x1
9d003690:	000210c0 	sll	v0,v0,0x3
9d003694:	00621021 	addu	v0,v1,v0
9d003698:	af828094 	sw	v0,-32620(gp)
9d00369c:	0b400daf 	j	9d0036bc <Pcontrol+0x170>
9d0036a0:	00000000 	nop
  }
  else{
    Current  = (int) -uP*10;
9d0036a4:	8f828080 	lw	v0,-32640(gp)
9d0036a8:	00021840 	sll	v1,v0,0x1
9d0036ac:	000210c0 	sll	v0,v0,0x3
9d0036b0:	00621021 	addu	v0,v1,v0
9d0036b4:	00021023 	negu	v0,v0
9d0036b8:	af828094 	sw	v0,-32620(gp)
  }
  if(abs(Pe)<10){
9d0036bc:	8f83805c 	lw	v1,-32676(gp)
9d0036c0:	000317c3 	sra	v0,v1,0x1f
9d0036c4:	00431826 	xor	v1,v0,v1
9d0036c8:	00621023 	subu	v0,v1,v0
9d0036cc:	2842000a 	slti	v0,v0,10
9d0036d0:	54400001 	bnezl	v0,9d0036d8 <Pcontrol+0x18c>
9d0036d4:	af808094 	sw	zero,-32620(gp)
    Current = 0;
  }
  INTIe = 0;
9d0036d8:	af808058 	sw	zero,-32680(gp)
}
9d0036dc:	8fbf002c 	lw	ra,44(sp)
9d0036e0:	8fb50028 	lw	s5,40(sp)
9d0036e4:	8fb40024 	lw	s4,36(sp)
9d0036e8:	8fb30020 	lw	s3,32(sp)
9d0036ec:	8fb2001c 	lw	s2,28(sp)
9d0036f0:	8fb10018 	lw	s1,24(sp)
9d0036f4:	8fb00014 	lw	s0,20(sp)
9d0036f8:	03e00008 	jr	ra
9d0036fc:	27bd0030 	addiu	sp,sp,48

9d003700 <printToLCD>:

void printToLCD(char * msg) {
9d003700:	27bdffe0 	addiu	sp,sp,-32
9d003704:	afbf001c 	sw	ra,28(sp)
  LCD_WriteString(msg);
9d003708:	0f4016ff 	jal	9d005bfc <LCD_WriteString>
9d00370c:	afb00018 	sw	s0,24(sp)

9d003710 <.LVL31>:
  LCD_WriteString(" ");
9d003710:	3c049d01 	lui	a0,0x9d01
9d003714:	0f4016ff 	jal	9d005bfc <LCD_WriteString>
9d003718:	2484959c 	addiu	a0,a0,-27236

9d00371c <.LVL32>:
  sprintf(mesg,"Kp:%1.1fi:%1.1f", IKp, IKi);
9d00371c:	8f868040 	lw	a2,-32704(gp)
9d003720:	8f878044 	lw	a3,-32700(gp)
9d003724:	3c10a000 	lui	s0,0xa000
9d003728:	260403e4 	addiu	a0,s0,996
9d00372c:	3c059d01 	lui	a1,0x9d01
9d003730:	0f402629 	jal	9d0098a4 <.LFE0>
9d003734:	24a595a0 	addiu	a1,a1,-27232

9d003738 <.LVL33>:
  LCD_WriteString(mesg);
9d003738:	0f4016ff 	jal	9d005bfc <LCD_WriteString>
9d00373c:	260403e4 	addiu	a0,s0,996

9d003740 <.LVL34>:
  LCD_Move(1,0);
9d003740:	24040001 	li	a0,1
9d003744:	0f4016e2 	jal	9d005b88 <LCD_Move>
9d003748:	00002821 	move	a1,zero

9d00374c <.LVL35>:
  sprintf(mesg,"Kp:%1.1fd:%1.1fi:%1.1f ", PKp, PKd, PKi);
9d00374c:	8f868048 	lw	a2,-32696(gp)
9d003750:	8f87804c 	lw	a3,-32692(gp)
9d003754:	8f828050 	lw	v0,-32688(gp)
9d003758:	afa20010 	sw	v0,16(sp)
9d00375c:	260403e4 	addiu	a0,s0,996
9d003760:	3c059d01 	lui	a1,0x9d01
9d003764:	0f402629 	jal	9d0098a4 <.LFE0>
9d003768:	24a595b0 	addiu	a1,a1,-27216

9d00376c <.LVL36>:
  LCD_WriteString(mesg);
9d00376c:	0f4016ff 	jal	9d005bfc <LCD_WriteString>
9d003770:	260403e4 	addiu	a0,s0,996

9d003774 <.LVL37>:
  LCD_Move(0,0);
9d003774:	00002021 	move	a0,zero
9d003778:	0f4016e2 	jal	9d005b88 <LCD_Move>
9d00377c:	00002821 	move	a1,zero

9d003780 <.LVL38>:
}
9d003780:	8fbf001c 	lw	ra,28(sp)
9d003784:	8fb00018 	lw	s0,24(sp)
9d003788:	03e00008 	jr	ra
9d00378c:	27bd0020 	addiu	sp,sp,32

9d003790 <PCONTROLinit>:

void PCONTROLinit(void){
  TRISDbits.TRISD1 = 0;
9d003790:	3c02bf88 	lui	v0,0xbf88
9d003794:	944360c0 	lhu	v1,24768(v0)
9d003798:	7c030844 	ins	v1,zero,0x1,0x1
9d00379c:	a44360c0 	sh	v1,24768(v0)
  T4CONbits.TCKPS = 6; // timer 3 prescalar is 64
9d0037a0:	3c02bf80 	lui	v0,0xbf80
9d0037a4:	94430c00 	lhu	v1,3072(v0)
9d0037a8:	24040006 	li	a0,6
9d0037ac:	7c833104 	ins	v1,a0,0x4,0x3
9d0037b0:	a4430c00 	sh	v1,3072(v0)
  PR4 =  6249; // set period to (6249 + 1)*64*12.5 = 5ms (200Hz)
9d0037b4:	24041869 	li	a0,6249
9d0037b8:	3c03bf80 	lui	v1,0xbf80
9d0037bc:	ac640c20 	sw	a0,3104(v1)
  TMR4 = 0; // set timer 2 to 0
9d0037c0:	3c03bf80 	lui	v1,0xbf80
9d0037c4:	ac600c10 	sw	zero,3088(v1)
  T4CONbits.TGATE = 0; // timer doesn't stop based on signal high or low
9d0037c8:	94430c00 	lhu	v1,3072(v0)
9d0037cc:	7c0339c4 	ins	v1,zero,0x7,0x1
9d0037d0:	a4430c00 	sh	v1,3072(v0)
  IPC4bits.T4IP = 4; // priority level 5
9d0037d4:	3c03bf88 	lui	v1,0xbf88
9d0037d8:	8c6410d0 	lw	a0,4304(v1)
9d0037dc:	24050004 	li	a1,4
9d0037e0:	7ca42084 	ins	a0,a1,0x2,0x3
9d0037e4:	ac6410d0 	sw	a0,4304(v1)
  IPC4bits.T4IS = 0; // subpriority level 0
9d0037e8:	8c6410d0 	lw	a0,4304(v1)
9d0037ec:	7c040804 	ins	a0,zero,0x0,0x2
9d0037f0:	ac6410d0 	sw	a0,4304(v1)
  IFS0bits.T4IF = 0; // interrupt flag off
9d0037f4:	3c03bf88 	lui	v1,0xbf88
9d0037f8:	8c641030 	lw	a0,4144(v1)
9d0037fc:	7c048404 	ins	a0,zero,0x10,0x1
9d003800:	ac641030 	sw	a0,4144(v1)
  IEC0bits.T4IE = 1; // interrupt enable
9d003804:	3c03bf88 	lui	v1,0xbf88
9d003808:	8c651060 	lw	a1,4192(v1)
9d00380c:	24040001 	li	a0,1
9d003810:	7c858404 	ins	a1,a0,0x10,0x1
9d003814:	ac651060 	sw	a1,4192(v1)
  T4CONbits.ON = 1; // turn timer  on
9d003818:	94430c00 	lhu	v1,3072(v0)
9d00381c:	7c837bc4 	ins	v1,a0,0xf,0x1
9d003820:	a4430c00 	sh	v1,3072(v0)
9d003824:	03e00008 	jr	ra
9d003828:	00000000 	nop

9d00382c <ICONTROLinit>:
}

void ICONTROLinit(void){
  // Timer 3 will be utilized for 20kHZ PWM
  PR3 = 3999; // set period to (3999+1)*1*12.5 = 50us (20kHz)
9d00382c:	24030f9f 	li	v1,3999
9d003830:	3c02bf80 	lui	v0,0xbf80
9d003834:	ac430a20 	sw	v1,2592(v0)
  TMR3 = 0; // set timer 3 to 0
9d003838:	3c02bf80 	lui	v0,0xbf80
9d00383c:	ac400a10 	sw	zero,2576(v0)
  OC1CONbits.OCM = 0b110; //PWM mode without fault pin
9d003840:	3c02bf80 	lui	v0,0xbf80
9d003844:	94433000 	lhu	v1,12288(v0)
9d003848:	24050006 	li	a1,6
9d00384c:	7ca31004 	ins	v1,a1,0x0,0x3
9d003850:	a4433000 	sh	v1,12288(v0)
  OC1CONbits.ON = 1; // eanbles output compare module
9d003854:	94443000 	lhu	a0,12288(v0)
9d003858:	24030001 	li	v1,1
9d00385c:	7c647bc4 	ins	a0,v1,0xf,0x1
9d003860:	a4443000 	sh	a0,12288(v0)
  OC1CONbits.OCTSEL = 1; // Timer 3 chosen for OC
9d003864:	94443000 	lhu	a0,12288(v0)
9d003868:	7c6418c4 	ins	a0,v1,0x3,0x1
9d00386c:	a4443000 	sh	a0,12288(v0)
  OC1RS = 0;
9d003870:	3c02bf80 	lui	v0,0xbf80
9d003874:	ac403020 	sw	zero,12320(v0)
  OC1R = 0;
9d003878:	3c02bf80 	lui	v0,0xbf80
9d00387c:	ac403010 	sw	zero,12304(v0)
  T3CONbits.ON = 1; // turn the timer on
9d003880:	3c02bf80 	lui	v0,0xbf80
9d003884:	94440a00 	lhu	a0,2560(v0)
9d003888:	7c647bc4 	ins	a0,v1,0xf,0x1
9d00388c:	a4440a00 	sh	a0,2560(v0)

  // Timer 2 will be utilized for 5kHZ ISR
  T2CONbits.TCKPS = 6; // timer 3 prescalar is 64
9d003890:	3c02bf80 	lui	v0,0xbf80
9d003894:	94440800 	lhu	a0,2048(v0)
9d003898:	7ca43104 	ins	a0,a1,0x4,0x3
9d00389c:	a4440800 	sh	a0,2048(v0)
  PR2 =  249; // set period to (249 + 1)*64*12.5 = .2ms (5kHz)
9d0038a0:	240500f9 	li	a1,249
9d0038a4:	3c04bf80 	lui	a0,0xbf80
9d0038a8:	ac850820 	sw	a1,2080(a0)
  TMR2 = 0; // set timer 2 to 0
9d0038ac:	3c04bf80 	lui	a0,0xbf80
9d0038b0:	ac800810 	sw	zero,2064(a0)
  T2CONbits.TGATE = 0; // timer doesn't stop based on signal high or low
9d0038b4:	94440800 	lhu	a0,2048(v0)
9d0038b8:	7c0439c4 	ins	a0,zero,0x7,0x1
9d0038bc:	a4440800 	sh	a0,2048(v0)
  IPC2bits.T2IP = 5; // priority level 5
9d0038c0:	3c04bf88 	lui	a0,0xbf88
9d0038c4:	8c8510b0 	lw	a1,4272(a0)
9d0038c8:	24060005 	li	a2,5
9d0038cc:	7cc52084 	ins	a1,a2,0x2,0x3
9d0038d0:	ac8510b0 	sw	a1,4272(a0)
  IPC2bits.T2IS = 0; // subpriority level 0
9d0038d4:	8c8510b0 	lw	a1,4272(a0)
9d0038d8:	7c050804 	ins	a1,zero,0x0,0x2
9d0038dc:	ac8510b0 	sw	a1,4272(a0)
  IFS0bits.T2IF = 0; // interrupt flag off
9d0038e0:	3c04bf88 	lui	a0,0xbf88
9d0038e4:	8c851030 	lw	a1,4144(a0)
9d0038e8:	7c054204 	ins	a1,zero,0x8,0x1
9d0038ec:	ac851030 	sw	a1,4144(a0)
  IEC0bits.T2IE = 1; // interrupt enable
9d0038f0:	3c04bf88 	lui	a0,0xbf88
9d0038f4:	8c851060 	lw	a1,4192(a0)
9d0038f8:	7c654204 	ins	a1,v1,0x8,0x1
9d0038fc:	ac851060 	sw	a1,4192(a0)
  T2CONbits.ON = 1; // turn timer 2 on
9d003900:	94440800 	lhu	a0,2048(v0)
9d003904:	7c647bc4 	ins	a0,v1,0xf,0x1
9d003908:	a4440800 	sh	a0,2048(v0)
9d00390c:	03e00008 	jr	ra
9d003910:	00000000 	nop

9d003914 <PController>:
}


void __ISR(_TIMER_4_VECTOR, IPL4SOFT) PController(void){
9d003914:	415de800 	rdpgpr	sp,sp
9d003918:	401a7000 	mfc0	k0,c0_epc
9d00391c:	401b6000 	mfc0	k1,c0_status
9d003920:	27bdff80 	addiu	sp,sp,-128
9d003924:	afba007c 	sw	k0,124(sp)
9d003928:	401a6002 	mfc0	k0,c0_srsctl
9d00392c:	afbb0078 	sw	k1,120(sp)
9d003930:	afba0074 	sw	k0,116(sp)
9d003934:	7c1b7844 	ins	k1,zero,0x1,0xf
9d003938:	377b1000 	ori	k1,k1,0x1000
9d00393c:	409b6000 	mtc0	k1,c0_status
9d003940:	afbf0064 	sw	ra,100(sp)
9d003944:	afb90060 	sw	t9,96(sp)
9d003948:	afb8005c 	sw	t8,92(sp)
9d00394c:	afb20058 	sw	s2,88(sp)
9d003950:	afb10054 	sw	s1,84(sp)
9d003954:	afb00050 	sw	s0,80(sp)
9d003958:	afaf004c 	sw	t7,76(sp)
9d00395c:	afae0048 	sw	t6,72(sp)
9d003960:	afad0044 	sw	t5,68(sp)
9d003964:	afac0040 	sw	t4,64(sp)
9d003968:	afab003c 	sw	t3,60(sp)
9d00396c:	afaa0038 	sw	t2,56(sp)
9d003970:	afa90034 	sw	t1,52(sp)
9d003974:	afa80030 	sw	t0,48(sp)
9d003978:	afa7002c 	sw	a3,44(sp)
9d00397c:	afa60028 	sw	a2,40(sp)
9d003980:	afa50024 	sw	a1,36(sp)
9d003984:	afa40020 	sw	a0,32(sp)
9d003988:	afa3001c 	sw	v1,28(sp)
9d00398c:	afa20018 	sw	v0,24(sp)
9d003990:	afa10014 	sw	at,20(sp)
9d003994:	00001012 	mflo	v0
9d003998:	afa2006c 	sw	v0,108(sp)
9d00399c:	00001810 	mfhi	v1
9d0039a0:	afa30068 	sw	v1,104(sp)
  switch(getModeSimple()){
9d0039a4:	0f402413 	jal	9d00904c <getModeSimple>
9d0039a8:	00000000 	nop

9d0039ac <.LVL39>:
9d0039ac:	24030064 	li	v1,100
9d0039b0:	10430005 	beq	v0,v1,9d0039c8 <.LVL39+0x1c>
9d0039b4:	24030065 	li	v1,101
9d0039b8:	10430072 	beq	v0,v1,9d003b84 <.LVL44+0x40>
9d0039bc:	24030002 	li	v1,2
        setTrack = 1;
      }
      break;
    }
  }
    LATDINV = 0x02;
9d0039c0:	0b400f12 	j	9d003c48 <.LBE2+0x8>
9d0039c4:	3c02bf88 	lui	v0,0xbf88


void __ISR(_TIMER_4_VECTOR, IPL4SOFT) PController(void){
  switch(getModeSimple()){
    case 'd':{ //HOLD MODE
      encoderCounts = encoder_counts();
9d0039c8:	0f402265 	jal	9d008994 <encoder_counts>
9d0039cc:	00000000 	nop

9d0039d0 <.LVL40>:
9d0039d0:	af828028 	sw	v0,-32728(gp)
      encoderCounts = encoder_counts();
9d0039d4:	0f402265 	jal	9d008994 <encoder_counts>
9d0039d8:	00000000 	nop

9d0039dc <.LVL41>:
9d0039dc:	af828028 	sw	v0,-32728(gp)
      if (setTrack==1){
9d0039e0:	8f8380b8 	lw	v1,-32584(gp)
9d0039e4:	24020001 	li	v0,1
9d0039e8:	14620013 	bne	v1,v0,9d003a38 <.LVL41+0x5c>
9d0039ec:	00000000 	nop
      refCounts = 32768 + (int) (refAngle*1760/360);
9d0039f0:	8f828084 	lw	v0,-32636(gp)
9d0039f4:	000218c0 	sll	v1,v0,0x3
9d0039f8:	00022180 	sll	a0,v0,0x6
9d0039fc:	00831823 	subu	v1,a0,v1
9d003a00:	00621023 	subu	v0,v1,v0
9d003a04:	00021140 	sll	v0,v0,0x5
9d003a08:	3c03b60b 	lui	v1,0xb60b
9d003a0c:	246360b7 	addiu	v1,v1,24759
9d003a10:	00430018 	mult	v0,v1
9d003a14:	00001810 	mfhi	v1
9d003a18:	00621821 	addu	v1,v1,v0
9d003a1c:	00031a03 	sra	v1,v1,0x8
9d003a20:	000217c3 	sra	v0,v0,0x1f
9d003a24:	00621023 	subu	v0,v1,v0
9d003a28:	34038000 	li	v1,0x8000
9d003a2c:	00431021 	addu	v0,v0,v1
9d003a30:	af828088 	sw	v0,-32632(gp)
      setTrack = 0;
9d003a34:	af8080b8 	sw	zero,-32584(gp)
      }
      if(refCounts<encoderCounts){
9d003a38:	8f838088 	lw	v1,-32632(gp)
9d003a3c:	8f828028 	lw	v0,-32728(gp)
9d003a40:	0062102a 	slt	v0,v1,v0
9d003a44:	10400005 	beqz	v0,9d003a5c <.LVL41+0x80>
9d003a48:	2402ffff 	li	v0,-1
            c = 1;
9d003a4c:	24020001 	li	v0,1
9d003a50:	af828090 	sw	v0,-32624(gp)
9d003a54:	0b400e98 	j	9d003a60 <.LVL41+0x84>
9d003a58:	00000000 	nop
          }
      else {
            c = -1;
9d003a5c:	af828090 	sw	v0,-32624(gp)
       }
      while(abs(refCounts-encoderCounts)>1760){
9d003a60:	8f838088 	lw	v1,-32632(gp)
9d003a64:	8f828028 	lw	v0,-32728(gp)
9d003a68:	00621823 	subu	v1,v1,v0
9d003a6c:	000317c3 	sra	v0,v1,0x1f
9d003a70:	00431826 	xor	v1,v0,v1
9d003a74:	00621023 	subu	v0,v1,v0
9d003a78:	284206e1 	slti	v0,v0,1761
9d003a7c:	14400013 	bnez	v0,9d003acc <.LVL41+0xf0>
9d003a80:	00000000 	nop
            refCounts = refCounts + c*1760;
9d003a84:	8f828090 	lw	v0,-32624(gp)
9d003a88:	8f838088 	lw	v1,-32632(gp)
9d003a8c:	000220c0 	sll	a0,v0,0x3
9d003a90:	00022980 	sll	a1,v0,0x6
9d003a94:	00a42023 	subu	a0,a1,a0
9d003a98:	00821023 	subu	v0,a0,v0
9d003a9c:	00021140 	sll	v0,v0,0x5
9d003aa0:	00431021 	addu	v0,v0,v1
9d003aa4:	af828088 	sw	v0,-32632(gp)
            c = 1;
          }
      else {
            c = -1;
       }
      while(abs(refCounts-encoderCounts)>1760){
9d003aa8:	8f838088 	lw	v1,-32632(gp)
9d003aac:	8f828028 	lw	v0,-32728(gp)
9d003ab0:	00621823 	subu	v1,v1,v0
9d003ab4:	000317c3 	sra	v0,v1,0x1f
9d003ab8:	00431826 	xor	v1,v0,v1
9d003abc:	00621023 	subu	v0,v1,v0
9d003ac0:	284206e1 	slti	v0,v0,1761
9d003ac4:	1040ffef 	beqz	v0,9d003a84 <.LVL41+0xa8>
9d003ac8:	00000000 	nop
            refCounts = refCounts + c*1760;
          }
      Pcontrol(refCounts,encoderCounts);
9d003acc:	8f848088 	lw	a0,-32632(gp)
9d003ad0:	8f858028 	lw	a1,-32728(gp)
9d003ad4:	0f400d53 	jal	9d00354c <Pcontrol>
9d003ad8:	00000000 	nop

9d003adc <.LVL42>:
      if (TrajDataReady){
9d003adc:	8f828070 	lw	v0,-32656(gp)
9d003ae0:	10400058 	beqz	v0,9d003c44 <.LBE2+0x4>
9d003ae4:	24030002 	li	v1,2
        dataSend = 0;
9d003ae8:	af808078 	sw	zero,-32648(gp)
        while(dataSend<5){
9d003aec:	8f828078 	lw	v0,-32648(gp)
9d003af0:	28420005 	slti	v0,v0,5
9d003af4:	10400052 	beqz	v0,9d003c40 <.LBE2>
9d003af8:	3c12a000 	lui	s2,0xa000
        if(Position<traj_size){
          sprintf(buffer,"%d\n",trajActual[Position]);
9d003afc:	26522400 	addiu	s2,s2,9216
9d003b00:	3c10a000 	lui	s0,0xa000
9d003b04:	261003f8 	addiu	s0,s0,1016
9d003b08:	3c119d01 	lui	s1,0x9d01
          }
      Pcontrol(refCounts,encoderCounts);
      if (TrajDataReady){
        dataSend = 0;
        while(dataSend<5){
        if(Position<traj_size){
9d003b0c:	8f83809c 	lw	v1,-32612(gp)
9d003b10:	8f8280a0 	lw	v0,-32608(gp)
9d003b14:	0062102a 	slt	v0,v1,v0
9d003b18:	1040000f 	beqz	v0,9d003b58 <.LVL44+0x14>
9d003b1c:	00000000 	nop
          sprintf(buffer,"%d\n",trajActual[Position]);
9d003b20:	8f82809c 	lw	v0,-32612(gp)
9d003b24:	00021080 	sll	v0,v0,0x2
9d003b28:	00521021 	addu	v0,v0,s2
9d003b2c:	8c460000 	lw	a2,0(v0)
9d003b30:	02002021 	move	a0,s0
9d003b34:	0f402629 	jal	9d0098a4 <.LFE0>
9d003b38:	262595c8 	addiu	a1,s1,-27192

9d003b3c <.LVL43>:
          NU32_WriteUART3(buffer);
9d003b3c:	0f401ebd 	jal	9d007af4 <NU32_WriteUART3>
9d003b40:	02002021 	move	a0,s0

9d003b44 <.LVL44>:
          Position++;
9d003b44:	8f82809c 	lw	v0,-32612(gp)
9d003b48:	24420001 	addiu	v0,v0,1
9d003b4c:	af82809c 	sw	v0,-32612(gp)
9d003b50:	0b400ed8 	j	9d003b60 <.LVL44+0x1c>
9d003b54:	00000000 	nop
          }
          else {
          Position = 0;
9d003b58:	af80809c 	sw	zero,-32612(gp)
          TrajDataReady = 0;
9d003b5c:	af808070 	sw	zero,-32656(gp)
        }
        dataSend++;
9d003b60:	8f828078 	lw	v0,-32648(gp)
9d003b64:	24420001 	addiu	v0,v0,1
9d003b68:	af828078 	sw	v0,-32648(gp)
            refCounts = refCounts + c*1760;
          }
      Pcontrol(refCounts,encoderCounts);
      if (TrajDataReady){
        dataSend = 0;
        while(dataSend<5){
9d003b6c:	8f828078 	lw	v0,-32648(gp)
9d003b70:	28420005 	slti	v0,v0,5
9d003b74:	1440ffe5 	bnez	v0,9d003b0c <.LVL42+0x30>
9d003b78:	24030002 	li	v1,2
9d003b7c:	0b400f12 	j	9d003c48 <.LBE2+0x8>
9d003b80:	3c02bf88 	lui	v0,0xbf88
      }
    }
      break;
    }
    case 'e':{//TRACK MODE
      if(Position<traj_size){
9d003b84:	8f83809c 	lw	v1,-32612(gp)
9d003b88:	8f8280a0 	lw	v0,-32608(gp)
9d003b8c:	0062102a 	slt	v0,v1,v0
9d003b90:	1040001c 	beqz	v0,9d003c04 <.LBB2>
9d003b94:	00000000 	nop
        encoderCounts = encoder_counts();
9d003b98:	0f402265 	jal	9d008994 <encoder_counts>
9d003b9c:	00000000 	nop

9d003ba0 <.LVL45>:
9d003ba0:	af828028 	sw	v0,-32728(gp)
        encoderCounts = encoder_counts();
9d003ba4:	0f402265 	jal	9d008994 <encoder_counts>
9d003ba8:	00000000 	nop

9d003bac <.LVL46>:
9d003bac:	af828028 	sw	v0,-32728(gp)
        trajActual[Position] = encoderCounts;
9d003bb0:	8f84809c 	lw	a0,-32612(gp)
9d003bb4:	8f838028 	lw	v1,-32728(gp)
9d003bb8:	00042080 	sll	a0,a0,0x2
9d003bbc:	3c02a000 	lui	v0,0xa000
9d003bc0:	24422400 	addiu	v0,v0,9216
9d003bc4:	00821021 	addu	v0,a0,v0
9d003bc8:	ac430000 	sw	v1,0(v0)
        Pcontrol(traj[Position],encoderCounts);
9d003bcc:	8f83809c 	lw	v1,-32612(gp)
9d003bd0:	00031880 	sll	v1,v1,0x2
9d003bd4:	3c02a000 	lui	v0,0xa000
9d003bd8:	244204c0 	addiu	v0,v0,1216
9d003bdc:	00621021 	addu	v0,v1,v0
9d003be0:	8c440000 	lw	a0,0(v0)
9d003be4:	8f858028 	lw	a1,-32728(gp)
9d003be8:	0f400d53 	jal	9d00354c <Pcontrol>
9d003bec:	00000000 	nop

9d003bf0 <.LVL47>:
        Position++;
9d003bf0:	8f82809c 	lw	v0,-32612(gp)
9d003bf4:	24420001 	addiu	v0,v0,1
9d003bf8:	af82809c 	sw	v0,-32612(gp)
9d003bfc:	0b400f11 	j	9d003c44 <.LBE2+0x4>
9d003c00:	24030002 	li	v1,2

9d003c04 <.LBB2>:
      }
      else{
        refCounts = traj[traj_size - 1];
9d003c04:	8f8380a0 	lw	v1,-32608(gp)
9d003c08:	2463ffff 	addiu	v1,v1,-1
9d003c0c:	00031880 	sll	v1,v1,0x2
9d003c10:	3c02a000 	lui	v0,0xa000
9d003c14:	244204c0 	addiu	v0,v0,1216
9d003c18:	00621021 	addu	v0,v1,v0
9d003c1c:	8c420000 	lw	v0,0(v0)
9d003c20:	af828088 	sw	v0,-32632(gp)
        setMode("HOLD");
9d003c24:	3c049d01 	lui	a0,0x9d01
9d003c28:	0f402407 	jal	9d00901c <setMode>
9d003c2c:	248495cc 	addiu	a0,a0,-27188

9d003c30 <.LVL48>:
        TrajDataReady = 1;
9d003c30:	24020001 	li	v0,1
9d003c34:	af828070 	sw	v0,-32656(gp)
        Position = 0;
9d003c38:	af80809c 	sw	zero,-32612(gp)
        setTrack = 1;
9d003c3c:	af8280b8 	sw	v0,-32584(gp)

9d003c40 <.LBE2>:
      }
      break;
    }
  }
    LATDINV = 0x02;
9d003c40:	24030002 	li	v1,2
9d003c44:	3c02bf88 	lui	v0,0xbf88
9d003c48:	ac4360ec 	sw	v1,24812(v0)
    IFS0bits.T4IF=0;
9d003c4c:	3c02bf88 	lui	v0,0xbf88
9d003c50:	8c431030 	lw	v1,4144(v0)
9d003c54:	7c038404 	ins	v1,zero,0x10,0x1
9d003c58:	ac431030 	sw	v1,4144(v0)
}
9d003c5c:	8fa2006c 	lw	v0,108(sp)
9d003c60:	00400013 	mtlo	v0
9d003c64:	8fa30068 	lw	v1,104(sp)
9d003c68:	00600011 	mthi	v1
9d003c6c:	8fbf0064 	lw	ra,100(sp)
9d003c70:	8fb90060 	lw	t9,96(sp)
9d003c74:	8fb8005c 	lw	t8,92(sp)
9d003c78:	8fb20058 	lw	s2,88(sp)
9d003c7c:	8fb10054 	lw	s1,84(sp)
9d003c80:	8fb00050 	lw	s0,80(sp)
9d003c84:	8faf004c 	lw	t7,76(sp)
9d003c88:	8fae0048 	lw	t6,72(sp)
9d003c8c:	8fad0044 	lw	t5,68(sp)
9d003c90:	8fac0040 	lw	t4,64(sp)
9d003c94:	8fab003c 	lw	t3,60(sp)
9d003c98:	8faa0038 	lw	t2,56(sp)
9d003c9c:	8fa90034 	lw	t1,52(sp)
9d003ca0:	8fa80030 	lw	t0,48(sp)
9d003ca4:	8fa7002c 	lw	a3,44(sp)
9d003ca8:	8fa60028 	lw	a2,40(sp)
9d003cac:	8fa50024 	lw	a1,36(sp)
9d003cb0:	8fa40020 	lw	a0,32(sp)
9d003cb4:	8fa3001c 	lw	v1,28(sp)
9d003cb8:	8fa20018 	lw	v0,24(sp)
9d003cbc:	8fa10014 	lw	at,20(sp)
9d003cc0:	41606000 	di
9d003cc4:	000000c0 	ehb
9d003cc8:	8fba007c 	lw	k0,124(sp)
9d003ccc:	8fbb0078 	lw	k1,120(sp)
9d003cd0:	409a7000 	mtc0	k0,c0_epc
9d003cd4:	8fba0074 	lw	k0,116(sp)
9d003cd8:	27bd0080 	addiu	sp,sp,128
9d003cdc:	409a6002 	mtc0	k0,c0_srsctl
9d003ce0:	41dde800 	wrpgpr	sp,sp
9d003ce4:	409b6000 	mtc0	k1,c0_status
9d003ce8:	42000018 	eret

9d003cec <Controller>:

void __ISR(_TIMER_2_VECTOR, IPL5SOFT) Controller(void){
9d003cec:	415de800 	rdpgpr	sp,sp
9d003cf0:	401a7000 	mfc0	k0,c0_epc
9d003cf4:	401b6000 	mfc0	k1,c0_status
9d003cf8:	27bdff80 	addiu	sp,sp,-128
9d003cfc:	afba007c 	sw	k0,124(sp)
9d003d00:	401a6002 	mfc0	k0,c0_srsctl
9d003d04:	afbb0078 	sw	k1,120(sp)
9d003d08:	afba0074 	sw	k0,116(sp)
9d003d0c:	7c1b7844 	ins	k1,zero,0x1,0xf
9d003d10:	377b1400 	ori	k1,k1,0x1400
9d003d14:	409b6000 	mtc0	k1,c0_status
9d003d18:	afbf0064 	sw	ra,100(sp)
9d003d1c:	afb90060 	sw	t9,96(sp)
9d003d20:	afb8005c 	sw	t8,92(sp)
9d003d24:	afb30058 	sw	s3,88(sp)
9d003d28:	afb20054 	sw	s2,84(sp)
9d003d2c:	afb10050 	sw	s1,80(sp)
9d003d30:	afb0004c 	sw	s0,76(sp)
9d003d34:	afaf0048 	sw	t7,72(sp)
9d003d38:	afae0044 	sw	t6,68(sp)
9d003d3c:	afad0040 	sw	t5,64(sp)
9d003d40:	afac003c 	sw	t4,60(sp)
9d003d44:	afab0038 	sw	t3,56(sp)
9d003d48:	afaa0034 	sw	t2,52(sp)
9d003d4c:	afa90030 	sw	t1,48(sp)
9d003d50:	afa8002c 	sw	t0,44(sp)
9d003d54:	afa70028 	sw	a3,40(sp)
9d003d58:	afa60024 	sw	a2,36(sp)
9d003d5c:	afa50020 	sw	a1,32(sp)
9d003d60:	afa4001c 	sw	a0,28(sp)
9d003d64:	afa30018 	sw	v1,24(sp)
9d003d68:	afa20014 	sw	v0,20(sp)
9d003d6c:	afa10010 	sw	at,16(sp)
9d003d70:	00001012 	mflo	v0
9d003d74:	afa2006c 	sw	v0,108(sp)
9d003d78:	00001810 	mfhi	v1
9d003d7c:	afa30068 	sw	v1,104(sp)
  switch(getModeSimple()){
9d003d80:	0f402413 	jal	9d00904c <getModeSimple>
9d003d84:	00000000 	nop

9d003d88 <.LVL49>:
9d003d88:	2442ff9f 	addiu	v0,v0,-97
9d003d8c:	2c430005 	sltiu	v1,v0,5
9d003d90:	10600098 	beqz	v1,9d003ff4 <.LVL65>
9d003d94:	00021080 	sll	v0,v0,0x2
9d003d98:	3c039d00 	lui	v1,0x9d00
9d003d9c:	24633db0 	addiu	v1,v1,15792
9d003da0:	00621021 	addu	v0,v1,v0
9d003da4:	8c420000 	lw	v0,0(v0)
9d003da8:	00400008 	jr	v0
9d003dac:	00000000 	nop
9d003db0:	9d003dc4 	0x9d003dc4
9d003db4:	9d003e98 	0x9d003e98
9d003db8:	9d003ed8 	0x9d003ed8
9d003dbc:	9d003fa4 	0x9d003fa4
9d003dc0:	9d003fd0 	0x9d003fd0
    case 'a':{ //IDLE MODE
      OC1RS = 0;
9d003dc4:	3c02bf80 	lui	v0,0xbf80
9d003dc8:	ac403020 	sw	zero,12320(v0)
      if (DataReady){
9d003dcc:	8f82806c 	lw	v0,-32660(gp)
9d003dd0:	1040002b 	beqz	v0,9d003e80 <.LVL53+0x24>
9d003dd4:	00000000 	nop
        __builtin_disable_interrupts();
9d003dd8:	41626000 	di	v0
9d003ddc:	000000c0 	ehb
        sprintf(buffer,"%d\n",IcountMax+1);
9d003de0:	3c10a000 	lui	s0,0xa000
9d003de4:	260403f8 	addiu	a0,s0,1016
9d003de8:	3c059d01 	lui	a1,0x9d01
9d003dec:	24a595c8 	addiu	a1,a1,-27192
9d003df0:	0f402629 	jal	9d0098a4 <.LFE0>
9d003df4:	24060064 	li	a2,100

9d003df8 <.LVL50>:
        NU32_WriteUART3(buffer);
9d003df8:	0f401ebd 	jal	9d007af4 <NU32_WriteUART3>
9d003dfc:	260403f8 	addiu	a0,s0,1016

9d003e00 <.LVL51>:
        while(Icount<=IcountMax){
9d003e00:	8f828034 	lw	v0,-32716(gp)
9d003e04:	28420064 	slti	v0,v0,100
9d003e08:	1040001b 	beqz	v0,9d003e78 <.LVL53+0x1c>
9d003e0c:	3c13a000 	lui	s3,0xa000
          sprintf(buffer,"%d %d\n",IrefArray[Icount],IactArray[Icount]);
9d003e10:	267300c4 	addiu	s3,s3,196
9d003e14:	3c12a000 	lui	s2,0xa000
9d003e18:	26520254 	addiu	s2,s2,596
9d003e1c:	261003f8 	addiu	s0,s0,1016
9d003e20:	3c119d01 	lui	s1,0x9d01
9d003e24:	263195d4 	addiu	s1,s1,-27180
9d003e28:	8f828034 	lw	v0,-32716(gp)
9d003e2c:	00021080 	sll	v0,v0,0x2
9d003e30:	00531021 	addu	v0,v0,s3
9d003e34:	8c460000 	lw	a2,0(v0)
9d003e38:	8f828034 	lw	v0,-32716(gp)
9d003e3c:	00021080 	sll	v0,v0,0x2
9d003e40:	00521021 	addu	v0,v0,s2
9d003e44:	8c470000 	lw	a3,0(v0)
9d003e48:	02002021 	move	a0,s0
9d003e4c:	0f402629 	jal	9d0098a4 <.LFE0>
9d003e50:	02202821 	move	a1,s1

9d003e54 <.LVL52>:
          NU32_WriteUART3(buffer);
9d003e54:	0f401ebd 	jal	9d007af4 <NU32_WriteUART3>
9d003e58:	02002021 	move	a0,s0

9d003e5c <.LVL53>:
          Icount++;
9d003e5c:	8f828034 	lw	v0,-32716(gp)
9d003e60:	24420001 	addiu	v0,v0,1
9d003e64:	af828034 	sw	v0,-32716(gp)
      OC1RS = 0;
      if (DataReady){
        __builtin_disable_interrupts();
        sprintf(buffer,"%d\n",IcountMax+1);
        NU32_WriteUART3(buffer);
        while(Icount<=IcountMax){
9d003e68:	8f828034 	lw	v0,-32716(gp)
9d003e6c:	28420064 	slti	v0,v0,100
9d003e70:	1440ffed 	bnez	v0,9d003e28 <.LVL51+0x28>
9d003e74:	00000000 	nop
          sprintf(buffer,"%d %d\n",IrefArray[Icount],IactArray[Icount]);
          NU32_WriteUART3(buffer);
          Icount++;
        }
        DataReady = 0;
9d003e78:	af80806c 	sw	zero,-32660(gp)
        Icount = 0;
9d003e7c:	af808034 	sw	zero,-32716(gp)
      }
      __builtin_enable_interrupts();
9d003e80:	41626020 	ei	v0
      
      printToLCD("IDLE");
9d003e84:	3c049d01 	lui	a0,0x9d01
9d003e88:	0f400dc0 	jal	9d003700 <printToLCD>
9d003e8c:	248495dc 	addiu	a0,a0,-27172

9d003e90 <.LVL54>:
      break;
9d003e90:	0b400ffe 	j	9d003ff8 <.LVL65+0x4>
9d003e94:	3c02bf88 	lui	v0,0xbf88
    }
    case 'b':{ //PWM MODE
      printToLCD("PWM");
9d003e98:	3c049d01 	lui	a0,0x9d01
9d003e9c:	0f400dc0 	jal	9d003700 <printToLCD>
9d003ea0:	248495e4 	addiu	a0,a0,-27164

9d003ea4 <.LVL55>:
      NU32_LED2 = PHASE;
9d003ea4:	8f848010 	lw	a0,-32752(gp)
9d003ea8:	3c02bf88 	lui	v0,0xbf88
9d003eac:	90436160 	lbu	v1,24928(v0)
9d003eb0:	7c830844 	ins	v1,a0,0x1,0x1
9d003eb4:	a0436160 	sb	v1,24928(v0)
      OC1RS = PWM*40;
9d003eb8:	8f828030 	lw	v0,-32720(gp)
9d003ebc:	000218c0 	sll	v1,v0,0x3
9d003ec0:	00021140 	sll	v0,v0,0x5
9d003ec4:	00621021 	addu	v0,v1,v0
9d003ec8:	3c03bf80 	lui	v1,0xbf80
9d003ecc:	ac623020 	sw	v0,12320(v1)
      break;
9d003ed0:	0b400ffe 	j	9d003ff8 <.LVL65+0x4>
9d003ed4:	3c02bf88 	lui	v0,0xbf88
    }
    case 'c':{ //ITEST MODE
     if(IIcount == 25){
9d003ed8:	8f838038 	lw	v1,-32712(gp)
9d003edc:	24020019 	li	v0,25
9d003ee0:	14620005 	bne	v1,v0,9d003ef8 <.LVL55+0x54>
9d003ee4:	00000000 	nop
        Iref = -Iref;
9d003ee8:	8f828014 	lw	v0,-32748(gp)
9d003eec:	00021023 	negu	v0,v0
9d003ef0:	af828014 	sw	v0,-32748(gp)
        IIcount = 0;
9d003ef4:	af808038 	sw	zero,-32712(gp)
      }

      ADC = readADC();
9d003ef8:	0f400cbb 	jal	9d0032ec <readADC>
9d003efc:	00000000 	nop

9d003f00 <.LVL56>:
9d003f00:	af82802c 	sw	v0,-32724(gp)
      Iact = ADCtoCurrent();
9d003f04:	0f400ca9 	jal	9d0032a4 <ADCtoCurrent>
9d003f08:	00000000 	nop

9d003f0c <.LVL57>:
9d003f0c:	af82803c 	sw	v0,-32708(gp)
      IrefArray[Icount]=Iref;
9d003f10:	8f848034 	lw	a0,-32716(gp)
9d003f14:	8f838014 	lw	v1,-32748(gp)
9d003f18:	00042080 	sll	a0,a0,0x2
9d003f1c:	3c02a000 	lui	v0,0xa000
9d003f20:	244200c4 	addiu	v0,v0,196
9d003f24:	00821021 	addu	v0,a0,v0
9d003f28:	ac430000 	sw	v1,0(v0)
      IactArray[Icount]=Iact;
9d003f2c:	8f848034 	lw	a0,-32716(gp)
9d003f30:	8f83803c 	lw	v1,-32708(gp)
9d003f34:	00042080 	sll	a0,a0,0x2
9d003f38:	3c02a000 	lui	v0,0xa000
9d003f3c:	24420254 	addiu	v0,v0,596
9d003f40:	00821021 	addu	v0,a0,v0
9d003f44:	ac430000 	sw	v1,0(v0)
      Icontrol(Iref,Iact);
9d003f48:	8f848014 	lw	a0,-32748(gp)
9d003f4c:	8f85803c 	lw	a1,-32708(gp)
9d003f50:	0f400d0b 	jal	9d00342c <Icontrol>
9d003f54:	00000000 	nop

9d003f58 <.LVL58>:
      Icount++;
9d003f58:	8f828034 	lw	v0,-32716(gp)
9d003f5c:	24420001 	addiu	v0,v0,1
9d003f60:	af828034 	sw	v0,-32716(gp)
      IIcount++;
9d003f64:	8f828038 	lw	v0,-32712(gp)
9d003f68:	24420001 	addiu	v0,v0,1
9d003f6c:	af828038 	sw	v0,-32712(gp)

      if (Icount == IcountMax){
9d003f70:	8f838034 	lw	v1,-32716(gp)
9d003f74:	24020063 	li	v0,99
9d003f78:	5462001f 	bnel	v1,v0,9d003ff8 <.LVL65+0x4>
9d003f7c:	3c02bf88 	lui	v0,0xbf88

9d003f80 <.LBB3>:
        setMode("IDLE");
9d003f80:	3c049d01 	lui	a0,0x9d01
9d003f84:	0f402407 	jal	9d00901c <setMode>
9d003f88:	248495dc 	addiu	a0,a0,-27172

9d003f8c <.LVL59>:
        Icount = 0;
9d003f8c:	af808034 	sw	zero,-32716(gp)
        IIcount = 0;
9d003f90:	af808038 	sw	zero,-32712(gp)
        DataReady = 1;
9d003f94:	24020001 	li	v0,1
9d003f98:	af82806c 	sw	v0,-32660(gp)

9d003f9c <.LBE3>:
      printToLCD("TRACK");
      break;
    }

  }
  IFS0bits.T2IF=0; // interrupt has been handled, flag turns off
9d003f9c:	0b400ffe 	j	9d003ff8 <.LVL65+0x4>
9d003fa0:	3c02bf88 	lui	v0,0xbf88
        DataReady = 1;
      }
      break;
    }
    case 'd':{ //HOLD MODE
      Icontrol((int) Current,ADCtoCurrent());
9d003fa4:	8f908094 	lw	s0,-32620(gp)
9d003fa8:	0f400ca9 	jal	9d0032a4 <ADCtoCurrent>
9d003fac:	00000000 	nop

9d003fb0 <.LVL60>:
9d003fb0:	02002021 	move	a0,s0
9d003fb4:	0f400d0b 	jal	9d00342c <Icontrol>
9d003fb8:	00402821 	move	a1,v0

9d003fbc <.LVL61>:
      printToLCD("HOLD");
9d003fbc:	3c049d01 	lui	a0,0x9d01
9d003fc0:	0f400dc0 	jal	9d003700 <printToLCD>
9d003fc4:	248495cc 	addiu	a0,a0,-27188

9d003fc8 <.LVL62>:
      break;
9d003fc8:	0b400ffe 	j	9d003ff8 <.LVL65+0x4>
9d003fcc:	3c02bf88 	lui	v0,0xbf88
    }
    case 'e':{ //TRACK MODE
      Icontrol((int) Current,ADCtoCurrent());
9d003fd0:	8f908094 	lw	s0,-32620(gp)
9d003fd4:	0f400ca9 	jal	9d0032a4 <ADCtoCurrent>
9d003fd8:	00000000 	nop

9d003fdc <.LVL63>:
9d003fdc:	02002021 	move	a0,s0
9d003fe0:	0f400d0b 	jal	9d00342c <Icontrol>
9d003fe4:	00402821 	move	a1,v0

9d003fe8 <.LVL64>:
      printToLCD("TRACK");
9d003fe8:	3c049d01 	lui	a0,0x9d01
9d003fec:	0f400dc0 	jal	9d003700 <printToLCD>
9d003ff0:	248495e8 	addiu	a0,a0,-27160

9d003ff4 <.LVL65>:
      break;
    }

  }
  IFS0bits.T2IF=0; // interrupt has been handled, flag turns off
9d003ff4:	3c02bf88 	lui	v0,0xbf88
9d003ff8:	8c431030 	lw	v1,4144(v0)
9d003ffc:	7c034204 	ins	v1,zero,0x8,0x1
9d004000:	ac431030 	sw	v1,4144(v0)
};
9d004004:	8fa2006c 	lw	v0,108(sp)
9d004008:	00400013 	mtlo	v0
9d00400c:	8fa30068 	lw	v1,104(sp)
9d004010:	00600011 	mthi	v1
9d004014:	8fbf0064 	lw	ra,100(sp)
9d004018:	8fb90060 	lw	t9,96(sp)
9d00401c:	8fb8005c 	lw	t8,92(sp)
9d004020:	8fb30058 	lw	s3,88(sp)
9d004024:	8fb20054 	lw	s2,84(sp)
9d004028:	8fb10050 	lw	s1,80(sp)
9d00402c:	8fb0004c 	lw	s0,76(sp)
9d004030:	8faf0048 	lw	t7,72(sp)
9d004034:	8fae0044 	lw	t6,68(sp)
9d004038:	8fad0040 	lw	t5,64(sp)
9d00403c:	8fac003c 	lw	t4,60(sp)
9d004040:	8fab0038 	lw	t3,56(sp)
9d004044:	8faa0034 	lw	t2,52(sp)
9d004048:	8fa90030 	lw	t1,48(sp)
9d00404c:	8fa8002c 	lw	t0,44(sp)
9d004050:	8fa70028 	lw	a3,40(sp)
9d004054:	8fa60024 	lw	a2,36(sp)
9d004058:	8fa50020 	lw	a1,32(sp)
9d00405c:	8fa4001c 	lw	a0,28(sp)
9d004060:	8fa30018 	lw	v1,24(sp)
9d004064:	8fa20014 	lw	v0,20(sp)
9d004068:	8fa10010 	lw	at,16(sp)
9d00406c:	41606000 	di
9d004070:	000000c0 	ehb
9d004074:	8fba007c 	lw	k0,124(sp)
9d004078:	8fbb0078 	lw	k1,120(sp)
9d00407c:	409a7000 	mtc0	k0,c0_epc
9d004080:	8fba0074 	lw	k0,116(sp)
9d004084:	27bd0080 	addiu	sp,sp,128
9d004088:	409a6002 	mtc0	k0,c0_srsctl
9d00408c:	41dde800 	wrpgpr	sp,sp
9d004090:	409b6000 	mtc0	k1,c0_status
9d004094:	42000018 	eret

9d004098 <main>:

int main()
{
9d004098:	27bdffc8 	addiu	sp,sp,-56
9d00409c:	afbf0034 	sw	ra,52(sp)
9d0040a0:	afb60030 	sw	s6,48(sp)
9d0040a4:	afb5002c 	sw	s5,44(sp)
9d0040a8:	afb40028 	sw	s4,40(sp)
9d0040ac:	afb30024 	sw	s3,36(sp)
9d0040b0:	afb20020 	sw	s2,32(sp)
9d0040b4:	afb1001c 	sw	s1,28(sp)
9d0040b8:	afb00018 	sw	s0,24(sp)
  __builtin_disable_interrupts();
9d0040bc:	41626000 	di	v0
9d0040c0:	000000c0 	ehb
  PCONTROLinit(); //Initiali 200 Hz position controller ISR
9d0040c4:	0f400de4 	jal	9d003790 <PCONTROLinit>
9d0040c8:	00000000 	nop

9d0040cc <.LVL66>:
  ICONTROLinit();
9d0040cc:	0f400e0b 	jal	9d00382c <ICONTROLinit>
9d0040d0:	00000000 	nop

9d0040d4 <.LVL67>:
  LCD_Setup(); // Begin communicating with LCD
9d0040d4:	0f40165f 	jal	9d00597c <LCD_Setup>
9d0040d8:	00000000 	nop

9d0040dc <.LVL68>:
  LCD_Clear(); // Clear the LCD
9d0040dc:	0f4016a2 	jal	9d005a88 <LCD_Clear>
9d0040e0:	00000000 	nop

9d0040e4 <.LVL69>:
  LCD_Move(0,0);
9d0040e4:	00002021 	move	a0,zero
9d0040e8:	0f4016e2 	jal	9d005b88 <LCD_Move>
9d0040ec:	00002821 	move	a1,zero

9d0040f0 <.LVL70>:
  ADCinitialize();
9d0040f0:	0f4026b7 	jal	9d009adc <.LFE0>
9d0040f4:	00000000 	nop

9d0040f8 <.LVL71>:
  setMode("IDLE");
9d0040f8:	3c049d01 	lui	a0,0x9d01
9d0040fc:	0f402407 	jal	9d00901c <setMode>
9d004100:	248495dc 	addiu	a0,a0,-27172

9d004104 <.LVL72>:
  NU32_Startup(); // cache on, min flash wait, interrupts on, LED/button init, UART init
9d004104:	0f401e5b 	jal	9d00796c <.LFE29>
9d004108:	00000000 	nop

9d00410c <.LVL73>:
  NU32_LED1 = 1;  // turn off the LEDs
9d00410c:	3c02bf88 	lui	v0,0xbf88
9d004110:	90436160 	lbu	v1,24928(v0)
9d004114:	24040001 	li	a0,1
9d004118:	7c830004 	ins	v1,a0,0x0,0x1
9d00411c:	a0436160 	sb	v1,24928(v0)
  NU32_LED2 = 1;
9d004120:	90436160 	lbu	v1,24928(v0)
9d004124:	7c830844 	ins	v1,a0,0x1,0x1
9d004128:	a0436160 	sb	v1,24928(v0)
  encoder_init();
9d00412c:	0f402273 	jal	9d0089cc <encoder_init>
9d004130:	00000000 	nop

9d004134 <.LVL74>:
  __builtin_enable_interrupts();
9d004134:	41626020 	ei	v0
  // in future, initialize modules or peripherals here

  while(1)
  {
    NU32_ReadUART3(buffer,BUF_SIZE); // we expect the next character to be a menu command
9d004138:	3c12a000 	lui	s2,0xa000
9d00413c:	265003f8 	addiu	s0,s2,1016
    INTIe = 0;
    Pie = 0;
    switch (buffer[0]) {
9d004140:	3c139d00 	lui	s3,0x9d00
9d004144:	26734198 	addiu	s3,s3,16792
        break;
      }
      case 'y':
      {
        NU32_ReadUART3(buffer,BUF_SIZE);
        sscanf(buffer,"%d%d\n", &Kt, &FFon);
9d004148:	3c159d01 	lui	s5,0x9d01
        setMode("IDLE");
        break;
      }
      case 'r':
      {
        sprintf(buffer,"%s\r\n",getMode());
9d00414c:	3c149d01 	lui	s4,0x9d01
        NU32_ReadUART3(buffer,BUF_SIZE);
        sscanf(buffer,"%d\n", &traj_size);
        for (i = 0;i < traj_size;i++){
          NU32_ReadUART3(buffer,BUF_SIZE);
          sscanf(buffer,"%d\n", &trajP);
          traj[i] = trajP;
9d004150:	3c11a000 	lui	s1,0xa000
9d004154:	263104c0 	addiu	s1,s1,1216
  __builtin_enable_interrupts();
  // in future, initialize modules or peripherals here

  while(1)
  {
    NU32_ReadUART3(buffer,BUF_SIZE); // we expect the next character to be a menu command
9d004158:	02002021 	move	a0,s0
9d00415c:	0f401ea0 	jal	9d007a80 <NU32_ReadUART3>
9d004160:	240500c8 	li	a1,200

9d004164 <.LVL75>:
    INTIe = 0;
9d004164:	af808058 	sw	zero,-32680(gp)
    Pie = 0;
9d004168:	af808064 	sw	zero,-32668(gp)
    switch (buffer[0]) {
9d00416c:	924203f8 	lbu	v0,1016(s2)
9d004170:	2442ff9f 	addiu	v0,v0,-97
9d004174:	304300ff 	andi	v1,v0,0xff
9d004178:	2c630019 	sltiu	v1,v1,25
9d00417c:	1060fff6 	beqz	v1,9d004158 <.LVL74+0x24>
9d004180:	304200ff 	andi	v0,v0,0xff
9d004184:	00021080 	sll	v0,v0,0x2
9d004188:	02621021 	addu	v0,s3,v0
9d00418c:	8c420000 	lw	v0,0(v0)
9d004190:	00400008 	jr	v0
9d004194:	00000000 	nop
9d004198:	9d0041fc 	0x9d0041fc
9d00419c:	9d004234 	0x9d004234
9d0041a0:	9d004280 	0x9d004280
9d0041a4:	9d0042cc 	0x9d0042cc
9d0041a8:	9d00430c 	0x9d00430c
9d0041ac:	9d00431c 	0x9d00431c
9d0041b0:	9d004378 	0x9d004378
9d0041b4:	9d004158 	0x9d004158
9d0041b8:	9d0043a4 	0x9d0043a4
9d0041bc:	9d004158 	0x9d004158
9d0041c0:	9d0043d8 	0x9d0043d8
9d0041c4:	9d0043ec 	0x9d0043ec
9d0041c8:	9d00442c 	0x9d00442c
9d0041cc:	9d0044d0 	0x9d0044d0
9d0041d0:	9d004574 	0x9d004574
9d0041d4:	9d004594 	0x9d004594
9d0041d8:	9d0045b0 	0x9d0045b0
9d0041dc:	9d0045cc 	0x9d0045cc
9d0041e0:	9d004158 	0x9d004158
9d0041e4:	9d004158 	0x9d004158
9d0041e8:	9d004158 	0x9d004158
9d0041ec:	9d004158 	0x9d004158
9d0041f0:	9d004158 	0x9d004158
9d0041f4:	9d004158 	0x9d004158
9d0041f8:	9d0045f4 	0x9d0045f4
      case 'a':
      {
        __builtin_disable_interrupts();
9d0041fc:	41626000 	di	v0
9d004200:	000000c0 	ehb
        sprintf(buffer,"%d\r\n",readADC());
9d004204:	0f400cbb 	jal	9d0032ec <readADC>
9d004208:	00000000 	nop

9d00420c <.LVL76>:
9d00420c:	02002021 	move	a0,s0
9d004210:	3c059d01 	lui	a1,0x9d01
9d004214:	24a595f0 	addiu	a1,a1,-27152
9d004218:	0f402629 	jal	9d0098a4 <.LFE0>
9d00421c:	00403021 	move	a2,v0

9d004220 <.LVL77>:
        NU32_WriteUART3(buffer);
9d004220:	0f401ebd 	jal	9d007af4 <NU32_WriteUART3>
9d004224:	02002021 	move	a0,s0

9d004228 <.LVL78>:
        __builtin_enable_interrupts();
9d004228:	41626020 	ei	v0
        break;
9d00422c:	0b401057 	j	9d00415c <.LVL74+0x28>
9d004230:	02002021 	move	a0,s0
      }
      case 'b':
      {
        __builtin_disable_interrupts();
9d004234:	41626000 	di	v0
9d004238:	000000c0 	ehb
        sprintf(buffer,"%d\r\n",readADC());
9d00423c:	0f400cbb 	jal	9d0032ec <readADC>
9d004240:	3c169d01 	lui	s6,0x9d01

9d004244 <.LVL79>:
9d004244:	02002021 	move	a0,s0
9d004248:	26c595f0 	addiu	a1,s6,-27152
9d00424c:	0f402629 	jal	9d0098a4 <.LFE0>
9d004250:	00403021 	move	a2,v0

9d004254 <.LVL80>:
        sprintf(buffer,"%d\r\n", ADCtoCurrent());
9d004254:	0f400ca9 	jal	9d0032a4 <ADCtoCurrent>
9d004258:	00000000 	nop

9d00425c <.LVL81>:
9d00425c:	02002021 	move	a0,s0
9d004260:	26c595f0 	addiu	a1,s6,-27152
9d004264:	0f402629 	jal	9d0098a4 <.LFE0>
9d004268:	00403021 	move	a2,v0

9d00426c <.LVL82>:
        __builtin_enable_interrupts();
9d00426c:	41626020 	ei	v0
        NU32_WriteUART3(buffer);
9d004270:	0f401ebd 	jal	9d007af4 <NU32_WriteUART3>
9d004274:	02002021 	move	a0,s0

9d004278 <.LVL83>:
        break;
9d004278:	0b401057 	j	9d00415c <.LVL74+0x28>
9d00427c:	02002021 	move	a0,s0
      }
      case 'c':
      {
        __builtin_disable_interrupts();
9d004280:	41626000 	di	v0
9d004284:	000000c0 	ehb
        sprintf(buffer,"%d\r\n",encoder_counts());
9d004288:	0f402265 	jal	9d008994 <encoder_counts>
9d00428c:	3c169d01 	lui	s6,0x9d01

9d004290 <.LVL84>:
9d004290:	02002021 	move	a0,s0
9d004294:	26c595f0 	addiu	a1,s6,-27152
9d004298:	0f402629 	jal	9d0098a4 <.LFE0>
9d00429c:	00403021 	move	a2,v0

9d0042a0 <.LVL85>:
        sprintf(buffer,"%d\r\n",encoder_counts());
9d0042a0:	0f402265 	jal	9d008994 <encoder_counts>
9d0042a4:	00000000 	nop

9d0042a8 <.LVL86>:
9d0042a8:	02002021 	move	a0,s0
9d0042ac:	26c595f0 	addiu	a1,s6,-27152
9d0042b0:	0f402629 	jal	9d0098a4 <.LFE0>
9d0042b4:	00403021 	move	a2,v0

9d0042b8 <.LVL87>:
        __builtin_enable_interrupts();
9d0042b8:	41626020 	ei	v0
        NU32_WriteUART3(buffer);
9d0042bc:	0f401ebd 	jal	9d007af4 <NU32_WriteUART3>
9d0042c0:	02002021 	move	a0,s0

9d0042c4 <.LVL88>:
        break;
9d0042c4:	0b401057 	j	9d00415c <.LVL74+0x28>
9d0042c8:	02002021 	move	a0,s0
      }
      case 'd':                      // dummy command for demonstration purposes
      {
        sprintf(buffer,"%d\n",encoder_counts());
9d0042cc:	0f402265 	jal	9d008994 <encoder_counts>
9d0042d0:	3c169d01 	lui	s6,0x9d01

9d0042d4 <.LVL89>:
9d0042d4:	02002021 	move	a0,s0
9d0042d8:	26c595c8 	addiu	a1,s6,-27192
9d0042dc:	0f402629 	jal	9d0098a4 <.LFE0>
9d0042e0:	00403021 	move	a2,v0

9d0042e4 <.LVL90>:
        sprintf(buffer,"%d\n",encoder_counts());
9d0042e4:	0f402265 	jal	9d008994 <encoder_counts>
9d0042e8:	00000000 	nop

9d0042ec <.LVL91>:
9d0042ec:	02002021 	move	a0,s0
9d0042f0:	26c595c8 	addiu	a1,s6,-27192
9d0042f4:	0f402629 	jal	9d0098a4 <.LFE0>
9d0042f8:	00403021 	move	a2,v0

9d0042fc <.LVL92>:
        NU32_WriteUART3(buffer);
9d0042fc:	0f401ebd 	jal	9d007af4 <NU32_WriteUART3>
9d004300:	02002021 	move	a0,s0

9d004304 <.LVL93>:
        break;
9d004304:	0b401057 	j	9d00415c <.LVL74+0x28>
9d004308:	02002021 	move	a0,s0
      }
      case 'e':
      {
        encoder_reset();
9d00430c:	0f40226c 	jal	9d0089b0 <encoder_reset>
9d004310:	00000000 	nop

9d004314 <.LVL94>:
        break;
9d004314:	0b401057 	j	9d00415c <.LVL74+0x28>
9d004318:	02002021 	move	a0,s0
      }
      case 'f':
      {
        LCD_Clear();
9d00431c:	0f4016a2 	jal	9d005a88 <LCD_Clear>
9d004320:	00000000 	nop

9d004324 <.LVL95>:
        NU32_ReadUART3(buffer,BUF_SIZE);
9d004324:	02002021 	move	a0,s0
9d004328:	0f401ea0 	jal	9d007a80 <NU32_ReadUART3>
9d00432c:	240500c8 	li	a1,200

9d004330 <.LVL96>:
        sscanf(buffer,"%d", &PWM);
9d004330:	02002021 	move	a0,s0
9d004334:	3c059d01 	lui	a1,0x9d01
9d004338:	24a595f8 	addiu	a1,a1,-27144
9d00433c:	0f4026a2 	jal	9d009a88 <_sscanf_cdfFnopuxX>
9d004340:	27868030 	addiu	a2,gp,-32720

9d004344 <.LVL97>:
        PHASE = 1;
9d004344:	24020001 	li	v0,1
9d004348:	af828010 	sw	v0,-32752(gp)
        if(PWM<0){
9d00434c:	8f828030 	lw	v0,-32720(gp)
9d004350:	04430005 	bgezl	v0,9d004368 <.LVL97+0x24>
9d004354:	3c049d01 	lui	a0,0x9d01
          PWM = -1*PWM;
9d004358:	00021023 	negu	v0,v0
9d00435c:	af828030 	sw	v0,-32720(gp)
          PHASE = 0;
9d004360:	af808010 	sw	zero,-32752(gp)
        }
        setMode("PWM");
9d004364:	3c049d01 	lui	a0,0x9d01
9d004368:	0f402407 	jal	9d00901c <setMode>
9d00436c:	248495e4 	addiu	a0,a0,-27164

9d004370 <.LVL98>:
        break;
9d004370:	0b401057 	j	9d00415c <.LVL74+0x28>
9d004374:	02002021 	move	a0,s0
      }
      case 'g':
      {
        NU32_ReadUART3(buffer,BUF_SIZE);
9d004378:	02002021 	move	a0,s0
9d00437c:	0f401ea0 	jal	9d007a80 <NU32_ReadUART3>
9d004380:	240500c8 	li	a1,200

9d004384 <.LVL99>:
        sscanf(buffer,"%f %f", &IKp, &IKi);
9d004384:	02002021 	move	a0,s0
9d004388:	3c059d01 	lui	a1,0x9d01
9d00438c:	24a595fc 	addiu	a1,a1,-27140
9d004390:	27868040 	addiu	a2,gp,-32704
9d004394:	0f4026a2 	jal	9d009a88 <_sscanf_cdfFnopuxX>
9d004398:	27878044 	addiu	a3,gp,-32700

9d00439c <.LVL100>:
        break;
9d00439c:	0b401057 	j	9d00415c <.LVL74+0x28>
9d0043a0:	02002021 	move	a0,s0
      {
        break;
      }
      case 'i':
      {
        NU32_ReadUART3(buffer,BUF_SIZE);
9d0043a4:	02002021 	move	a0,s0
9d0043a8:	0f401ea0 	jal	9d007a80 <NU32_ReadUART3>
9d0043ac:	240500c8 	li	a1,200

9d0043b0 <.LVL101>:
        sscanf(buffer,"%f %f %f", &PKp, &PKd, &PKi);
9d0043b0:	27828050 	addiu	v0,gp,-32688
9d0043b4:	afa20010 	sw	v0,16(sp)
9d0043b8:	02002021 	move	a0,s0
9d0043bc:	3c059d01 	lui	a1,0x9d01
9d0043c0:	24a59604 	addiu	a1,a1,-27132
9d0043c4:	27868048 	addiu	a2,gp,-32696
9d0043c8:	0f4026a2 	jal	9d009a88 <_sscanf_cdfFnopuxX>
9d0043cc:	2787804c 	addiu	a3,gp,-32692

9d0043d0 <.LVL102>:
        break;
9d0043d0:	0b401057 	j	9d00415c <.LVL74+0x28>
9d0043d4:	02002021 	move	a0,s0
      {
        break;
      }
      case 'k':
      {
        setMode("ITEST");
9d0043d8:	3c049d01 	lui	a0,0x9d01
9d0043dc:	0f402407 	jal	9d00901c <setMode>
9d0043e0:	24849610 	addiu	a0,a0,-27120

9d0043e4 <.LVL103>:
        break;
9d0043e4:	0b401057 	j	9d00415c <.LVL74+0x28>
9d0043e8:	02002021 	move	a0,s0
      }
      case 'l':
      {
        NU32_ReadUART3(buffer,BUF_SIZE);
9d0043ec:	02002021 	move	a0,s0
9d0043f0:	0f401ea0 	jal	9d007a80 <NU32_ReadUART3>
9d0043f4:	240500c8 	li	a1,200

9d0043f8 <.LVL104>:
        sscanf(buffer,"%d\n", &refAngle);
9d0043f8:	02002021 	move	a0,s0
9d0043fc:	3c059d01 	lui	a1,0x9d01
9d004400:	24a595c8 	addiu	a1,a1,-27192
9d004404:	0f4026a2 	jal	9d009a88 <_sscanf_cdfFnopuxX>
9d004408:	27868084 	addiu	a2,gp,-32636

9d00440c <.LVL105>:
        Current = 0;
9d00440c:	af808094 	sw	zero,-32620(gp)
        setMode("HOLD");
9d004410:	3c049d01 	lui	a0,0x9d01
9d004414:	0f402407 	jal	9d00901c <setMode>
9d004418:	248495cc 	addiu	a0,a0,-27188

9d00441c <.LVL106>:
        setTrack = 1;
9d00441c:	24020001 	li	v0,1
9d004420:	af8280b8 	sw	v0,-32584(gp)
        break;
9d004424:	0b401057 	j	9d00415c <.LVL74+0x28>
9d004428:	02002021 	move	a0,s0
      }
      case 'm':{
        __builtin_disable_interrupts();
9d00442c:	41626000 	di	v0
9d004430:	000000c0 	ehb
        NU32_ReadUART3(buffer,BUF_SIZE);
9d004434:	02002021 	move	a0,s0
9d004438:	0f401ea0 	jal	9d007a80 <NU32_ReadUART3>
9d00443c:	240500c8 	li	a1,200

9d004440 <.LVL107>:
        sscanf(buffer,"%d\n", &traj_size);
9d004440:	02002021 	move	a0,s0
9d004444:	3c059d01 	lui	a1,0x9d01
9d004448:	24a595c8 	addiu	a1,a1,-27192
9d00444c:	0f4026a2 	jal	9d009a88 <_sscanf_cdfFnopuxX>
9d004450:	278680a0 	addiu	a2,gp,-32608

9d004454 <.LVL108>:
        for (i=0;i<traj_size;i++){
9d004454:	af80808c 	sw	zero,-32628(gp)
9d004458:	8f83808c 	lw	v1,-32628(gp)
9d00445c:	8f8280a0 	lw	v0,-32608(gp)
9d004460:	0062102a 	slt	v0,v1,v0
9d004464:	10400017 	beqz	v0,9d0044c4 <.LVL110+0x34>
9d004468:	00000000 	nop
          NU32_ReadUART3(buffer,BUF_SIZE);
          sscanf(buffer,"%d\n", &trajP);
9d00446c:	3c169d01 	lui	s6,0x9d01
9d004470:	26d695c8 	addiu	s6,s6,-27192
      case 'm':{
        __builtin_disable_interrupts();
        NU32_ReadUART3(buffer,BUF_SIZE);
        sscanf(buffer,"%d\n", &traj_size);
        for (i=0;i<traj_size;i++){
          NU32_ReadUART3(buffer,BUF_SIZE);
9d004474:	02002021 	move	a0,s0
9d004478:	0f401ea0 	jal	9d007a80 <NU32_ReadUART3>
9d00447c:	240500c8 	li	a1,200

9d004480 <.LVL109>:
          sscanf(buffer,"%d\n", &trajP);
9d004480:	02002021 	move	a0,s0
9d004484:	02c02821 	move	a1,s6
9d004488:	0f4026a2 	jal	9d009a88 <_sscanf_cdfFnopuxX>
9d00448c:	27868098 	addiu	a2,gp,-32616

9d004490 <.LVL110>:
          traj[i] = trajP;
9d004490:	8f82808c 	lw	v0,-32628(gp)
9d004494:	8f838098 	lw	v1,-32616(gp)
9d004498:	00021080 	sll	v0,v0,0x2
9d00449c:	00511021 	addu	v0,v0,s1
9d0044a0:	ac430000 	sw	v1,0(v0)
      }
      case 'm':{
        __builtin_disable_interrupts();
        NU32_ReadUART3(buffer,BUF_SIZE);
        sscanf(buffer,"%d\n", &traj_size);
        for (i=0;i<traj_size;i++){
9d0044a4:	8f82808c 	lw	v0,-32628(gp)
9d0044a8:	24420001 	addiu	v0,v0,1
9d0044ac:	af82808c 	sw	v0,-32628(gp)
9d0044b0:	8f83808c 	lw	v1,-32628(gp)
9d0044b4:	8f8280a0 	lw	v0,-32608(gp)
9d0044b8:	0062102a 	slt	v0,v1,v0
9d0044bc:	5440ffee 	bnezl	v0,9d004478 <.LVL108+0x24>
9d0044c0:	02002021 	move	a0,s0
          NU32_ReadUART3(buffer,BUF_SIZE);
          sscanf(buffer,"%d\n", &trajP);
          traj[i] = trajP;
        }
        __builtin_enable_interrupts();
9d0044c4:	41626020 	ei	v0
        break;
9d0044c8:	0b401057 	j	9d00415c <.LVL74+0x28>
9d0044cc:	02002021 	move	a0,s0
      }
      case 'n':{
        __builtin_disable_interrupts();
9d0044d0:	41626000 	di	v0
9d0044d4:	000000c0 	ehb
        NU32_ReadUART3(buffer,BUF_SIZE);
9d0044d8:	02002021 	move	a0,s0
9d0044dc:	0f401ea0 	jal	9d007a80 <NU32_ReadUART3>
9d0044e0:	240500c8 	li	a1,200

9d0044e4 <.LVL111>:
        sscanf(buffer,"%d\n", &traj_size);
9d0044e4:	02002021 	move	a0,s0
9d0044e8:	3c059d01 	lui	a1,0x9d01
9d0044ec:	24a595c8 	addiu	a1,a1,-27192
9d0044f0:	0f4026a2 	jal	9d009a88 <_sscanf_cdfFnopuxX>
9d0044f4:	278680a0 	addiu	a2,gp,-32608

9d0044f8 <.LVL112>:
        for (i = 0;i < traj_size;i++){
9d0044f8:	af80808c 	sw	zero,-32628(gp)
9d0044fc:	8f83808c 	lw	v1,-32628(gp)
9d004500:	8f8280a0 	lw	v0,-32608(gp)
9d004504:	0062102a 	slt	v0,v1,v0
9d004508:	10400017 	beqz	v0,9d004568 <.LVL114+0x34>
9d00450c:	00000000 	nop
          NU32_ReadUART3(buffer,BUF_SIZE);
          sscanf(buffer,"%d\n", &trajP);
9d004510:	3c169d01 	lui	s6,0x9d01
9d004514:	26d695c8 	addiu	s6,s6,-27192
      case 'n':{
        __builtin_disable_interrupts();
        NU32_ReadUART3(buffer,BUF_SIZE);
        sscanf(buffer,"%d\n", &traj_size);
        for (i = 0;i < traj_size;i++){
          NU32_ReadUART3(buffer,BUF_SIZE);
9d004518:	02002021 	move	a0,s0
9d00451c:	0f401ea0 	jal	9d007a80 <NU32_ReadUART3>
9d004520:	240500c8 	li	a1,200

9d004524 <.LVL113>:
          sscanf(buffer,"%d\n", &trajP);
9d004524:	02002021 	move	a0,s0
9d004528:	02c02821 	move	a1,s6
9d00452c:	0f4026a2 	jal	9d009a88 <_sscanf_cdfFnopuxX>
9d004530:	27868098 	addiu	a2,gp,-32616

9d004534 <.LVL114>:
          traj[i] = trajP;
9d004534:	8f82808c 	lw	v0,-32628(gp)
9d004538:	8f838098 	lw	v1,-32616(gp)
9d00453c:	00021080 	sll	v0,v0,0x2
9d004540:	00511021 	addu	v0,v0,s1
9d004544:	ac430000 	sw	v1,0(v0)
      }
      case 'n':{
        __builtin_disable_interrupts();
        NU32_ReadUART3(buffer,BUF_SIZE);
        sscanf(buffer,"%d\n", &traj_size);
        for (i = 0;i < traj_size;i++){
9d004548:	8f82808c 	lw	v0,-32628(gp)
9d00454c:	24420001 	addiu	v0,v0,1
9d004550:	af82808c 	sw	v0,-32628(gp)
9d004554:	8f83808c 	lw	v1,-32628(gp)
9d004558:	8f8280a0 	lw	v0,-32608(gp)
9d00455c:	0062102a 	slt	v0,v1,v0
9d004560:	5440ffee 	bnezl	v0,9d00451c <.LVL112+0x24>
9d004564:	02002021 	move	a0,s0
          NU32_ReadUART3(buffer,BUF_SIZE);
          sscanf(buffer,"%d\n", &trajP);
          traj[i] = trajP;
        }
        __builtin_enable_interrupts();
9d004568:	41626020 	ei	v0
        break;
9d00456c:	0b401057 	j	9d00415c <.LVL74+0x28>
9d004570:	02002021 	move	a0,s0
      }
      case 'o':{
        FFAngleInit();
9d004574:	0f400c9f 	jal	9d00327c <FFAngleInit>
9d004578:	00000000 	nop

9d00457c <.LVL115>:
        Position = 0;
9d00457c:	af80809c 	sw	zero,-32612(gp)
        setMode("TRACK");
9d004580:	3c049d01 	lui	a0,0x9d01
9d004584:	0f402407 	jal	9d00901c <setMode>
9d004588:	248495e8 	addiu	a0,a0,-27160

9d00458c <.LVL116>:
        break;
9d00458c:	0b401057 	j	9d00415c <.LVL74+0x28>
9d004590:	02002021 	move	a0,s0
      }
      case 'p':
      {
        LCD_Clear();
9d004594:	0f4016a2 	jal	9d005a88 <LCD_Clear>
9d004598:	00000000 	nop

9d00459c <.LVL117>:
        setMode("IDLE");
9d00459c:	3c049d01 	lui	a0,0x9d01
9d0045a0:	0f402407 	jal	9d00901c <setMode>
9d0045a4:	248495dc 	addiu	a0,a0,-27172

9d0045a8 <.LVL118>:
        break;
9d0045a8:	0b401057 	j	9d00415c <.LVL74+0x28>
9d0045ac:	02002021 	move	a0,s0
      }
      case 'q':
      {
        LCD_Clear();
9d0045b0:	0f4016a2 	jal	9d005a88 <LCD_Clear>
9d0045b4:	00000000 	nop

9d0045b8 <.LVL119>:
        setMode("IDLE");
9d0045b8:	3c049d01 	lui	a0,0x9d01
9d0045bc:	0f402407 	jal	9d00901c <setMode>
9d0045c0:	248495dc 	addiu	a0,a0,-27172

9d0045c4 <.LVL120>:
        break;
9d0045c4:	0b401057 	j	9d00415c <.LVL74+0x28>
9d0045c8:	02002021 	move	a0,s0
      }
      case 'r':
      {
        sprintf(buffer,"%s\r\n",getMode());
9d0045cc:	0f402410 	jal	9d009040 <getMode>
9d0045d0:	00000000 	nop

9d0045d4 <.LVL121>:
9d0045d4:	02002021 	move	a0,s0
9d0045d8:	26859618 	addiu	a1,s4,-27112
9d0045dc:	0f402629 	jal	9d0098a4 <.LFE0>
9d0045e0:	00403021 	move	a2,v0

9d0045e4 <.LVL122>:
        NU32_WriteUART3(buffer);
9d0045e4:	0f401ebd 	jal	9d007af4 <NU32_WriteUART3>
9d0045e8:	02002021 	move	a0,s0

9d0045ec <.LVL123>:
        break;
9d0045ec:	0b401057 	j	9d00415c <.LVL74+0x28>
9d0045f0:	02002021 	move	a0,s0
      }
      case 'y':
      {
        NU32_ReadUART3(buffer,BUF_SIZE);
9d0045f4:	02002021 	move	a0,s0
9d0045f8:	0f401ea0 	jal	9d007a80 <NU32_ReadUART3>
9d0045fc:	240500c8 	li	a1,200

9d004600 <.LVL124>:
        sscanf(buffer,"%d%d\n", &Kt, &FFon);
9d004600:	02002021 	move	a0,s0
9d004604:	26a59620 	addiu	a1,s5,-27104
9d004608:	27868018 	addiu	a2,gp,-32744
9d00460c:	0f4026a2 	jal	9d009a88 <_sscanf_cdfFnopuxX>
9d004610:	27878074 	addiu	a3,gp,-32652

9d004614 <.LVL125>:
        break;
9d004614:	0b401057 	j	9d00415c <.LVL74+0x28>
9d004618:	02002021 	move	a0,s0

Disassembly of section .text._vfscanf_cdfFnopuxX:

9d00461c <_vfscanf_cdfFnopuxX>:
9d00461c:	27bdff78 	addiu	sp,sp,-136
9d004620:	afbf0084 	sw	ra,132(sp)
9d004624:	afbe0080 	sw	s8,128(sp)
9d004628:	afb7007c 	sw	s7,124(sp)
9d00462c:	afb60078 	sw	s6,120(sp)
9d004630:	afb50074 	sw	s5,116(sp)
9d004634:	afb40070 	sw	s4,112(sp)
9d004638:	afb3006c 	sw	s3,108(sp)
9d00463c:	afb20068 	sw	s2,104(sp)
9d004640:	afb10064 	sw	s1,100(sp)
9d004644:	afb00060 	sw	s0,96(sp)
9d004648:	3c13a000 	lui	s3,0xa000
9d00464c:	3c169d01 	lui	s6,0x9d01
9d004650:	26d68b55 	addiu	s6,s6,-29867
9d004654:	afa60090 	sw	a2,144(sp)
9d004658:	ae644434 	sw	a0,17460(s3)
9d00465c:	0000a021 	move	s4,zero
9d004660:	afa00058 	sw	zero,88(sp)
9d004664:	90b00000 	lbu	s0,0(a1)
9d004668:	1200009a 	beqz	s0,9d0048d4 <_vfscanf_cdfFnopuxX+0x2b8>
9d00466c:	24b50001 	addiu	s5,a1,1
9d004670:	02d01021 	addu	v0,s6,s0
9d004674:	80420000 	lb	v0,0(v0)
9d004678:	30420088 	andi	v0,v0,0x88
9d00467c:	144000a2 	bnez	v0,9d004908 <_vfscanf_cdfFnopuxX+0x2ec>
9d004680:	24020025 	li	v0,37
9d004684:	1602008b 	bne	s0,v0,9d0048b4 <_vfscanf_cdfFnopuxX+0x298>
9d004688:	02a08821 	move	s1,s5
9d00468c:	80b20001 	lb	s2,1(a1)
9d004690:	00008021 	move	s0,zero
9d004694:	24030004 	li	v1,4
9d004698:	afa30054 	sw	v1,84(sp)
9d00469c:	afa00050 	sw	zero,80(sp)
9d0046a0:	241e0004 	li	s8,4
9d0046a4:	325200ff 	andi	s2,s2,0xff
9d0046a8:	2e420079 	sltiu	v0,s2,121
9d0046ac:	10400163 	beqz	v0,9d004c3c <_vfscanf_cdfFnopuxX+0x620>
9d0046b0:	26350001 	addiu	s5,s1,1
9d0046b4:	00121080 	sll	v0,s2,0x2
9d0046b8:	3c049d00 	lui	a0,0x9d00
9d0046bc:	248446d0 	addiu	a0,a0,18128
9d0046c0:	00821021 	addu	v0,a0,v0
9d0046c4:	8c420000 	lw	v0,0(v0)
9d0046c8:	00400008 	jr	v0
9d0046cc:	00000000 	nop
9d0046d0:	9d004918 	0x9d004918
9d0046d4:	9d004c3c 	0x9d004c3c
9d0046d8:	9d004c3c 	0x9d004c3c
9d0046dc:	9d004c3c 	0x9d004c3c
9d0046e0:	9d004c3c 	0x9d004c3c
9d0046e4:	9d004c3c 	0x9d004c3c
9d0046e8:	9d004c3c 	0x9d004c3c
9d0046ec:	9d004c3c 	0x9d004c3c
9d0046f0:	9d004c3c 	0x9d004c3c
9d0046f4:	9d004c3c 	0x9d004c3c
9d0046f8:	9d004c3c 	0x9d004c3c
9d0046fc:	9d004c3c 	0x9d004c3c
9d004700:	9d004c3c 	0x9d004c3c
9d004704:	9d004c3c 	0x9d004c3c
9d004708:	9d004c3c 	0x9d004c3c
9d00470c:	9d004c3c 	0x9d004c3c
9d004710:	9d004c3c 	0x9d004c3c
9d004714:	9d004c3c 	0x9d004c3c
9d004718:	9d004c3c 	0x9d004c3c
9d00471c:	9d004c3c 	0x9d004c3c
9d004720:	9d004c3c 	0x9d004c3c
9d004724:	9d004c3c 	0x9d004c3c
9d004728:	9d004c3c 	0x9d004c3c
9d00472c:	9d004c3c 	0x9d004c3c
9d004730:	9d004c3c 	0x9d004c3c
9d004734:	9d004c3c 	0x9d004c3c
9d004738:	9d004c3c 	0x9d004c3c
9d00473c:	9d004c3c 	0x9d004c3c
9d004740:	9d004c3c 	0x9d004c3c
9d004744:	9d004c3c 	0x9d004c3c
9d004748:	9d004c3c 	0x9d004c3c
9d00474c:	9d004c3c 	0x9d004c3c
9d004750:	9d004c3c 	0x9d004c3c
9d004754:	9d004c3c 	0x9d004c3c
9d004758:	9d004c3c 	0x9d004c3c
9d00475c:	9d004c3c 	0x9d004c3c
9d004760:	9d004c3c 	0x9d004c3c
9d004764:	9d004c3c 	0x9d004c3c
9d004768:	9d004c3c 	0x9d004c3c
9d00476c:	9d004c3c 	0x9d004c3c
9d004770:	9d004c3c 	0x9d004c3c
9d004774:	9d004c3c 	0x9d004c3c
9d004778:	9d004d34 	0x9d004d34
9d00477c:	9d004c3c 	0x9d004c3c
9d004780:	9d004c3c 	0x9d004c3c
9d004784:	9d004c3c 	0x9d004c3c
9d004788:	9d004c3c 	0x9d004c3c
9d00478c:	9d004c3c 	0x9d004c3c
9d004790:	9d004c3c 	0x9d004c3c
9d004794:	9d004c3c 	0x9d004c3c
9d004798:	9d004c3c 	0x9d004c3c
9d00479c:	9d004c3c 	0x9d004c3c
9d0047a0:	9d004c3c 	0x9d004c3c
9d0047a4:	9d004c3c 	0x9d004c3c
9d0047a8:	9d004c3c 	0x9d004c3c
9d0047ac:	9d004c3c 	0x9d004c3c
9d0047b0:	9d004c3c 	0x9d004c3c
9d0047b4:	9d004c3c 	0x9d004c3c
9d0047b8:	9d004c3c 	0x9d004c3c
9d0047bc:	9d004c3c 	0x9d004c3c
9d0047c0:	9d004c3c 	0x9d004c3c
9d0047c4:	9d004c3c 	0x9d004c3c
9d0047c8:	9d004c3c 	0x9d004c3c
9d0047cc:	9d004c3c 	0x9d004c3c
9d0047d0:	9d004c3c 	0x9d004c3c
9d0047d4:	9d004c3c 	0x9d004c3c
9d0047d8:	9d004c3c 	0x9d004c3c
9d0047dc:	9d004c3c 	0x9d004c3c
9d0047e0:	9d004c3c 	0x9d004c3c
9d0047e4:	9d004ca0 	0x9d004ca0
9d0047e8:	9d004c3c 	0x9d004c3c
9d0047ec:	9d004ca0 	0x9d004ca0
9d0047f0:	9d004c3c 	0x9d004c3c
9d0047f4:	9d004c3c 	0x9d004c3c
9d0047f8:	9d004c3c 	0x9d004c3c
9d0047fc:	9d004c3c 	0x9d004c3c
9d004800:	9d004d50 	0x9d004d50
9d004804:	9d004c3c 	0x9d004c3c
9d004808:	9d004c3c 	0x9d004c3c
9d00480c:	9d004c3c 	0x9d004c3c
9d004810:	9d004c3c 	0x9d004c3c
9d004814:	9d004c3c 	0x9d004c3c
9d004818:	9d004c3c 	0x9d004c3c
9d00481c:	9d004c3c 	0x9d004c3c
9d004820:	9d004c3c 	0x9d004c3c
9d004824:	9d004c3c 	0x9d004c3c
9d004828:	9d004c3c 	0x9d004c3c
9d00482c:	9d004c3c 	0x9d004c3c
9d004830:	9d004bc4 	0x9d004bc4
9d004834:	9d004c3c 	0x9d004c3c
9d004838:	9d004c3c 	0x9d004c3c
9d00483c:	9d004c3c 	0x9d004c3c
9d004840:	9d004c3c 	0x9d004c3c
9d004844:	9d004c3c 	0x9d004c3c
9d004848:	9d004c3c 	0x9d004c3c
9d00484c:	9d004c3c 	0x9d004c3c
9d004850:	9d004c3c 	0x9d004c3c
9d004854:	9d004c3c 	0x9d004c3c
9d004858:	9d004c3c 	0x9d004c3c
9d00485c:	9d004bd8 	0x9d004bd8
9d004860:	9d004bd0 	0x9d004bd0
9d004864:	9d004ca0 	0x9d004ca0
9d004868:	9d004ca0 	0x9d004ca0
9d00486c:	9d004ca0 	0x9d004ca0
9d004870:	9d004c1c 	0x9d004c1c
9d004874:	9d004bd0 	0x9d004bd0
9d004878:	9d004c3c 	0x9d004c3c
9d00487c:	9d004c3c 	0x9d004c3c
9d004880:	9d004d50 	0x9d004d50
9d004884:	9d004c3c 	0x9d004c3c
9d004888:	9d004c3c 	0x9d004c3c
9d00488c:	9d004964 	0x9d004964
9d004890:	9d004c3c 	0x9d004c3c
9d004894:	9d004c3c 	0x9d004c3c
9d004898:	9d004c3c 	0x9d004c3c
9d00489c:	9d004b10 	0x9d004b10
9d0048a0:	9d004c3c 	0x9d004c3c
9d0048a4:	9d004bd0 	0x9d004bd0
9d0048a8:	9d004c3c 	0x9d004c3c
9d0048ac:	9d004c3c 	0x9d004c3c
9d0048b0:	9d004a84 	0x9d004a84
9d0048b4:	0f402294 	jal	9d008a50 <fgetc>
9d0048b8:	8e644434 	lw	a0,17460(s3)
9d0048bc:	16020152 	bne	s0,v0,9d004e08 <_vfscanf_cdfFnopuxX+0x7ec>
9d0048c0:	2403ffff 	li	v1,-1
9d0048c4:	02a02821 	move	a1,s5
9d0048c8:	90b00000 	lbu	s0,0(a1)
9d0048cc:	1600ff68 	bnez	s0,9d004670 <_vfscanf_cdfFnopuxX+0x54>
9d0048d0:	24b50001 	addiu	s5,a1,1
9d0048d4:	8fa20058 	lw	v0,88(sp)
9d0048d8:	8fbf0084 	lw	ra,132(sp)
9d0048dc:	8fbe0080 	lw	s8,128(sp)
9d0048e0:	8fb7007c 	lw	s7,124(sp)
9d0048e4:	8fb60078 	lw	s6,120(sp)
9d0048e8:	8fb50074 	lw	s5,116(sp)
9d0048ec:	8fb40070 	lw	s4,112(sp)
9d0048f0:	8fb3006c 	lw	s3,108(sp)
9d0048f4:	8fb20068 	lw	s2,104(sp)
9d0048f8:	8fb10064 	lw	s1,100(sp)
9d0048fc:	8fb00060 	lw	s0,96(sp)
9d004900:	03e00008 	jr	ra
9d004904:	27bd0088 	addiu	sp,sp,136
9d004908:	0f402675 	jal	9d0099d4 <wspace>
9d00490c:	00000000 	nop
9d004910:	0b401232 	j	9d0048c8 <_vfscanf_cdfFnopuxX+0x2ac>
9d004914:	02a02821 	move	a1,s5
9d004918:	8fa40058 	lw	a0,88(sp)
9d00491c:	14800140 	bnez	a0,9d004e20 <_vfscanf_cdfFnopuxX+0x804>
9d004920:	00801021 	move	v0,a0
9d004924:	8e624434 	lw	v0,17460(s3)
9d004928:	9442000c 	lhu	v0,12(v0)
9d00492c:	7c420100 	ext	v0,v0,0x4,0x1
9d004930:	00021023 	negu	v0,v0
9d004934:	8fbf0084 	lw	ra,132(sp)
9d004938:	8fbe0080 	lw	s8,128(sp)
9d00493c:	8fb7007c 	lw	s7,124(sp)
9d004940:	8fb60078 	lw	s6,120(sp)
9d004944:	8fb50074 	lw	s5,116(sp)
9d004948:	8fb40070 	lw	s4,112(sp)
9d00494c:	8fb3006c 	lw	s3,108(sp)
9d004950:	8fb20068 	lw	s2,104(sp)
9d004954:	8fb10064 	lw	s1,100(sp)
9d004958:	8fb00060 	lw	s0,96(sp)
9d00495c:	03e00008 	jr	ra
9d004960:	27bd0088 	addiu	sp,sp,136
9d004964:	24120008 	li	s2,8
9d004968:	0f402675 	jal	9d0099d4 <wspace>
9d00496c:	00000000 	nop
9d004970:	8e644434 	lw	a0,17460(s3)
9d004974:	0f402294 	jal	9d008a50 <fgetc>
9d004978:	afa0005c 	sw	zero,92(sp)
9d00497c:	00408821 	move	s1,v0
9d004980:	2402002d 	li	v0,45
9d004984:	1222004a 	beq	s1,v0,9d004ab0 <_vfscanf_cdfFnopuxX+0x494>
9d004988:	3c03a000 	lui	v1,0xa000
9d00498c:	02202021 	move	a0,s1
9d004990:	02402821 	move	a1,s2
9d004994:	0f40249d 	jal	9d009274 <range>
9d004998:	02803021 	move	a2,s4
9d00499c:	240300ff 	li	v1,255
9d0049a0:	10430050 	beq	v0,v1,9d004ae4 <_vfscanf_cdfFnopuxX+0x4c8>
9d0049a4:	8e654434 	lw	a1,17460(s3)
9d0049a8:	24020030 	li	v0,48
9d0049ac:	1222013d 	beq	s1,v0,9d004ea4 <_vfscanf_cdfFnopuxX+0x888>
9d0049b0:	00000000 	nop
9d0049b4:	0b401279 	j	9d0049e4 <_vfscanf_cdfFnopuxX+0x3c8>
9d0049b8:	0000f021 	move	s8,zero
9d0049bc:	0f402294 	jal	9d008a50 <fgetc>
9d0049c0:	8e644434 	lw	a0,17460(s3)
9d0049c4:	00408821 	move	s1,v0
9d0049c8:	00402021 	move	a0,v0
9d0049cc:	02402821 	move	a1,s2
9d0049d0:	0f40249d 	jal	9d009274 <range>
9d0049d4:	02803021 	move	a2,s4
9d0049d8:	240300ff 	li	v1,255
9d0049dc:	1043000b 	beq	v0,v1,9d004a0c <_vfscanf_cdfFnopuxX+0x3f0>
9d0049e0:	02202021 	move	a0,s1
9d0049e4:	73d2f002 	mul	s8,s8,s2
9d0049e8:	02202021 	move	a0,s1
9d0049ec:	02402821 	move	a1,s2
9d0049f0:	0f40249d 	jal	9d009274 <range>
9d0049f4:	02803021 	move	a2,s4
9d0049f8:	2610ffff 	addiu	s0,s0,-1
9d0049fc:	7c108420 	seb	s0,s0
9d004a00:	1600ffee 	bnez	s0,9d0049bc <_vfscanf_cdfFnopuxX+0x3a0>
9d004a04:	03c2f021 	addu	s8,s8,v0
9d004a08:	02202021 	move	a0,s1
9d004a0c:	02402821 	move	a1,s2
9d004a10:	0f40249d 	jal	9d009274 <range>
9d004a14:	02803021 	move	a2,s4
9d004a18:	240400ff 	li	a0,255
9d004a1c:	10440155 	beq	v0,a0,9d004f74 <_vfscanf_cdfFnopuxX+0x958>
9d004a20:	8e654434 	lw	a1,17460(s3)
9d004a24:	001e1023 	negu	v0,s8
9d004a28:	8fa3005c 	lw	v1,92(sp)
9d004a2c:	0043f00b 	movn	s8,v0,v1
9d004a30:	8fa30050 	lw	v1,80(sp)
9d004a34:	1460ffa4 	bnez	v1,9d0048c8 <_vfscanf_cdfFnopuxX+0x2ac>
9d004a38:	02a02821 	move	a1,s5
9d004a3c:	8fa40058 	lw	a0,88(sp)
9d004a40:	24820001 	addiu	v0,a0,1
9d004a44:	304200ff 	andi	v0,v0,0xff
9d004a48:	afa20058 	sw	v0,88(sp)
9d004a4c:	24020004 	li	v0,4
9d004a50:	8fa30054 	lw	v1,84(sp)
9d004a54:	10620004 	beq	v1,v0,9d004a68 <_vfscanf_cdfFnopuxX+0x44c>
9d004a58:	24020002 	li	v0,2
9d004a5c:	8fa30054 	lw	v1,84(sp)
9d004a60:	10620148 	beq	v1,v0,9d004f84 <_vfscanf_cdfFnopuxX+0x968>
9d004a64:	8fa30090 	lw	v1,144(sp)
9d004a68:	8fa30090 	lw	v1,144(sp)
9d004a6c:	8c620000 	lw	v0,0(v1)
9d004a70:	24630004 	addiu	v1,v1,4
9d004a74:	afa30090 	sw	v1,144(sp)
9d004a78:	ac5e0000 	sw	s8,0(v0)
9d004a7c:	0b401232 	j	9d0048c8 <_vfscanf_cdfFnopuxX+0x2ac>
9d004a80:	02a02821 	move	a1,s5
9d004a84:	24120010 	li	s2,16
9d004a88:	0f402675 	jal	9d0099d4 <wspace>
9d004a8c:	0000a021 	move	s4,zero
9d004a90:	8e644434 	lw	a0,17460(s3)
9d004a94:	0f402294 	jal	9d008a50 <fgetc>
9d004a98:	afa0005c 	sw	zero,92(sp)
9d004a9c:	00408821 	move	s1,v0
9d004aa0:	2402002d 	li	v0,45
9d004aa4:	1622ffba 	bne	s1,v0,9d004990 <_vfscanf_cdfFnopuxX+0x374>
9d004aa8:	02202021 	move	a0,s1
9d004aac:	3c03a000 	lui	v1,0xa000
9d004ab0:	8c644434 	lw	a0,17460(v1)
9d004ab4:	24030001 	li	v1,1
9d004ab8:	0f402294 	jal	9d008a50 <fgetc>
9d004abc:	afa3005c 	sw	v1,92(sp)
9d004ac0:	00408821 	move	s1,v0
9d004ac4:	02202021 	move	a0,s1
9d004ac8:	02402821 	move	a1,s2
9d004acc:	0f40249d 	jal	9d009274 <range>
9d004ad0:	02803021 	move	a2,s4
9d004ad4:	240300ff 	li	v1,255
9d004ad8:	1443ffb4 	bne	v0,v1,9d0049ac <_vfscanf_cdfFnopuxX+0x390>
9d004adc:	24020030 	li	v0,48
9d004ae0:	8e654434 	lw	a1,17460(s3)
9d004ae4:	0f40260c 	jal	9d009830 <ungetc>
9d004ae8:	02202021 	move	a0,s1
9d004aec:	8fa40058 	lw	a0,88(sp)
9d004af0:	548000cb 	bnezl	a0,9d004e20 <_vfscanf_cdfFnopuxX+0x804>
9d004af4:	00801021 	move	v0,a0
9d004af8:	3c02a000 	lui	v0,0xa000
9d004afc:	8c424434 	lw	v0,17460(v0)
9d004b00:	9442000c 	lhu	v0,12(v0)
9d004b04:	7c420100 	ext	v0,v0,0x4,0x1
9d004b08:	0b40124d 	j	9d004934 <_vfscanf_cdfFnopuxX+0x318>
9d004b0c:	00021023 	negu	v0,v0
9d004b10:	0f402675 	jal	9d0099d4 <wspace>
9d004b14:	00000000 	nop
9d004b18:	8fa30050 	lw	v1,80(sp)
9d004b1c:	106000d4 	beqz	v1,9d004e70 <_vfscanf_cdfFnopuxX+0x854>
9d004b20:	8fa30090 	lw	v1,144(sp)
9d004b24:	0f402294 	jal	9d008a50 <fgetc>
9d004b28:	8e644434 	lw	a0,17460(s3)
9d004b2c:	2403ffff 	li	v1,-1
9d004b30:	504300d8 	beql	v0,v1,9d004e94 <_vfscanf_cdfFnopuxX+0x878>
9d004b34:	8fa20058 	lw	v0,88(sp)
9d004b38:	14400012 	bnez	v0,9d004b84 <_vfscanf_cdfFnopuxX+0x568>
9d004b3c:	24430001 	addiu	v1,v0,1
9d004b40:	0b4012e9 	j	9d004ba4 <_vfscanf_cdfFnopuxX+0x588>
9d004b44:	8fa30050 	lw	v1,80(sp)
9d004b48:	1062011d 	beq	v1,v0,9d004fc0 <_vfscanf_cdfFnopuxX+0x9a4>
9d004b4c:	8fa30050 	lw	v1,80(sp)
9d004b50:	14600003 	bnez	v1,9d004b60 <_vfscanf_cdfFnopuxX+0x544>
9d004b54:	2610ffff 	addiu	s0,s0,-1
9d004b58:	a2e20000 	sb	v0,0(s7)
9d004b5c:	26f70001 	addiu	s7,s7,1
9d004b60:	7c108420 	seb	s0,s0
9d004b64:	1200000f 	beqz	s0,9d004ba4 <_vfscanf_cdfFnopuxX+0x588>
9d004b68:	8fa30050 	lw	v1,80(sp)
9d004b6c:	0f402294 	jal	9d008a50 <fgetc>
9d004b70:	8e644434 	lw	a0,17460(s3)
9d004b74:	24430001 	addiu	v1,v0,1
9d004b78:	2c640002 	sltiu	a0,v1,2
9d004b7c:	54800009 	bnezl	a0,9d004ba4 <_vfscanf_cdfFnopuxX+0x588>
9d004b80:	8fa30050 	lw	v1,80(sp)
9d004b84:	3c049d01 	lui	a0,0x9d01
9d004b88:	24848b54 	addiu	a0,a0,-29868
9d004b8c:	00831821 	addu	v1,a0,v1
9d004b90:	80630000 	lb	v1,0(v1)
9d004b94:	30630088 	andi	v1,v1,0x88
9d004b98:	5060ffeb 	beqzl	v1,9d004b48 <_vfscanf_cdfFnopuxX+0x52c>
9d004b9c:	82230001 	lb	v1,1(s1)
9d004ba0:	8fa30050 	lw	v1,80(sp)
9d004ba4:	1460ff48 	bnez	v1,9d0048c8 <_vfscanf_cdfFnopuxX+0x2ac>
9d004ba8:	02a02821 	move	a1,s5
9d004bac:	8fa40058 	lw	a0,88(sp)
9d004bb0:	24820001 	addiu	v0,a0,1
9d004bb4:	304200ff 	andi	v0,v0,0xff
9d004bb8:	afa20058 	sw	v0,88(sp)
9d004bbc:	0b401232 	j	9d0048c8 <_vfscanf_cdfFnopuxX+0x2ac>
9d004bc0:	a2e00000 	sb	zero,0(s7)
9d004bc4:	24120010 	li	s2,16
9d004bc8:	0b40125a 	j	9d004968 <_vfscanf_cdfFnopuxX+0x34c>
9d004bcc:	24140001 	li	s4,1
9d004bd0:	0b40125a 	j	9d004968 <_vfscanf_cdfFnopuxX+0x34c>
9d004bd4:	2412000a 	li	s2,10
9d004bd8:	8fa30050 	lw	v1,80(sp)
9d004bdc:	1060009c 	beqz	v1,9d004e50 <_vfscanf_cdfFnopuxX+0x834>
9d004be0:	8fa40058 	lw	a0,88(sp)
9d004be4:	2411ffff 	li	s1,-1
9d004be8:	0f402294 	jal	9d008a50 <fgetc>
9d004bec:	8e644434 	lw	a0,17460(s3)
9d004bf0:	10510087 	beq	v0,s1,9d004e10 <_vfscanf_cdfFnopuxX+0x7f4>
9d004bf4:	8fa30050 	lw	v1,80(sp)
9d004bf8:	14600003 	bnez	v1,9d004c08 <_vfscanf_cdfFnopuxX+0x5ec>
9d004bfc:	2610ffff 	addiu	s0,s0,-1
9d004c00:	a2e20000 	sb	v0,0(s7)
9d004c04:	26f70001 	addiu	s7,s7,1
9d004c08:	7c108420 	seb	s0,s0
9d004c0c:	1e00fff6 	bgtz	s0,9d004be8 <_vfscanf_cdfFnopuxX+0x5cc>
9d004c10:	02a02821 	move	a1,s5
9d004c14:	0b401233 	j	9d0048cc <_vfscanf_cdfFnopuxX+0x2b0>
9d004c18:	90b00000 	lbu	s0,0(a1)
9d004c1c:	82320001 	lb	s2,1(s1)
9d004c20:	24030002 	li	v1,2
9d004c24:	afa30054 	sw	v1,84(sp)
9d004c28:	02a08821 	move	s1,s5
9d004c2c:	325200ff 	andi	s2,s2,0xff
9d004c30:	2e420079 	sltiu	v0,s2,121
9d004c34:	1440fe9f 	bnez	v0,9d0046b4 <_vfscanf_cdfFnopuxX+0x98>
9d004c38:	26350001 	addiu	s5,s1,1
9d004c3c:	02d21021 	addu	v0,s6,s2
9d004c40:	90420000 	lbu	v0,0(v0)
9d004c44:	30420004 	andi	v0,v0,0x4
9d004c48:	104000e8 	beqz	v0,9d004fec <_vfscanf_cdfFnopuxX+0x9d0>
9d004c4c:	00000000 	nop
9d004c50:	0f4024c7 	jal	9d00931c <.LFE0>
9d004c54:	02202021 	move	a0,s1
9d004c58:	82320001 	lb	s2,1(s1)
9d004c5c:	7c028420 	seb	s0,v0
9d004c60:	3c049d01 	lui	a0,0x9d01
9d004c64:	24848b55 	addiu	a0,a0,-29867
9d004c68:	02441021 	addu	v0,s2,a0
9d004c6c:	90420000 	lbu	v0,0(v0)
9d004c70:	30420004 	andi	v0,v0,0x4
9d004c74:	1040fe8b 	beqz	v0,9d0046a4 <_vfscanf_cdfFnopuxX+0x88>
9d004c78:	02a08821 	move	s1,s5
9d004c7c:	26310001 	addiu	s1,s1,1
9d004c80:	82320000 	lb	s2,0(s1)
9d004c84:	02d21021 	addu	v0,s6,s2
9d004c88:	90420000 	lbu	v0,0(v0)
9d004c8c:	30420004 	andi	v0,v0,0x4
9d004c90:	5440fffb 	bnezl	v0,9d004c80 <_vfscanf_cdfFnopuxX+0x664>
9d004c94:	26310001 	addiu	s1,s1,1
9d004c98:	0b4011aa 	j	9d0046a8 <_vfscanf_cdfFnopuxX+0x8c>
9d004c9c:	325200ff 	andi	s2,s2,0xff
9d004ca0:	0f402675 	jal	9d0099d4 <wspace>
9d004ca4:	00000000 	nop
9d004ca8:	8e644434 	lw	a0,17460(s3)
9d004cac:	2402003b 	li	v0,59
9d004cb0:	0f402294 	jal	9d008a50 <fgetc>
9d004cb4:	0050800a 	movz	s0,v0,s0
9d004cb8:	2403002d 	li	v1,45
9d004cbc:	104300c2 	beq	v0,v1,9d004fc8 <_vfscanf_cdfFnopuxX+0x9ac>
9d004cc0:	3c03a000 	lui	v1,0xa000
9d004cc4:	27a30010 	addiu	v1,sp,16
9d004cc8:	afa3005c 	sw	v1,92(sp)
9d004ccc:	247e0001 	addiu	s8,v1,1
9d004cd0:	00009021 	move	s2,zero
9d004cd4:	2411002e 	li	s1,46
9d004cd8:	12000006 	beqz	s0,9d004cf4 <_vfscanf_cdfFnopuxX+0x6d8>
9d004cdc:	27d7ffff 	addiu	s7,s8,-1
9d004ce0:	02c22021 	addu	a0,s6,v0
9d004ce4:	90840000 	lbu	a0,0(a0)
9d004ce8:	30840004 	andi	a0,a0,0x4
9d004cec:	14800009 	bnez	a0,9d004d14 <_vfscanf_cdfFnopuxX+0x6f8>
9d004cf0:	00000000 	nop
9d004cf4:	1640001d 	bnez	s2,9d004d6c <_vfscanf_cdfFnopuxX+0x750>
9d004cf8:	00000000 	nop
9d004cfc:	1451001b 	bne	v0,s1,9d004d6c <_vfscanf_cdfFnopuxX+0x750>
9d004d00:	00000000 	nop
9d004d04:	a3d1ffff 	sb	s1,-1(s8)
9d004d08:	26520001 	addiu	s2,s2,1
9d004d0c:	0b401347 	j	9d004d1c <_vfscanf_cdfFnopuxX+0x700>
9d004d10:	325200ff 	andi	s2,s2,0xff
9d004d14:	1051fffc 	beq	v0,s1,9d004d08 <_vfscanf_cdfFnopuxX+0x6ec>
9d004d18:	a3c2ffff 	sb	v0,-1(s8)
9d004d1c:	8e644434 	lw	a0,17460(s3)
9d004d20:	0f402294 	jal	9d008a50 <fgetc>
9d004d24:	27de0001 	addiu	s8,s8,1
9d004d28:	2610ffff 	addiu	s0,s0,-1
9d004d2c:	0b401336 	j	9d004cd8 <_vfscanf_cdfFnopuxX+0x6bc>
9d004d30:	7c108420 	seb	s0,s0
9d004d34:	8fa30050 	lw	v1,80(sp)
9d004d38:	24620001 	addiu	v0,v1,1
9d004d3c:	82320001 	lb	s2,1(s1)
9d004d40:	304200ff 	andi	v0,v0,0xff
9d004d44:	afa20050 	sw	v0,80(sp)
9d004d48:	0b4011a9 	j	9d0046a4 <_vfscanf_cdfFnopuxX+0x88>
9d004d4c:	02a08821 	move	s1,s5
9d004d50:	8fa30054 	lw	v1,84(sp)
9d004d54:	107effb4 	beq	v1,s8,9d004c28 <_vfscanf_cdfFnopuxX+0x60c>
9d004d58:	82320001 	lb	s2,1(s1)
9d004d5c:	24030008 	li	v1,8
9d004d60:	afa30054 	sw	v1,84(sp)
9d004d64:	0b4011a9 	j	9d0046a4 <_vfscanf_cdfFnopuxX+0x88>
9d004d68:	02a08821 	move	s1,s5
9d004d6c:	12000006 	beqz	s0,9d004d88 <_vfscanf_cdfFnopuxX+0x76c>
9d004d70:	02e08821 	move	s1,s7
9d004d74:	2404ffdf 	li	a0,-33
9d004d78:	00442024 	and	a0,v0,a0
9d004d7c:	24030045 	li	v1,69
9d004d80:	10830055 	beq	a0,v1,9d004ed8 <_vfscanf_cdfFnopuxX+0x8bc>
9d004d84:	8e644434 	lw	a0,17460(s3)
9d004d88:	2403ffff 	li	v1,-1
9d004d8c:	10430004 	beq	v0,v1,9d004da0 <_vfscanf_cdfFnopuxX+0x784>
9d004d90:	a2e00000 	sb	zero,0(s7)
9d004d94:	8e654434 	lw	a1,17460(s3)
9d004d98:	0f40260c 	jal	9d009830 <ungetc>
9d004d9c:	00402021 	move	a0,v0
9d004da0:	8fa3005c 	lw	v1,92(sp)
9d004da4:	1077fedc 	beq	v1,s7,9d004918 <_vfscanf_cdfFnopuxX+0x2fc>
9d004da8:	8fa30050 	lw	v1,80(sp)
9d004dac:	1460fec6 	bnez	v1,9d0048c8 <_vfscanf_cdfFnopuxX+0x2ac>
9d004db0:	02a02821 	move	a1,s5
9d004db4:	8fa40058 	lw	a0,88(sp)
9d004db8:	24830001 	addiu	v1,a0,1
9d004dbc:	8fa40054 	lw	a0,84(sp)
9d004dc0:	2c820005 	sltiu	v0,a0,5
9d004dc4:	306300ff 	andi	v1,v1,0xff
9d004dc8:	afa30058 	sw	v1,88(sp)
9d004dcc:	14400073 	bnez	v0,9d004f9c <_vfscanf_cdfFnopuxX+0x980>
9d004dd0:	8fa30090 	lw	v1,144(sp)
9d004dd4:	8c700000 	lw	s0,0(v1)
9d004dd8:	00002821 	move	a1,zero
9d004ddc:	0f402756 	jal	9d009d58 <strtod>
9d004de0:	8fa4005c 	lw	a0,92(sp)
9d004de4:	00402021 	move	a0,v0
9d004de8:	8fa30090 	lw	v1,144(sp)
9d004dec:	0f402472 	jal	9d0091c8 <.LFE0>
9d004df0:	24710004 	addiu	s1,v1,4
9d004df4:	ae020000 	sw	v0,0(s0)
9d004df8:	ae030004 	sw	v1,4(s0)
9d004dfc:	afb10090 	sw	s1,144(sp)
9d004e00:	0b401232 	j	9d0048c8 <_vfscanf_cdfFnopuxX+0x2ac>
9d004e04:	02a02821 	move	a1,s5
9d004e08:	1443007f 	bne	v0,v1,9d005008 <_vfscanf_cdfFnopuxX+0x9ec>
9d004e0c:	3c03a000 	lui	v1,0xa000
9d004e10:	8fa40058 	lw	a0,88(sp)
9d004e14:	1080fec7 	beqz	a0,9d004934 <_vfscanf_cdfFnopuxX+0x318>
9d004e18:	2402ffff 	li	v0,-1
9d004e1c:	00801021 	move	v0,a0
9d004e20:	8fbf0084 	lw	ra,132(sp)
9d004e24:	8fbe0080 	lw	s8,128(sp)
9d004e28:	8fb7007c 	lw	s7,124(sp)
9d004e2c:	8fb60078 	lw	s6,120(sp)
9d004e30:	8fb50074 	lw	s5,116(sp)
9d004e34:	8fb40070 	lw	s4,112(sp)
9d004e38:	8fb3006c 	lw	s3,108(sp)
9d004e3c:	8fb20068 	lw	s2,104(sp)
9d004e40:	8fb10064 	lw	s1,100(sp)
9d004e44:	8fb00060 	lw	s0,96(sp)
9d004e48:	03e00008 	jr	ra
9d004e4c:	27bd0088 	addiu	sp,sp,136
9d004e50:	24820001 	addiu	v0,a0,1
9d004e54:	8fa30090 	lw	v1,144(sp)
9d004e58:	8c770000 	lw	s7,0(v1)
9d004e5c:	304200ff 	andi	v0,v0,0xff
9d004e60:	afa20058 	sw	v0,88(sp)
9d004e64:	24630004 	addiu	v1,v1,4
9d004e68:	0b4012f9 	j	9d004be4 <_vfscanf_cdfFnopuxX+0x5c8>
9d004e6c:	afa30090 	sw	v1,144(sp)
9d004e70:	8c770000 	lw	s7,0(v1)
9d004e74:	24630004 	addiu	v1,v1,4
9d004e78:	afa30090 	sw	v1,144(sp)
9d004e7c:	0f402294 	jal	9d008a50 <fgetc>
9d004e80:	8e644434 	lw	a0,17460(s3)
9d004e84:	2403ffff 	li	v1,-1
9d004e88:	1443ff2b 	bne	v0,v1,9d004b38 <_vfscanf_cdfFnopuxX+0x51c>
9d004e8c:	00000000 	nop
9d004e90:	8fa20058 	lw	v0,88(sp)
9d004e94:	1440fea8 	bnez	v0,9d004938 <_vfscanf_cdfFnopuxX+0x31c>
9d004e98:	8fbf0084 	lw	ra,132(sp)
9d004e9c:	0b40124d 	j	9d004934 <_vfscanf_cdfFnopuxX+0x318>
9d004ea0:	2402ffff 	li	v0,-1
9d004ea4:	0f402294 	jal	9d008a50 <fgetc>
9d004ea8:	8e644434 	lw	a0,17460(s3)
9d004eac:	24030078 	li	v1,120
9d004eb0:	1043002a 	beq	v0,v1,9d004f5c <_vfscanf_cdfFnopuxX+0x940>
9d004eb4:	24030058 	li	v1,88
9d004eb8:	1443002a 	bne	v0,v1,9d004f64 <_vfscanf_cdfFnopuxX+0x948>
9d004ebc:	8e654434 	lw	a1,17460(s3)
9d004ec0:	12800028 	beqz	s4,9d004f64 <_vfscanf_cdfFnopuxX+0x948>
9d004ec4:	00000000 	nop
9d004ec8:	0f402294 	jal	9d008a50 <fgetc>
9d004ecc:	8e644434 	lw	a0,17460(s3)
9d004ed0:	0b40126d 	j	9d0049b4 <_vfscanf_cdfFnopuxX+0x398>
9d004ed4:	00408821 	move	s1,v0
9d004ed8:	a2e20000 	sb	v0,0(s7)
9d004edc:	0f402294 	jal	9d008a50 <fgetc>
9d004ee0:	321000ff 	andi	s0,s0,0xff
9d004ee4:	2603ffff 	addiu	v1,s0,-1
9d004ee8:	7c031c20 	seb	v1,v1
9d004eec:	1060ffa6 	beqz	v1,9d004d88 <_vfscanf_cdfFnopuxX+0x76c>
9d004ef0:	26f70001 	addiu	s7,s7,1
9d004ef4:	2404002d 	li	a0,45
9d004ef8:	10440048 	beq	v0,a0,9d00501c <_vfscanf_cdfFnopuxX+0xa00>
9d004efc:	2404002b 	li	a0,43
9d004f00:	10440047 	beq	v0,a0,9d005020 <_vfscanf_cdfFnopuxX+0xa04>
9d004f04:	8e644434 	lw	a0,17460(s3)
9d004f08:	02c22021 	addu	a0,s6,v0
9d004f0c:	90840000 	lbu	a0,0(a0)
9d004f10:	30840004 	andi	a0,a0,0x4
9d004f14:	1080ff9c 	beqz	a0,9d004d88 <_vfscanf_cdfFnopuxX+0x76c>
9d004f18:	2463ffff 	addiu	v1,v1,-1
9d004f1c:	307000ff 	andi	s0,v1,0xff
9d004f20:	26100001 	addiu	s0,s0,1
9d004f24:	0b4013cf 	j	9d004f3c <_vfscanf_cdfFnopuxX+0x920>
9d004f28:	02f08021 	addu	s0,s7,s0
9d004f2c:	90630000 	lbu	v1,0(v1)
9d004f30:	30630004 	andi	v1,v1,0x4
9d004f34:	1060ff95 	beqz	v1,9d004d8c <_vfscanf_cdfFnopuxX+0x770>
9d004f38:	2403ffff 	li	v1,-1
9d004f3c:	8e644434 	lw	a0,17460(s3)
9d004f40:	26f70001 	addiu	s7,s7,1
9d004f44:	0f402294 	jal	9d008a50 <fgetc>
9d004f48:	a2e2ffff 	sb	v0,-1(s7)
9d004f4c:	56f0fff7 	bnel	s7,s0,9d004f2c <_vfscanf_cdfFnopuxX+0x910>
9d004f50:	02c21821 	addu	v1,s6,v0
9d004f54:	0b401363 	j	9d004d8c <_vfscanf_cdfFnopuxX+0x770>
9d004f58:	2403ffff 	li	v1,-1
9d004f5c:	1280ffda 	beqz	s4,9d004ec8 <_vfscanf_cdfFnopuxX+0x8ac>
9d004f60:	8e654434 	lw	a1,17460(s3)
9d004f64:	0f40260c 	jal	9d009830 <ungetc>
9d004f68:	00402021 	move	a0,v0
9d004f6c:	0b401279 	j	9d0049e4 <_vfscanf_cdfFnopuxX+0x3c8>
9d004f70:	0000f021 	move	s8,zero
9d004f74:	0f40260c 	jal	9d009830 <ungetc>
9d004f78:	02202021 	move	a0,s1
9d004f7c:	0b40128a 	j	9d004a28 <_vfscanf_cdfFnopuxX+0x40c>
9d004f80:	001e1023 	negu	v0,s8
9d004f84:	8c620000 	lw	v0,0(v1)
9d004f88:	24630004 	addiu	v1,v1,4
9d004f8c:	afa30090 	sw	v1,144(sp)
9d004f90:	a45e0000 	sh	s8,0(v0)
9d004f94:	0b401232 	j	9d0048c8 <_vfscanf_cdfFnopuxX+0x2ac>
9d004f98:	02a02821 	move	a1,s5
9d004f9c:	8c710000 	lw	s1,0(v1)
9d004fa0:	8fa4005c 	lw	a0,92(sp)
9d004fa4:	00002821 	move	a1,zero
9d004fa8:	0f402782 	jal	9d009e08 <.LFE1>
9d004fac:	24700004 	addiu	s0,v1,4
9d004fb0:	ae220000 	sw	v0,0(s1)
9d004fb4:	afb00090 	sw	s0,144(sp)
9d004fb8:	0b401232 	j	9d0048c8 <_vfscanf_cdfFnopuxX+0x2ac>
9d004fbc:	02a02821 	move	a1,s5
9d004fc0:	0b4012e8 	j	9d004ba0 <_vfscanf_cdfFnopuxX+0x584>
9d004fc4:	26350002 	addiu	s5,s1,2
9d004fc8:	8c644434 	lw	a0,17460(v1)
9d004fcc:	a3a20010 	sb	v0,16(sp)
9d004fd0:	27a30010 	addiu	v1,sp,16
9d004fd4:	0f402294 	jal	9d008a50 <fgetc>
9d004fd8:	afa3005c 	sw	v1,92(sp)
9d004fdc:	2610ffff 	addiu	s0,s0,-1
9d004fe0:	7c108420 	seb	s0,s0
9d004fe4:	0b401333 	j	9d004ccc <_vfscanf_cdfFnopuxX+0x6b0>
9d004fe8:	27a30011 	addiu	v1,sp,17
9d004fec:	0f402294 	jal	9d008a50 <fgetc>
9d004ff0:	8e644434 	lw	a0,17460(s3)
9d004ff4:	1242fe33 	beq	s2,v0,9d0048c4 <_vfscanf_cdfFnopuxX+0x2a8>
9d004ff8:	2403ffff 	li	v1,-1
9d004ffc:	5043ffa5 	beql	v0,v1,9d004e94 <_vfscanf_cdfFnopuxX+0x878>
9d005000:	8fa20058 	lw	v0,88(sp)
9d005004:	3c03a000 	lui	v1,0xa000
9d005008:	8c654434 	lw	a1,17460(v1)
9d00500c:	0f40260c 	jal	9d009830 <ungetc>
9d005010:	00402021 	move	a0,v0
9d005014:	0b40124d 	j	9d004934 <_vfscanf_cdfFnopuxX+0x318>
9d005018:	8fa20058 	lw	v0,88(sp)
9d00501c:	8e644434 	lw	a0,17460(s3)
9d005020:	a2220001 	sb	v0,1(s1)
9d005024:	0f402294 	jal	9d008a50 <fgetc>
9d005028:	26370002 	addiu	s7,s1,2
9d00502c:	2603fffe 	addiu	v1,s0,-2
9d005030:	7c031c20 	seb	v1,v1
9d005034:	1460ffb5 	bnez	v1,9d004f0c <_vfscanf_cdfFnopuxX+0x8f0>
9d005038:	02c22021 	addu	a0,s6,v0
9d00503c:	0b401363 	j	9d004d8c <_vfscanf_cdfFnopuxX+0x770>
9d005040:	2403ffff 	li	v1,-1

Disassembly of section .text.dp32mul:

9d005044 <__divdf3>:
9d005044:	00055040 000a5542 00054ac0 00047d42     @P..BU...J..B}..
9d005054:	012f4825 000442c0 3c0e8000 012e4825     %H/..B.....<%H..
9d005064:	00076840 000d6d42 000762c0 00067d42     @h..Bm...b..B}..
9d005074:	018f6025 00065ac0 018e6025 00a72826     %`...Z..%`..&(..
9d005084:	00ae2824 254fffff 2de107fe 102000cb     $(....O%...-.. .
9d005094:	00000000                                ....

9d005098 <Dlab1>:
9d005098:	25afffff 	addiu	t7,t5,-1
9d00509c:	2de107fe 	sltiu	at,t7,2046
9d0050a0:	102000f4 	beqz	at,9d005474 <DspecB>
9d0050a4:	00000000 	nop

9d0050a8 <Dlab2>:
9d0050a8:	014d5023 	subu	t2,t2,t5
9d0050ac:	254a03ff 	addiu	t2,t2,1023
9d0050b0:	00084042 	srl	t0,t0,0x1
9d0050b4:	00097fc0 	sll	t7,t1,0x1f
9d0050b8:	010f4025 	or	t0,t0,t7
9d0050bc:	00094842 	srl	t1,t1,0x1
9d0050c0:	000c3c02 	srl	a3,t4,0x10
9d0050c4:	00e001f4 	teq	a3,zero,0x7
9d0050c8:	0127001b 	divu	zero,t1,a3
9d0050cc:	00007012 	mflo	t6
9d0050d0:	00004810 	mfhi	t1
9d0050d4:	3186ffff 	andi	a2,t4,0xffff
9d0050d8:	00ce0019 	multu	a2,t6
9d0050dc:	00002012 	mflo	a0
9d0050e0:	00094c00 	sll	t1,t1,0x10
9d0050e4:	00087c02 	srl	t7,t0,0x10
9d0050e8:	012f4825 	or	t1,t1,t7
9d0050ec:	0124782b 	sltu	t7,t1,a0
9d0050f0:	11e00006 	beqz	t7,9d00510c <i20>
9d0050f4:	01244823 	subu	t1,t1,a0

9d0050f8 <b21>:
9d0050f8:	25ceffff 	addiu	t6,t6,-1
9d0050fc:	012c4821 	addu	t1,t1,t4
9d005100:	012c082b 	sltu	at,t1,t4
9d005104:	1020fffc 	beqz	at,9d0050f8 <b21>
9d005108:	00000000 	nop

9d00510c <i20>:
9d00510c:	00e001f4 	teq	a3,zero,0x7
9d005110:	0127001b 	divu	zero,t1,a3
9d005114:	00003812 	mflo	a3
9d005118:	00004810 	mfhi	t1
9d00511c:	00c70019 	multu	a2,a3
9d005120:	00002012 	mflo	a0
9d005124:	00094c00 	sll	t1,t1,0x10
9d005128:	310fffff 	andi	t7,t0,0xffff
9d00512c:	012f4825 	or	t1,t1,t7
9d005130:	0124782b 	sltu	t7,t1,a0
9d005134:	11e00006 	beqz	t7,9d005150 <i22>
9d005138:	01244823 	subu	t1,t1,a0

9d00513c <b23>:
9d00513c:	24e7ffff 	addiu	a3,a3,-1
9d005140:	012c4821 	addu	t1,t1,t4
9d005144:	012c082b 	sltu	at,t1,t4
9d005148:	1020fffc 	beqz	at,9d00513c <b23>
9d00514c:	00000000 	nop

9d005150 <i22>:
9d005150:	000e7400 	sll	t6,t6,0x10
9d005154:	01c77021 	addu	t6,t6,a3
9d005158:	01cb0019 	multu	t6,t3
9d00515c:	00003812 	mflo	a3
9d005160:	00002010 	mfhi	a0
9d005164:	24080000 	li	t0,0
9d005168:	0107782b 	sltu	t7,t0,a3
9d00516c:	01074023 	subu	t0,t0,a3
9d005170:	012f102b 	sltu	v0,t1,t7
9d005174:	012f4823 	subu	t1,t1,t7
9d005178:	0124782b 	sltu	t7,t1,a0
9d00517c:	01e27825 	or	t7,t7,v0
9d005180:	11e0000b 	beqz	t7,9d0051b0 <i24>
9d005184:	01244823 	subu	t1,t1,a0

9d005188 <Dlab3>:
9d005188:	25ceffff 	addiu	t6,t6,-1
9d00518c:	010b4021 	addu	t0,t0,t3
9d005190:	010b782b 	sltu	t7,t0,t3
9d005194:	012c4821 	addu	t1,t1,t4
9d005198:	012f4821 	addu	t1,t1,t7
9d00519c:	112c0002 	beq	t1,t4,9d0051a8 <L31>
9d0051a0:	00000000 	nop
9d0051a4:	012c782b 	sltu	t7,t1,t4

9d0051a8 <L31>:
9d0051a8:	11e0fff7 	beqz	t7,9d005188 <Dlab3>
9d0051ac:	00000000 	nop

9d0051b0 <i24>:
9d0051b0:	152c0006 	bne	t1,t4,9d0051cc <i25>
9d0051b4:	00000000 	nop
9d0051b8:	000b2025 	or	a0,zero,t3
9d0051bc:	00084825 	or	t1,zero,t0
9d0051c0:	240d0000 	li	t5,0
9d0051c4:	1000002a 	b	9d005270 <e25>
9d0051c8:	000d3825 	or	a3,zero,t5

9d0051cc <i25>:
9d0051cc:	000c3c02 	srl	a3,t4,0x10
9d0051d0:	00e001f4 	teq	a3,zero,0x7
9d0051d4:	0127001b 	divu	zero,t1,a3
9d0051d8:	00006812 	mflo	t5
9d0051dc:	00004810 	mfhi	t1
9d0051e0:	3186ffff 	andi	a2,t4,0xffff
9d0051e4:	00cd0019 	multu	a2,t5
9d0051e8:	00002012 	mflo	a0
9d0051ec:	00094c00 	sll	t1,t1,0x10
9d0051f0:	00087c02 	srl	t7,t0,0x10
9d0051f4:	012f4825 	or	t1,t1,t7
9d0051f8:	0124782b 	sltu	t7,t1,a0
9d0051fc:	11e00006 	beqz	t7,9d005218 <i26>
9d005200:	01244823 	subu	t1,t1,a0

9d005204 <b27>:
9d005204:	25adffff 	addiu	t5,t5,-1
9d005208:	012c4821 	addu	t1,t1,t4
9d00520c:	012c082b 	sltu	at,t1,t4
9d005210:	1020fffc 	beqz	at,9d005204 <b27>
9d005214:	00000000 	nop

9d005218 <i26>:
9d005218:	00e001f4 	teq	a3,zero,0x7
9d00521c:	0127001b 	divu	zero,t1,a3
9d005220:	00003812 	mflo	a3
9d005224:	00004810 	mfhi	t1
9d005228:	00c70019 	multu	a2,a3
9d00522c:	00002012 	mflo	a0
9d005230:	00094c00 	sll	t1,t1,0x10
9d005234:	310fffff 	andi	t7,t0,0xffff
9d005238:	012f4825 	or	t1,t1,t7
9d00523c:	0124782b 	sltu	t7,t1,a0
9d005240:	11e00006 	beqz	t7,9d00525c <i28>
9d005244:	01244823 	subu	t1,t1,a0

9d005248 <b29>:
9d005248:	24e7ffff 	addiu	a3,a3,-1
9d00524c:	012c4821 	addu	t1,t1,t4
9d005250:	012c082b 	sltu	at,t1,t4
9d005254:	1020fffc 	beqz	at,9d005248 <b29>
9d005258:	00000000 	nop

9d00525c <i28>:
9d00525c:	000d6c00 	sll	t5,t5,0x10
9d005260:	01a76821 	addu	t5,t5,a3
9d005264:	01ab0019 	multu	t5,t3
9d005268:	00003812 	mflo	a3
9d00526c:	00002010 	mfhi	a0

9d005270 <e25>:
9d005270:	24080000 	li	t0,0
9d005274:	0107782b 	sltu	t7,t0,a3
9d005278:	01074023 	subu	t0,t0,a3
9d00527c:	012f102b 	sltu	v0,t1,t7
9d005280:	012f4823 	subu	t1,t1,t7
9d005284:	0124782b 	sltu	t7,t1,a0
9d005288:	01e27825 	or	t7,t7,v0
9d00528c:	11e0000b 	beqz	t7,9d0052bc <i30>
9d005290:	01244823 	subu	t1,t1,a0

9d005294 <Dlab4>:
9d005294:	25adffff 	addiu	t5,t5,-1
9d005298:	010b4021 	addu	t0,t0,t3
9d00529c:	010b782b 	sltu	t7,t0,t3
9d0052a0:	012c4821 	addu	t1,t1,t4
9d0052a4:	012f4821 	addu	t1,t1,t7
9d0052a8:	112c0002 	beq	t1,t4,9d0052b4 <L32>
9d0052ac:	00000000 	nop
9d0052b0:	012c782b 	sltu	t7,t1,t4

9d0052b4 <L32>:
9d0052b4:	11e0fff7 	beqz	t7,9d005294 <Dlab4>
9d0052b8:	00000000 	nop

9d0052bc <i30>:
9d0052bc:	05c00006 	bltz	t6,9d0052d8 <i31>
9d0052c0:	00000000 	nop
9d0052c4:	01a0782a 	slt	t7,t5,zero
9d0052c8:	01ad6821 	addu	t5,t5,t5
9d0052cc:	01ce7021 	addu	t6,t6,t6
9d0052d0:	01cf7021 	addu	t6,t6,t7
9d0052d4:	254affff 	addiu	t2,t2,-1

9d0052d8 <i31>:
9d0052d8:	01287825 	or	t7,t1,t0
9d0052dc:	11e00002 	beqz	t7,9d0052e8 <i32>
9d0052e0:	00000000 	nop
9d0052e4:	35ad0001 	ori	t5,t5,0x1

9d0052e8 <i32>:
9d0052e8:	000e4825 	or	t1,zero,t6
9d0052ec:	000d4025 	or	t0,zero,t5
9d0052f0:	254fffff 	addiu	t7,t2,-1
9d0052f4:	2de107fe 	sltiu	at,t7,2046
9d0052f8:	10200015 	beqz	at,9d005350 <Doveund>
9d0052fc:	00000000 	nop
9d005300:	25080400 	addiu	t0,t0,1024
9d005304:	2d0f0400 	sltiu	t7,t0,1024
9d005308:	012f4821 	addu	t1,t1,t7
9d00530c:	012f782b 	sltu	t7,t1,t7
9d005310:	014f5021 	addu	t2,t2,t7

9d005314 <Dlab8>:
9d005314:	00087ac2 	srl	t7,t0,0xb
9d005318:	31ef0001 	andi	t7,t7,0x1
9d00531c:	010f4023 	subu	t0,t0,t7
9d005320:	000822c2 	srl	a0,t0,0xb
9d005324:	00097d40 	sll	t7,t1,0x15
9d005328:	008f2025 	or	a0,a0,t7
9d00532c:	00097840 	sll	t7,t1,0x1
9d005330:	000f7b02 	srl	t7,t7,0xc
9d005334:	00af2825 	or	a1,a1,t7
9d005338:	000a7d00 	sll	t7,t2,0x14
9d00533c:	00af2825 	or	a1,a1,t7

9d005340 <Dret>:
9d005340:	00041025 	or	v0,zero,a0
9d005344:	00051825 	or	v1,zero,a1

9d005348 <D999>:
9d005348:	03e00008 	jr	ra
9d00534c:	00000000 	nop

9d005350 <Doveund>:
9d005350:	1d400044 	bgtz	t2,9d005464 <Dinf>
9d005354:	00000000 	nop
9d005358:	240e0001 	li	t6,1
9d00535c:	01ca7023 	subu	t6,t6,t2

9d005360 <L33>:
9d005360:	2dc10020 	sltiu	at,t6,32
9d005364:	14200007 	bnez	at,9d005384 <L34>
9d005368:	00000000 	nop
9d00536c:	21ceffe0 	addi	t6,t6,-32
9d005370:	0008202b 	sltu	a0,zero,t0
9d005374:	1009000d 	beq	zero,t1,9d0053ac <L35>
9d005378:	01244025 	or	t0,t1,a0
9d00537c:	1000fff8 	b	9d005360 <L33>
9d005380:	34090000 	li	t1,0x0

9d005384 <L34>:
9d005384:	11c00009 	beqz	t6,9d0053ac <L35>
9d005388:	00000000 	nop
9d00538c:	000e3022 	neg	a2,t6
9d005390:	00c82004 	sllv	a0,t0,a2
9d005394:	00c93004 	sllv	a2,t1,a2
9d005398:	01c84006 	srlv	t0,t0,t6
9d00539c:	01c94806 	srlv	t1,t1,t6
9d0053a0:	10800002 	beqz	a0,9d0053ac <L35>
9d0053a4:	00c84025 	or	t0,a2,t0
9d0053a8:	35080002 	ori	t0,t0,0x2

9d0053ac <L35>:
9d0053ac:	25080400 	addiu	t0,t0,1024
9d0053b0:	2d0f0400 	sltiu	t7,t0,1024
9d0053b4:	012f4821 	addu	t1,t1,t7
9d0053b8:	1000ffd6 	b	9d005314 <Dlab8>
9d0053bc:	000957c2 	srl	t2,t1,0x1f

9d0053c0 <DspecA>:
9d0053c0:	0100782a 	slt	t7,t0,zero
9d0053c4:	01084021 	addu	t0,t0,t0
9d0053c8:	01294821 	addu	t1,t1,t1
9d0053cc:	15400017 	bnez	t2,9d00542c <i33>
9d0053d0:	012f4821 	addu	t1,t1,t7
9d0053d4:	01287825 	or	t7,t1,t0
9d0053d8:	11e00014 	beqz	t7,9d00542c <i33>
9d0053dc:	00000000 	nop
9d0053e0:	15200008 	bnez	t1,9d005404 <L36>
9d0053e4:	00000000 	nop
9d0053e8:	15000003 	bnez	t0,9d0053f8 <L37>
9d0053ec:	00000000 	nop
9d0053f0:	1000ff29 	b	9d005098 <Dlab1>
9d0053f4:	240a0000 	li	t2,0

9d0053f8 <L37>:
9d0053f8:	01004825 	move	t1,t0
9d0053fc:	24080000 	li	t0,0
9d005400:	254affe0 	addiu	t2,t2,-32

9d005404 <L36>:
9d005404:	712e7020 	clz	t6,t1
9d005408:	11c0ff23 	beqz	t6,9d005098 <Dlab1>
9d00540c:	00000000 	nop
9d005410:	014e5023 	subu	t2,t2,t6
9d005414:	000e3022 	neg	a2,t6
9d005418:	00c83006 	srlv	a2,t0,a2
9d00541c:	01c84004 	sllv	t0,t0,t6
9d005420:	01c94804 	sllv	t1,t1,t6
9d005424:	1000ff1c 	b	9d005098 <Dlab1>
9d005428:	01264825 	or	t1,t1,a2

9d00542c <i33>:
9d00542c:	154d0005 	bne	t2,t5,9d005444 <i35>
9d005430:	00000000 	nop
9d005434:	000c7840 	sll	t7,t4,0x1
9d005438:	01eb7825 	or	t7,t7,t3
9d00543c:	11e0002b 	beqz	t7,9d0054ec <Dnan>
9d005440:	00000000 	nop

9d005444 <i35>:
9d005444:	240107ff 	li	at,2047
9d005448:	11a1000a 	beq	t5,at,9d005474 <DspecB>
9d00544c:	00000000 	nop
9d005450:	1140ffbb 	beqz	t2,9d005340 <Dret>
9d005454:	00000000 	nop
9d005458:	01287825 	or	t7,t1,t0
9d00545c:	15e00023 	bnez	t7,9d0054ec <Dnan>
9d005460:	00000000 	nop

9d005464 <Dinf>:
9d005464:	3c017ff0 	lui	at,0x7ff0
9d005468:	00a12825 	or	a1,a1,at
9d00546c:	1000ffb4 	b	9d005340 <Dret>
9d005470:	24040000 	li	a0,0

9d005474 <DspecB>:
9d005474:	0160782a 	slt	t7,t3,zero
9d005478:	016b5821 	addu	t3,t3,t3
9d00547c:	018c6021 	addu	t4,t4,t4
9d005480:	15a00017 	bnez	t5,9d0054e0 <i36>
9d005484:	018f6021 	addu	t4,t4,t7
9d005488:	018b7825 	or	t7,t4,t3
9d00548c:	11e0fff5 	beqz	t7,9d005464 <Dinf>
9d005490:	00000000 	nop
9d005494:	15800008 	bnez	t4,9d0054b8 <L39>
9d005498:	00000000 	nop
9d00549c:	15600003 	bnez	t3,9d0054ac <L40>
9d0054a0:	00000000 	nop
9d0054a4:	1000ff00 	b	9d0050a8 <Dlab2>
9d0054a8:	240d0000 	li	t5,0

9d0054ac <L40>:
9d0054ac:	01606025 	move	t4,t3
9d0054b0:	240b0000 	li	t3,0
9d0054b4:	25adffe0 	addiu	t5,t5,-32

9d0054b8 <L39>:
9d0054b8:	718e7020 	clz	t6,t4
9d0054bc:	11c0fefa 	beqz	t6,9d0050a8 <Dlab2>
9d0054c0:	00000000 	nop
9d0054c4:	01ae6823 	subu	t5,t5,t6
9d0054c8:	000e3022 	neg	a2,t6
9d0054cc:	00cb3006 	srlv	a2,t3,a2
9d0054d0:	01cb5804 	sllv	t3,t3,t6
9d0054d4:	01cc6004 	sllv	t4,t4,t6
9d0054d8:	1000fef3 	b	9d0050a8 <Dlab2>
9d0054dc:	01866025 	or	t4,t4,a2

9d0054e0 <i36>:
9d0054e0:	018b7825 	or	t7,t4,t3
9d0054e4:	11e00002 	beqz	t7,9d0054f0 <i38>
9d0054e8:	00000000 	nop

9d0054ec <Dnan>:
9d0054ec:	3c05fff8 	lui	a1,0xfff8

9d0054f0 <i38>:
9d0054f0:	1000ff93 	b	9d005340 <Dret>
9d0054f4:	24040000 	li	a0,0
9d0054f8:	00000000 	nop

Disassembly of section .text:

9d0054fc <__umoddi3>:
9d0054fc:	00c04021 	move	t0,a2
9d005500:	00804821 	move	t1,a0
9d005504:	14e0003b 	bnez	a3,9d0055f4 <__umoddi3+0xf8>
9d005508:	00a01821 	move	v1,a1
9d00550c:	00a6102b 	sltu	v0,a1,a2
9d005510:	10400048 	beqz	v0,9d005634 <__umoddi3+0x138>
9d005514:	70c21020 	clz	v0,a2
9d005518:	50400008 	beqzl	v0,9d00553c <__umoddi3+0x40>
9d00551c:	00083402 	srl	a2,t0,0x10
9d005520:	00021823 	negu	v1,v0
9d005524:	00452804 	sllv	a1,a1,v0
9d005528:	00641806 	srlv	v1,a0,v1
9d00552c:	00464004 	sllv	t0,a2,v0
9d005530:	00651825 	or	v1,v1,a1
9d005534:	00444804 	sllv	t1,a0,v0
9d005538:	00083402 	srl	a2,t0,0x10
9d00553c:	0066001b 	divu	zero,v1,a2
9d005540:	00c001f4 	teq	a2,zero,0x7
9d005544:	00002010 	mfhi	a0
9d005548:	00005812 	mflo	t3
9d00554c:	310cffff 	andi	t4,t0,0xffff
9d005550:	00095402 	srl	t2,t1,0x10
9d005554:	716c5802 	mul	t3,t3,t4
9d005558:	00042400 	sll	a0,a0,0x10
9d00555c:	008a5025 	or	t2,a0,t2
9d005560:	014b682b 	sltu	t5,t2,t3
9d005564:	0066001b 	divu	zero,v1,a2
9d005568:	00c001f4 	teq	a2,zero,0x7
9d00556c:	51a00009 	beqzl	t5,9d005594 <__umoddi3+0x98>
9d005570:	014b5023 	subu	t2,t2,t3
9d005574:	01485021 	addu	t2,t2,t0
9d005578:	0148182b 	sltu	v1,t2,t0
9d00557c:	54600005 	bnezl	v1,9d005594 <__umoddi3+0x98>
9d005580:	014b5023 	subu	t2,t2,t3
9d005584:	014b202b 	sltu	a0,t2,t3
9d005588:	01481821 	addu	v1,t2,t0
9d00558c:	0064500b 	movn	t2,v1,a0
9d005590:	014b5023 	subu	t2,t2,t3
9d005594:	3123ffff 	andi	v1,t1,0xffff
9d005598:	0146001b 	divu	zero,t2,a2
9d00559c:	00c001f4 	teq	a2,zero,0x7
9d0055a0:	00004810 	mfhi	t1
9d0055a4:	00002012 	mflo	a0
9d0055a8:	708c2002 	mul	a0,a0,t4
9d0055ac:	00094c00 	sll	t1,t1,0x10
9d0055b0:	01234825 	or	t1,t1,v1
9d0055b4:	0124182b 	sltu	v1,t1,a0
9d0055b8:	0146001b 	divu	zero,t2,a2
9d0055bc:	00c001f4 	teq	a2,zero,0x7
9d0055c0:	50600009 	beqzl	v1,9d0055e8 <__umoddi3+0xec>
9d0055c4:	01244823 	subu	t1,t1,a0
9d0055c8:	01284821 	addu	t1,t1,t0
9d0055cc:	0128182b 	sltu	v1,t1,t0
9d0055d0:	54600005 	bnezl	v1,9d0055e8 <__umoddi3+0xec>
9d0055d4:	01244823 	subu	t1,t1,a0
9d0055d8:	0124182b 	sltu	v1,t1,a0
9d0055dc:	01284021 	addu	t0,t1,t0
9d0055e0:	0103480b 	movn	t1,t0,v1
9d0055e4:	01244823 	subu	t1,t1,a0
9d0055e8:	00491006 	srlv	v0,t1,v0
9d0055ec:	03e00008 	jr	ra
9d0055f0:	00001821 	move	v1,zero
9d0055f4:	00a7102b 	sltu	v0,a1,a3
9d0055f8:	14400047 	bnez	v0,9d005718 <__umoddi3+0x21c>
9d0055fc:	70ea5020 	clz	t2,a3
9d005600:	15400048 	bnez	t2,9d005724 <__umoddi3+0x228>
9d005604:	240b0020 	li	t3,32
9d005608:	00e5102b 	sltu	v0,a3,a1
9d00560c:	14400005 	bnez	v0,9d005624 <__umoddi3+0x128>
9d005610:	00861023 	subu	v0,a0,a2
9d005614:	0086402b 	sltu	t0,a0,a2
9d005618:	15000089 	bnez	t0,9d005840 <__umoddi3+0x344>
9d00561c:	00801021 	move	v0,a0
9d005620:	00861023 	subu	v0,a0,a2
9d005624:	00a72823 	subu	a1,a1,a3
9d005628:	0082202b 	sltu	a0,a0,v0
9d00562c:	03e00008 	jr	ra
9d005630:	00a41823 	subu	v1,a1,a0
9d005634:	14c00006 	bnez	a2,9d005650 <__umoddi3+0x154>
9d005638:	71021020 	clz	v0,t0
9d00563c:	24020001 	li	v0,1
9d005640:	0046001b 	divu	zero,v0,a2
9d005644:	00c001f4 	teq	a2,zero,0x7
9d005648:	00004012 	mflo	t0
9d00564c:	71021020 	clz	v0,t0
9d005650:	5440007d 	bnezl	v0,9d005848 <__umoddi3+0x34c>
9d005654:	00484004 	sllv	t0,t0,v0
9d005658:	00a82823 	subu	a1,a1,t0
9d00565c:	00081c02 	srl	v1,t0,0x10
9d005660:	3107ffff 	andi	a3,t0,0xffff
9d005664:	00092402 	srl	a0,t1,0x10
9d005668:	00a3001b 	divu	zero,a1,v1
9d00566c:	006001f4 	teq	v1,zero,0x7
9d005670:	00005010 	mfhi	t2
9d005674:	00003012 	mflo	a2
9d005678:	70c73002 	mul	a2,a2,a3
9d00567c:	000a5400 	sll	t2,t2,0x10
9d005680:	01442025 	or	a0,t2,a0
9d005684:	0086502b 	sltu	t2,a0,a2
9d005688:	00a3001b 	divu	zero,a1,v1
9d00568c:	006001f4 	teq	v1,zero,0x7
9d005690:	51400009 	beqzl	t2,9d0056b8 <__umoddi3+0x1bc>
9d005694:	00862023 	subu	a0,a0,a2
9d005698:	00882021 	addu	a0,a0,t0
9d00569c:	0088282b 	sltu	a1,a0,t0
9d0056a0:	54a00005 	bnezl	a1,9d0056b8 <__umoddi3+0x1bc>
9d0056a4:	00862023 	subu	a0,a0,a2
9d0056a8:	0086502b 	sltu	t2,a0,a2
9d0056ac:	00882821 	addu	a1,a0,t0
9d0056b0:	00aa200b 	movn	a0,a1,t2
9d0056b4:	00862023 	subu	a0,a0,a2
9d0056b8:	3126ffff 	andi	a2,t1,0xffff
9d0056bc:	0083001b 	divu	zero,a0,v1
9d0056c0:	006001f4 	teq	v1,zero,0x7
9d0056c4:	00004810 	mfhi	t1
9d0056c8:	00002812 	mflo	a1
9d0056cc:	70a72802 	mul	a1,a1,a3
9d0056d0:	00094c00 	sll	t1,t1,0x10
9d0056d4:	01264825 	or	t1,t1,a2
9d0056d8:	0125302b 	sltu	a2,t1,a1
9d0056dc:	0083001b 	divu	zero,a0,v1
9d0056e0:	006001f4 	teq	v1,zero,0x7
9d0056e4:	50c00009 	beqzl	a2,9d00570c <__umoddi3+0x210>
9d0056e8:	01254823 	subu	t1,t1,a1
9d0056ec:	01284821 	addu	t1,t1,t0
9d0056f0:	0128182b 	sltu	v1,t1,t0
9d0056f4:	54600005 	bnezl	v1,9d00570c <__umoddi3+0x210>
9d0056f8:	01254823 	subu	t1,t1,a1
9d0056fc:	0125182b 	sltu	v1,t1,a1
9d005700:	01284021 	addu	t0,t1,t0
9d005704:	0103480b 	movn	t1,t0,v1
9d005708:	01254823 	subu	t1,t1,a1
9d00570c:	00491006 	srlv	v0,t1,v0
9d005710:	03e00008 	jr	ra
9d005714:	00001821 	move	v1,zero
9d005718:	00801021 	move	v0,a0
9d00571c:	03e00008 	jr	ra
9d005720:	00a01821 	move	v1,a1
9d005724:	016a5823 	subu	t3,t3,t2
9d005728:	01473804 	sllv	a3,a3,t2
9d00572c:	01661006 	srlv	v0,a2,t3
9d005730:	00473825 	or	a3,v0,a3
9d005734:	01656806 	srlv	t5,a1,t3
9d005738:	00074c02 	srl	t1,a3,0x10
9d00573c:	01a9001b 	divu	zero,t5,t1
9d005740:	012001f4 	teq	t1,zero,0x7
9d005744:	00006010 	mfhi	t4
9d005748:	00001812 	mflo	v1
9d00574c:	30eeffff 	andi	t6,a3,0xffff
9d005750:	01452804 	sllv	a1,a1,t2
9d005754:	01641006 	srlv	v0,a0,t3
9d005758:	00451025 	or	v0,v0,a1
9d00575c:	00022c02 	srl	a1,v0,0x10
9d005760:	01463004 	sllv	a2,a2,t2
9d005764:	00004012 	mflo	t0
9d005768:	706e7802 	mul	t7,v1,t6
9d00576c:	000c6400 	sll	t4,t4,0x10
9d005770:	01856025 	or	t4,t4,a1
9d005774:	018f282b 	sltu	a1,t4,t7
9d005778:	01a9001b 	divu	zero,t5,t1
9d00577c:	012001f4 	teq	t1,zero,0x7
9d005780:	10a0000a 	beqz	a1,9d0057ac <__umoddi3+0x2b0>
9d005784:	01442004 	sllv	a0,a0,t2
9d005788:	01876021 	addu	t4,t4,a3
9d00578c:	0187282b 	sltu	a1,t4,a3
9d005790:	14a00006 	bnez	a1,9d0057ac <__umoddi3+0x2b0>
9d005794:	2468ffff 	addiu	t0,v1,-1
9d005798:	018f282b 	sltu	a1,t4,t7
9d00579c:	50a00004 	beqzl	a1,9d0057b0 <__umoddi3+0x2b4>
9d0057a0:	018f6023 	subu	t4,t4,t7
9d0057a4:	2468fffe 	addiu	t0,v1,-2
9d0057a8:	01876021 	addu	t4,t4,a3
9d0057ac:	018f6023 	subu	t4,t4,t7
9d0057b0:	3042ffff 	andi	v0,v0,0xffff
9d0057b4:	0189001b 	divu	zero,t4,t1
9d0057b8:	012001f4 	teq	t1,zero,0x7
9d0057bc:	00002810 	mfhi	a1
9d0057c0:	00001812 	mflo	v1
9d0057c4:	00006812 	mflo	t5
9d0057c8:	706e7002 	mul	t6,v1,t6
9d0057cc:	00052c00 	sll	a1,a1,0x10
9d0057d0:	00a21025 	or	v0,a1,v0
9d0057d4:	004e282b 	sltu	a1,v0,t6
9d0057d8:	0189001b 	divu	zero,t4,t1
9d0057dc:	012001f4 	teq	t1,zero,0x7
9d0057e0:	50a00006 	beqzl	a1,9d0057fc <__umoddi3+0x300>
9d0057e4:	00084400 	sll	t0,t0,0x10
9d0057e8:	00471021 	addu	v0,v0,a3
9d0057ec:	0047282b 	sltu	a1,v0,a3
9d0057f0:	10a0004c 	beqz	a1,9d005924 <__umoddi3+0x428>
9d0057f4:	246dffff 	addiu	t5,v1,-1
9d0057f8:	00084400 	sll	t0,t0,0x10
9d0057fc:	01a84025 	or	t0,t5,t0
9d005800:	004e1023 	subu	v0,v0,t6
9d005804:	01060019 	multu	t0,a2
9d005808:	00004810 	mfhi	t1
9d00580c:	0049182b 	sltu	v1,v0,t1
9d005810:	1460003e 	bnez	v1,9d00590c <__umoddi3+0x410>
9d005814:	00004012 	mflo	t0
9d005818:	1049004b 	beq	v0,t1,9d005948 <__umoddi3+0x44c>
9d00581c:	00491823 	subu	v1,v0,t1
9d005820:	00003012 	mflo	a2
9d005824:	00863023 	subu	a2,a0,a2
9d005828:	0086202b 	sltu	a0,a0,a2
9d00582c:	00641823 	subu	v1,v1,a0
9d005830:	01631004 	sllv	v0,v1,t3
9d005834:	01463006 	srlv	a2,a2,t2
9d005838:	00461025 	or	v0,v0,a2
9d00583c:	01431806 	srlv	v1,v1,t2
9d005840:	03e00008 	jr	ra
9d005844:	00000000 	nop
9d005848:	24090020 	li	t1,32
9d00584c:	01224823 	subu	t1,t1,v0
9d005850:	01255006 	srlv	t2,a1,t1
9d005854:	00081c02 	srl	v1,t0,0x10
9d005858:	0143001b 	divu	zero,t2,v1
9d00585c:	006001f4 	teq	v1,zero,0x7
9d005860:	00003010 	mfhi	a2
9d005864:	00005812 	mflo	t3
9d005868:	3107ffff 	andi	a3,t0,0xffff
9d00586c:	00452804 	sllv	a1,a1,v0
9d005870:	01244806 	srlv	t1,a0,t1
9d005874:	01252825 	or	a1,t1,a1
9d005878:	00056402 	srl	t4,a1,0x10
9d00587c:	00444804 	sllv	t1,a0,v0
9d005880:	71675802 	mul	t3,t3,a3
9d005884:	00063400 	sll	a2,a2,0x10
9d005888:	01863025 	or	a2,t4,a2
9d00588c:	00cb202b 	sltu	a0,a2,t3
9d005890:	0143001b 	divu	zero,t2,v1
9d005894:	006001f4 	teq	v1,zero,0x7
9d005898:	50800006 	beqzl	a0,9d0058b4 <__umoddi3+0x3b8>
9d00589c:	00cb3023 	subu	a2,a2,t3
9d0058a0:	00c83021 	addu	a2,a2,t0
9d0058a4:	00c8202b 	sltu	a0,a2,t0
9d0058a8:	10800024 	beqz	a0,9d00593c <__umoddi3+0x440>
9d0058ac:	00cb502b 	sltu	t2,a2,t3
9d0058b0:	00cb3023 	subu	a2,a2,t3
9d0058b4:	30aaffff 	andi	t2,a1,0xffff
9d0058b8:	00c3001b 	divu	zero,a2,v1
9d0058bc:	006001f4 	teq	v1,zero,0x7
9d0058c0:	00002010 	mfhi	a0
9d0058c4:	00002812 	mflo	a1
9d0058c8:	70a72802 	mul	a1,a1,a3
9d0058cc:	00042400 	sll	a0,a0,0x10
9d0058d0:	008a2025 	or	a0,a0,t2
9d0058d4:	0085502b 	sltu	t2,a0,a1
9d0058d8:	00c3001b 	divu	zero,a2,v1
9d0058dc:	006001f4 	teq	v1,zero,0x7
9d0058e0:	5140ff60 	beqzl	t2,9d005664 <__umoddi3+0x168>
9d0058e4:	00852823 	subu	a1,a0,a1
9d0058e8:	00882021 	addu	a0,a0,t0
9d0058ec:	0088302b 	sltu	a2,a0,t0
9d0058f0:	54c0ff5c 	bnezl	a2,9d005664 <__umoddi3+0x168>
9d0058f4:	00852823 	subu	a1,a0,a1
9d0058f8:	0085502b 	sltu	t2,a0,a1
9d0058fc:	00883021 	addu	a2,a0,t0
9d005900:	00ca200b 	movn	a0,a2,t2
9d005904:	0b401599 	j	9d005664 <__umoddi3+0x168>
9d005908:	00852823 	subu	a1,a0,a1
9d00590c:	01063023 	subu	a2,t0,a2
9d005910:	01271823 	subu	v1,t1,a3
9d005914:	0106402b 	sltu	t0,t0,a2
9d005918:	00681823 	subu	v1,v1,t0
9d00591c:	0b401609 	j	9d005824 <__umoddi3+0x328>
9d005920:	00431823 	subu	v1,v0,v1
9d005924:	004e282b 	sltu	a1,v0,t6
9d005928:	50a0ffb4 	beqzl	a1,9d0057fc <__umoddi3+0x300>
9d00592c:	00084400 	sll	t0,t0,0x10
9d005930:	246dfffe 	addiu	t5,v1,-2
9d005934:	0b4015fe 	j	9d0057f8 <__umoddi3+0x2fc>
9d005938:	00471021 	addu	v0,v0,a3
9d00593c:	00c82021 	addu	a0,a2,t0
9d005940:	0b40162c 	j	9d0058b0 <__umoddi3+0x3b4>
9d005944:	008a300b 	movn	a2,a0,t2
9d005948:	0088182b 	sltu	v1,a0,t0
9d00594c:	5460fff0 	bnezl	v1,9d005910 <__umoddi3+0x414>
9d005950:	01063023 	subu	a2,t0,a2
9d005954:	00003012 	mflo	a2
9d005958:	0b401609 	j	9d005824 <__umoddi3+0x328>
9d00595c:	00001821 	move	v1,zero

// wait for the peripheral master port (PMP) to be ready
// should be called before every read and write operation
static void waitPMP(void)
{
  while(PMMODEbits.BUSY) { ; }
9d005960:	3c03bf80 	lui	v1,0xbf80
9d005964:	8c627010 	lw	v0,28688(v1)
9d005968:	30428000 	andi	v0,v0,0x8000
9d00596c:	1440fffd 	bnez	v0,9d005964 <__umoddi3+0x468>
9d005970:	00000000 	nop
}
9d005974:	03e00008 	jr	ra
9d005978:	00000000 	nop

9d00597c <LCD_Setup>:
// pins RE0 - RE7 (PMD0 - PMD7) connect to LCD pins D0 - D7
// pin RD4 (PMENB) connects to LCD pin E
// pin RD5 (PMRD/PMWR) Connects to LCD pin R/W
// pin RB13 (PMA10) Connects to RS.
// interrupts will be disabled while this function executes
void LCD_Setup() {
9d00597c:	27bdffe8 	addiu	sp,sp,-24
9d005980:	afbf0014 	sw	ra,20(sp)
9d005984:	afb00010 	sw	s0,16(sp)
  int en = __builtin_disable_interrupts();  // disable interrupts, remember initial state
9d005988:	41706000 	di	s0
9d00598c:	000000c0 	ehb
  
  IEC1bits.PMPIE = 0;    // disable PMP interrupts
9d005990:	3c02bf88 	lui	v0,0xbf88
9d005994:	8c431070 	lw	v1,4208(v0)
9d005998:	7c031084 	ins	v1,zero,0x2,0x1
9d00599c:	ac431070 	sw	v1,4208(v0)
  PMCON = 0;             // clear PMCON, like it is on reset
9d0059a0:	3c02bf80 	lui	v0,0xbf80
9d0059a4:	ac407000 	sw	zero,28672(v0)
  PMCONbits.PTWREN = 1;  // PMENB strobe enabled
9d0059a8:	3c02bf80 	lui	v0,0xbf80
9d0059ac:	94437000 	lhu	v1,28672(v0)
9d0059b0:	24040001 	li	a0,1
9d0059b4:	7c834a44 	ins	v1,a0,0x9,0x1
9d0059b8:	a4437000 	sh	v1,28672(v0)
  PMCONbits.PTRDEN = 1;  // PMRD/PMWR enabled
9d0059bc:	94437000 	lhu	v1,28672(v0)
9d0059c0:	7c834204 	ins	v1,a0,0x8,0x1
9d0059c4:	a4437000 	sh	v1,28672(v0)
  PMCONbits.WRSP = 1;    // Read/write strobe is active high
9d0059c8:	94437000 	lhu	v1,28672(v0)
9d0059cc:	7c830844 	ins	v1,a0,0x1,0x1
9d0059d0:	a4437000 	sh	v1,28672(v0)
  PMCONbits.RDSP = 1;    // Read/write strobe is active high
9d0059d4:	94437000 	lhu	v1,28672(v0)
9d0059d8:	7c830004 	ins	v1,a0,0x0,0x1
9d0059dc:	a4437000 	sh	v1,28672(v0)

  PMMODE = 0;            // clear PMMODE like it is on reset
9d0059e0:	3c03bf80 	lui	v1,0xbf80
9d0059e4:	ac607010 	sw	zero,28688(v1)
  PMMODEbits.MODE = 0x3; // set master mode 1, which uses a single strobe
9d0059e8:	3c03bf80 	lui	v1,0xbf80
9d0059ec:	94657010 	lhu	a1,28688(v1)
9d0059f0:	24060003 	li	a2,3
9d0059f4:	7cc54a04 	ins	a1,a2,0x8,0x2
9d0059f8:	a4657010 	sh	a1,28688(v1)
  // The cycle is started when reading from or writing to the PMDIN SFR.
  // Note that the wait states for writes start with minimum of 1 (except WAITE)
  // We add some extra wait states to make sure we meet the time and
  // account for variations in timing amongst different HD44780 compatible parts.
  // The timing we use here is for the KS066U which is faster than the HD44780.
  PMMODEbits.WAITB = 0x3;  // Tas in the LCD datasheet is 60 ns 
9d0059fc:	94657010 	lhu	a1,28688(v1)
9d005a00:	7cc53984 	ins	a1,a2,0x6,0x2
9d005a04:	a4657010 	sh	a1,28688(v1)
  PMMODEbits.WAITM = 0xF;  // PWeh in the data sheet is 230 ns (we don't quite meet this)
9d005a08:	94657010 	lhu	a1,28688(v1)
9d005a0c:	2406000f 	li	a2,15
9d005a10:	7cc52884 	ins	a1,a2,0x2,0x4
9d005a14:	a4657010 	sh	a1,28688(v1)
                           // If not working for your LCD you may need to reduce PBCLK
  PMMODEbits.WAITE = 0x1;  // after E is low wait Tah (10ns)
9d005a18:	94657010 	lhu	a1,28688(v1)
9d005a1c:	7c850804 	ins	a1,a0,0x0,0x2
9d005a20:	a4657010 	sh	a1,28688(v1)

  PMAEN |= 1 << PMABIT;   // PMA is an address line
9d005a24:	3c03bf80 	lui	v1,0xbf80
9d005a28:	8c657050 	lw	a1,28752(v1)
9d005a2c:	34a50400 	ori	a1,a1,0x400
9d005a30:	ac657050 	sw	a1,28752(v1)
  
  PMCONbits.ON = 1;        // enable the PMP peripheral
9d005a34:	94437000 	lhu	v1,28672(v0)
9d005a38:	7c837bc4 	ins	v1,a0,0xf,0x1
9d005a3c:	a4437000 	sh	v1,28672(v0)
// This controls some LCD settings
// You may want to clear the screen after calling this
// n : 0 one line, 1 two lines
// f : 0 small font, 1 large font (only if n == 0)
void LCD_Function(int n, int f) {
  LCD_Write(0, 0x30 | (n << 3) | (f << 2));
9d005a40:	00002021 	move	a0,zero
9d005a44:	0f40172a 	jal	9d005ca8 <LCD_Write>
9d005a48:	24050038 	li	a1,56
// Changes display settings
// d : 1 display on, 0 display off
// c : 1 cursor on, 0 cursor off
// b : 1 cursor blinks, 0 cursor doesn't blink
void LCD_Display(int d, int c, int b) {
  LCD_Write(0, 0x08 | (d << 2) | (c << 1) | b);
9d005a4c:	00002021 	move	a0,zero
9d005a50:	0f40172a 	jal	9d005ca8 <LCD_Write>
9d005a54:	2405000c 	li	a1,12
  
  PMCONbits.ON = 1;        // enable the PMP peripheral
  // perform the initialization sequence
  LCD_Function(1,0);       // 2 line mode, small font
  LCD_Display(1, 0, 0);    // Display control: display on, cursor off, blinking cursor off
  LCD_Clear();             // clear the LCD 
9d005a58:	0f4016a2 	jal	9d005a88 <LCD_Clear>
9d005a5c:	32100001 	andi	s0,s0,0x1
// Issue the LCD entry mode set command
// This tells the LCD what to do after writing a character
// id : 1 increment cursor, 0 decrement cursor
// s : 1 shift display right, 0 don't shift display
void LCD_Entry(int id, int s) {
  LCD_Write(0, 0x04 | (id << 1) | s);
9d005a60:	00002021 	move	a0,zero
9d005a64:	0f40172a 	jal	9d005ca8 <LCD_Write>
9d005a68:	24050006 	li	a1,6
  LCD_Function(1,0);       // 2 line mode, small font
  LCD_Display(1, 0, 0);    // Display control: display on, cursor off, blinking cursor off
  LCD_Clear();             // clear the LCD 
  LCD_Entry(1, 0);         // Cursor moves left to right. do not shift the display
  
  if(en & 0x1)             // if interrupts were enabled before, re-enable them
9d005a6c:	12000003 	beqz	s0,9d005a7c <LCD_Setup+0x100>
9d005a70:	8fbf0014 	lw	ra,20(sp)
  {
    __builtin_enable_interrupts();
9d005a74:	41626020 	ei	v0
  }
}
9d005a78:	8fbf0014 	lw	ra,20(sp)
9d005a7c:	8fb00010 	lw	s0,16(sp)
9d005a80:	03e00008 	jr	ra
9d005a84:	27bd0018 	addiu	sp,sp,24

9d005a88 <LCD_Clear>:

// Clears the display and returns to the home position (0,0)
void LCD_Clear(void) {
9d005a88:	27bdffe8 	addiu	sp,sp,-24
9d005a8c:	afbf0014 	sw	ra,20(sp)
  LCD_Write(0,0x01); //clear the whole screen
9d005a90:	00002021 	move	a0,zero
9d005a94:	0f40172a 	jal	9d005ca8 <LCD_Write>
9d005a98:	24050001 	li	a1,1
}
9d005a9c:	8fbf0014 	lw	ra,20(sp)
9d005aa0:	03e00008 	jr	ra
9d005aa4:	27bd0018 	addiu	sp,sp,24

9d005aa8 <LCD_Home>:

// Return the cursor and display to the home position (0,0)
void LCD_Home(void) {
9d005aa8:	27bdffe8 	addiu	sp,sp,-24
9d005aac:	afbf0014 	sw	ra,20(sp)
  LCD_Write(0,0x02);
9d005ab0:	00002021 	move	a0,zero
9d005ab4:	0f40172a 	jal	9d005ca8 <LCD_Write>
9d005ab8:	24050002 	li	a1,2
}
9d005abc:	8fbf0014 	lw	ra,20(sp)
9d005ac0:	03e00008 	jr	ra
9d005ac4:	27bd0018 	addiu	sp,sp,24

9d005ac8 <LCD_Entry>:

// Issue the LCD entry mode set command
// This tells the LCD what to do after writing a character
// id : 1 increment cursor, 0 decrement cursor
// s : 1 shift display right, 0 don't shift display
void LCD_Entry(int id, int s) {
9d005ac8:	27bdffe8 	addiu	sp,sp,-24
9d005acc:	afbf0014 	sw	ra,20(sp)
  LCD_Write(0, 0x04 | (id << 1) | s);
9d005ad0:	34a50004 	ori	a1,a1,0x4
9d005ad4:	00042040 	sll	a0,a0,0x1
9d005ad8:	00a42825 	or	a1,a1,a0
9d005adc:	00002021 	move	a0,zero
9d005ae0:	0f40172a 	jal	9d005ca8 <LCD_Write>
9d005ae4:	30a500ff 	andi	a1,a1,0xff
}
9d005ae8:	8fbf0014 	lw	ra,20(sp)
9d005aec:	03e00008 	jr	ra
9d005af0:	27bd0018 	addiu	sp,sp,24

9d005af4 <LCD_Display>:
// Issue the LCD Display command
// Changes display settings
// d : 1 display on, 0 display off
// c : 1 cursor on, 0 cursor off
// b : 1 cursor blinks, 0 cursor doesn't blink
void LCD_Display(int d, int c, int b) {
9d005af4:	27bdffe8 	addiu	sp,sp,-24
9d005af8:	afbf0014 	sw	ra,20(sp)
  LCD_Write(0, 0x08 | (d << 2) | (c << 1) | b);
9d005afc:	34c60008 	ori	a2,a2,0x8
9d005b00:	00052840 	sll	a1,a1,0x1
9d005b04:	00c53025 	or	a2,a2,a1
9d005b08:	00042080 	sll	a0,a0,0x2
9d005b0c:	00c42825 	or	a1,a2,a0
9d005b10:	00002021 	move	a0,zero
9d005b14:	0f40172a 	jal	9d005ca8 <LCD_Write>
9d005b18:	30a500ff 	andi	a1,a1,0xff
}
9d005b1c:	8fbf0014 	lw	ra,20(sp)
9d005b20:	03e00008 	jr	ra
9d005b24:	27bd0018 	addiu	sp,sp,24

9d005b28 <LCD_Shift>:

// Issue the LCD display shift command
// Move the cursor or the display right or left
// sc : 0 shift cursor, 1 shift display
// rl : 0 to the left, 1 to the right
void LCD_Shift(int sc, int rl) {
9d005b28:	27bdffe8 	addiu	sp,sp,-24
9d005b2c:	afbf0014 	sw	ra,20(sp)
  LCD_Write(0,0x1 | (sc << 3) | (rl << 2));
9d005b30:	00052880 	sll	a1,a1,0x2
9d005b34:	34a50001 	ori	a1,a1,0x1
9d005b38:	000420c0 	sll	a0,a0,0x3
9d005b3c:	00a42825 	or	a1,a1,a0
9d005b40:	00002021 	move	a0,zero
9d005b44:	0f40172a 	jal	9d005ca8 <LCD_Write>
9d005b48:	30a500fd 	andi	a1,a1,0xfd
}
9d005b4c:	8fbf0014 	lw	ra,20(sp)
9d005b50:	03e00008 	jr	ra
9d005b54:	27bd0018 	addiu	sp,sp,24

9d005b58 <LCD_Function>:
// Issue the LCD Functions set command
// This controls some LCD settings
// You may want to clear the screen after calling this
// n : 0 one line, 1 two lines
// f : 0 small font, 1 large font (only if n == 0)
void LCD_Function(int n, int f) {
9d005b58:	27bdffe8 	addiu	sp,sp,-24
9d005b5c:	afbf0014 	sw	ra,20(sp)
  LCD_Write(0, 0x30 | (n << 3) | (f << 2));
9d005b60:	00052880 	sll	a1,a1,0x2
9d005b64:	34a50030 	ori	a1,a1,0x30
9d005b68:	000420c0 	sll	a0,a0,0x3
9d005b6c:	00a42825 	or	a1,a1,a0
9d005b70:	00002021 	move	a0,zero
9d005b74:	0f40172a 	jal	9d005ca8 <LCD_Write>
9d005b78:	30a500fc 	andi	a1,a1,0xfc
}
9d005b7c:	8fbf0014 	lw	ra,20(sp)
9d005b80:	03e00008 	jr	ra
9d005b84:	27bd0018 	addiu	sp,sp,24

9d005b88 <LCD_Move>:

// Move the cursor to the desired line and column
// Does this by issuing a DDRAM Move instruction
// line : line 0 or line 1
// col  : the desired column
void LCD_Move(int line, int col) {
9d005b88:	27bdffe8 	addiu	sp,sp,-24
9d005b8c:	afbf0014 	sw	ra,20(sp)
  LCD_Write(0, 0x80 | (line << 6) | col);
9d005b90:	2402ff80 	li	v0,-128
9d005b94:	00a22825 	or	a1,a1,v0
9d005b98:	00042180 	sll	a0,a0,0x6
9d005b9c:	00a42825 	or	a1,a1,a0
9d005ba0:	00002021 	move	a0,zero
9d005ba4:	0f40172a 	jal	9d005ca8 <LCD_Write>
9d005ba8:	30a500ff 	andi	a1,a1,0xff
}
9d005bac:	8fbf0014 	lw	ra,20(sp)
9d005bb0:	03e00008 	jr	ra
9d005bb4:	27bd0018 	addiu	sp,sp,24

9d005bb8 <LCD_CMove>:

// Sets the CGRAM address, used for creating custom
// characters
// addr address in the CGRAM to make current
void LCD_CMove(unsigned char addr) {
9d005bb8:	27bdffe8 	addiu	sp,sp,-24
9d005bbc:	afbf0014 	sw	ra,20(sp)
9d005bc0:	308500ff 	andi	a1,a0,0xff
  LCD_Write(0, 0x40 | addr);
9d005bc4:	00002021 	move	a0,zero
9d005bc8:	0f40172a 	jal	9d005ca8 <LCD_Write>
9d005bcc:	34a50040 	ori	a1,a1,0x40
}
9d005bd0:	8fbf0014 	lw	ra,20(sp)
9d005bd4:	03e00008 	jr	ra
9d005bd8:	27bd0018 	addiu	sp,sp,24

9d005bdc <LCD_WriteChar>:

// Writes the character to the LCD at the current position
void LCD_WriteChar(char c) {         
9d005bdc:	27bdffe8 	addiu	sp,sp,-24
9d005be0:	afbf0014 	sw	ra,20(sp)
  LCD_Write(1, c); 
9d005be4:	308500ff 	andi	a1,a0,0xff
9d005be8:	0f40172a 	jal	9d005ca8 <LCD_Write>
9d005bec:	24040001 	li	a0,1
}
9d005bf0:	8fbf0014 	lw	ra,20(sp)
9d005bf4:	03e00008 	jr	ra
9d005bf8:	27bd0018 	addiu	sp,sp,24

9d005bfc <LCD_WriteString>:

// Write a string to the LCD starting at the current cursor
void LCD_WriteString(const char *str) {
9d005bfc:	27bdffe8 	addiu	sp,sp,-24
9d005c00:	afbf0014 	sw	ra,20(sp)
9d005c04:	afb00010 	sw	s0,16(sp)
9d005c08:	00808021 	move	s0,a0
  while(*str) {
9d005c0c:	80840000 	lb	a0,0(a0)
9d005c10:	10800006 	beqz	a0,9d005c2c <LCD_WriteString+0x30>
9d005c14:	8fbf0014 	lw	ra,20(sp)
    LCD_WriteChar(*str); // increment string pointer after char sent
9d005c18:	0f4016f7 	jal	9d005bdc <LCD_WriteChar>
9d005c1c:	26100001 	addiu	s0,s0,1
  LCD_Write(1, c); 
}

// Write a string to the LCD starting at the current cursor
void LCD_WriteString(const char *str) {
  while(*str) {
9d005c20:	82040000 	lb	a0,0(s0)
9d005c24:	1480fffc 	bnez	a0,9d005c18 <LCD_WriteString+0x1c>
9d005c28:	8fbf0014 	lw	ra,20(sp)
    LCD_WriteChar(*str); // increment string pointer after char sent
    ++str;
  }
}
9d005c2c:	8fb00010 	lw	s0,16(sp)
9d005c30:	03e00008 	jr	ra
9d005c34:	27bd0018 	addiu	sp,sp,24

9d005c38 <LCD_CustomChar>:
// Make val a custom character.  This only implements 
// The small font version
// val : between 0 and 7
// data : 7 character array.  The first 5 bits of each character
//        determine whether that pixel is on or off
void LCD_CustomChar(unsigned char val, const char * data) {
9d005c38:	27bdffd8 	addiu	sp,sp,-40
9d005c3c:	afbf0024 	sw	ra,36(sp)
9d005c40:	afb30020 	sw	s3,32(sp)
9d005c44:	afb2001c 	sw	s2,28(sp)
9d005c48:	afb10018 	sw	s1,24(sp)
9d005c4c:	afb00014 	sw	s0,20(sp)
9d005c50:	00a09821 	move	s3,a1
  int i = 0;
  for(i = 0; i < 7; ++i) {
    LCD_CMove(((val & 7) << 2) | i);
9d005c54:	30840007 	andi	a0,a0,0x7
9d005c58:	00049080 	sll	s2,a0,0x2
// val : between 0 and 7
// data : 7 character array.  The first 5 bits of each character
//        determine whether that pixel is on or off
void LCD_CustomChar(unsigned char val, const char * data) {
  int i = 0;
  for(i = 0; i < 7; ++i) {
9d005c5c:	00008021 	move	s0,zero
9d005c60:	24110007 	li	s1,7
    LCD_CMove(((val & 7) << 2) | i);
9d005c64:	02502025 	or	a0,s2,s0
9d005c68:	0f4016ee 	jal	9d005bb8 <LCD_CMove>
9d005c6c:	308400ff 	andi	a0,a0,0xff
9d005c70:	02701021 	addu	v0,s3,s0
    LCD_Write(1, data[i]);
9d005c74:	24040001 	li	a0,1
9d005c78:	0f40172a 	jal	9d005ca8 <LCD_Write>
9d005c7c:	90450000 	lbu	a1,0(v0)
// val : between 0 and 7
// data : 7 character array.  The first 5 bits of each character
//        determine whether that pixel is on or off
void LCD_CustomChar(unsigned char val, const char * data) {
  int i = 0;
  for(i = 0; i < 7; ++i) {
9d005c80:	26100001 	addiu	s0,s0,1
9d005c84:	1611fff8 	bne	s0,s1,9d005c68 <LCD_CustomChar+0x30>
9d005c88:	02502025 	or	a0,s2,s0
    LCD_CMove(((val & 7) << 2) | i);
    LCD_Write(1, data[i]);
  }
}
9d005c8c:	8fbf0024 	lw	ra,36(sp)
9d005c90:	8fb30020 	lw	s3,32(sp)
9d005c94:	8fb2001c 	lw	s2,28(sp)
9d005c98:	8fb10018 	lw	s1,24(sp)
9d005c9c:	8fb00014 	lw	s0,20(sp)
9d005ca0:	03e00008 	jr	ra
9d005ca4:	27bd0028 	addiu	sp,sp,40

9d005ca8 <LCD_Write>:

// Write data to the LCD and wait for it to finish by checking the busy flag. 
// rs : the value of the RS signal, 0 for an instruction 1 for data
// data : the byte to send
void LCD_Write(int rs, unsigned char data) {
9d005ca8:	27bdffd8 	addiu	sp,sp,-40
9d005cac:	afbf0024 	sw	ra,36(sp)
9d005cb0:	afb10020 	sw	s1,32(sp)
9d005cb4:	afb0001c 	sw	s0,28(sp)
9d005cb8:	00808021 	move	s0,a0
9d005cbc:	30b100ff 	andi	s1,a1,0xff
}

// wait for the LCD to finish its command.
// We check this by reading from the LCD
static void waitLCD() {
  volatile unsigned char val = 0x80;
9d005cc0:	2402ff80 	li	v0,-128
9d005cc4:	a3a20010 	sb	v0,16(sp)
  
  // Read from the LCD until the Busy flag (BF, 7th bit) is 0
  while (val & 0x80) {
9d005cc8:	93a20010 	lbu	v0,16(sp)
9d005ccc:	7c021420 	seb	v0,v0
9d005cd0:	04410008 	bgez	v0,9d005cf4 <LCD_Write+0x4c>
9d005cd4:	24020032 	li	v0,50
    val = LCD_Read(0);
9d005cd8:	0f401752 	jal	9d005d48 <LCD_Read>
9d005cdc:	00002021 	move	a0,zero
9d005ce0:	a3a20010 	sb	v0,16(sp)
// We check this by reading from the LCD
static void waitLCD() {
  volatile unsigned char val = 0x80;
  
  // Read from the LCD until the Busy flag (BF, 7th bit) is 0
  while (val & 0x80) {
9d005ce4:	93a20010 	lbu	v0,16(sp)
9d005ce8:	7c021420 	seb	v0,v0
9d005cec:	0440fffa 	bltz	v0,9d005cd8 <LCD_Write+0x30>
9d005cf0:	24020032 	li	v0,50
    val = LCD_Read(0);
  }
  int i = 0;
  for(i = 0; i < 50; ++i) { // slight delay
    _nop();
9d005cf4:	00000040 	ssnop
9d005cf8:	2442ffff 	addiu	v0,v0,-1
  // Read from the LCD until the Busy flag (BF, 7th bit) is 0
  while (val & 0x80) {
    val = LCD_Read(0);
  }
  int i = 0;
  for(i = 0; i < 50; ++i) { // slight delay
9d005cfc:	1440fffd 	bnez	v0,9d005cf4 <LCD_Write+0x4c>
9d005d00:	00000000 	nop
// Write data to the LCD and wait for it to finish by checking the busy flag. 
// rs : the value of the RS signal, 0 for an instruction 1 for data
// data : the byte to send
void LCD_Write(int rs, unsigned char data) {
  waitLCD();           // wait for the LCD to be ready
  if(rs) { // 1 for data
9d005d04:	12000004 	beqz	s0,9d005d18 <LCD_Write+0x70>
9d005d08:	24030400 	li	v1,1024
    PMADDRSET = 1 << PMABIT;
9d005d0c:	3c02bf80 	lui	v0,0xbf80
9d005d10:	0b401748 	j	9d005d20 <LCD_Write+0x78>
9d005d14:	ac437028 	sw	v1,28712(v0)
  } else { // 0 for command
    PMADDRCLR = 1 << PMABIT; 
9d005d18:	3c02bf80 	lui	v0,0xbf80
9d005d1c:	ac437024 	sw	v1,28708(v0)
  }
  waitPMP();           // Wait for the PMP to be ready
9d005d20:	0f401658 	jal	9d005960 <__umoddi3+0x464>
9d005d24:	00000000 	nop
  PMDIN = data;        // send the data
9d005d28:	3c02bf80 	lui	v0,0xbf80
9d005d2c:	ac517040 	sw	s1,28736(v0)
}
9d005d30:	0b40174e 	j	9d005d38 <LCD_Write+0x90>
9d005d34:	8fbf0024 	lw	ra,36(sp)
9d005d38:	8fb10020 	lw	s1,32(sp)
9d005d3c:	8fb0001c 	lw	s0,28(sp)
9d005d40:	03e00008 	jr	ra
9d005d44:	27bd0028 	addiu	sp,sp,40

9d005d48 <LCD_Read>:

// read data from the LCD.  
// rs : the value of the RS signal 0 for instructions status, 1 for data
unsigned char LCD_Read(int rs) {
9d005d48:	27bdffe0 	addiu	sp,sp,-32
9d005d4c:	afbf001c 	sw	ra,28(sp)
9d005d50:	afb00018 	sw	s0,24(sp)
  volatile unsigned char val = 0; // volatile so 1st read doesn't get optimized away
9d005d54:	a3a00010 	sb	zero,16(sp)
  if(rs) { // 1 to read data
9d005d58:	10800005 	beqz	a0,9d005d70 <LCD_Read+0x28>
9d005d5c:	24030400 	li	v1,1024
    PMADDRSET = 1 << PMABIT;
9d005d60:	3c02bf80 	lui	v0,0xbf80
9d005d64:	ac437028 	sw	v1,28712(v0)
9d005d68:	0b40175e 	j	9d005d78 <LCD_Read+0x30>
9d005d6c:	00000000 	nop
  } else { // 0 to read command status
    PMADDRCLR = 1 << PMABIT;
9d005d70:	3c02bf80 	lui	v0,0xbf80
9d005d74:	ac437024 	sw	v1,28708(v0)
  }
  // from the PIC32 reference manual, you must read twice to actually get the data
  waitPMP();                  // wait for the PMP to be ready
9d005d78:	0f401658 	jal	9d005960 <__umoddi3+0x464>
9d005d7c:	3c10bf80 	lui	s0,0xbf80
  val = PMDIN;
9d005d80:	8e027040 	lw	v0,28736(s0)
9d005d84:	304200ff 	andi	v0,v0,0xff
9d005d88:	a3a20010 	sb	v0,16(sp)
  waitPMP();
9d005d8c:	0f401658 	jal	9d005960 <__umoddi3+0x464>
9d005d90:	00000000 	nop
  val = PMDIN;
9d005d94:	8e027040 	lw	v0,28736(s0)
9d005d98:	304200ff 	andi	v0,v0,0xff
9d005d9c:	a3a20010 	sb	v0,16(sp)
  return val;
9d005da0:	93a20010 	lbu	v0,16(sp)
}
9d005da4:	304200ff 	andi	v0,v0,0xff
9d005da8:	8fbf001c 	lw	ra,28(sp)
9d005dac:	8fb00018 	lw	s0,24(sp)
9d005db0:	03e00008 	jr	ra
9d005db4:	27bd0020 	addiu	sp,sp,32

9d005db8 <__udivdi3>:
9d005db8:	00c04021 	move	t0,a2
9d005dbc:	00801021 	move	v0,a0
9d005dc0:	14e0003f 	bnez	a3,9d005ec0 <__udivdi3+0x108>
9d005dc4:	00a04821 	move	t1,a1
9d005dc8:	00a6182b 	sltu	v1,a1,a2
9d005dcc:	10600047 	beqz	v1,9d005eec <__udivdi3+0x134>
9d005dd0:	70c31820 	clz	v1,a2
9d005dd4:	50600008 	beqzl	v1,9d005df8 <__udivdi3+0x40>
9d005dd8:	00081c02 	srl	v1,t0,0x10
9d005ddc:	00034823 	negu	t1,v1
9d005de0:	00652804 	sllv	a1,a1,v1
9d005de4:	01244806 	srlv	t1,a0,t1
9d005de8:	00664004 	sllv	t0,a2,v1
9d005dec:	01254825 	or	t1,t1,a1
9d005df0:	00641004 	sllv	v0,a0,v1
9d005df4:	00081c02 	srl	v1,t0,0x10
9d005df8:	0123001b 	divu	zero,t1,v1
9d005dfc:	006001f4 	teq	v1,zero,0x7
9d005e00:	00006010 	mfhi	t4
9d005e04:	00005812 	mflo	t3
9d005e08:	310affff 	andi	t2,t0,0xffff
9d005e0c:	00022402 	srl	a0,v0,0x10
9d005e10:	00003012 	mflo	a2
9d005e14:	716a3802 	mul	a3,t3,t2
9d005e18:	000c6400 	sll	t4,t4,0x10
9d005e1c:	01842025 	or	a0,t4,a0
9d005e20:	0087602b 	sltu	t4,a0,a3
9d005e24:	0123001b 	divu	zero,t1,v1
9d005e28:	006001f4 	teq	v1,zero,0x7
9d005e2c:	1180000b 	beqz	t4,9d005e5c <__udivdi3+0xa4>
9d005e30:	00872823 	subu	a1,a0,a3
9d005e34:	00882021 	addu	a0,a0,t0
9d005e38:	0088282b 	sltu	a1,a0,t0
9d005e3c:	14a00006 	bnez	a1,9d005e58 <__udivdi3+0xa0>
9d005e40:	2566ffff 	addiu	a2,t3,-1
9d005e44:	0087282b 	sltu	a1,a0,a3
9d005e48:	10a00004 	beqz	a1,9d005e5c <__udivdi3+0xa4>
9d005e4c:	00872823 	subu	a1,a0,a3
9d005e50:	2566fffe 	addiu	a2,t3,-2
9d005e54:	00882021 	addu	a0,a0,t0
9d005e58:	00872823 	subu	a1,a0,a3
9d005e5c:	3042ffff 	andi	v0,v0,0xffff
9d005e60:	00a3001b 	divu	zero,a1,v1
9d005e64:	006001f4 	teq	v1,zero,0x7
9d005e68:	00004810 	mfhi	t1
9d005e6c:	00003812 	mflo	a3
9d005e70:	00002012 	mflo	a0
9d005e74:	70ea5002 	mul	t2,a3,t2
9d005e78:	00094c00 	sll	t1,t1,0x10
9d005e7c:	01221025 	or	v0,t1,v0
9d005e80:	004a482b 	sltu	t1,v0,t2
9d005e84:	00a3001b 	divu	zero,a1,v1
9d005e88:	006001f4 	teq	v1,zero,0x7
9d005e8c:	51200009 	beqzl	t1,9d005eb4 <__udivdi3+0xfc>
9d005e90:	00061400 	sll	v0,a2,0x10
9d005e94:	00481021 	addu	v0,v0,t0
9d005e98:	0048402b 	sltu	t0,v0,t0
9d005e9c:	15000004 	bnez	t0,9d005eb0 <__udivdi3+0xf8>
9d005ea0:	24e4ffff 	addiu	a0,a3,-1
9d005ea4:	004a502b 	sltu	t2,v0,t2
9d005ea8:	24e7fffe 	addiu	a3,a3,-2
9d005eac:	00ea200b 	movn	a0,a3,t2
9d005eb0:	00061400 	sll	v0,a2,0x10
9d005eb4:	00821025 	or	v0,a0,v0
9d005eb8:	03e00008 	jr	ra
9d005ebc:	00001821 	move	v1,zero
9d005ec0:	00a7102b 	sltu	v0,a1,a3
9d005ec4:	14400044 	bnez	v0,9d005fd8 <__udivdi3+0x220>
9d005ec8:	70e84020 	clz	t0,a3
9d005ecc:	55000045 	bnezl	t0,9d005fe4 <__udivdi3+0x22c>
9d005ed0:	24020020 	li	v0,32
9d005ed4:	00e5282b 	sltu	a1,a3,a1
9d005ed8:	14a000c8 	bnez	a1,9d0061fc <__udivdi3+0x444>
9d005edc:	0086302b 	sltu	a2,a0,a2
9d005ee0:	38c20001 	xori	v0,a2,0x1
9d005ee4:	03e00008 	jr	ra
9d005ee8:	00001821 	move	v1,zero
9d005eec:	14c00006 	bnez	a2,9d005f08 <__udivdi3+0x150>
9d005ef0:	71031820 	clz	v1,t0
9d005ef4:	24030001 	li	v1,1
9d005ef8:	0066001b 	divu	zero,v1,a2
9d005efc:	00c001f4 	teq	a2,zero,0x7
9d005f00:	00004012 	mflo	t0
9d005f04:	71031820 	clz	v1,t0
9d005f08:	5460007b 	bnezl	v1,9d0060f8 <__udivdi3+0x340>
9d005f0c:	00684004 	sllv	t0,t0,v1
9d005f10:	00a82023 	subu	a0,a1,t0
9d005f14:	00083c02 	srl	a3,t0,0x10
9d005f18:	310bffff 	andi	t3,t0,0xffff
9d005f1c:	24030001 	li	v1,1
9d005f20:	00023402 	srl	a2,v0,0x10
9d005f24:	0087001b 	divu	zero,a0,a3
9d005f28:	00e001f4 	teq	a3,zero,0x7
9d005f2c:	00006810 	mfhi	t5
9d005f30:	00006012 	mflo	t4
9d005f34:	00004812 	mflo	t1
9d005f38:	718b5002 	mul	t2,t4,t3
9d005f3c:	000d6c00 	sll	t5,t5,0x10
9d005f40:	01a63025 	or	a2,t5,a2
9d005f44:	00ca682b 	sltu	t5,a2,t2
9d005f48:	0087001b 	divu	zero,a0,a3
9d005f4c:	00e001f4 	teq	a3,zero,0x7
9d005f50:	11a00009 	beqz	t5,9d005f78 <__udivdi3+0x1c0>
9d005f54:	00ca2823 	subu	a1,a2,t2
9d005f58:	00c83021 	addu	a2,a2,t0
9d005f5c:	00c8202b 	sltu	a0,a2,t0
9d005f60:	14800004 	bnez	a0,9d005f74 <__udivdi3+0x1bc>
9d005f64:	2589ffff 	addiu	t1,t4,-1
9d005f68:	00ca202b 	sltu	a0,a2,t2
9d005f6c:	548000a6 	bnezl	a0,9d006208 <__udivdi3+0x450>
9d005f70:	2589fffe 	addiu	t1,t4,-2
9d005f74:	00ca2823 	subu	a1,a2,t2
9d005f78:	3042ffff 	andi	v0,v0,0xffff
9d005f7c:	00a7001b 	divu	zero,a1,a3
9d005f80:	00e001f4 	teq	a3,zero,0x7
9d005f84:	00005010 	mfhi	t2
9d005f88:	00003012 	mflo	a2
9d005f8c:	00002012 	mflo	a0
9d005f90:	70cb5802 	mul	t3,a2,t3
9d005f94:	000a5400 	sll	t2,t2,0x10
9d005f98:	01421025 	or	v0,t2,v0
9d005f9c:	004b502b 	sltu	t2,v0,t3
9d005fa0:	00a7001b 	divu	zero,a1,a3
9d005fa4:	00e001f4 	teq	a3,zero,0x7
9d005fa8:	51400009 	beqzl	t2,9d005fd0 <__udivdi3+0x218>
9d005fac:	00091400 	sll	v0,t1,0x10
9d005fb0:	00481021 	addu	v0,v0,t0
9d005fb4:	0048402b 	sltu	t0,v0,t0
9d005fb8:	15000004 	bnez	t0,9d005fcc <__udivdi3+0x214>
9d005fbc:	24c4ffff 	addiu	a0,a2,-1
9d005fc0:	004b582b 	sltu	t3,v0,t3
9d005fc4:	24c6fffe 	addiu	a2,a2,-2
9d005fc8:	00cb200b 	movn	a0,a2,t3
9d005fcc:	00091400 	sll	v0,t1,0x10
9d005fd0:	03e00008 	jr	ra
9d005fd4:	00821025 	or	v0,a0,v0
9d005fd8:	00001821 	move	v1,zero
9d005fdc:	03e00008 	jr	ra
9d005fe0:	00001021 	move	v0,zero
9d005fe4:	00481023 	subu	v0,v0,t0
9d005fe8:	01073804 	sllv	a3,a3,t0
9d005fec:	00461806 	srlv	v1,a2,v0
9d005ff0:	00673825 	or	a3,v1,a3
9d005ff4:	00455006 	srlv	t2,a1,v0
9d005ff8:	00071c02 	srl	v1,a3,0x10
9d005ffc:	0143001b 	divu	zero,t2,v1
9d006000:	006001f4 	teq	v1,zero,0x7
9d006004:	00004810 	mfhi	t1
9d006008:	00006812 	mflo	t5
9d00600c:	30ebffff 	andi	t3,a3,0xffff
9d006010:	01052804 	sllv	a1,a1,t0
9d006014:	00441006 	srlv	v0,a0,v0
9d006018:	00452825 	or	a1,v0,a1
9d00601c:	00057402 	srl	t6,a1,0x10
9d006020:	00001012 	mflo	v0
9d006024:	71ab6002 	mul	t4,t5,t3
9d006028:	00094c00 	sll	t1,t1,0x10
9d00602c:	012e4825 	or	t1,t1,t6
9d006030:	012c702b 	sltu	t6,t1,t4
9d006034:	0143001b 	divu	zero,t2,v1
9d006038:	006001f4 	teq	v1,zero,0x7
9d00603c:	11c0000a 	beqz	t6,9d006068 <__udivdi3+0x2b0>
9d006040:	01063004 	sllv	a2,a2,t0
9d006044:	01274821 	addu	t1,t1,a3
9d006048:	0127502b 	sltu	t2,t1,a3
9d00604c:	15400006 	bnez	t2,9d006068 <__udivdi3+0x2b0>
9d006050:	25a2ffff 	addiu	v0,t5,-1
9d006054:	012c502b 	sltu	t2,t1,t4
9d006058:	51400004 	beqzl	t2,9d00606c <__udivdi3+0x2b4>
9d00605c:	012c4823 	subu	t1,t1,t4
9d006060:	25a2fffe 	addiu	v0,t5,-2
9d006064:	01274821 	addu	t1,t1,a3
9d006068:	012c4823 	subu	t1,t1,t4
9d00606c:	30a5ffff 	andi	a1,a1,0xffff
9d006070:	0123001b 	divu	zero,t1,v1
9d006074:	006001f4 	teq	v1,zero,0x7
9d006078:	00006810 	mfhi	t5
9d00607c:	00006012 	mflo	t4
9d006080:	00005012 	mflo	t2
9d006084:	718b5802 	mul	t3,t4,t3
9d006088:	000d6c00 	sll	t5,t5,0x10
9d00608c:	01a52825 	or	a1,t5,a1
9d006090:	00ab682b 	sltu	t5,a1,t3
9d006094:	0123001b 	divu	zero,t1,v1
9d006098:	006001f4 	teq	v1,zero,0x7
9d00609c:	51a0000b 	beqzl	t5,9d0060cc <__udivdi3+0x314>
9d0060a0:	00021400 	sll	v0,v0,0x10
9d0060a4:	00a72821 	addu	a1,a1,a3
9d0060a8:	00a7182b 	sltu	v1,a1,a3
9d0060ac:	14600006 	bnez	v1,9d0060c8 <__udivdi3+0x310>
9d0060b0:	258affff 	addiu	t2,t4,-1
9d0060b4:	00ab182b 	sltu	v1,a1,t3
9d0060b8:	50600004 	beqzl	v1,9d0060cc <__udivdi3+0x314>
9d0060bc:	00021400 	sll	v0,v0,0x10
9d0060c0:	258afffe 	addiu	t2,t4,-2
9d0060c4:	00a72821 	addu	a1,a1,a3
9d0060c8:	00021400 	sll	v0,v0,0x10
9d0060cc:	01421025 	or	v0,t2,v0
9d0060d0:	00ab2823 	subu	a1,a1,t3
9d0060d4:	00460019 	multu	v0,a2
9d0060d8:	00003810 	mfhi	a3
9d0060dc:	00a7182b 	sltu	v1,a1,a3
9d0060e0:	14600044 	bnez	v1,9d0061f4 <__udivdi3+0x43c>
9d0060e4:	00003012 	mflo	a2
9d0060e8:	10a7003f 	beq	a1,a3,9d0061e8 <__udivdi3+0x430>
9d0060ec:	01042004 	sllv	a0,a0,t0
9d0060f0:	03e00008 	jr	ra
9d0060f4:	00001821 	move	v1,zero
9d0060f8:	24020020 	li	v0,32
9d0060fc:	00431023 	subu	v0,v0,v1
9d006100:	00454806 	srlv	t1,a1,v0
9d006104:	00083c02 	srl	a3,t0,0x10
9d006108:	0127001b 	divu	zero,t1,a3
9d00610c:	00e001f4 	teq	a3,zero,0x7
9d006110:	00003010 	mfhi	a2
9d006114:	00006012 	mflo	t4
9d006118:	310bffff 	andi	t3,t0,0xffff
9d00611c:	00652804 	sllv	a1,a1,v1
9d006120:	00441006 	srlv	v0,a0,v0
9d006124:	00452825 	or	a1,v0,a1
9d006128:	00056c02 	srl	t5,a1,0x10
9d00612c:	00641004 	sllv	v0,a0,v1
9d006130:	00001812 	mflo	v1
9d006134:	718b5002 	mul	t2,t4,t3
9d006138:	00063400 	sll	a2,a2,0x10
9d00613c:	01a63025 	or	a2,t5,a2
9d006140:	00ca202b 	sltu	a0,a2,t2
9d006144:	0127001b 	divu	zero,t1,a3
9d006148:	00e001f4 	teq	a3,zero,0x7
9d00614c:	5080000b 	beqzl	a0,9d00617c <__udivdi3+0x3c4>
9d006150:	00ca3023 	subu	a2,a2,t2
9d006154:	00c83021 	addu	a2,a2,t0
9d006158:	00c8202b 	sltu	a0,a2,t0
9d00615c:	14800006 	bnez	a0,9d006178 <__udivdi3+0x3c0>
9d006160:	2583ffff 	addiu	v1,t4,-1
9d006164:	00ca202b 	sltu	a0,a2,t2
9d006168:	50800004 	beqzl	a0,9d00617c <__udivdi3+0x3c4>
9d00616c:	00ca3023 	subu	a2,a2,t2
9d006170:	2583fffe 	addiu	v1,t4,-2
9d006174:	00c83021 	addu	a2,a2,t0
9d006178:	00ca3023 	subu	a2,a2,t2
9d00617c:	30acffff 	andi	t4,a1,0xffff
9d006180:	00c7001b 	divu	zero,a2,a3
9d006184:	00e001f4 	teq	a3,zero,0x7
9d006188:	00002010 	mfhi	a0
9d00618c:	00005012 	mflo	t2
9d006190:	00004812 	mflo	t1
9d006194:	714b2802 	mul	a1,t2,t3
9d006198:	00042400 	sll	a0,a0,0x10
9d00619c:	008c2025 	or	a0,a0,t4
9d0061a0:	0085602b 	sltu	t4,a0,a1
9d0061a4:	00c7001b 	divu	zero,a2,a3
9d0061a8:	00e001f4 	teq	a3,zero,0x7
9d0061ac:	5180000b 	beqzl	t4,9d0061dc <__udivdi3+0x424>
9d0061b0:	00031c00 	sll	v1,v1,0x10
9d0061b4:	00882021 	addu	a0,a0,t0
9d0061b8:	0088302b 	sltu	a2,a0,t0
9d0061bc:	14c00006 	bnez	a2,9d0061d8 <__udivdi3+0x420>
9d0061c0:	2549ffff 	addiu	t1,t2,-1
9d0061c4:	0085302b 	sltu	a2,a0,a1
9d0061c8:	50c00004 	beqzl	a2,9d0061dc <__udivdi3+0x424>
9d0061cc:	00031c00 	sll	v1,v1,0x10
9d0061d0:	2549fffe 	addiu	t1,t2,-2
9d0061d4:	00882021 	addu	a0,a0,t0
9d0061d8:	00031c00 	sll	v1,v1,0x10
9d0061dc:	00852023 	subu	a0,a0,a1
9d0061e0:	0b4017c8 	j	9d005f20 <__udivdi3+0x168>
9d0061e4:	01231825 	or	v1,t1,v1
9d0061e8:	0086302b 	sltu	a2,a0,a2
9d0061ec:	10c0ffc0 	beqz	a2,9d0060f0 <__udivdi3+0x338>
9d0061f0:	00000000 	nop
9d0061f4:	0b40183c 	j	9d0060f0 <__udivdi3+0x338>
9d0061f8:	2442ffff 	addiu	v0,v0,-1
9d0061fc:	00001821 	move	v1,zero
9d006200:	03e00008 	jr	ra
9d006204:	24020001 	li	v0,1
9d006208:	0b4017dd 	j	9d005f74 <__udivdi3+0x1bc>
9d00620c:	00c83021 	addu	a2,a2,t0

Disassembly of section .text.dp32subadd:

9d006210 <__subdf3>:
9d006210:	3c018000 00e13826                       ...<&8..

9d006218 <__adddf3>:
9d006218:	00055840 000b5d42 000552c0 00047d42     @X..B]...R..B}..
9d006228:	014f5025 00044ac0 3c088000 01485025     %PO..J.....<%PH.
9d006238:	00077040 000e7542 00076ac0 00067d42     @p..Bu...j..B}..
9d006248:	01af6825 000662c0 01a86825 256fffff     %h...b..%h....o%
9d006258:	2de107fe 1020008d 00000000              ...-.. .....

9d006264 <Blab1>:
9d006264:	25cfffff 	addiu	t7,t6,-1
9d006268:	2de107fe 	sltiu	at,t7,2046
9d00626c:	102000bb 	beqz	at,9d00655c <BspecB>
9d006270:	00000000 	nop

9d006274 <Blab2>:
9d006274:	3c018000 	lui	at,0x8000
9d006278:	00a12824 	and	a1,a1,at
9d00627c:	016e4023 	subu	t0,t3,t6
9d006280:	1100002c 	beqz	t0,9d006334 <Badd3>
9d006284:	00000000 	nop
9d006288:	19000015 	blez	t0,9d0062e0 <i1>
9d00628c:	00000000 	nop

9d006290 <L1>:
9d006290:	2d010020 	sltiu	at,t0,32
9d006294:	14200007 	bnez	at,9d0062b4 <L2>
9d006298:	00000000 	nop
9d00629c:	2108ffe0 	addi	t0,t0,-32
9d0062a0:	000c302b 	sltu	a2,zero,t4
9d0062a4:	100d0023 	beq	zero,t5,9d006334 <Badd3>
9d0062a8:	01a66025 	or	t4,t5,a2
9d0062ac:	1000fff8 	b	9d006290 <L1>
9d0062b0:	340d0000 	li	t5,0x0

9d0062b4 <L2>:
9d0062b4:	1100001f 	beqz	t0,9d006334 <Badd3>
9d0062b8:	00000000 	nop
9d0062bc:	00082022 	neg	a0,t0
9d0062c0:	008c3004 	sllv	a2,t4,a0
9d0062c4:	008d2004 	sllv	a0,t5,a0
9d0062c8:	010c6006 	srlv	t4,t4,t0
9d0062cc:	010d6806 	srlv	t5,t5,t0
9d0062d0:	10c00018 	beqz	a2,9d006334 <Badd3>
9d0062d4:	008c6025 	or	t4,a0,t4
9d0062d8:	10000016 	b	9d006334 <Badd3>
9d0062dc:	358c0002 	ori	t4,t4,0x2

9d0062e0 <i1>:
9d0062e0:	000e5825 	or	t3,zero,t6
9d0062e4:	00084023 	negu	t0,t0

9d0062e8 <L4>:
9d0062e8:	2d010020 	sltiu	at,t0,32
9d0062ec:	14200007 	bnez	at,9d00630c <L5>
9d0062f0:	00000000 	nop
9d0062f4:	2108ffe0 	addi	t0,t0,-32
9d0062f8:	0009302b 	sltu	a2,zero,t1
9d0062fc:	100a000d 	beq	zero,t2,9d006334 <Badd3>
9d006300:	01464825 	or	t1,t2,a2
9d006304:	1000fff8 	b	9d0062e8 <L4>
9d006308:	340a0000 	li	t2,0x0

9d00630c <L5>:
9d00630c:	11000009 	beqz	t0,9d006334 <Badd3>
9d006310:	00000000 	nop
9d006314:	00082022 	neg	a0,t0
9d006318:	00893004 	sllv	a2,t1,a0
9d00631c:	008a2004 	sllv	a0,t2,a0
9d006320:	01094806 	srlv	t1,t1,t0
9d006324:	010a5006 	srlv	t2,t2,t0
9d006328:	10c00002 	beqz	a2,9d006334 <Badd3>
9d00632c:	00894825 	or	t1,a0,t1
9d006330:	35290002 	ori	t1,t1,0x2

9d006334 <Badd3>:
9d006334:	00a77826 	xor	t7,a1,a3
9d006338:	05e0001c 	bltz	t7,9d0063ac <Bsub1>
9d00633c:	00000000 	nop
9d006340:	012c4821 	addu	t1,t1,t4
9d006344:	012c782b 	sltu	t7,t1,t4
9d006348:	014d5021 	addu	t2,t2,t5
9d00634c:	014f5021 	addu	t2,t2,t7
9d006350:	114d0002 	beq	t2,t5,9d00635c <L7>
9d006354:	00000000 	nop
9d006358:	014d782b 	sltu	t7,t2,t5

9d00635c <L7>:
9d00635c:	11e00037 	beqz	t7,9d00643c <Bres>
9d006360:	00000000 	nop
9d006364:	312f0001 	andi	t7,t1,0x1
9d006368:	11e00002 	beqz	t7,9d006374 <i3>
9d00636c:	00000000 	nop
9d006370:	35290002 	ori	t1,t1,0x2

9d006374 <i3>:
9d006374:	00094842 	srl	t1,t1,0x1
9d006378:	000a7fc0 	sll	t7,t2,0x1f
9d00637c:	012f4825 	or	t1,t1,t7
9d006380:	000a5042 	srl	t2,t2,0x1
9d006384:	3c018000 	lui	at,0x8000
9d006388:	01415025 	or	t2,t2,at
9d00638c:	256b0001 	addiu	t3,t3,1
9d006390:	240107ff 	li	at,2047
9d006394:	15610029 	bne	t3,at,9d00643c <Bres>
9d006398:	00000000 	nop
9d00639c:	3c017ff0 	lui	at,0x7ff0
9d0063a0:	00a12825 	or	a1,a1,at
9d0063a4:	10000037 	b	9d006484 <BretA>
9d0063a8:	24040000 	li	a0,0

9d0063ac <Bsub1>:
9d0063ac:	012c782b 	sltu	t7,t1,t4
9d0063b0:	012c4823 	subu	t1,t1,t4
9d0063b4:	014f102b 	sltu	v0,t2,t7
9d0063b8:	014f5023 	subu	t2,t2,t7
9d0063bc:	014d782b 	sltu	t7,t2,t5
9d0063c0:	01e27825 	or	t7,t7,v0
9d0063c4:	11e00007 	beqz	t7,9d0063e4 <i5>
9d0063c8:	014d5023 	subu	t2,t2,t5
9d0063cc:	3c018000 	lui	at,0x8000
9d0063d0:	00a12826 	xor	a1,a1,at
9d0063d4:	0009782b 	sltu	t7,zero,t1
9d0063d8:	00094823 	negu	t1,t1
9d0063dc:	000a5023 	negu	t2,t2
9d0063e0:	014f5023 	subu	t2,t2,t7

9d0063e4 <i5>:
9d0063e4:	15400008 	bnez	t2,9d006408 <L8>
9d0063e8:	00000000 	nop
9d0063ec:	15200003 	bnez	t1,9d0063fc <L9>
9d0063f0:	00000000 	nop
9d0063f4:	1000000d 	b	9d00642c <L10>
9d0063f8:	240b0000 	li	t3,0

9d0063fc <L9>:
9d0063fc:	01205025 	move	t2,t1
9d006400:	24090000 	li	t1,0
9d006404:	256bffe0 	addiu	t3,t3,-32

9d006408 <L8>:
9d006408:	71484020 	clz	t0,t2
9d00640c:	11000007 	beqz	t0,9d00642c <L10>
9d006410:	00000000 	nop
9d006414:	01685823 	subu	t3,t3,t0
9d006418:	00082022 	neg	a0,t0
9d00641c:	00892006 	srlv	a0,t1,a0
9d006420:	01094804 	sllv	t1,t1,t0
9d006424:	010a5004 	sllv	t2,t2,t0
9d006428:	01445025 	or	t2,t2,a0

9d00642c <L10>:
9d00642c:	01497825 	or	t7,t2,t1
9d006430:	15e00002 	bnez	t7,9d00643c <Bres>
9d006434:	00000000 	nop
9d006438:	24050000 	li	a1,0

9d00643c <Bres>:
9d00643c:	19600068 	blez	t3,9d0065e0 <Bund>
9d006440:	00000000 	nop

9d006444 <Blab8>:
9d006444:	25290400 	addiu	t1,t1,1024
9d006448:	2d2f0400 	sltiu	t7,t1,1024
9d00644c:	014f5021 	addu	t2,t2,t7
9d006450:	014f782b 	sltu	t7,t2,t7
9d006454:	016f5821 	addu	t3,t3,t7
9d006458:	00097ac2 	srl	t7,t1,0xb
9d00645c:	31ef0001 	andi	t7,t7,0x1
9d006460:	012f4823 	subu	t1,t1,t7
9d006464:	000922c2 	srl	a0,t1,0xb
9d006468:	000a7d40 	sll	t7,t2,0x15
9d00646c:	008f2025 	or	a0,a0,t7
9d006470:	000a7840 	sll	t7,t2,0x1
9d006474:	000f7b02 	srl	t7,t7,0xc
9d006478:	00af2825 	or	a1,a1,t7
9d00647c:	000b7d00 	sll	t7,t3,0x14
9d006480:	00af2825 	or	a1,a1,t7

9d006484 <BretA>:
9d006484:	00041025 	or	v0,zero,a0
9d006488:	00051825 	or	v1,zero,a1

9d00648c <B999>:
9d00648c:	03e00008 	jr	ra
9d006490:	00000000 	nop

9d006494 <BspecA>:
9d006494:	0120782a 	slt	t7,t1,zero
9d006498:	01294821 	addu	t1,t1,t1
9d00649c:	014a5021 	addu	t2,t2,t2
9d0064a0:	15600023 	bnez	t3,9d006530 <i7>
9d0064a4:	014f5021 	addu	t2,t2,t7
9d0064a8:	01497825 	or	t7,t2,t1
9d0064ac:	11e00014 	beqz	t7,9d006500 <i8>
9d0064b0:	00000000 	nop
9d0064b4:	15400008 	bnez	t2,9d0064d8 <L11>
9d0064b8:	00000000 	nop
9d0064bc:	15200003 	bnez	t1,9d0064cc <L12>
9d0064c0:	00000000 	nop
9d0064c4:	1000ff67 	b	9d006264 <Blab1>
9d0064c8:	240b0000 	li	t3,0

9d0064cc <L12>:
9d0064cc:	01205025 	move	t2,t1
9d0064d0:	24090000 	li	t1,0
9d0064d4:	256bffe0 	addiu	t3,t3,-32

9d0064d8 <L11>:
9d0064d8:	71484020 	clz	t0,t2
9d0064dc:	1100ff61 	beqz	t0,9d006264 <Blab1>
9d0064e0:	00000000 	nop
9d0064e4:	01685823 	subu	t3,t3,t0
9d0064e8:	00082022 	neg	a0,t0
9d0064ec:	00892006 	srlv	a0,t1,a0
9d0064f0:	01094804 	sllv	t1,t1,t0
9d0064f4:	010a5004 	sllv	t2,t2,t0
9d0064f8:	1000ff5a 	b	9d006264 <Blab1>
9d0064fc:	01445025 	or	t2,t2,a0

9d006500 <i8>:
9d006500:	240107ff 	li	at,2047
9d006504:	11c10015 	beq	t6,at,9d00655c <BspecB>
9d006508:	00000000 	nop
9d00650c:	00e74021 	addu	t0,a3,a3
9d006510:	01067825 	or	t7,t0,a2
9d006514:	15e00003 	bnez	t7,9d006524 <BretB>
9d006518:	00000000 	nop
9d00651c:	04e0ffd9 	bltz	a3,9d006484 <BretA>
9d006520:	00000000 	nop

9d006524 <BretB>:
9d006524:	00061025 	or	v0,zero,a2
9d006528:	1000ffd8 	b	9d00648c <B999>
9d00652c:	00071825 	or	v1,zero,a3

9d006530 <i7>:
9d006530:	01497825 	or	t7,t2,t1
9d006534:	15e00027 	bnez	t7,9d0065d4 <Bnan>
9d006538:	00000000 	nop
9d00653c:	240107ff 	li	at,2047
9d006540:	15c1ffd0 	bne	t6,at,9d006484 <BretA>
9d006544:	00000000 	nop
9d006548:	00a77826 	xor	t7,a1,a3
9d00654c:	05e00021 	bltz	t7,9d0065d4 <Bnan>
9d006550:	00000000 	nop
9d006554:	1000fff3 	b	9d006524 <BretB>
9d006558:	00000000 	nop

9d00655c <BspecB>:
9d00655c:	0180782a 	slt	t7,t4,zero
9d006560:	018c6021 	addu	t4,t4,t4
9d006564:	01ad6821 	addu	t5,t5,t5
9d006568:	15c00017 	bnez	t6,9d0065c8 <i11>
9d00656c:	01af6821 	addu	t5,t5,t7
9d006570:	01ac7825 	or	t7,t5,t4
9d006574:	11e0ffc3 	beqz	t7,9d006484 <BretA>
9d006578:	00000000 	nop
9d00657c:	15a00008 	bnez	t5,9d0065a0 <L14>
9d006580:	00000000 	nop
9d006584:	15800003 	bnez	t4,9d006594 <L15>
9d006588:	00000000 	nop
9d00658c:	1000ff39 	b	9d006274 <Blab2>
9d006590:	240e0000 	li	t6,0

9d006594 <L15>:
9d006594:	01806825 	move	t5,t4
9d006598:	240c0000 	li	t4,0
9d00659c:	25ceffe0 	addiu	t6,t6,-32

9d0065a0 <L14>:
9d0065a0:	71a84020 	clz	t0,t5
9d0065a4:	1100ff33 	beqz	t0,9d006274 <Blab2>
9d0065a8:	00000000 	nop
9d0065ac:	01c87023 	subu	t6,t6,t0
9d0065b0:	00082022 	neg	a0,t0
9d0065b4:	008c2006 	srlv	a0,t4,a0
9d0065b8:	010c6004 	sllv	t4,t4,t0
9d0065bc:	010d6804 	sllv	t5,t5,t0
9d0065c0:	1000ff2c 	b	9d006274 <Blab2>
9d0065c4:	01a46825 	or	t5,t5,a0

9d0065c8 <i11>:
9d0065c8:	01ac7825 	or	t7,t5,t4
9d0065cc:	11e0ffd5 	beqz	t7,9d006524 <BretB>
9d0065d0:	00000000 	nop

9d0065d4 <Bnan>:
9d0065d4:	3c05fff8 	lui	a1,0xfff8
9d0065d8:	1000ffaa 	b	9d006484 <BretA>
9d0065dc:	24040000 	li	a0,0

9d0065e0 <Bund>:
9d0065e0:	24080001 	li	t0,1
9d0065e4:	010b4023 	subu	t0,t0,t3

9d0065e8 <L17>:
9d0065e8:	2d010020 	sltiu	at,t0,32
9d0065ec:	14200007 	bnez	at,9d00660c <L18>
9d0065f0:	00000000 	nop
9d0065f4:	2108ffe0 	addi	t0,t0,-32
9d0065f8:	0009302b 	sltu	a2,zero,t1
9d0065fc:	100a000d 	beq	zero,t2,9d006634 <L19>
9d006600:	01464825 	or	t1,t2,a2
9d006604:	1000fff8 	b	9d0065e8 <L17>
9d006608:	340a0000 	li	t2,0x0

9d00660c <L18>:
9d00660c:	11000009 	beqz	t0,9d006634 <L19>
9d006610:	00000000 	nop
9d006614:	00082022 	neg	a0,t0
9d006618:	00893004 	sllv	a2,t1,a0
9d00661c:	008a2004 	sllv	a0,t2,a0
9d006620:	01094806 	srlv	t1,t1,t0
9d006624:	010a5006 	srlv	t2,t2,t0
9d006628:	10c00002 	beqz	a2,9d006634 <L19>
9d00662c:	00894825 	or	t1,a0,t1
9d006630:	35290002 	ori	t1,t1,0x2

9d006634 <L19>:
9d006634:	1000ff83 	b	9d006444 <Blab8>
9d006638:	240b0000 	li	t3,0
9d00663c:	00000000 	nop

Disassembly of section .text.__strtod:

9d006640 <__strtod>:
9d006640:	27bdffc8 	addiu	sp,sp,-56
9d006644:	afbf0034 	sw	ra,52(sp)
9d006648:	afbe0030 	sw	s8,48(sp)
9d00664c:	afb7002c 	sw	s7,44(sp)
9d006650:	afb60028 	sw	s6,40(sp)
9d006654:	afb50024 	sw	s5,36(sp)
9d006658:	afb40020 	sw	s4,32(sp)
9d00665c:	afb3001c 	sw	s3,28(sp)
9d006660:	afb20018 	sw	s2,24(sp)
9d006664:	afb10014 	sw	s1,20(sp)
9d006668:	afb00010 	sw	s0,16(sp)
9d00666c:	0080b821 	move	s7,a0
9d006670:	80820000 	lb	v0,0(a0)
9d006674:	3c1e9d01 	lui	s8,0x9d01
9d006678:	27de8b55 	addiu	s8,s8,-29867
9d00667c:	03c21821 	addu	v1,s8,v0
9d006680:	80630000 	lb	v1,0(v1)
9d006684:	00a0a821 	move	s5,a1
9d006688:	30630088 	andi	v1,v1,0x88
9d00668c:	10600008 	beqz	v1,9d0066b0 <__strtod+0x70>
9d006690:	0080a021 	move	s4,a0
9d006694:	26940001 	addiu	s4,s4,1
9d006698:	82820000 	lb	v0,0(s4)
9d00669c:	03c21821 	addu	v1,s8,v0
9d0066a0:	80630000 	lb	v1,0(v1)
9d0066a4:	30630088 	andi	v1,v1,0x88
9d0066a8:	5460fffb 	bnezl	v1,9d006698 <__strtod+0x58>
9d0066ac:	26940001 	addiu	s4,s4,1
9d0066b0:	2403002d 	li	v1,45
9d0066b4:	10430098 	beq	v0,v1,9d006918 <__strtod+0x2d8>
9d0066b8:	3842002b 	xori	v0,v0,0x2b
9d0066bc:	2c420001 	sltiu	v0,v0,1
9d0066c0:	00009821 	move	s3,zero
9d0066c4:	0282a021 	addu	s4,s4,v0
9d0066c8:	82860000 	lb	a2,0(s4)
9d0066cc:	03c61021 	addu	v0,s8,a2
9d0066d0:	90420000 	lbu	v0,0(v0)
9d0066d4:	30420004 	andi	v0,v0,0x4
9d0066d8:	00008821 	move	s1,zero
9d0066dc:	104000bc 	beqz	v0,9d0069d0 <__strtod+0x390>
9d0066e0:	00008021 	move	s0,zero
9d0066e4:	00009021 	move	s2,zero
9d0066e8:	24d6ffd0 	addiu	s6,a2,-48
9d0066ec:	02002821 	move	a1,s0
9d0066f0:	02202021 	move	a0,s1
9d0066f4:	00003021 	move	a2,zero
9d0066f8:	0f401b5a 	jal	9d006d68 <.LFE23>
9d0066fc:	3c074024 	lui	a3,0x4024
9d006700:	00408021 	move	s0,v0
9d006704:	00608821 	move	s1,v1
9d006708:	0f4025ee 	jal	9d0097b8 <__floatsidf>
9d00670c:	02c02021 	move	a0,s6
9d006710:	02002021 	move	a0,s0
9d006714:	02202821 	move	a1,s1
9d006718:	00403021 	move	a2,v0
9d00671c:	00603821 	move	a3,v1
9d006720:	0f401886 	jal	9d006218 <__adddf3>
9d006724:	26940001 	addiu	s4,s4,1
9d006728:	00408821 	move	s1,v0
9d00672c:	00608021 	move	s0,v1
9d006730:	82860000 	lb	a2,0(s4)
9d006734:	03c61021 	addu	v0,s8,a2
9d006738:	90420000 	lbu	v0,0(v0)
9d00673c:	30420004 	andi	v0,v0,0x4
9d006740:	1440ffe9 	bnez	v0,9d0066e8 <__strtod+0xa8>
9d006744:	02569025 	or	s2,s2,s6
9d006748:	24030001 	li	v1,1
9d00674c:	2402002e 	li	v0,46
9d006750:	50c20048 	beql	a2,v0,9d006874 <__strtod+0x234>
9d006754:	82820001 	lb	v0,1(s4)
9d006758:	54600072 	bnezl	v1,9d006924 <__strtod+0x2e4>
9d00675c:	82820000 	lb	v0,0(s4)
9d006760:	12a0002a 	beqz	s5,9d00680c <__strtod+0x1cc>
9d006764:	00000000 	nop
9d006768:	02e0a021 	move	s4,s7
9d00676c:	0000b821 	move	s7,zero
9d006770:	aeb40000 	sw	s4,0(s5)
9d006774:	12e00025 	beqz	s7,9d00680c <__strtod+0x1cc>
9d006778:	00004021 	move	t0,zero
9d00677c:	001717c3 	sra	v0,s7,0x1f
9d006780:	0057b026 	xor	s6,v0,s7
9d006784:	02c2b023 	subu	s6,s6,v0
9d006788:	3c159d01 	lui	s5,0x9d01
9d00678c:	26b59c8c 	addiu	s5,s5,-25460
9d006790:	3c093ff0 	lui	t1,0x3ff0
9d006794:	0b4019e9 	j	9d0067a4 <__strtod+0x164>
9d006798:	24140009 	li	s4,9
9d00679c:	1280000e 	beqz	s4,9d0067d8 <__strtod+0x198>
9d0067a0:	26b5fff8 	addiu	s5,s5,-8
9d0067a4:	2694ffff 	addiu	s4,s4,-1
9d0067a8:	02961007 	srav	v0,s6,s4
9d0067ac:	30420001 	andi	v0,v0,0x1
9d0067b0:	1040fffa 	beqz	v0,9d00679c <__strtod+0x15c>
9d0067b4:	01002021 	move	a0,t0
9d0067b8:	8ea60000 	lw	a2,0(s5)
9d0067bc:	8ea70004 	lw	a3,4(s5)
9d0067c0:	0f401b5a 	jal	9d006d68 <.LFE23>
9d0067c4:	01202821 	move	a1,t1
9d0067c8:	00404021 	move	t0,v0
9d0067cc:	00604821 	move	t1,v1
9d0067d0:	1680fff4 	bnez	s4,9d0067a4 <__strtod+0x164>
9d0067d4:	26b5fff8 	addiu	s5,s5,-8
9d0067d8:	02202021 	move	a0,s1
9d0067dc:	02002821 	move	a1,s0
9d0067e0:	01003021 	move	a2,t0
9d0067e4:	06e00075 	bltz	s7,9d0069bc <__strtod+0x37c>
9d0067e8:	01203821 	move	a3,t1
9d0067ec:	0f401b5a 	jal	9d006d68 <.LFE23>
9d0067f0:	00000000 	nop
9d0067f4:	00402021 	move	a0,v0
9d0067f8:	00602821 	move	a1,v1
9d0067fc:	0f401f3b 	jal	9d007cec <__ldexp>
9d006800:	02e03021 	move	a2,s7
9d006804:	00408821 	move	s1,v0
9d006808:	00608021 	move	s0,v1
9d00680c:	1220007b 	beqz	s1,9d0069fc <__strtod+0x3bc>
9d006810:	7e02f000 	ext	v0,s0,0x0,0x1f
9d006814:	02301025 	or	v0,s1,s0
9d006818:	10400073 	beqz	v0,9d0069e8 <__strtod+0x3a8>
9d00681c:	00000000 	nop
9d006820:	12600007 	beqz	s3,9d006840 <__strtod+0x200>
9d006824:	02201021 	move	v0,s1
9d006828:	02202021 	move	a0,s1
9d00682c:	0f402790 	jal	9d009e40 <.LFE1>
9d006830:	02002821 	move	a1,s0
9d006834:	00408821 	move	s1,v0
9d006838:	00608021 	move	s0,v1
9d00683c:	02201021 	move	v0,s1
9d006840:	02001821 	move	v1,s0
9d006844:	8fbf0034 	lw	ra,52(sp)
9d006848:	8fbe0030 	lw	s8,48(sp)
9d00684c:	8fb7002c 	lw	s7,44(sp)
9d006850:	8fb60028 	lw	s6,40(sp)
9d006854:	8fb50024 	lw	s5,36(sp)
9d006858:	8fb40020 	lw	s4,32(sp)
9d00685c:	8fb3001c 	lw	s3,28(sp)
9d006860:	8fb20018 	lw	s2,24(sp)
9d006864:	8fb10014 	lw	s1,20(sp)
9d006868:	8fb00010 	lw	s0,16(sp)
9d00686c:	03e00008 	jr	ra
9d006870:	27bd0038 	addiu	sp,sp,56
9d006874:	03c22021 	addu	a0,s8,v0
9d006878:	90840000 	lbu	a0,0(a0)
9d00687c:	30840004 	andi	a0,a0,0x4
9d006880:	1080ffb5 	beqz	a0,9d006758 <__strtod+0x118>
9d006884:	26940001 	addiu	s4,s4,1
9d006888:	0000b821 	move	s7,zero
9d00688c:	2456ffd0 	addiu	s6,v0,-48
9d006890:	02002821 	move	a1,s0
9d006894:	02202021 	move	a0,s1
9d006898:	00003021 	move	a2,zero
9d00689c:	0f401b5a 	jal	9d006d68 <.LFE23>
9d0068a0:	3c074024 	lui	a3,0x4024
9d0068a4:	00408021 	move	s0,v0
9d0068a8:	00608821 	move	s1,v1
9d0068ac:	0f4025ee 	jal	9d0097b8 <__floatsidf>
9d0068b0:	02c02021 	move	a0,s6
9d0068b4:	02002021 	move	a0,s0
9d0068b8:	02202821 	move	a1,s1
9d0068bc:	00403021 	move	a2,v0
9d0068c0:	00603821 	move	a3,v1
9d0068c4:	0f401886 	jal	9d006218 <__adddf3>
9d0068c8:	26940001 	addiu	s4,s4,1
9d0068cc:	00408821 	move	s1,v0
9d0068d0:	00608021 	move	s0,v1
9d0068d4:	82820000 	lb	v0,0(s4)
9d0068d8:	02569025 	or	s2,s2,s6
9d0068dc:	03c21821 	addu	v1,s8,v0
9d0068e0:	90630000 	lbu	v1,0(v1)
9d0068e4:	30630004 	andi	v1,v1,0x4
9d0068e8:	1460ffe8 	bnez	v1,9d00688c <__strtod+0x24c>
9d0068ec:	26f7ffff 	addiu	s7,s7,-1
9d0068f0:	2403ffdf 	li	v1,-33
9d0068f4:	00431824 	and	v1,v0,v1
9d0068f8:	7c031c20 	seb	v1,v1
9d0068fc:	24020045 	li	v0,69
9d006900:	5062000f 	beql	v1,v0,9d006940 <__strtod+0x300>
9d006904:	82830001 	lb	v1,1(s4)
9d006908:	56a0ff9a 	bnezl	s5,9d006774 <__strtod+0x134>
9d00690c:	aeb40000 	sw	s4,0(s5)
9d006910:	0b4019dd 	j	9d006774 <__strtod+0x134>
9d006914:	00000000 	nop
9d006918:	26940001 	addiu	s4,s4,1
9d00691c:	0b4019b2 	j	9d0066c8 <__strtod+0x88>
9d006920:	24130001 	li	s3,1
9d006924:	2403ffdf 	li	v1,-33
9d006928:	00431824 	and	v1,v0,v1
9d00692c:	7c031c20 	seb	v1,v1
9d006930:	24020045 	li	v0,69
9d006934:	1462fff4 	bne	v1,v0,9d006908 <__strtod+0x2c8>
9d006938:	0000b821 	move	s7,zero
9d00693c:	82830001 	lb	v1,1(s4)
9d006940:	2402002d 	li	v0,45
9d006944:	10620019 	beq	v1,v0,9d0069ac <__strtod+0x36c>
9d006948:	2402002b 	li	v0,43
9d00694c:	50620023 	beql	v1,v0,9d0069dc <__strtod+0x39c>
9d006950:	82830002 	lb	v1,2(s4)
9d006954:	26940001 	addiu	s4,s4,1
9d006958:	00003821 	move	a3,zero
9d00695c:	03c31021 	addu	v0,s8,v1
9d006960:	90420000 	lbu	v0,0(v0)
9d006964:	30420004 	andi	v0,v0,0x4
9d006968:	1040000c 	beqz	v0,9d00699c <__strtod+0x35c>
9d00696c:	00001021 	move	v0,zero
9d006970:	26940001 	addiu	s4,s4,1
9d006974:	2465ffd0 	addiu	a1,v1,-48
9d006978:	82830000 	lb	v1,0(s4)
9d00697c:	00023040 	sll	a2,v0,0x1
9d006980:	000210c0 	sll	v0,v0,0x3
9d006984:	03c32021 	addu	a0,s8,v1
9d006988:	90840000 	lbu	a0,0(a0)
9d00698c:	00c21021 	addu	v0,a2,v0
9d006990:	30840004 	andi	a0,a0,0x4
9d006994:	1480fff6 	bnez	a0,9d006970 <__strtod+0x330>
9d006998:	00451021 	addu	v0,v0,a1
9d00699c:	00021823 	negu	v1,v0
9d0069a0:	0067100b 	movn	v0,v1,a3
9d0069a4:	0b401a42 	j	9d006908 <__strtod+0x2c8>
9d0069a8:	02e2b821 	addu	s7,s7,v0
9d0069ac:	82830002 	lb	v1,2(s4)
9d0069b0:	24070001 	li	a3,1
9d0069b4:	0b401a57 	j	9d00695c <__strtod+0x31c>
9d0069b8:	26940002 	addiu	s4,s4,2
9d0069bc:	0f401411 	jal	9d005044 <.LFE2>
9d0069c0:	00000000 	nop
9d0069c4:	00402021 	move	a0,v0
9d0069c8:	0b4019ff 	j	9d0067fc <__strtod+0x1bc>
9d0069cc:	00602821 	move	a1,v1
9d0069d0:	00001821 	move	v1,zero
9d0069d4:	0b4019d3 	j	9d00674c <__strtod+0x10c>
9d0069d8:	00009021 	move	s2,zero
9d0069dc:	00003821 	move	a3,zero
9d0069e0:	0b401a57 	j	9d00695c <__strtod+0x31c>
9d0069e4:	26940002 	addiu	s4,s4,2
9d0069e8:	1240ff8d 	beqz	s2,9d006820 <__strtod+0x1e0>
9d0069ec:	24030022 	li	v1,34
9d0069f0:	3c02a000 	lui	v0,0xa000
9d0069f4:	0b401a08 	j	9d006820 <__strtod+0x1e0>
9d0069f8:	ac434438 	sw	v1,17464(v0)
9d0069fc:	3c037ff0 	lui	v1,0x7ff0
9d006a00:	1443ff85 	bne	v0,v1,9d006818 <__strtod+0x1d8>
9d006a04:	02301025 	or	v0,s1,s0
9d006a08:	0b401a7c 	j	9d0069f0 <__strtod+0x3b0>
9d006a0c:	24030022 	li	v1,34

Disassembly of section .text.__strtof:

9d006a10 <__strtof>:
9d006a10:	27bdffc8 	addiu	sp,sp,-56
9d006a14:	afbf0034 	sw	ra,52(sp)
9d006a18:	afb70030 	sw	s7,48(sp)
9d006a1c:	afb6002c 	sw	s6,44(sp)
9d006a20:	afb50028 	sw	s5,40(sp)
9d006a24:	afb40024 	sw	s4,36(sp)
9d006a28:	afb30020 	sw	s3,32(sp)
9d006a2c:	afb2001c 	sw	s2,28(sp)
9d006a30:	afb10018 	sw	s1,24(sp)
9d006a34:	afb00014 	sw	s0,20(sp)
9d006a38:	0080a821 	move	s5,a0
9d006a3c:	80820000 	lb	v0,0(a0)
9d006a40:	3c139d01 	lui	s3,0x9d01
9d006a44:	26738b55 	addiu	s3,s3,-29867
9d006a48:	02621821 	addu	v1,s3,v0
9d006a4c:	80630000 	lb	v1,0(v1)
9d006a50:	00a0b021 	move	s6,a1
9d006a54:	30630088 	andi	v1,v1,0x88
9d006a58:	10600008 	beqz	v1,9d006a7c <__strtof+0x6c>
9d006a5c:	00808021 	move	s0,a0
9d006a60:	26100001 	addiu	s0,s0,1
9d006a64:	82020000 	lb	v0,0(s0)
9d006a68:	02621821 	addu	v1,s3,v0
9d006a6c:	80630000 	lb	v1,0(v1)
9d006a70:	30630088 	andi	v1,v1,0x88
9d006a74:	5460fffb 	bnezl	v1,9d006a64 <__strtof+0x54>
9d006a78:	26100001 	addiu	s0,s0,1
9d006a7c:	2403002d 	li	v1,45
9d006a80:	10430081 	beq	v0,v1,9d006c88 <__strtof+0x278>
9d006a84:	3842002b 	xori	v0,v0,0x2b
9d006a88:	2c420001 	sltiu	v0,v0,1
9d006a8c:	0000b821 	move	s7,zero
9d006a90:	02028021 	addu	s0,s0,v0
9d006a94:	82030000 	lb	v1,0(s0)
9d006a98:	02631021 	addu	v0,s3,v1
9d006a9c:	90420000 	lbu	v0,0(v0)
9d006aa0:	30420004 	andi	v0,v0,0x4
9d006aa4:	104000a5 	beqz	v0,9d006d3c <__strtof+0x32c>
9d006aa8:	00008821 	move	s1,zero
9d006aac:	0000a021 	move	s4,zero
9d006ab0:	2472ffd0 	addiu	s2,v1,-48
9d006ab4:	02202021 	move	a0,s1
9d006ab8:	0f401ecc 	jal	9d007b30 <.LFE4>
9d006abc:	3c054120 	lui	a1,0x4120
9d006ac0:	00408821 	move	s1,v0
9d006ac4:	0f40265d 	jal	9d009974 <__floatsisf>
9d006ac8:	02402021 	move	a0,s2
9d006acc:	02202021 	move	a0,s1
9d006ad0:	00402821 	move	a1,v0
9d006ad4:	0f401c27 	jal	9d00709c <__addsf3>
9d006ad8:	26100001 	addiu	s0,s0,1
9d006adc:	00408821 	move	s1,v0
9d006ae0:	82030000 	lb	v1,0(s0)
9d006ae4:	02631021 	addu	v0,s3,v1
9d006ae8:	90420000 	lbu	v0,0(v0)
9d006aec:	30420004 	andi	v0,v0,0x4
9d006af0:	1440ffef 	bnez	v0,9d006ab0 <__strtof+0xa0>
9d006af4:	0292a025 	or	s4,s4,s2
9d006af8:	24040001 	li	a0,1
9d006afc:	2402002e 	li	v0,46
9d006b00:	5062003e 	beql	v1,v0,9d006bfc <__strtof+0x1ec>
9d006b04:	82020001 	lb	v0,1(s0)
9d006b08:	54800062 	bnezl	a0,9d006c94 <__strtof+0x284>
9d006b0c:	82020000 	lb	v0,0(s0)
9d006b10:	12c00024 	beqz	s6,9d006ba4 <__strtof+0x194>
9d006b14:	00111840 	sll	v1,s1,0x1
9d006b18:	02a08021 	move	s0,s5
9d006b1c:	00009021 	move	s2,zero
9d006b20:	aed00000 	sw	s0,0(s6)
9d006b24:	1240001f 	beqz	s2,9d006ba4 <__strtof+0x194>
9d006b28:	00111840 	sll	v1,s1,0x1
9d006b2c:	001217c3 	sra	v0,s2,0x1f
9d006b30:	0052a826 	xor	s5,v0,s2
9d006b34:	02a2a823 	subu	s5,s5,v0
9d006b38:	3c139d01 	lui	s3,0x9d01
9d006b3c:	26739f90 	addiu	s3,s3,-24688
9d006b40:	24100006 	li	s0,6
9d006b44:	0b401ad5 	j	9d006b54 <__strtof+0x144>
9d006b48:	3c023f80 	lui	v0,0x3f80
9d006b4c:	1200000b 	beqz	s0,9d006b7c <__strtof+0x16c>
9d006b50:	2673fffc 	addiu	s3,s3,-4
9d006b54:	2610ffff 	addiu	s0,s0,-1
9d006b58:	02151807 	srav	v1,s5,s0
9d006b5c:	30630001 	andi	v1,v1,0x1
9d006b60:	1060fffa 	beqz	v1,9d006b4c <__strtof+0x13c>
9d006b64:	00000000 	nop
9d006b68:	8e650000 	lw	a1,0(s3)
9d006b6c:	0f401ecc 	jal	9d007b30 <.LFE4>
9d006b70:	00402021 	move	a0,v0
9d006b74:	1600fff7 	bnez	s0,9d006b54 <__strtof+0x144>
9d006b78:	2673fffc 	addiu	s3,s3,-4
9d006b7c:	02202021 	move	a0,s1
9d006b80:	0640006a 	bltz	s2,9d006d2c <__strtof+0x31c>
9d006b84:	00402821 	move	a1,v0
9d006b88:	0f401ecc 	jal	9d007b30 <.LFE4>
9d006b8c:	00000000 	nop
9d006b90:	00402021 	move	a0,v0
9d006b94:	0f402316 	jal	9d008c58 <__ldexpf>
9d006b98:	02402821 	move	a1,s2
9d006b9c:	00408821 	move	s1,v0
9d006ba0:	00111840 	sll	v1,s1,0x1
9d006ba4:	3c02ff00 	lui	v0,0xff00
9d006ba8:	5062006c 	beql	v1,v0,9d006d5c <__strtof+0x34c>
9d006bac:	24030022 	li	v1,34
9d006bb0:	12200068 	beqz	s1,9d006d54 <__strtof+0x344>
9d006bb4:	00000000 	nop
9d006bb8:	12e00005 	beqz	s7,9d006bd0 <__strtof+0x1c0>
9d006bbc:	02201021 	move	v0,s1
9d006bc0:	0f4027e5 	jal	9d009f94 <__negsf2>
9d006bc4:	02202021 	move	a0,s1
9d006bc8:	00408821 	move	s1,v0
9d006bcc:	02201021 	move	v0,s1
9d006bd0:	8fbf0034 	lw	ra,52(sp)
9d006bd4:	8fb70030 	lw	s7,48(sp)
9d006bd8:	8fb6002c 	lw	s6,44(sp)
9d006bdc:	8fb50028 	lw	s5,40(sp)
9d006be0:	8fb40024 	lw	s4,36(sp)
9d006be4:	8fb30020 	lw	s3,32(sp)
9d006be8:	8fb2001c 	lw	s2,28(sp)
9d006bec:	8fb10018 	lw	s1,24(sp)
9d006bf0:	8fb00014 	lw	s0,20(sp)
9d006bf4:	03e00008 	jr	ra
9d006bf8:	27bd0038 	addiu	sp,sp,56
9d006bfc:	02621821 	addu	v1,s3,v0
9d006c00:	90630000 	lbu	v1,0(v1)
9d006c04:	30630004 	andi	v1,v1,0x4
9d006c08:	1060ffbf 	beqz	v1,9d006b08 <__strtof+0xf8>
9d006c0c:	26100001 	addiu	s0,s0,1
9d006c10:	00009021 	move	s2,zero
9d006c14:	2455ffd0 	addiu	s5,v0,-48
9d006c18:	02202021 	move	a0,s1
9d006c1c:	0f401ecc 	jal	9d007b30 <.LFE4>
9d006c20:	3c054120 	lui	a1,0x4120
9d006c24:	00408821 	move	s1,v0
9d006c28:	0f40265d 	jal	9d009974 <__floatsisf>
9d006c2c:	02a02021 	move	a0,s5
9d006c30:	02202021 	move	a0,s1
9d006c34:	00402821 	move	a1,v0
9d006c38:	0f401c27 	jal	9d00709c <__addsf3>
9d006c3c:	26100001 	addiu	s0,s0,1
9d006c40:	00408821 	move	s1,v0
9d006c44:	82020000 	lb	v0,0(s0)
9d006c48:	0295a025 	or	s4,s4,s5
9d006c4c:	02621821 	addu	v1,s3,v0
9d006c50:	90630000 	lbu	v1,0(v1)
9d006c54:	30630004 	andi	v1,v1,0x4
9d006c58:	1460ffee 	bnez	v1,9d006c14 <__strtof+0x204>
9d006c5c:	2652ffff 	addiu	s2,s2,-1
9d006c60:	2403ffdf 	li	v1,-33
9d006c64:	00431824 	and	v1,v0,v1
9d006c68:	7c031c20 	seb	v1,v1
9d006c6c:	24020045 	li	v0,69
9d006c70:	5062000f 	beql	v1,v0,9d006cb0 <__strtof+0x2a0>
9d006c74:	82030001 	lb	v1,1(s0)
9d006c78:	56c0ffaa 	bnezl	s6,9d006b24 <__strtof+0x114>
9d006c7c:	aed00000 	sw	s0,0(s6)
9d006c80:	0b401ac9 	j	9d006b24 <__strtof+0x114>
9d006c84:	00000000 	nop
9d006c88:	26100001 	addiu	s0,s0,1
9d006c8c:	0b401aa5 	j	9d006a94 <__strtof+0x84>
9d006c90:	24170001 	li	s7,1
9d006c94:	2403ffdf 	li	v1,-33
9d006c98:	00431824 	and	v1,v0,v1
9d006c9c:	7c031c20 	seb	v1,v1
9d006ca0:	24020045 	li	v0,69
9d006ca4:	1462fff4 	bne	v1,v0,9d006c78 <__strtof+0x268>
9d006ca8:	00009021 	move	s2,zero
9d006cac:	82030001 	lb	v1,1(s0)
9d006cb0:	2402002d 	li	v0,45
9d006cb4:	10620019 	beq	v1,v0,9d006d1c <__strtof+0x30c>
9d006cb8:	2402002b 	li	v0,43
9d006cbc:	50620022 	beql	v1,v0,9d006d48 <__strtof+0x338>
9d006cc0:	82030002 	lb	v1,2(s0)
9d006cc4:	26100001 	addiu	s0,s0,1
9d006cc8:	00003821 	move	a3,zero
9d006ccc:	02631021 	addu	v0,s3,v1
9d006cd0:	90420000 	lbu	v0,0(v0)
9d006cd4:	30420004 	andi	v0,v0,0x4
9d006cd8:	1040000c 	beqz	v0,9d006d0c <__strtof+0x2fc>
9d006cdc:	00001021 	move	v0,zero
9d006ce0:	26100001 	addiu	s0,s0,1
9d006ce4:	2465ffd0 	addiu	a1,v1,-48
9d006ce8:	82030000 	lb	v1,0(s0)
9d006cec:	00023040 	sll	a2,v0,0x1
9d006cf0:	000210c0 	sll	v0,v0,0x3
9d006cf4:	02632021 	addu	a0,s3,v1
9d006cf8:	90840000 	lbu	a0,0(a0)
9d006cfc:	00c21021 	addu	v0,a2,v0
9d006d00:	30840004 	andi	a0,a0,0x4
9d006d04:	1480fff6 	bnez	a0,9d006ce0 <__strtof+0x2d0>
9d006d08:	00451021 	addu	v0,v0,a1
9d006d0c:	00021823 	negu	v1,v0
9d006d10:	0067100b 	movn	v0,v1,a3
9d006d14:	0b401b1e 	j	9d006c78 <__strtof+0x268>
9d006d18:	02429021 	addu	s2,s2,v0
9d006d1c:	82030002 	lb	v1,2(s0)
9d006d20:	24070001 	li	a3,1
9d006d24:	0b401b33 	j	9d006ccc <__strtof+0x2bc>
9d006d28:	26100002 	addiu	s0,s0,2
9d006d2c:	0f401cc3 	jal	9d00730c <__divsf3>
9d006d30:	00000000 	nop
9d006d34:	0b401ae5 	j	9d006b94 <__strtof+0x184>
9d006d38:	00402021 	move	a0,v0
9d006d3c:	00002021 	move	a0,zero
9d006d40:	0b401abf 	j	9d006afc <__strtof+0xec>
9d006d44:	0000a021 	move	s4,zero
9d006d48:	00003821 	move	a3,zero
9d006d4c:	0b401b33 	j	9d006ccc <__strtof+0x2bc>
9d006d50:	26100002 	addiu	s0,s0,2
9d006d54:	1280ff98 	beqz	s4,9d006bb8 <__strtof+0x1a8>
9d006d58:	24030022 	li	v1,34
9d006d5c:	3c02a000 	lui	v0,0xa000
9d006d60:	0b401aee 	j	9d006bb8 <__strtof+0x1a8>
9d006d64:	ac434438 	sw	v1,17464(v0)

Disassembly of section .text.dp32mul:

9d006d68 <__muldf3>:
9d006d68:	00055040 000a5542 00054ac0 00047d42     @P..BU...J..B}..
9d006d78:	012f4825 000442c0 3c0e8000 012e4825     %H/..B.....<%H..
9d006d88:	00076840 000d6d42 000762c0 00067d42     @h..Bm...b..B}..
9d006d98:	018f6025 00065ac0 018e6025 00a72826     %`...Z..%`..&(..
9d006da8:	00ae2824 254fffff 2de107fe 10200047     $(....O%...-G. .
9d006db8:	00000000                                ....

9d006dbc <Clab1>:
9d006dbc:	25afffff 	addiu	t7,t5,-1
9d006dc0:	2de107fe 	sltiu	at,t7,2046
9d006dc4:	1020006f 	beqz	at,9d006f84 <CspecB>
9d006dc8:	00000000 	nop

9d006dcc <Clab2>:
9d006dcc:	25affc02 	addiu	t7,t5,-1022
9d006dd0:	014f5021 	addu	t2,t2,t7
9d006dd4:	012c0019 	multu	t1,t4
9d006dd8:	00003812 	mflo	a3
9d006ddc:	00007010 	mfhi	t6
9d006de0:	010b0019 	multu	t0,t3
9d006de4:	00002012 	mflo	a0
9d006de8:	00003010 	mfhi	a2
9d006dec:	012b0019 	multu	t1,t3
9d006df0:	00005812 	mflo	t3
9d006df4:	00006810 	mfhi	t5
9d006df8:	00cb3021 	addu	a2,a2,t3
9d006dfc:	00cb782b 	sltu	t7,a2,t3
9d006e00:	00ed3821 	addu	a3,a3,t5
9d006e04:	00ef3821 	addu	a3,a3,t7
9d006e08:	10ed0002 	beq	a3,t5,9d006e14 <L20>
9d006e0c:	00000000 	nop
9d006e10:	00ed782b 	sltu	t7,a3,t5

9d006e14 <L20>:
9d006e14:	01cf7021 	addu	t6,t6,t7
9d006e18:	010c0019 	multu	t0,t4
9d006e1c:	00004012 	mflo	t0
9d006e20:	00004810 	mfhi	t1
9d006e24:	00c83021 	addu	a2,a2,t0
9d006e28:	00c8782b 	sltu	t7,a2,t0
9d006e2c:	00e93821 	addu	a3,a3,t1
9d006e30:	00ef3821 	addu	a3,a3,t7
9d006e34:	10e90002 	beq	a3,t1,9d006e40 <L21>
9d006e38:	00000000 	nop
9d006e3c:	00e9782b 	sltu	t7,a3,t1

9d006e40 <L21>:
9d006e40:	01cf7021 	addu	t6,t6,t7
9d006e44:	00867825 	or	t7,a0,a2
9d006e48:	11e00002 	beqz	t7,9d006e54 <i13>
9d006e4c:	00000000 	nop
9d006e50:	34e70001 	ori	a3,a3,0x1

9d006e54 <i13>:
9d006e54:	000e4825 	or	t1,zero,t6
9d006e58:	05200006 	bltz	t1,9d006e74 <i14>
9d006e5c:	00074025 	or	t0,zero,a3
9d006e60:	0100782a 	slt	t7,t0,zero
9d006e64:	01084021 	addu	t0,t0,t0
9d006e68:	01294821 	addu	t1,t1,t1
9d006e6c:	012f4821 	addu	t1,t1,t7
9d006e70:	254affff 	addiu	t2,t2,-1

9d006e74 <i14>:
9d006e74:	254fffff 	addiu	t7,t2,-1
9d006e78:	2de107fe 	sltiu	at,t7,2046
9d006e7c:	10200068 	beqz	at,9d007020 <Coveund>
9d006e80:	00000000 	nop
9d006e84:	25080400 	addiu	t0,t0,1024
9d006e88:	2d0f0400 	sltiu	t7,t0,1024
9d006e8c:	012f4821 	addu	t1,t1,t7
9d006e90:	012f782b 	sltu	t7,t1,t7
9d006e94:	014f5021 	addu	t2,t2,t7

9d006e98 <Clab8>:
9d006e98:	00087ac2 	srl	t7,t0,0xb
9d006e9c:	31ef0001 	andi	t7,t7,0x1
9d006ea0:	010f4023 	subu	t0,t0,t7
9d006ea4:	000822c2 	srl	a0,t0,0xb
9d006ea8:	00097d40 	sll	t7,t1,0x15
9d006eac:	008f2025 	or	a0,a0,t7
9d006eb0:	00097840 	sll	t7,t1,0x1
9d006eb4:	000f7b02 	srl	t7,t7,0xc
9d006eb8:	00af2825 	or	a1,a1,t7
9d006ebc:	000a7d00 	sll	t7,t2,0x14
9d006ec0:	00af2825 	or	a1,a1,t7

9d006ec4 <Cret>:
9d006ec4:	00041025 	or	v0,zero,a0
9d006ec8:	00051825 	or	v1,zero,a1

9d006ecc <C999>:
9d006ecc:	03e00008 	jr	ra
9d006ed0:	00000000 	nop

9d006ed4 <CspecA>:
9d006ed4:	0100782a 	slt	t7,t0,zero
9d006ed8:	01084021 	addu	t0,t0,t0
9d006edc:	01294821 	addu	t1,t1,t1
9d006ee0:	1540001c 	bnez	t2,9d006f54 <i15>
9d006ee4:	012f4821 	addu	t1,t1,t7
9d006ee8:	01287825 	or	t7,t1,t0
9d006eec:	11e00014 	beqz	t7,9d006f40 <i16>
9d006ef0:	00000000 	nop
9d006ef4:	15200008 	bnez	t1,9d006f18 <L22>
9d006ef8:	00000000 	nop
9d006efc:	15000003 	bnez	t0,9d006f0c <L23>
9d006f00:	00000000 	nop
9d006f04:	1000ffad 	b	9d006dbc <Clab1>
9d006f08:	240a0000 	li	t2,0

9d006f0c <L23>:
9d006f0c:	01004825 	move	t1,t0
9d006f10:	24080000 	li	t0,0
9d006f14:	254affe0 	addiu	t2,t2,-32

9d006f18 <L22>:
9d006f18:	712e7020 	clz	t6,t1
9d006f1c:	11c0ffa7 	beqz	t6,9d006dbc <Clab1>
9d006f20:	00000000 	nop
9d006f24:	014e5023 	subu	t2,t2,t6
9d006f28:	000e3822 	neg	a3,t6
9d006f2c:	00e83806 	srlv	a3,t0,a3
9d006f30:	01c84004 	sllv	t0,t0,t6
9d006f34:	01c94804 	sllv	t1,t1,t6
9d006f38:	1000ffa0 	b	9d006dbc <Clab1>
9d006f3c:	01274825 	or	t1,t1,a3

9d006f40 <i16>:
9d006f40:	240107ff 	li	at,2047
9d006f44:	11a10033 	beq	t5,at,9d007014 <Cnan>
9d006f48:	00000000 	nop
9d006f4c:	1000ffdd 	b	9d006ec4 <Cret>
9d006f50:	00000000 	nop

9d006f54 <i15>:
9d006f54:	01287825 	or	t7,t1,t0
9d006f58:	15e0002e 	bnez	t7,9d007014 <Cnan>
9d006f5c:	00000000 	nop
9d006f60:	15a00005 	bnez	t5,9d006f78 <i17>
9d006f64:	00000000 	nop
9d006f68:	000c7840 	sll	t7,t4,0x1
9d006f6c:	01eb7825 	or	t7,t7,t3
9d006f70:	11e00028 	beqz	t7,9d007014 <Cnan>
9d006f74:	00000000 	nop

9d006f78 <i17>:
9d006f78:	240107ff 	li	at,2047
9d006f7c:	15a10021 	bne	t5,at,9d007004 <Cinf>
9d006f80:	00000000 	nop

9d006f84 <CspecB>:
9d006f84:	0160782a 	slt	t7,t3,zero
9d006f88:	016b5821 	addu	t3,t3,t3
9d006f8c:	018c6021 	addu	t4,t4,t4
9d006f90:	15a00019 	bnez	t5,9d006ff8 <i18>
9d006f94:	018f6021 	addu	t4,t4,t7
9d006f98:	018b7825 	or	t7,t4,t3
9d006f9c:	11e00014 	beqz	t7,9d006ff0 <i19>
9d006fa0:	00000000 	nop
9d006fa4:	15800008 	bnez	t4,9d006fc8 <L25>
9d006fa8:	00000000 	nop
9d006fac:	15600003 	bnez	t3,9d006fbc <L26>
9d006fb0:	00000000 	nop
9d006fb4:	1000ff85 	b	9d006dcc <Clab2>
9d006fb8:	240d0000 	li	t5,0

9d006fbc <L26>:
9d006fbc:	01606025 	move	t4,t3
9d006fc0:	240b0000 	li	t3,0
9d006fc4:	25adffe0 	addiu	t5,t5,-32

9d006fc8 <L25>:
9d006fc8:	71863020 	clz	a2,t4
9d006fcc:	10c0ff7f 	beqz	a2,9d006dcc <Clab2>
9d006fd0:	00000000 	nop
9d006fd4:	01a66823 	subu	t5,t5,a2
9d006fd8:	00067022 	neg	t6,a2
9d006fdc:	01cb7006 	srlv	t6,t3,t6
9d006fe0:	00cb5804 	sllv	t3,t3,a2
9d006fe4:	00cc6004 	sllv	t4,t4,a2
9d006fe8:	1000ff78 	b	9d006dcc <Clab2>
9d006fec:	018e6025 	or	t4,t4,t6

9d006ff0 <i19>:
9d006ff0:	1000ffb4 	b	9d006ec4 <Cret>
9d006ff4:	24040000 	li	a0,0

9d006ff8 <i18>:
9d006ff8:	018b7825 	or	t7,t4,t3
9d006ffc:	15e00005 	bnez	t7,9d007014 <Cnan>
9d007000:	00000000 	nop

9d007004 <Cinf>:
9d007004:	3c017ff0 	lui	at,0x7ff0
9d007008:	00a12825 	or	a1,a1,at
9d00700c:	1000ffad 	b	9d006ec4 <Cret>
9d007010:	24040000 	li	a0,0

9d007014 <Cnan>:
9d007014:	3c05fff8 	lui	a1,0xfff8
9d007018:	1000ffaa 	b	9d006ec4 <Cret>
9d00701c:	24040000 	li	a0,0

9d007020 <Coveund>:
9d007020:	1d40fff8 	bgtz	t2,9d007004 <Cinf>
9d007024:	00000000 	nop
9d007028:	240e0001 	li	t6,1
9d00702c:	01ca7023 	subu	t6,t6,t2

9d007030 <L28>:
9d007030:	2dc10020 	sltiu	at,t6,32
9d007034:	14200007 	bnez	at,9d007054 <L29>
9d007038:	00000000 	nop
9d00703c:	21ceffe0 	addi	t6,t6,-32
9d007040:	0008302b 	sltu	a2,zero,t0
9d007044:	1009000d 	beq	zero,t1,9d00707c <L30>
9d007048:	01264025 	or	t0,t1,a2
9d00704c:	1000fff8 	b	9d007030 <L28>
9d007050:	34090000 	li	t1,0x0

9d007054 <L29>:
9d007054:	11c00009 	beqz	t6,9d00707c <L30>
9d007058:	00000000 	nop
9d00705c:	000e3822 	neg	a3,t6
9d007060:	00e83004 	sllv	a2,t0,a3
9d007064:	00e93804 	sllv	a3,t1,a3
9d007068:	01c84006 	srlv	t0,t0,t6
9d00706c:	01c94806 	srlv	t1,t1,t6
9d007070:	10c00002 	beqz	a2,9d00707c <L30>
9d007074:	00e84025 	or	t0,a3,t0
9d007078:	35080002 	ori	t0,t0,0x2

9d00707c <L30>:
9d00707c:	25080400 	addiu	t0,t0,1024
9d007080:	2d0f0400 	sltiu	t7,t0,1024
9d007084:	012f4821 	addu	t1,t1,t7
9d007088:	1000ff83 	b	9d006e98 <Clab8>
9d00708c:	000957c2 	srl	t2,t1,0x1f
9d007090:	00000000 	nop

Disassembly of section .text.fpsubadd:

9d007094 <__subsf3>:
9d007094:	3c018000 00a12826                       ...<&(..

9d00709c <__addsf3>:
9d00709c:	00044dc2 312900ff 00055dc2 316b00ff     .M....)1.]....k1
9d0070ac:	3c078000 00044200 01074025 00055200     ...<.B..%@...R..
9d0070bc:	01475025 252dffff 2da100fe 10200061     %PG...-%...-a. .
9d0070cc:	00000000                                ....

9d0070d0 <Blab1>:
9d0070d0:	256dffff 	addiu	t5,t3,-1
9d0070d4:	2da100fe 	sltiu	at,t5,254
9d0070d8:	10200077 	beqz	at,9d0072b8 <BspecB>
9d0070dc:	00000000 	nop

9d0070e0 <Blab2>:
9d0070e0:	012b6023 	subu	t4,t1,t3
9d0070e4:	0580000d 	bltz	t4,9d00711c <i1>
9d0070e8:	00000000 	nop
9d0070ec:	29810020 	slti	at,t4,32
9d0070f0:	14200003 	bnez	at,9d007100 <i2>
9d0070f4:	00000000 	nop
9d0070f8:	10000015 	b	9d007150 <e1>
9d0070fc:	240a0002 	li	t2,2

9d007100 <i2>:
9d007100:	000a3025 	or	a2,zero,t2
9d007104:	018a5006 	srlv	t2,t2,t4
9d007108:	018a6804 	sllv	t5,t2,t4
9d00710c:	11a60010 	beq	t5,a2,9d007150 <e1>
9d007110:	00000000 	nop
9d007114:	1000000e 	b	9d007150 <e1>
9d007118:	354a0002 	ori	t2,t2,0x2

9d00711c <i1>:
9d00711c:	000b4825 	or	t1,zero,t3
9d007120:	000c6023 	negu	t4,t4
9d007124:	29810020 	slti	at,t4,32
9d007128:	14200003 	bnez	at,9d007138 <i4>
9d00712c:	00000000 	nop
9d007130:	10000007 	b	9d007150 <e1>
9d007134:	24080002 	li	t0,2

9d007138 <i4>:
9d007138:	00083025 	or	a2,zero,t0
9d00713c:	01884006 	srlv	t0,t0,t4
9d007140:	01886804 	sllv	t5,t0,t4
9d007144:	11a60002 	beq	t5,a2,9d007150 <e1>
9d007148:	00000000 	nop
9d00714c:	35080002 	ori	t0,t0,0x2

9d007150 <e1>:
9d007150:	00876024 	and	t4,a0,a3
9d007154:	01856826 	xor	t5,t4,a1
9d007158:	05a00010 	bltz	t5,9d00719c <Bsub1>
9d00715c:	00000000 	nop
9d007160:	010a4021 	addu	t0,t0,t2
9d007164:	010a682b 	sltu	t5,t0,t2
9d007168:	11a00017 	beqz	t5,9d0071c8 <Bres>
9d00716c:	00000000 	nop
9d007170:	310d0001 	andi	t5,t0,0x1
9d007174:	11a00002 	beqz	t5,9d007180 <i7>
9d007178:	00000000 	nop
9d00717c:	35080002 	ori	t0,t0,0x2

9d007180 <i7>:
9d007180:	00084042 	srl	t0,t0,0x1
9d007184:	25290001 	addiu	t1,t1,1
9d007188:	240100ff 	li	at,255
9d00718c:	1521000e 	bne	t1,at,9d0071c8 <Bres>
9d007190:	00000000 	nop
9d007194:	1000000c 	b	9d0071c8 <Bres>
9d007198:	24080000 	li	t0,0

9d00719c <Bsub1>:
9d00719c:	010a682b 	sltu	t5,t0,t2
9d0071a0:	11a00004 	beqz	t5,9d0071b4 <i9>
9d0071a4:	010a4023 	subu	t0,t0,t2
9d0071a8:	00084023 	negu	t0,t0
9d0071ac:	10000003 	b	9d0071bc <e9>
9d0071b0:	01876026 	xor	t4,t4,a3

9d0071b4 <i9>:
9d0071b4:	11000050 	beqz	t0,9d0072f8 <Bzer>
9d0071b8:	00000000 	nop

9d0071bc <e9>:
9d0071bc:	71063020 	clz	a2,t0
9d0071c0:	01264823 	subu	t1,t1,a2
9d0071c4:	00c84004 	sllv	t0,t0,a2

9d0071c8 <Bres>:
9d0071c8:	1920000e 	blez	t1,9d007204 <Bund>
9d0071cc:	00000000 	nop

9d0071d0 <Blab12>:
9d0071d0:	25080080 	addiu	t0,t0,128
9d0071d4:	2d0d0080 	sltiu	t5,t0,128
9d0071d8:	012d4821 	addu	t1,t1,t5
9d0071dc:	00086a02 	srl	t5,t0,0x8
9d0071e0:	31ad0001 	andi	t5,t5,0x1
9d0071e4:	010d4023 	subu	t0,t0,t5
9d0071e8:	00084040 	sll	t0,t0,0x1
9d0071ec:	00084242 	srl	t0,t0,0x9
9d0071f0:	00096dc0 	sll	t5,t1,0x17
9d0071f4:	010d4025 	or	t0,t0,t5
9d0071f8:	010c1025 	or	v0,t0,t4

9d0071fc <B999>:
9d0071fc:	03e00008 	jr	ra
9d007200:	00000000 	nop

9d007204 <Bund>:
9d007204:	24060001 	li	a2,1
9d007208:	00c93023 	subu	a2,a2,t1
9d00720c:	2cc10020 	sltiu	at,a2,32
9d007210:	10200039 	beqz	at,9d0072f8 <Bzer>
9d007214:	00000000 	nop
9d007218:	3c018000 	lui	at,0x8000
9d00721c:	01014025 	or	t0,t0,at
9d007220:	240d0020 	li	t5,32
9d007224:	01a66823 	subu	t5,t5,a2
9d007228:	01a84804 	sllv	t1,t0,t5
9d00722c:	11200002 	beqz	t1,9d007238 <i10>
9d007230:	00c84006 	srlv	t0,t0,a2
9d007234:	35080001 	ori	t0,t0,0x1

9d007238 <i10>:
9d007238:	24090000 	li	t1,0
9d00723c:	250d0080 	addiu	t5,t0,128
9d007240:	05a1ffe3 	bgez	t5,9d0071d0 <Blab12>
9d007244:	00000000 	nop
9d007248:	1000ffe1 	b	9d0071d0 <Blab12>
9d00724c:	24090001 	li	t1,1

9d007250 <BspecA>:
9d007250:	1520000e 	bnez	t1,9d00728c <i12>
9d007254:	00000000 	nop
9d007258:	01084021 	addu	t0,t0,t0
9d00725c:	11000005 	beqz	t0,9d007274 <i13>
9d007260:	00000000 	nop
9d007264:	710c6020 	clz	t4,t0
9d007268:	012c4823 	subu	t1,t1,t4
9d00726c:	1000ff98 	b	9d0070d0 <Blab1>
9d007270:	01884004 	sllv	t0,t0,t4

9d007274 <i13>:
9d007274:	240100ff 	li	at,255
9d007278:	1161000f 	beq	t3,at,9d0072b8 <BspecB>
9d00727c:	00000000 	nop
9d007280:	3c018000 	lui	at,0x8000
9d007284:	14a10018 	bne	a1,at,9d0072e8 <BretB>
9d007288:	00000000 	nop

9d00728c <i12>:
9d00728c:	01086821 	addu	t5,t0,t0
9d007290:	15a0001b 	bnez	t5,9d007300 <Bnan>
9d007294:	00000000 	nop
9d007298:	240100ff 	li	at,255
9d00729c:	15610014 	bne	t3,at,9d0072f0 <BretA>
9d0072a0:	00000000 	nop
9d0072a4:	00856826 	xor	t5,a0,a1
9d0072a8:	05a00015 	bltz	t5,9d007300 <Bnan>
9d0072ac:	00000000 	nop
9d0072b0:	1000000d 	b	9d0072e8 <BretB>
9d0072b4:	00000000 	nop

9d0072b8 <BspecB>:
9d0072b8:	15600008 	bnez	t3,9d0072dc <i15>
9d0072bc:	00000000 	nop
9d0072c0:	014a5021 	addu	t2,t2,t2
9d0072c4:	1140000a 	beqz	t2,9d0072f0 <BretA>
9d0072c8:	00000000 	nop
9d0072cc:	714c6020 	clz	t4,t2
9d0072d0:	016c5823 	subu	t3,t3,t4
9d0072d4:	1000ff82 	b	9d0070e0 <Blab2>
9d0072d8:	018a5004 	sllv	t2,t2,t4

9d0072dc <i15>:
9d0072dc:	014a6821 	addu	t5,t2,t2
9d0072e0:	15a00007 	bnez	t5,9d007300 <Bnan>
9d0072e4:	00000000 	nop

9d0072e8 <BretB>:
9d0072e8:	1000ffc4 	b	9d0071fc <B999>
9d0072ec:	00051025 	or	v0,zero,a1

9d0072f0 <BretA>:
9d0072f0:	1000ffc2 	b	9d0071fc <B999>
9d0072f4:	00041025 	or	v0,zero,a0

9d0072f8 <Bzer>:
9d0072f8:	1000ffc0 	b	9d0071fc <B999>
9d0072fc:	24020000 	li	v0,0

9d007300 <Bnan>:
9d007300:	1000ffbe 	b	9d0071fc <B999>
9d007304:	3c02ffc0 	lui	v0,0xffc0
9d007308:	00000000 	nop

Disassembly of section .text.fp32div:

9d00730c <__divsf3>:
9d00730c:	3c0b8000 000445c2 310800ff 000555c2     ...<.E.....1.U..
9d00731c:	314a00ff 00043a00 00eb3825 00054a00     ..J1.:..%8...J..
9d00732c:	012b4825 00857026 016e5824 250effff     %H+.&p..$Xn....%
9d00733c:	2dc100fe 1020003f 00000000              ...-?. .....

9d007348 <Dlab1>:
9d007348:	254effff 	addiu	t6,t2,-1
9d00734c:	2dc100fe 	sltiu	at,t6,254
9d007350:	10200053 	beqz	at,9d0074a0 <DspecB>
9d007354:	00000000 	nop

9d007358 <Dlab2>:
9d007358:	00e9082b 	sltu	at,a3,t1
9d00735c:	14200003 	bnez	at,9d00736c <i27>
9d007360:	00000000 	nop
9d007364:	00073842 	srl	a3,a3,0x1
9d007368:	25080001 	addiu	t0,t0,1

9d00736c <i27>:
9d00736c:	00096382 	srl	t4,t1,0xe
9d007370:	018001f4 	teq	t4,zero,0x7
9d007374:	00ec001b 	divu	zero,a3,t4
9d007378:	00002012 	mflo	a0
9d00737c:	00003010 	mfhi	a2
9d007380:	312d3fff 	andi	t5,t1,0x3fff
9d007384:	01a40019 	multu	t5,a0
9d007388:	00002812 	mflo	a1
9d00738c:	00063380 	sll	a2,a2,0xe
9d007390:	00c5702b 	sltu	t6,a2,a1
9d007394:	11c00004 	beqz	t6,9d0073a8 <i28>
9d007398:	00c53023 	subu	a2,a2,a1
9d00739c:	2484ffff 	addiu	a0,a0,-1
9d0073a0:	00c93021 	addu	a2,a2,t1
9d0073a4:	00c9702b 	sltu	t6,a2,t1

9d0073a8 <i28>:
9d0073a8:	018001f4 	teq	t4,zero,0x7
9d0073ac:	00cc001b 	divu	zero,a2,t4
9d0073b0:	00003812 	mflo	a3
9d0073b4:	00003010 	mfhi	a2
9d0073b8:	01a70019 	multu	t5,a3
9d0073bc:	00002812 	mflo	a1
9d0073c0:	00063380 	sll	a2,a2,0xe
9d0073c4:	00c5702b 	sltu	t6,a2,a1
9d0073c8:	11c00004 	beqz	t6,9d0073dc <i29>
9d0073cc:	00c53023 	subu	a2,a2,a1
9d0073d0:	24e7ffff 	addiu	a3,a3,-1
9d0073d4:	00c93021 	addu	a2,a2,t1
9d0073d8:	00c9702b 	sltu	t6,a2,t1

9d0073dc <i29>:
9d0073dc:	00047380 	sll	t6,a0,0xe
9d0073e0:	00ee3821 	addu	a3,a3,t6
9d0073e4:	10c00002 	beqz	a2,9d0073f0 <i30>
9d0073e8:	00073900 	sll	a3,a3,0x4
9d0073ec:	34e70001 	ori	a3,a3,0x1

9d0073f0 <i30>:
9d0073f0:	240e007e 	li	t6,126
9d0073f4:	01ca7023 	subu	t6,t6,t2
9d0073f8:	010e4021 	addu	t0,t0,t6
9d0073fc:	250effff 	addiu	t6,t0,-1
9d007400:	2dc100fe 	sltiu	at,t6,254
9d007404:	10200034 	beqz	at,9d0074d8 <Doveund>
9d007408:	00000000 	nop

9d00740c <Dlab8>:
9d00740c:	24e70080 	addiu	a3,a3,128
9d007410:	2cee0080 	sltiu	t6,a3,128
9d007414:	010e4021 	addu	t0,t0,t6
9d007418:	00077202 	srl	t6,a3,0x8
9d00741c:	31ce0001 	andi	t6,t6,0x1
9d007420:	00ee3823 	subu	a3,a3,t6
9d007424:	00073840 	sll	a3,a3,0x1
9d007428:	00073a42 	srl	a3,a3,0x9
9d00742c:	000875c0 	sll	t6,t0,0x17
9d007430:	00ee3825 	or	a3,a3,t6
9d007434:	00eb1025 	or	v0,a3,t3

9d007438 <D999>:
9d007438:	03e00008 	jr	ra
9d00743c:	00000000 	nop

9d007440 <DspecA>:
9d007440:	15000008 	bnez	t0,9d007464 <i31>
9d007444:	00000000 	nop
9d007448:	00e73821 	addu	a3,a3,a3
9d00744c:	10e00005 	beqz	a3,9d007464 <i31>
9d007450:	00000000 	nop
9d007454:	70ec6020 	clz	t4,a3
9d007458:	010c4023 	subu	t0,t0,t4
9d00745c:	1000ffba 	b	9d007348 <Dlab1>
9d007460:	01873804 	sllv	a3,a3,t4

9d007464 <i31>:
9d007464:	15480004 	bne	t2,t0,9d007478 <i33>
9d007468:	00000000 	nop
9d00746c:	01297021 	addu	t6,t1,t1
9d007470:	11c0002f 	beqz	t6,9d007530 <Dnan>
9d007474:	00000000 	nop

9d007478 <i33>:
9d007478:	240100ff 	li	at,255
9d00747c:	11410008 	beq	t2,at,9d0074a0 <DspecB>
9d007480:	00000000 	nop
9d007484:	11000012 	beqz	t0,9d0074d0 <Dzer>
9d007488:	00000000 	nop
9d00748c:	00e77021 	addu	t6,a3,a3
9d007490:	15c00027 	bnez	t6,9d007530 <Dnan>
9d007494:	00000000 	nop
9d007498:	10000022 	b	9d007524 <Dinf>
9d00749c:	00000000 	nop

9d0074a0 <DspecB>:
9d0074a0:	15400008 	bnez	t2,9d0074c4 <i34>
9d0074a4:	00000000 	nop
9d0074a8:	01294821 	addu	t1,t1,t1
9d0074ac:	1120001d 	beqz	t1,9d007524 <Dinf>
9d0074b0:	00000000 	nop
9d0074b4:	712c6020 	clz	t4,t1
9d0074b8:	014c5023 	subu	t2,t2,t4
9d0074bc:	1000ffa6 	b	9d007358 <Dlab2>
9d0074c0:	01894804 	sllv	t1,t1,t4

9d0074c4 <i34>:
9d0074c4:	01297021 	addu	t6,t1,t1
9d0074c8:	15c00019 	bnez	t6,9d007530 <Dnan>
9d0074cc:	00000000 	nop

9d0074d0 <Dzer>:
9d0074d0:	1000ffd9 	b	9d007438 <D999>
9d0074d4:	000b1025 	or	v0,zero,t3

9d0074d8 <Doveund>:
9d0074d8:	1d000012 	bgtz	t0,9d007524 <Dinf>
9d0074dc:	00000000 	nop
9d0074e0:	240c0001 	li	t4,1
9d0074e4:	01886023 	subu	t4,t4,t0
9d0074e8:	2d810020 	sltiu	at,t4,32
9d0074ec:	1020fff8 	beqz	at,9d0074d0 <Dzer>
9d0074f0:	00000000 	nop
9d0074f4:	240e0020 	li	t6,32
9d0074f8:	01cc7023 	subu	t6,t6,t4
9d0074fc:	01c74004 	sllv	t0,a3,t6
9d007500:	11000002 	beqz	t0,9d00750c <i37>
9d007504:	01873806 	srlv	a3,a3,t4
9d007508:	34e70002 	ori	a3,a3,0x2

9d00750c <i37>:
9d00750c:	24080000 	li	t0,0
9d007510:	24ee0080 	addiu	t6,a3,128
9d007514:	05c1ffbd 	bgez	t6,9d00740c <Dlab8>
9d007518:	00000000 	nop
9d00751c:	1000ffbb 	b	9d00740c <Dlab8>
9d007520:	24080001 	li	t0,1

9d007524 <Dinf>:
9d007524:	3c017f80 	lui	at,0x7f80
9d007528:	1000ffc3 	b	9d007438 <D999>
9d00752c:	01611025 	or	v0,t3,at

9d007530 <Dnan>:
9d007530:	1000ffc1 	b	9d007438 <D999>
9d007534:	3c02ffc0 	lui	v0,0xffc0
9d007538:	00000000 	nop

Disassembly of section .text.scale:

9d00753c <scale>:
9d00753c:	27bdffd8 	addiu	sp,sp,-40
9d007540:	afbf0024 	sw	ra,36(sp)
9d007544:	afb30020 	sw	s3,32(sp)
9d007548:	afb2001c 	sw	s2,28(sp)
9d00754c:	afb10018 	sw	s1,24(sp)
9d007550:	afb00014 	sw	s0,20(sp)
9d007554:	04800045 	bltz	a0,9d00766c <scale+0x130>
9d007558:	00808021 	move	s0,a0
9d00755c:	2882006e 	slti	v0,a0,110
9d007560:	1040000f 	beqz	v0,9d0075a0 <scale+0x64>
9d007564:	2882000b 	slti	v0,a0,11
9d007568:	1040006f 	beqz	v0,9d007728 <scale+0x1ec>
9d00756c:	3c026666 	lui	v0,0x6666
9d007570:	00048080 	sll	s0,a0,0x2
9d007574:	3c029d01 	lui	v0,0x9d01
9d007578:	2442990c 	addiu	v0,v0,-26356
9d00757c:	02028021 	addu	s0,s0,v0
9d007580:	8e020000 	lw	v0,0(s0)
9d007584:	8fbf0024 	lw	ra,36(sp)
9d007588:	8fb30020 	lw	s3,32(sp)
9d00758c:	8fb2001c 	lw	s2,28(sp)
9d007590:	8fb10018 	lw	s1,24(sp)
9d007594:	8fb00014 	lw	s0,20(sp)
9d007598:	03e00008 	jr	ra
9d00759c:	27bd0028 	addiu	sp,sp,40
9d0075a0:	3c0351eb 	lui	v1,0x51eb
9d0075a4:	3463851f 	ori	v1,v1,0x851f
9d0075a8:	00830018 	mult	a0,v1
9d0075ac:	00001810 	mfhi	v1
9d0075b0:	000497c3 	sra	s2,a0,0x1f
9d0075b4:	3c136666 	lui	s3,0x6666
9d0075b8:	26736667 	addiu	s3,s3,26215
9d0075bc:	3c119d01 	lui	s1,0x9d01
9d0075c0:	2631990c 	addiu	s1,s1,-26356
9d0075c4:	8e24004c 	lw	a0,76(s1)
9d0075c8:	00031943 	sra	v1,v1,0x5
9d0075cc:	00721823 	subu	v1,v1,s2
9d0075d0:	00031080 	sll	v0,v1,0x2
9d0075d4:	00031900 	sll	v1,v1,0x4
9d0075d8:	00431021 	addu	v0,v0,v1
9d0075dc:	00021880 	sll	v1,v0,0x2
9d0075e0:	00431021 	addu	v0,v0,v1
9d0075e4:	02021023 	subu	v0,s0,v0
9d0075e8:	7c021420 	seb	v0,v0
9d0075ec:	00530018 	mult	v0,s3
9d0075f0:	00001810 	mfhi	v1
9d0075f4:	000217c3 	sra	v0,v0,0x1f
9d0075f8:	00031883 	sra	v1,v1,0x2
9d0075fc:	00621023 	subu	v0,v1,v0
9d007600:	7c021420 	seb	v0,v0
9d007604:	24420009 	addiu	v0,v0,9
9d007608:	00021080 	sll	v0,v0,0x2
9d00760c:	00511021 	addu	v0,v0,s1
9d007610:	0f401ecc 	jal	9d007b30 <.LFE4>
9d007614:	8c450000 	lw	a1,0(v0)
9d007618:	02130018 	mult	s0,s3
9d00761c:	00009810 	mfhi	s3
9d007620:	00402021 	move	a0,v0
9d007624:	00139883 	sra	s3,s3,0x2
9d007628:	02729023 	subu	s2,s3,s2
9d00762c:	00121040 	sll	v0,s2,0x1
9d007630:	001290c0 	sll	s2,s2,0x3
9d007634:	00529021 	addu	s2,v0,s2
9d007638:	02128023 	subu	s0,s0,s2
9d00763c:	7c108420 	seb	s0,s0
9d007640:	00108080 	sll	s0,s0,0x2
9d007644:	02118821 	addu	s1,s0,s1
9d007648:	0f401ecc 	jal	9d007b30 <.LFE4>
9d00764c:	8e250000 	lw	a1,0(s1)
9d007650:	8fbf0024 	lw	ra,36(sp)
9d007654:	8fb30020 	lw	s3,32(sp)
9d007658:	8fb2001c 	lw	s2,28(sp)
9d00765c:	8fb10018 	lw	s1,24(sp)
9d007660:	8fb00014 	lw	s0,20(sp)
9d007664:	03e00008 	jr	ra
9d007668:	27bd0028 	addiu	sp,sp,40
9d00766c:	00048023 	negu	s0,a0
9d007670:	7c108420 	seb	s0,s0
9d007674:	2a02006e 	slti	v0,s0,110
9d007678:	10400021 	beqz	v0,9d007700 <scale+0x1c4>
9d00767c:	2a02000b 	slti	v0,s0,11
9d007680:	54400030 	bnezl	v0,9d007744 <scale+0x208>
9d007684:	00108080 	sll	s0,s0,0x2
9d007688:	3c026666 	lui	v0,0x6666
9d00768c:	24426667 	addiu	v0,v0,26215
9d007690:	02020018 	mult	s0,v0
9d007694:	00001010 	mfhi	v0
9d007698:	001027c3 	sra	a0,s0,0x1f
9d00769c:	3c039d01 	lui	v1,0x9d01
9d0076a0:	24639940 	addiu	v1,v1,-26304
9d0076a4:	00021083 	sra	v0,v0,0x2
9d0076a8:	00441023 	subu	v0,v0,a0
9d0076ac:	00022840 	sll	a1,v0,0x1
9d0076b0:	000220c0 	sll	a0,v0,0x3
9d0076b4:	00a42021 	addu	a0,a1,a0
9d0076b8:	7c021420 	seb	v0,v0
9d0076bc:	02048023 	subu	s0,s0,a0
9d0076c0:	24420009 	addiu	v0,v0,9
9d0076c4:	7c108420 	seb	s0,s0
9d0076c8:	00021080 	sll	v0,v0,0x2
9d0076cc:	00108080 	sll	s0,s0,0x2
9d0076d0:	00431021 	addu	v0,v0,v1
9d0076d4:	02031821 	addu	v1,s0,v1
9d0076d8:	8c440000 	lw	a0,0(v0)
9d0076dc:	0f401ecc 	jal	9d007b30 <.LFE4>
9d0076e0:	8c650000 	lw	a1,0(v1)
9d0076e4:	8fbf0024 	lw	ra,36(sp)
9d0076e8:	8fb30020 	lw	s3,32(sp)
9d0076ec:	8fb2001c 	lw	s2,28(sp)
9d0076f0:	8fb10018 	lw	s1,24(sp)
9d0076f4:	8fb00014 	lw	s0,20(sp)
9d0076f8:	03e00008 	jr	ra
9d0076fc:	27bd0028 	addiu	sp,sp,40
9d007700:	3c0351eb 	lui	v1,0x51eb
9d007704:	3463851f 	ori	v1,v1,0x851f
9d007708:	02030018 	mult	s0,v1
9d00770c:	00001810 	mfhi	v1
9d007710:	001097c3 	sra	s2,s0,0x1f
9d007714:	3c136666 	lui	s3,0x6666
9d007718:	26736667 	addiu	s3,s3,26215
9d00771c:	3c119d01 	lui	s1,0x9d01
9d007720:	0b401d71 	j	9d0075c4 <scale+0x88>
9d007724:	26319940 	addiu	s1,s1,-26304
9d007728:	24426667 	addiu	v0,v0,26215
9d00772c:	00820018 	mult	a0,v0
9d007730:	00001010 	mfhi	v0
9d007734:	000427c3 	sra	a0,a0,0x1f
9d007738:	3c039d01 	lui	v1,0x9d01
9d00773c:	0b401da9 	j	9d0076a4 <scale+0x168>
9d007740:	2463990c 	addiu	v1,v1,-26356
9d007744:	3c029d01 	lui	v0,0x9d01
9d007748:	24429940 	addiu	v0,v0,-26304
9d00774c:	02028021 	addu	s0,s0,v0
9d007750:	0b401d61 	j	9d007584 <scale+0x48>
9d007754:	8e020000 	lw	v0,0(s0)

Disassembly of section .text.__floatdisf:

9d007758 <__floatdisf>:
9d007758:	00851825 	or	v1,a0,a1
9d00775c:	10600045 	beqz	v1,9d007874 <__floatdisf+0x11c>
9d007760:	00001021 	move	v0,zero
9d007764:	24020001 	li	v0,1
9d007768:	10820044 	beq	a0,v0,9d00787c <__floatdisf+0x124>
9d00776c:	00053fc2 	srl	a3,a1,0x1f
9d007770:	2402ffff 	li	v0,-1
9d007774:	10820062 	beq	a0,v0,9d007900 <__floatdisf+0x1a8>
9d007778:	2402000a 	li	v0,10
9d00777c:	10820064 	beq	a0,v0,9d007910 <__floatdisf+0x1b8>
9d007780:	2402fff6 	li	v0,-10
9d007784:	10820057 	beq	a0,v0,9d0078e4 <__floatdisf+0x18c>
9d007788:	2402ffff 	li	v0,-1
9d00778c:	10e00008 	beqz	a3,9d0077b0 <__floatdisf+0x58>
9d007790:	00051940 	sll	v1,a1,0x5
9d007794:	1080003f 	beqz	a0,9d007894 <__floatdisf+0x13c>
9d007798:	3c028000 	lui	v0,0x8000
9d00779c:	00042023 	negu	a0,a0
9d0077a0:	0004102b 	sltu	v0,zero,a0
9d0077a4:	00052823 	negu	a1,a1
9d0077a8:	00a22823 	subu	a1,a1,v0
9d0077ac:	00051940 	sll	v1,a1,0x5
9d0077b0:	000416c2 	srl	v0,a0,0x1b
9d0077b4:	00621025 	or	v0,v1,v0
9d0077b8:	00051ec2 	srl	v1,a1,0x1b
9d0077bc:	00431025 	or	v0,v0,v1
9d0077c0:	14400038 	bnez	v0,9d0078a4 <__floatdisf+0x14c>
9d0077c4:	00051980 	sll	v1,a1,0x6
9d0077c8:	00041682 	srl	v0,a0,0x1a
9d0077cc:	00621025 	or	v0,v1,v0
9d0077d0:	00051e82 	srl	v1,a1,0x1a
9d0077d4:	00431825 	or	v1,v0,v1
9d0077d8:	14600051 	bnez	v1,9d007920 <__floatdisf+0x1c8>
9d0077dc:	2402001a 	li	v0,26
9d0077e0:	00041fc2 	srl	v1,a0,0x1f
9d0077e4:	00052840 	sll	a1,a1,0x1
9d0077e8:	00652825 	or	a1,v1,a1
9d0077ec:	00042040 	sll	a0,a0,0x1
9d0077f0:	00053180 	sll	a2,a1,0x6
9d0077f4:	00041e82 	srl	v1,a0,0x1a
9d0077f8:	00c31825 	or	v1,a2,v1
9d0077fc:	00053682 	srl	a2,a1,0x1a
9d007800:	00661825 	or	v1,v1,a2
9d007804:	1060fff6 	beqz	v1,9d0077e0 <__floatdisf+0x88>
9d007808:	2442ffff 	addiu	v0,v0,-1
9d00780c:	2443007f 	addiu	v1,v0,127
9d007810:	58600049 	blezl	v1,9d007938 <__floatdisf+0x1e0>
9d007814:	2403ff82 	li	v1,-126
9d007818:	30820007 	andi	v0,a0,0x7
9d00781c:	1040000a 	beqz	v0,9d007848 <__floatdisf+0xf0>
9d007820:	286200ff 	slti	v0,v1,255
9d007824:	7c8500c0 	ext	a1,a0,0x3,0x1
9d007828:	24840003 	addiu	a0,a0,3
9d00782c:	00852021 	addu	a0,a0,a1
9d007830:	000416c2 	srl	v0,a0,0x1b
9d007834:	10400004 	beqz	v0,9d007848 <__floatdisf+0xf0>
9d007838:	286200ff 	slti	v0,v1,255
9d00783c:	00042042 	srl	a0,a0,0x1
9d007840:	24630001 	addiu	v1,v1,1
9d007844:	286200ff 	slti	v0,v1,255
9d007848:	10400037 	beqz	v0,9d007928 <__floatdisf+0x1d0>
9d00784c:	000420c2 	srl	a0,a0,0x3
9d007850:	7c8205c0 	ext	v0,a0,0x17,0x1
9d007854:	50400002 	beqzl	v0,9d007860 <__floatdisf+0x108>
9d007858:	00001821 	move	v1,zero
9d00785c:	7c84b000 	ext	a0,a0,0x0,0x17
9d007860:	00071200 	sll	v0,a3,0x8
9d007864:	00621025 	or	v0,v1,v0
9d007868:	000215c0 	sll	v0,v0,0x17
9d00786c:	03e00008 	jr	ra
9d007870:	00441025 	or	v0,v0,a0
9d007874:	03e00008 	jr	ra
9d007878:	00000000 	nop
9d00787c:	54a0ffbd 	bnezl	a1,9d007774 <__floatdisf+0x1c>
9d007880:	2402ffff 	li	v0,-1
9d007884:	00071200 	sll	v0,a3,0x8
9d007888:	3442007f 	ori	v0,v0,0x7f
9d00788c:	03e00008 	jr	ra
9d007890:	000215c0 	sll	v0,v0,0x17
9d007894:	14a2ffc2 	bne	a1,v0,9d0077a0 <__floatdisf+0x48>
9d007898:	00042023 	negu	a0,a0
9d00789c:	00002021 	move	a0,zero
9d0078a0:	3c058000 	lui	a1,0x8000
9d0078a4:	2402001a 	li	v0,26
9d0078a8:	000537c0 	sll	a2,a1,0x1f
9d0078ac:	00041842 	srl	v1,a0,0x1
9d0078b0:	00c31825 	or	v1,a2,v1
9d0078b4:	30840001 	andi	a0,a0,0x1
9d0078b8:	00052842 	srl	a1,a1,0x1
9d0078bc:	00832025 	or	a0,a0,v1
9d0078c0:	00053140 	sll	a2,a1,0x5
9d0078c4:	00041ec2 	srl	v1,a0,0x1b
9d0078c8:	00c31825 	or	v1,a2,v1
9d0078cc:	000536c2 	srl	a2,a1,0x1b
9d0078d0:	00661825 	or	v1,v1,a2
9d0078d4:	1460fff4 	bnez	v1,9d0078a8 <__floatdisf+0x150>
9d0078d8:	24420001 	addiu	v0,v0,1
9d0078dc:	0b401e04 	j	9d007810 <__floatdisf+0xb8>
9d0078e0:	2443007f 	addiu	v1,v0,127
9d0078e4:	14a2ffa9 	bne	a1,v0,9d00778c <__floatdisf+0x34>
9d0078e8:	00071200 	sll	v0,a3,0x8
9d0078ec:	34420082 	ori	v0,v0,0x82
9d0078f0:	000215c0 	sll	v0,v0,0x17
9d0078f4:	3c030020 	lui	v1,0x20
9d0078f8:	03e00008 	jr	ra
9d0078fc:	00431025 	or	v0,v0,v1
9d007900:	54a4ff9e 	bnel	a1,a0,9d00777c <__floatdisf+0x24>
9d007904:	2402000a 	li	v0,10
9d007908:	0b401e22 	j	9d007888 <__floatdisf+0x130>
9d00790c:	00071200 	sll	v0,a3,0x8
9d007910:	54a0ff9c 	bnezl	a1,9d007784 <__floatdisf+0x2c>
9d007914:	2402fff6 	li	v0,-10
9d007918:	0b401e3b 	j	9d0078ec <__floatdisf+0x194>
9d00791c:	00071200 	sll	v0,a3,0x8
9d007920:	0b401e06 	j	9d007818 <__floatdisf+0xc0>
9d007924:	24030099 	li	v1,153
9d007928:	00071200 	sll	v0,a3,0x8
9d00792c:	344200ff 	ori	v0,v0,0xff
9d007930:	03e00008 	jr	ra
9d007934:	000215c0 	sll	v0,v0,0x17
9d007938:	00621823 	subu	v1,v1,v0
9d00793c:	2865001b 	slti	a1,v1,27
9d007940:	50a00008 	beqzl	a1,9d007964 <__floatdisf+0x20c>
9d007944:	00002021 	move	a0,zero
9d007948:	2442009e 	addiu	v0,v0,158
9d00794c:	00441004 	sllv	v0,a0,v0
9d007950:	00642006 	srlv	a0,a0,v1
9d007954:	0002102b 	sltu	v0,zero,v0
9d007958:	00442025 	or	a0,v0,a0
9d00795c:	0b401e06 	j	9d007818 <__floatdisf+0xc0>
9d007960:	24030001 	li	v1,1
9d007964:	0b401e18 	j	9d007860 <__floatdisf+0x108>
9d007968:	00001821 	move	v1,zero

Disassembly of section .text:

9d00796c <NU32_Startup>:

// Perform startup routines:
//  Make NU32_LED1 and NU32_LED2 pins outputs (NU32_USER is by default an input)
//  Initialize the serial port - UART3 (no interrupt) 
//  Enable interrupts
void NU32_Startup() {
9d00796c:	27bdfff8 	addiu	sp,sp,-8
9d007970:	afbf0004 	sw	ra,4(sp)
  // disable interrupts
  __builtin_disable_interrupts();
9d007974:	41626000 	di	v0
9d007978:	000000c0 	ehb
  // see Chapter 2 "CPU for Devices with M4K Core" of the PIC32 reference manual
  // most of the other bits have prescribed values
  // microchip does not provide a _CP0_SET_CONFIG macro, so we directly use
  // the compiler built-in command _mtc0
  // to disable cache, use 0xa4210582 
  __builtin_mtc0(_CP0_CONFIG, _CP0_CONFIG_SELECT, 0xa4210583); 
9d00797c:	3c02a421 	lui	v0,0xa421
9d007980:	24420583 	addiu	v0,v0,1411
9d007984:	40828000 	mtc0	v0,c0_config
9d007988:	000000c0 	ehb
  
  // set the prefectch cache wait state to 2, as per the
  // electrical characteristics data sheet
  CHECONbits.PFMWS = 0x2;   
9d00798c:	3c02bf88 	lui	v0,0xbf88
9d007990:	8c434000 	lw	v1,16384(v0)
9d007994:	24050002 	li	a1,2
9d007998:	7ca31004 	ins	v1,a1,0x0,0x3
9d00799c:	ac434000 	sw	v1,16384(v0)

  //enable prefetch for cacheable and noncacheable memory
  CHECONbits.PREFEN = 0x3; 
9d0079a0:	8c434000 	lw	v1,16384(v0)
9d0079a4:	24040003 	li	a0,3
9d0079a8:	7c832904 	ins	v1,a0,0x4,0x2
9d0079ac:	ac434000 	sw	v1,16384(v0)

  // 0 data RAM access wait states
  BMXCONbits.BMXWSDRM = 0x0;
9d0079b0:	3c02bf88 	lui	v0,0xbf88
9d0079b4:	8c432000 	lw	v1,8192(v0)
9d0079b8:	7c033184 	ins	v1,zero,0x6,0x1
9d0079bc:	ac432000 	sw	v1,8192(v0)
  
  // enable multi vector interrupts
  INTCONbits.MVEC = 0x1;
9d0079c0:	3c02bf88 	lui	v0,0xbf88
9d0079c4:	8c461000 	lw	a2,4096(v0)
9d0079c8:	24030001 	li	v1,1
9d0079cc:	7c666304 	ins	a2,v1,0xc,0x1
9d0079d0:	ac461000 	sw	a2,4096(v0)

  // disable JTAG to get B10, B11, B12 and B13 back
  DDPCONbits.JTAGEN = 0;
9d0079d4:	3c02bf81 	lui	v0,0xbf81
9d0079d8:	9046f200 	lbu	a2,-3584(v0)
9d0079dc:	7c0618c4 	ins	a2,zero,0x3,0x1
9d0079e0:	a046f200 	sb	a2,-3584(v0)

  TRISFCLR = 0x0003;  // Make F0 and F1 outputs (LED1 and LED2)
9d0079e4:	3c02bf88 	lui	v0,0xbf88
9d0079e8:	ac446144 	sw	a0,24900(v0)
  NU32_LED1 = 1;      // LED1 is off
9d0079ec:	3c02bf88 	lui	v0,0xbf88
9d0079f0:	90446160 	lbu	a0,24928(v0)
9d0079f4:	7c640004 	ins	a0,v1,0x0,0x1
9d0079f8:	a0446160 	sb	a0,24928(v0)
  NU32_LED2 = 0;      // LED2 is on
9d0079fc:	90446160 	lbu	a0,24928(v0)
9d007a00:	7c040844 	ins	a0,zero,0x1,0x1
9d007a04:	a0446160 	sb	a0,24928(v0)

  // turn on UART3 without an interrupt
  U3MODEbits.BRGH = 0; // set baud to NU32_DESIRED_BAUD
9d007a08:	3c02bf80 	lui	v0,0xbf80
9d007a0c:	94446400 	lhu	a0,25600(v0)
9d007a10:	7c0418c4 	ins	a0,zero,0x3,0x1
9d007a14:	a4446400 	sh	a0,25600(v0)
  U3BRG = ((NU32_SYS_FREQ / NU32_DESIRED_BAUD) / 16) - 1;
9d007a18:	24060014 	li	a2,20
9d007a1c:	3c04bf80 	lui	a0,0xbf80
9d007a20:	ac866440 	sw	a2,25664(a0)

  // 8 bit, no parity bit, and 1 stop bit (8N1 setup)
  U3MODEbits.PDSEL = 0;
9d007a24:	94446400 	lhu	a0,25600(v0)
9d007a28:	7c041044 	ins	a0,zero,0x1,0x2
9d007a2c:	a4446400 	sh	a0,25600(v0)
  U3MODEbits.STSEL = 0;
9d007a30:	94446400 	lhu	a0,25600(v0)
9d007a34:	7c040004 	ins	a0,zero,0x0,0x1
9d007a38:	a4446400 	sh	a0,25600(v0)

  // configure TX & RX pins as output & input pins
  U3STAbits.UTXEN = 1;
9d007a3c:	3c04bf80 	lui	a0,0xbf80
9d007a40:	8c866410 	lw	a2,25616(a0)
9d007a44:	7c665284 	ins	a2,v1,0xa,0x1
9d007a48:	ac866410 	sw	a2,25616(a0)
  U3STAbits.URXEN = 1;
9d007a4c:	8c866410 	lw	a2,25616(a0)
9d007a50:	7c666304 	ins	a2,v1,0xc,0x1
9d007a54:	ac866410 	sw	a2,25616(a0)
  // configure hardware flow control using RTS and CTS
  U3MODEbits.UEN = 2;
9d007a58:	94446400 	lhu	a0,25600(v0)
9d007a5c:	7ca44a04 	ins	a0,a1,0x8,0x2
9d007a60:	a4446400 	sh	a0,25600(v0)

  // enable the uart
  U3MODEbits.ON = 1;
9d007a64:	94446400 	lhu	a0,25600(v0)
9d007a68:	7c647bc4 	ins	a0,v1,0xf,0x1
9d007a6c:	a4446400 	sh	a0,25600(v0)

  __builtin_enable_interrupts();
9d007a70:	41626020 	ei	v0
}
9d007a74:	8fbf0004 	lw	ra,4(sp)
9d007a78:	03e00008 	jr	ra
9d007a7c:	27bd0008 	addiu	sp,sp,8

9d007a80 <NU32_ReadUART3>:
// Read from UART3
// block other functions until you get a '\r' or '\n'
// send the pointer to your char array and the number of elements in the array
void NU32_ReadUART3(char * message, int maxLength) {
  char data = 0;
  int complete = 0, num_bytes = 0;
9d007a80:	00003021 	move	a2,zero
  // loop until you get a '\r' or '\n'
  while (!complete) {
    if (U3STAbits.URXDA) { // if data is available
9d007a84:	3c03bf80 	lui	v1,0xbf80
      data = U3RXREG;      // read the data
9d007a88:	3c08bf80 	lui	t0,0xbf80
      if ((data == '\n') || (data == '\r')) {
9d007a8c:	2407000a 	li	a3,10
9d007a90:	0b401eb4 	j	9d007ad0 <NU32_ReadUART3+0x50>
9d007a94:	2409000d 	li	t1,13
void NU32_ReadUART3(char * message, int maxLength) {
  char data = 0;
  int complete = 0, num_bytes = 0;
  // loop until you get a '\r' or '\n'
  while (!complete) {
    if (U3STAbits.URXDA) { // if data is available
9d007a98:	8c626410 	lw	v0,25616(v1)
9d007a9c:	30420001 	andi	v0,v0,0x1
9d007aa0:	1040fffd 	beqz	v0,9d007a98 <NU32_ReadUART3+0x18>
9d007aa4:	00000000 	nop
      data = U3RXREG;      // read the data
9d007aa8:	8d026430 	lw	v0,25648(t0)
9d007aac:	7c021420 	seb	v0,v0
      if ((data == '\n') || (data == '\r')) {
9d007ab0:	5047000e 	beql	v0,a3,9d007aec <NU32_ReadUART3+0x6c>
9d007ab4:	00862021 	addu	a0,a0,a2
9d007ab8:	1049000b 	beq	v0,t1,9d007ae8 <NU32_ReadUART3+0x68>
9d007abc:	00865021 	addu	t2,a0,a2
        complete = 1;
      } else {
        message[num_bytes] = data;
9d007ac0:	a1420000 	sb	v0,0(t2)
        ++num_bytes;
9d007ac4:	24c60001 	addiu	a2,a2,1
        // roll over if the array is too small
        if (num_bytes >= maxLength) {
9d007ac8:	00c5102a 	slt	v0,a2,a1
          num_bytes = 0;
9d007acc:	0002300a 	movz	a2,zero,v0
void NU32_ReadUART3(char * message, int maxLength) {
  char data = 0;
  int complete = 0, num_bytes = 0;
  // loop until you get a '\r' or '\n'
  while (!complete) {
    if (U3STAbits.URXDA) { // if data is available
9d007ad0:	8c626410 	lw	v0,25616(v1)
9d007ad4:	30420001 	andi	v0,v0,0x1
9d007ad8:	1040ffef 	beqz	v0,9d007a98 <NU32_ReadUART3+0x18>
9d007adc:	00000000 	nop
9d007ae0:	0b401eaa 	j	9d007aa8 <NU32_ReadUART3+0x28>
9d007ae4:	00000000 	nop
        }
      }
    }
  }
  // end the string
  message[num_bytes] = '\0';
9d007ae8:	00862021 	addu	a0,a0,a2
9d007aec:	03e00008 	jr	ra
9d007af0:	a0800000 	sb	zero,0(a0)

9d007af4 <NU32_WriteUART3>:
}

// Write a character array using UART3
void NU32_WriteUART3(const char * string) {
  while (*string != '\0') {
9d007af4:	80850000 	lb	a1,0(a0)
9d007af8:	10a0000b 	beqz	a1,9d007b28 <NU32_WriteUART3+0x34>
9d007afc:	3c03bf80 	lui	v1,0xbf80
    while (U3STAbits.UTXBF) {
      ; // wait until tx buffer isn't full
    }
    U3TXREG = *string;
9d007b00:	3c06bf80 	lui	a2,0xbf80
}

// Write a character array using UART3
void NU32_WriteUART3(const char * string) {
  while (*string != '\0') {
    while (U3STAbits.UTXBF) {
9d007b04:	8c626410 	lw	v0,25616(v1)
9d007b08:	30420200 	andi	v0,v0,0x200
9d007b0c:	1440fffd 	bnez	v0,9d007b04 <NU32_WriteUART3+0x10>
9d007b10:	00000000 	nop
      ; // wait until tx buffer isn't full
    }
    U3TXREG = *string;
9d007b14:	acc56420 	sw	a1,25632(a2)
    ++string;
9d007b18:	24840001 	addiu	a0,a0,1
  message[num_bytes] = '\0';
}

// Write a character array using UART3
void NU32_WriteUART3(const char * string) {
  while (*string != '\0') {
9d007b1c:	80850000 	lb	a1,0(a0)
9d007b20:	14a0fff8 	bnez	a1,9d007b04 <NU32_WriteUART3+0x10>
9d007b24:	00000000 	nop
9d007b28:	03e00008 	jr	ra
9d007b2c:	00000000 	nop

Disassembly of section .text.fp32mul:

9d007b30 <__mulsf3>:
9d007b30:	00043dc2 30e700ff 00054dc2 312900ff     .=.....0.M....)1
9d007b40:	3c0a8000 00043200 00ca3025 00054200     ...<.2..%0...B..
9d007b50:	010a4025 00856026 014c5024 24ecffff     %@..&`..$PL....$
9d007b60:	2d8100fe 10200021 00000000              ...-!. .....

9d007b6c <Clab1>:
9d007b6c:	252cffff 	addiu	t4,t1,-1
9d007b70:	2d8100fe 	sltiu	at,t4,254
9d007b74:	10200036 	beqz	at,9d007c50 <CspecB>
9d007b78:	00000000 	nop

9d007b7c <Clab2>:
9d007b7c:	00c80019 	multu	a2,t0
9d007b80:	00005812 	mflo	t3
9d007b84:	11600002 	beqz	t3,9d007b90 <i17>
9d007b88:	00003010 	mfhi	a2
9d007b8c:	34c60001 	ori	a2,a2,0x1

9d007b90 <i17>:
9d007b90:	04c00003 	bltz	a2,9d007ba0 <i18>
9d007b94:	00000000 	nop
9d007b98:	00063040 	sll	a2,a2,0x1
9d007b9c:	24e7ffff 	addiu	a3,a3,-1

9d007ba0 <i18>:
9d007ba0:	252cff82 	addiu	t4,t1,-126
9d007ba4:	00ec3821 	addu	a3,a3,t4
9d007ba8:	24ecffff 	addiu	t4,a3,-1
9d007bac:	2d8100fe 	sltiu	at,t4,254
9d007bb0:	1020003a 	beqz	at,9d007c9c <Coveund>
9d007bb4:	00000000 	nop

9d007bb8 <Clab8>:
9d007bb8:	24c60080 	addiu	a2,a2,128
9d007bbc:	2ccc0080 	sltiu	t4,a2,128
9d007bc0:	00ec3821 	addu	a3,a3,t4
9d007bc4:	00066202 	srl	t4,a2,0x8
9d007bc8:	318c0001 	andi	t4,t4,0x1
9d007bcc:	00cc3023 	subu	a2,a2,t4
9d007bd0:	00063040 	sll	a2,a2,0x1
9d007bd4:	00063242 	srl	a2,a2,0x9
9d007bd8:	000765c0 	sll	t4,a3,0x17
9d007bdc:	00cc3025 	or	a2,a2,t4
9d007be0:	00ca1025 	or	v0,a2,t2

9d007be4 <C999>:
9d007be4:	03e00008 	jr	ra
9d007be8:	00000000 	nop

9d007bec <CspecA>:
9d007bec:	14e0000d 	bnez	a3,9d007c24 <i19>
9d007bf0:	00000000 	nop
9d007bf4:	00c63021 	addu	a2,a2,a2
9d007bf8:	10c00005 	beqz	a2,9d007c10 <i20>
9d007bfc:	00000000 	nop
9d007c00:	70cb5820 	clz	t3,a2
9d007c04:	00eb3823 	subu	a3,a3,t3
9d007c08:	1000ffd8 	b	9d007b6c <Clab1>
9d007c0c:	01663004 	sllv	a2,a2,t3

9d007c10 <i20>:
9d007c10:	240100ff 	li	at,255
9d007c14:	1121001f 	beq	t1,at,9d007c94 <Cnan>
9d007c18:	00000000 	nop
9d007c1c:	10000015 	b	9d007c74 <Czer>
9d007c20:	00000000 	nop

9d007c24 <i19>:
9d007c24:	00c66021 	addu	t4,a2,a2
9d007c28:	1580001a 	bnez	t4,9d007c94 <Cnan>
9d007c2c:	00000000 	nop
9d007c30:	15200004 	bnez	t1,9d007c44 <i21>
9d007c34:	00000000 	nop
9d007c38:	01086021 	addu	t4,t0,t0
9d007c3c:	11800015 	beqz	t4,9d007c94 <Cnan>
9d007c40:	00000000 	nop

9d007c44 <i21>:
9d007c44:	240100ff 	li	at,255
9d007c48:	1521000f 	bne	t1,at,9d007c88 <Cinf>
9d007c4c:	00000000 	nop

9d007c50 <CspecB>:
9d007c50:	1520000a 	bnez	t1,9d007c7c <i22>
9d007c54:	00000000 	nop
9d007c58:	01084021 	addu	t0,t0,t0
9d007c5c:	11000005 	beqz	t0,9d007c74 <Czer>
9d007c60:	00000000 	nop
9d007c64:	710b5820 	clz	t3,t0
9d007c68:	012b4823 	subu	t1,t1,t3
9d007c6c:	1000ffc3 	b	9d007b7c <Clab2>
9d007c70:	01684004 	sllv	t0,t0,t3

9d007c74 <Czer>:
9d007c74:	1000ffdb 	b	9d007be4 <C999>
9d007c78:	000a1025 	or	v0,zero,t2

9d007c7c <i22>:
9d007c7c:	01086021 	addu	t4,t0,t0
9d007c80:	15800004 	bnez	t4,9d007c94 <Cnan>
9d007c84:	00000000 	nop

9d007c88 <Cinf>:
9d007c88:	3c017f80 	lui	at,0x7f80
9d007c8c:	1000ffd5 	b	9d007be4 <C999>
9d007c90:	01411025 	or	v0,t2,at

9d007c94 <Cnan>:
9d007c94:	1000ffd3 	b	9d007be4 <C999>
9d007c98:	3c02ffc0 	lui	v0,0xffc0

9d007c9c <Coveund>:
9d007c9c:	1ce0fffa 	bgtz	a3,9d007c88 <Cinf>
9d007ca0:	00000000 	nop
9d007ca4:	240b0001 	li	t3,1
9d007ca8:	01675823 	subu	t3,t3,a3
9d007cac:	2d610020 	sltiu	at,t3,32
9d007cb0:	1020fff0 	beqz	at,9d007c74 <Czer>
9d007cb4:	00000000 	nop
9d007cb8:	240c0020 	li	t4,32
9d007cbc:	018b6023 	subu	t4,t4,t3
9d007cc0:	01863804 	sllv	a3,a2,t4
9d007cc4:	10e00002 	beqz	a3,9d007cd0 <i25>
9d007cc8:	01663006 	srlv	a2,a2,t3
9d007ccc:	34c60002 	ori	a2,a2,0x2

9d007cd0 <i25>:
9d007cd0:	24070000 	li	a3,0
9d007cd4:	24cc0080 	addiu	t4,a2,128
9d007cd8:	0581ffb7 	bgez	t4,9d007bb8 <Clab8>
9d007cdc:	00000000 	nop
9d007ce0:	1000ffb5 	b	9d007bb8 <Clab8>
9d007ce4:	24070001 	li	a3,1
9d007ce8:	00000000 	nop

Disassembly of section .text.__ldexp:

9d007cec <__ldexp>:
9d007cec:	27bdffe0 	addiu	sp,sp,-32
9d007cf0:	afbf001c 	sw	ra,28(sp)
9d007cf4:	afb20018 	sw	s2,24(sp)
9d007cf8:	afb10014 	sw	s1,20(sp)
9d007cfc:	afb00010 	sw	s0,16(sp)
9d007d00:	7ca75500 	ext	a3,a1,0x14,0xb
9d007d04:	24e2ffff 	addiu	v0,a3,-1
9d007d08:	7ca89800 	ext	t0,a1,0x0,0x14
9d007d0c:	2c4907fe 	sltiu	t1,v0,2046
9d007d10:	00c08821 	move	s1,a2
9d007d14:	000587c2 	srl	s0,a1,0x1f
9d007d18:	00801021 	move	v0,a0
9d007d1c:	11200041 	beqz	t1,9d007e24 <__ldexp+0x138>
9d007d20:	01001821 	move	v1,t0
9d007d24:	24e7fc01 	addiu	a3,a3,-1023
9d007d28:	3c040010 	lui	a0,0x10
9d007d2c:	01041825 	or	v1,t0,a0
9d007d30:	00f13821 	addu	a3,a3,s1
9d007d34:	00022f42 	srl	a1,v0,0x1d
9d007d38:	000318c0 	sll	v1,v1,0x3
9d007d3c:	24e403ff 	addiu	a0,a3,1023
9d007d40:	00a31825 	or	v1,a1,v1
9d007d44:	18800025 	blez	a0,9d007ddc <__ldexp+0xf0>
9d007d48:	000210c0 	sll	v0,v0,0x3
9d007d4c:	30450007 	andi	a1,v0,0x7
9d007d50:	14a00015 	bnez	a1,9d007da8 <__ldexp+0xbc>
9d007d54:	7c4500c0 	ext	a1,v0,0x3,0x1
9d007d58:	00033740 	sll	a2,v1,0x1d
9d007d5c:	000210c2 	srl	v0,v0,0x3
9d007d60:	288507ff 	slti	a1,a0,2047
9d007d64:	00c21025 	or	v0,a2,v0
9d007d68:	10a00036 	beqz	a1,9d007e44 <__ldexp+0x158>
9d007d6c:	000318c2 	srl	v1,v1,0x3
9d007d70:	7c650500 	ext	a1,v1,0x14,0x1
9d007d74:	50a00002 	beqzl	a1,9d007d80 <__ldexp+0x94>
9d007d78:	00002021 	move	a0,zero
9d007d7c:	7c639800 	ext	v1,v1,0x0,0x14
9d007d80:	001082c0 	sll	s0,s0,0xb
9d007d84:	00902025 	or	a0,a0,s0
9d007d88:	00042500 	sll	a0,a0,0x14
9d007d8c:	00831825 	or	v1,a0,v1
9d007d90:	8fbf001c 	lw	ra,28(sp)
9d007d94:	8fb20018 	lw	s2,24(sp)
9d007d98:	8fb10014 	lw	s1,20(sp)
9d007d9c:	8fb00010 	lw	s0,16(sp)
9d007da0:	03e00008 	jr	ra
9d007da4:	27bd0020 	addiu	sp,sp,32
9d007da8:	24a50003 	addiu	a1,a1,3
9d007dac:	00452821 	addu	a1,v0,a1
9d007db0:	00a2102b 	sltu	v0,a1,v0
9d007db4:	00431821 	addu	v1,v0,v1
9d007db8:	7c660600 	ext	a2,v1,0x18,0x1
9d007dbc:	10c0ffe6 	beqz	a2,9d007d58 <__ldexp+0x6c>
9d007dc0:	00a01021 	move	v0,a1
9d007dc4:	00032fc0 	sll	a1,v1,0x1f
9d007dc8:	00021042 	srl	v0,v0,0x1
9d007dcc:	00a21025 	or	v0,a1,v0
9d007dd0:	00031842 	srl	v1,v1,0x1
9d007dd4:	0b401f56 	j	9d007d58 <__ldexp+0x6c>
9d007dd8:	24840001 	addiu	a0,a0,1
9d007ddc:	2406fc02 	li	a2,-1022
9d007de0:	00c73023 	subu	a2,a2,a3
9d007de4:	28c40038 	slti	a0,a2,56
9d007de8:	5080001b 	beqzl	a0,9d007e58 <__ldexp+0x16c>
9d007dec:	00001021 	move	v0,zero
9d007df0:	00062023 	negu	a0,a2
9d007df4:	30850020 	andi	a1,a0,0x20
9d007df8:	14a00003 	bnez	a1,9d007e08 <__ldexp+0x11c>
9d007dfc:	00828804 	sllv	s1,v0,a0
9d007e00:	00832004 	sllv	a0,v1,a0
9d007e04:	00828825 	or	s1,a0,v0
9d007e08:	00402021 	move	a0,v0
9d007e0c:	0f402736 	jal	9d009cd8 <__lshrdi3>
9d007e10:	00602821 	move	a1,v1
9d007e14:	0011882b 	sltu	s1,zero,s1
9d007e18:	02221025 	or	v0,s1,v0
9d007e1c:	0b401f53 	j	9d007d4c <__ldexp+0x60>
9d007e20:	24040001 	li	a0,1
9d007e24:	54e00005 	bnezl	a3,9d007e3c <__ldexp+0x150>
9d007e28:	00801021 	move	v0,a0
9d007e2c:	01043025 	or	a2,t0,a0
9d007e30:	14c0000c 	bnez	a2,9d007e64 <__ldexp+0x178>
9d007e34:	00000000 	nop
9d007e38:	00801021 	move	v0,a0
9d007e3c:	0b401f64 	j	9d007d90 <__ldexp+0xa4>
9d007e40:	00a01821 	move	v1,a1
9d007e44:	00101ac0 	sll	v1,s0,0xb
9d007e48:	346307ff 	ori	v1,v1,0x7ff
9d007e4c:	00031d00 	sll	v1,v1,0x14
9d007e50:	0b401f64 	j	9d007d90 <__ldexp+0xa4>
9d007e54:	00001021 	move	v0,zero
9d007e58:	00001821 	move	v1,zero
9d007e5c:	0b401f60 	j	9d007d80 <__ldexp+0x94>
9d007e60:	00002021 	move	a0,zero
9d007e64:	15000003 	bnez	t0,9d007e74 <__ldexp+0x188>
9d007e68:	71129020 	clz	s2,t0
9d007e6c:	70929020 	clz	s2,a0
9d007e70:	26520020 	addiu	s2,s2,32
9d007e74:	2646fff5 	addiu	a2,s2,-11
9d007e78:	10c0ffad 	beqz	a2,9d007d30 <__ldexp+0x44>
9d007e7c:	2407fc02 	li	a3,-1022
9d007e80:	0f402746 	jal	9d009d18 <__ashldi3>
9d007e84:	01002821 	move	a1,t0
9d007e88:	2407fc0d 	li	a3,-1011
9d007e8c:	0b401f4c 	j	9d007d30 <__ldexp+0x44>
9d007e90:	00f23823 	subu	a3,a3,s2

Disassembly of section .text:

9d007e94 <strcpy>:
9d007e94:	00854025 	or	t0,a0,a1
9d007e98:	31080003 	andi	t0,t0,0x3
9d007e9c:	11000003 	beqz	t0,9d007eac <strcpy+0x18>
9d007ea0:	00801021 	move	v0,a0
9d007ea4:	10000038 	b	9d007f88 <strcpy+0xf4>
9d007ea8:	90aa0000 	lbu	t2,0(a1)
9d007eac:	8caa0000 	lw	t2,0(a1)
9d007eb0:	3c090101 	lui	t1,0x101
9d007eb4:	35290101 	ori	t1,t1,0x101
9d007eb8:	000979c0 	sll	t7,t1,0x7
9d007ebc:	01494023 	subu	t0,t2,t1
9d007ec0:	010f4024 	and	t0,t0,t7
9d007ec4:	11000007 	beqz	t0,9d007ee4 <strcpy+0x50>
9d007ec8:	010a6024 	and	t4,t0,t2
9d007ecc:	11880005 	beq	t4,t0,9d007ee4 <strcpy+0x50>
9d007ed0:	00000000 	nop
9d007ed4:	24a50000 	addiu	a1,a1,0
9d007ed8:	90aa0000 	lbu	t2,0(a1)
9d007edc:	1000002a 	b	9d007f88 <strcpy+0xf4>
9d007ee0:	24840000 	addiu	a0,a0,0
9d007ee4:	8cab0004 	lw	t3,4(a1)
9d007ee8:	ac8a0000 	sw	t2,0(a0)
9d007eec:	01694023 	subu	t0,t3,t1
9d007ef0:	010f4024 	and	t0,t0,t7
9d007ef4:	11000007 	beqz	t0,9d007f14 <strcpy+0x80>
9d007ef8:	010b6024 	and	t4,t0,t3
9d007efc:	11880005 	beq	t4,t0,9d007f14 <strcpy+0x80>
9d007f00:	00000000 	nop
9d007f04:	24a50004 	addiu	a1,a1,4
9d007f08:	90aa0000 	lbu	t2,0(a1)
9d007f0c:	1000001e 	b	9d007f88 <strcpy+0xf4>
9d007f10:	24840004 	addiu	a0,a0,4
9d007f14:	8caa0008 	lw	t2,8(a1)
9d007f18:	ac8b0004 	sw	t3,4(a0)
9d007f1c:	01494023 	subu	t0,t2,t1
9d007f20:	010f4024 	and	t0,t0,t7
9d007f24:	11000007 	beqz	t0,9d007f44 <strcpy+0xb0>
9d007f28:	010a6024 	and	t4,t0,t2
9d007f2c:	11880005 	beq	t4,t0,9d007f44 <strcpy+0xb0>
9d007f30:	00000000 	nop
9d007f34:	24a50008 	addiu	a1,a1,8
9d007f38:	90aa0000 	lbu	t2,0(a1)
9d007f3c:	10000012 	b	9d007f88 <strcpy+0xf4>
9d007f40:	24840008 	addiu	a0,a0,8
9d007f44:	8cab000c 	lw	t3,12(a1)
9d007f48:	ac8a0008 	sw	t2,8(a0)
9d007f4c:	01694023 	subu	t0,t3,t1
9d007f50:	010f4024 	and	t0,t0,t7
9d007f54:	11000007 	beqz	t0,9d007f74 <strcpy+0xe0>
9d007f58:	010b6024 	and	t4,t0,t3
9d007f5c:	11880005 	beq	t4,t0,9d007f74 <strcpy+0xe0>
9d007f60:	00000000 	nop
9d007f64:	24a5000c 	addiu	a1,a1,12
9d007f68:	90aa0000 	lbu	t2,0(a1)
9d007f6c:	10000006 	b	9d007f88 <strcpy+0xf4>
9d007f70:	2484000c 	addiu	a0,a0,12
9d007f74:	8caa0010 	lw	t2,16(a1)
9d007f78:	ac8b000c 	sw	t3,12(a0)
9d007f7c:	24840010 	addiu	a0,a0,16
9d007f80:	1000ffce 	b	9d007ebc <strcpy+0x28>
9d007f84:	24a50010 	addiu	a1,a1,16
9d007f88:	15400003 	bnez	t2,9d007f98 <strcpy+0x104>
9d007f8c:	a08a0000 	sb	t2,0(a0)
9d007f90:	03e00008 	jr	ra
9d007f94:	00000000 	nop
9d007f98:	90ab0001 	lbu	t3,1(a1)
9d007f9c:	15600003 	bnez	t3,9d007fac <strcpy+0x118>
9d007fa0:	a08b0001 	sb	t3,1(a0)
9d007fa4:	03e00008 	jr	ra
9d007fa8:	00000000 	nop
9d007fac:	90aa0002 	lbu	t2,2(a1)
9d007fb0:	15400003 	bnez	t2,9d007fc0 <strcpy+0x12c>
9d007fb4:	a08a0002 	sb	t2,2(a0)
9d007fb8:	03e00008 	jr	ra
9d007fbc:	00000000 	nop
9d007fc0:	90ab0003 	lbu	t3,3(a1)
9d007fc4:	15600003 	bnez	t3,9d007fd4 <strcpy+0x140>
9d007fc8:	a08b0003 	sb	t3,3(a0)
9d007fcc:	03e00008 	jr	ra
9d007fd0:	00000000 	nop
9d007fd4:	90aa0004 	lbu	t2,4(a1)
9d007fd8:	15400003 	bnez	t2,9d007fe8 <strcpy+0x154>
9d007fdc:	a08a0004 	sb	t2,4(a0)
9d007fe0:	03e00008 	jr	ra
9d007fe4:	00000000 	nop
9d007fe8:	90ab0005 	lbu	t3,5(a1)
9d007fec:	15600003 	bnez	t3,9d007ffc <strcpy+0x168>
9d007ff0:	a08b0005 	sb	t3,5(a0)
9d007ff4:	03e00008 	jr	ra
9d007ff8:	00000000 	nop
9d007ffc:	90aa0006 	lbu	t2,6(a1)
9d008000:	15400003 	bnez	t2,9d008010 <strcpy+0x17c>
9d008004:	a08a0006 	sb	t2,6(a0)
9d008008:	03e00008 	jr	ra
9d00800c:	00000000 	nop
9d008010:	90ab0007 	lbu	t3,7(a1)
9d008014:	15600003 	bnez	t3,9d008024 <strcpy+0x190>
9d008018:	a08b0007 	sb	t3,7(a0)
9d00801c:	03e00008 	jr	ra
9d008020:	00000000 	nop
9d008024:	90aa0008 	lbu	t2,8(a1)
9d008028:	24840008 	addiu	a0,a0,8
9d00802c:	1000ffd6 	b	9d007f88 <strcpy+0xf4>
9d008030:	24a50008 	addiu	a1,a1,8

Disassembly of section .text._filbuf:

9d008034 <_filbuf>:
9d008034:	27bdffd0 	addiu	sp,sp,-48
9d008038:	afbf002c 	sw	ra,44(sp)
9d00803c:	afb40028 	sw	s4,40(sp)
9d008040:	afb30024 	sw	s3,36(sp)
9d008044:	afb20020 	sw	s2,32(sp)
9d008048:	afb1001c 	sw	s1,28(sp)
9d00804c:	afb00018 	sw	s0,24(sp)
9d008050:	00808821 	move	s1,a0
9d008054:	9482000c 	lhu	v0,12(a0)
9d008058:	30420001 	andi	v0,v0,0x1
9d00805c:	1040004a 	beqz	v0,9d008188 <_filbuf+0x154>
9d008060:	ac800004 	sw	zero,4(a0)
9d008064:	3c14a000 	lui	s4,0xa000
9d008068:	828243e4 	lb	v0,17380(s4)
9d00806c:	50400014 	beqzl	v0,9d0080c0 <_filbuf+0x8c>
9d008070:	8e260010 	lw	a2,16(s1)
9d008074:	3c10a000 	lui	s0,0xa000
9d008078:	26104340 	addiu	s0,s0,17216
9d00807c:	3c13a000 	lui	s3,0xa000
9d008080:	267343e0 	addiu	s3,s3,17376
9d008084:	0b402025 	j	9d008094 <_filbuf+0x60>
9d008088:	24120102 	li	s2,258
9d00808c:	5213000b 	beql	s0,s3,9d0080bc <_filbuf+0x88>
9d008090:	a28043e4 	sb	zero,17380(s4)
9d008094:	9602000c 	lhu	v0,12(s0)
9d008098:	30420102 	andi	v0,v0,0x102
9d00809c:	5452fffb 	bnel	v0,s2,9d00808c <_filbuf+0x58>
9d0080a0:	26100014 	addiu	s0,s0,20
9d0080a4:	0f4024f1 	jal	9d0093c4 <.LFE0>
9d0080a8:	02002021 	move	a0,s0
9d0080ac:	26100014 	addiu	s0,s0,20
9d0080b0:	5613fff9 	bnel	s0,s3,9d008098 <_filbuf+0x64>
9d0080b4:	9602000c 	lhu	v0,12(s0)
9d0080b8:	a28043e4 	sb	zero,17380(s4)
9d0080bc:	8e260010 	lw	a2,16(s1)
9d0080c0:	10c00016 	beqz	a2,9d00811c <_filbuf+0xe8>
9d0080c4:	9624000e 	lhu	a0,14(s1)
9d0080c8:	0f4020c9 	jal	9d008324 <read>
9d0080cc:	8e250008 	lw	a1,8(s1)
9d0080d0:	1040002f 	beqz	v0,9d008190 <_filbuf+0x15c>
9d0080d4:	ae220004 	sw	v0,4(s1)
9d0080d8:	2403ffff 	li	v1,-1
9d0080dc:	50430034 	beql	v0,v1,9d0081b0 <_filbuf+0x17c>
9d0080e0:	9622000c 	lhu	v0,12(s1)
9d0080e4:	8e230008 	lw	v1,8(s1)
9d0080e8:	2442ffff 	addiu	v0,v0,-1
9d0080ec:	ae220004 	sw	v0,4(s1)
9d0080f0:	24620001 	addiu	v0,v1,1
9d0080f4:	ae220000 	sw	v0,0(s1)
9d0080f8:	90620000 	lbu	v0,0(v1)
9d0080fc:	8fbf002c 	lw	ra,44(sp)
9d008100:	8fb40028 	lw	s4,40(sp)
9d008104:	8fb30024 	lw	s3,36(sp)
9d008108:	8fb20020 	lw	s2,32(sp)
9d00810c:	8fb1001c 	lw	s1,28(sp)
9d008110:	8fb00018 	lw	s0,24(sp)
9d008114:	03e00008 	jr	ra
9d008118:	27bd0030 	addiu	sp,sp,48
9d00811c:	ae200004 	sw	zero,4(s1)
9d008120:	27a50010 	addiu	a1,sp,16
9d008124:	0f4020c9 	jal	9d008324 <read>
9d008128:	24060001 	li	a2,1
9d00812c:	24030001 	li	v1,1
9d008130:	1043000c 	beq	v0,v1,9d008164 <_filbuf+0x130>
9d008134:	2402ffff 	li	v0,-1
9d008138:	9623000c 	lhu	v1,12(s1)
9d00813c:	34630010 	ori	v1,v1,0x10
9d008140:	a623000c 	sh	v1,12(s1)
9d008144:	8fbf002c 	lw	ra,44(sp)
9d008148:	8fb40028 	lw	s4,40(sp)
9d00814c:	8fb30024 	lw	s3,36(sp)
9d008150:	8fb20020 	lw	s2,32(sp)
9d008154:	8fb1001c 	lw	s1,28(sp)
9d008158:	8fb00018 	lw	s0,24(sp)
9d00815c:	03e00008 	jr	ra
9d008160:	27bd0030 	addiu	sp,sp,48
9d008164:	93a20010 	lbu	v0,16(sp)
9d008168:	8fbf002c 	lw	ra,44(sp)
9d00816c:	8fb40028 	lw	s4,40(sp)
9d008170:	8fb30024 	lw	s3,36(sp)
9d008174:	8fb20020 	lw	s2,32(sp)
9d008178:	8fb1001c 	lw	s1,28(sp)
9d00817c:	8fb00018 	lw	s0,24(sp)
9d008180:	03e00008 	jr	ra
9d008184:	27bd0030 	addiu	sp,sp,48
9d008188:	0b40203f 	j	9d0080fc <_filbuf+0xc8>
9d00818c:	2402ffff 	li	v0,-1
9d008190:	9622000c 	lhu	v0,12(s1)
9d008194:	34420010 	ori	v0,v0,0x10
9d008198:	a622000c 	sh	v0,12(s1)
9d00819c:	8e230008 	lw	v1,8(s1)
9d0081a0:	ae200004 	sw	zero,4(s1)
9d0081a4:	2402ffff 	li	v0,-1
9d0081a8:	0b40203f 	j	9d0080fc <_filbuf+0xc8>
9d0081ac:	ae230000 	sw	v1,0(s1)
9d0081b0:	34420030 	ori	v0,v0,0x30
9d0081b4:	0b402067 	j	9d00819c <_filbuf+0x168>
9d0081b8:	a622000c 	sh	v0,12(s1)

Disassembly of section .text:

9d0081bc <strlen>:
9d0081bc:	908a0000 	lbu	t2,0(a0)
9d0081c0:	00801021 	move	v0,a0
9d0081c4:	15400003 	bnez	t2,9d0081d4 <strlen+0x18>
9d0081c8:	00000000 	nop
9d0081cc:	03e00008 	jr	ra
9d0081d0:	24020000 	li	v0,0
9d0081d4:	908a0001 	lbu	t2,1(a0)
9d0081d8:	15400003 	bnez	t2,9d0081e8 <strlen+0x2c>
9d0081dc:	00000000 	nop
9d0081e0:	03e00008 	jr	ra
9d0081e4:	24020001 	li	v0,1
9d0081e8:	908a0002 	lbu	t2,2(a0)
9d0081ec:	15400003 	bnez	t2,9d0081fc <strlen+0x40>
9d0081f0:	00000000 	nop
9d0081f4:	03e00008 	jr	ra
9d0081f8:	24020002 	li	v0,2
9d0081fc:	908a0003 	lbu	t2,3(a0)
9d008200:	15400003 	bnez	t2,9d008210 <strlen+0x54>
9d008204:	00042082 	srl	a0,a0,0x2
9d008208:	03e00008 	jr	ra
9d00820c:	24020003 	li	v0,3
9d008210:	24840001 	addiu	a0,a0,1
9d008214:	00042080 	sll	a0,a0,0x2
9d008218:	8c8a0000 	lw	t2,0(a0)
9d00821c:	3c090101 	lui	t1,0x101
9d008220:	35290101 	ori	t1,t1,0x101
9d008224:	000979c0 	sll	t7,t1,0x7
9d008228:	01494023 	subu	t0,t2,t1
9d00822c:	010f4024 	and	t0,t0,t7
9d008230:	11000006 	beqz	t0,9d00824c <strlen+0x90>
9d008234:	010a6024 	and	t4,t0,t2
9d008238:	11880004 	beq	t4,t0,9d00824c <strlen+0x90>
9d00823c:	00000000 	nop
9d008240:	908a0000 	lbu	t2,0(a0)
9d008244:	10000022 	b	9d0082d0 <strlen+0x114>
9d008248:	24840000 	addiu	a0,a0,0
9d00824c:	8c8b0004 	lw	t3,4(a0)
9d008250:	01694023 	subu	t0,t3,t1
9d008254:	010f4024 	and	t0,t0,t7
9d008258:	11000006 	beqz	t0,9d008274 <strlen+0xb8>
9d00825c:	010b6024 	and	t4,t0,t3
9d008260:	11880004 	beq	t4,t0,9d008274 <strlen+0xb8>
9d008264:	00000000 	nop
9d008268:	908a0004 	lbu	t2,4(a0)
9d00826c:	10000018 	b	9d0082d0 <strlen+0x114>
9d008270:	24840004 	addiu	a0,a0,4
9d008274:	8c8a0008 	lw	t2,8(a0)
9d008278:	01494023 	subu	t0,t2,t1
9d00827c:	010f4024 	and	t0,t0,t7
9d008280:	11000006 	beqz	t0,9d00829c <strlen+0xe0>
9d008284:	010a6024 	and	t4,t0,t2
9d008288:	11880004 	beq	t4,t0,9d00829c <strlen+0xe0>
9d00828c:	00000000 	nop
9d008290:	908a0008 	lbu	t2,8(a0)
9d008294:	1000000e 	b	9d0082d0 <strlen+0x114>
9d008298:	24840008 	addiu	a0,a0,8
9d00829c:	8c8b000c 	lw	t3,12(a0)
9d0082a0:	01694023 	subu	t0,t3,t1
9d0082a4:	010f4024 	and	t0,t0,t7
9d0082a8:	11000006 	beqz	t0,9d0082c4 <strlen+0x108>
9d0082ac:	010b6024 	and	t4,t0,t3
9d0082b0:	11880004 	beq	t4,t0,9d0082c4 <strlen+0x108>
9d0082b4:	00000000 	nop
9d0082b8:	908a000c 	lbu	t2,12(a0)
9d0082bc:	10000004 	b	9d0082d0 <strlen+0x114>
9d0082c0:	2484000c 	addiu	a0,a0,12
9d0082c4:	8c8a0010 	lw	t2,16(a0)
9d0082c8:	1000ffd7 	b	9d008228 <strlen+0x6c>
9d0082cc:	24840010 	addiu	a0,a0,16
9d0082d0:	15400004 	bnez	t2,9d0082e4 <strlen+0x128>
9d0082d4:	00000000 	nop
9d0082d8:	24840000 	addiu	a0,a0,0
9d0082dc:	03e00008 	jr	ra
9d0082e0:	00821023 	subu	v0,a0,v0
9d0082e4:	908a0001 	lbu	t2,1(a0)
9d0082e8:	15400004 	bnez	t2,9d0082fc <strlen+0x140>
9d0082ec:	00000000 	nop
9d0082f0:	24840001 	addiu	a0,a0,1
9d0082f4:	03e00008 	jr	ra
9d0082f8:	00821023 	subu	v0,a0,v0
9d0082fc:	908a0002 	lbu	t2,2(a0)
9d008300:	15400004 	bnez	t2,9d008314 <strlen+0x158>
9d008304:	00000000 	nop
9d008308:	24840002 	addiu	a0,a0,2
9d00830c:	03e00008 	jr	ra
9d008310:	00821023 	subu	v0,a0,v0
9d008314:	908a0003 	lbu	t2,3(a0)
9d008318:	24840003 	addiu	a0,a0,3
9d00831c:	03e00008 	jr	ra
9d008320:	00821023 	subu	v0,a0,v0

Disassembly of section .text.read:

9d008324 <read>:
9d008324:	27bdffe0 	addiu	sp,sp,-32
9d008328:	afbf001c 	sw	ra,28(sp)
9d00832c:	afb20018 	sw	s2,24(sp)
9d008330:	afb10014 	sw	s1,20(sp)
9d008334:	afb00010 	sw	s0,16(sp)
9d008338:	10a00017 	beqz	a1,9d008398 <read+0x74>
9d00833c:	00a08021 	move	s0,a1
9d008340:	00c09021 	move	s2,a2
9d008344:	10c0000e 	beqz	a2,9d008380 <read+0x5c>
9d008348:	00001021 	move	v0,zero
9d00834c:	1480000c 	bnez	a0,9d008380 <read+0x5c>
9d008350:	02401021 	move	v0,s2
9d008354:	3c020000 	lui	v0,0x0
9d008358:	24420000 	addiu	v0,v0,0
9d00835c:	10400015 	beqz	v0,9d0083b4 <read+0x90>
9d008360:	00c08821 	move	s1,a2
9d008364:	24040001 	li	a0,1
9d008368:	0c000000 	jal	90000000 <_bmxdkpba_address+0x8ffe0000>
9d00836c:	26100001 	addiu	s0,s0,1
9d008370:	2631ffff 	addiu	s1,s1,-1
9d008374:	1620fffb 	bnez	s1,9d008364 <read+0x40>
9d008378:	a202ffff 	sb	v0,-1(s0)
9d00837c:	02401021 	move	v0,s2
9d008380:	8fbf001c 	lw	ra,28(sp)
9d008384:	8fb20018 	lw	s2,24(sp)
9d008388:	8fb10014 	lw	s1,20(sp)
9d00838c:	8fb00010 	lw	s0,16(sp)
9d008390:	03e00008 	jr	ra
9d008394:	27bd0020 	addiu	sp,sp,32
9d008398:	00001021 	move	v0,zero
9d00839c:	8fbf001c 	lw	ra,28(sp)
9d0083a0:	8fb20018 	lw	s2,24(sp)
9d0083a4:	8fb10014 	lw	s1,20(sp)
9d0083a8:	8fb00010 	lw	s0,16(sp)
9d0083ac:	03e00008 	jr	ra
9d0083b0:	27bd0020 	addiu	sp,sp,32
9d0083b4:	3c02a000 	lui	v0,0xa000
9d0083b8:	8c430010 	lw	v1,16(v0)
9d0083bc:	24020002 	li	v0,2
9d0083c0:	10620025 	beq	v1,v0,9d008458 <read+0x134>
9d0083c4:	3c02bf80 	lui	v0,0xbf80
9d0083c8:	3c02bf80 	lui	v0,0xbf80
9d0083cc:	8c426000 	lw	v0,24576(v0)
9d0083d0:	3c06bf80 	lui	a2,0xbf80
9d0083d4:	24c66030 	addiu	a2,a2,24624
9d0083d8:	3c05bf80 	lui	a1,0xbf80
9d0083dc:	24a56010 	addiu	a1,a1,24592
9d0083e0:	30428000 	andi	v0,v0,0x8000
9d0083e4:	14400005 	bnez	v0,9d0083fc <read+0xd8>
9d0083e8:	02401021 	move	v0,s2
9d0083ec:	34038000 	li	v1,0x8000
9d0083f0:	3c02bf80 	lui	v0,0xbf80
9d0083f4:	ac436008 	sw	v1,24584(v0)
9d0083f8:	02401021 	move	v0,s2
9d0083fc:	8ca30000 	lw	v1,0(a1)
9d008400:	30630001 	andi	v1,v1,0x1
9d008404:	14600009 	bnez	v1,9d00842c <read+0x108>
9d008408:	240300a0 	li	v1,160
9d00840c:	0b402107 	j	9d00841c <read+0xf8>
9d008410:	00000000 	nop
9d008414:	10600005 	beqz	v1,9d00842c <read+0x108>
9d008418:	00000000 	nop
9d00841c:	8ca40000 	lw	a0,0(a1)
9d008420:	30840001 	andi	a0,a0,0x1
9d008424:	1080fffb 	beqz	a0,9d008414 <read+0xf0>
9d008428:	2463ffff 	addiu	v1,v1,-1
9d00842c:	8ca30000 	lw	v1,0(a1)
9d008430:	30630001 	andi	v1,v1,0x1
9d008434:	5460ffd2 	bnezl	v1,9d008380 <read+0x5c>
9d008438:	02421023 	subu	v0,s2,v0
9d00843c:	8cc30000 	lw	v1,0(a2)
9d008440:	26100001 	addiu	s0,s0,1
9d008444:	2442ffff 	addiu	v0,v0,-1
9d008448:	1440ffec 	bnez	v0,9d0083fc <read+0xd8>
9d00844c:	a203ffff 	sb	v1,-1(s0)
9d008450:	0b4020e0 	j	9d008380 <read+0x5c>
9d008454:	02421023 	subu	v0,s2,v0
9d008458:	24426840 	addiu	v0,v0,26688
9d00845c:	1040ffda 	beqz	v0,9d0083c8 <read+0xa4>
9d008460:	3c02bf80 	lui	v0,0xbf80
9d008464:	8c426800 	lw	v0,26624(v0)
9d008468:	3c06bf80 	lui	a2,0xbf80
9d00846c:	24c66830 	addiu	a2,a2,26672
9d008470:	3c05bf80 	lui	a1,0xbf80
9d008474:	0b4020f8 	j	9d0083e0 <read+0xbc>
9d008478:	24a56810 	addiu	a1,a1,26640

Disassembly of section .text.fputc:

9d00847c <fputc>:
9d00847c:	27bdffe0 	addiu	sp,sp,-32
9d008480:	afbf001c 	sw	ra,28(sp)
9d008484:	afb10018 	sw	s1,24(sp)
9d008488:	afb00014 	sw	s0,20(sp)
9d00848c:	94a2000c 	lhu	v0,12(a1)
9d008490:	30430002 	andi	v1,v0,0x2
9d008494:	10600048 	beqz	v1,9d0085b8 <fputc+0x13c>
9d008498:	00a08021 	move	s0,a1
9d00849c:	30430200 	andi	v1,v0,0x200
9d0084a0:	1060001c 	beqz	v1,9d008514 <fputc+0x98>
9d0084a4:	8ca30004 	lw	v1,4(a1)
9d0084a8:	34450200 	ori	a1,v0,0x200
9d0084ac:	a605000c 	sh	a1,12(s0)
9d0084b0:	1060001c 	beqz	v1,9d008524 <fputc+0xa8>
9d0084b4:	309100ff 	andi	s1,a0,0xff
9d0084b8:	2404000a 	li	a0,10
9d0084bc:	1224001f 	beq	s1,a0,9d00853c <fputc+0xc0>
9d0084c0:	30420080 	andi	v0,v0,0x80
9d0084c4:	8e020010 	lw	v0,16(s0)
9d0084c8:	10620036 	beq	v1,v0,9d0085a4 <fputc+0x128>
9d0084cc:	24630001 	addiu	v1,v1,1
9d0084d0:	8e020000 	lw	v0,0(s0)
9d0084d4:	24440001 	addiu	a0,v0,1
9d0084d8:	ae040000 	sw	a0,0(s0)
9d0084dc:	ae030004 	sw	v1,4(s0)
9d0084e0:	a0510000 	sb	s1,0(v0)
9d0084e4:	24030001 	li	v1,1
9d0084e8:	3c02a000 	lui	v0,0xa000
9d0084ec:	a04343e4 	sb	v1,17380(v0)
9d0084f0:	2402000a 	li	v0,10
9d0084f4:	52220018 	beql	s1,v0,9d008558 <fputc+0xdc>
9d0084f8:	9603000c 	lhu	v1,12(s0)
9d0084fc:	02201021 	move	v0,s1
9d008500:	8fbf001c 	lw	ra,28(sp)
9d008504:	8fb10018 	lw	s1,24(sp)
9d008508:	8fb00014 	lw	s0,20(sp)
9d00850c:	03e00008 	jr	ra
9d008510:	27bd0020 	addiu	sp,sp,32
9d008514:	14600028 	bnez	v1,9d0085b8 <fputc+0x13c>
9d008518:	34450200 	ori	a1,v0,0x200
9d00851c:	a605000c 	sh	a1,12(s0)
9d008520:	309100ff 	andi	s1,a0,0xff
9d008524:	8e040008 	lw	a0,8(s0)
9d008528:	ae040000 	sw	a0,0(s0)
9d00852c:	2404000a 	li	a0,10
9d008530:	5624ffe5 	bnel	s1,a0,9d0084c8 <fputc+0x4c>
9d008534:	8e020010 	lw	v0,16(s0)
9d008538:	30420080 	andi	v0,v0,0x80
9d00853c:	5440ffe2 	bnezl	v0,9d0084c8 <fputc+0x4c>
9d008540:	8e020010 	lw	v0,16(s0)
9d008544:	2404000d 	li	a0,13
9d008548:	0f40211f 	jal	9d00847c <fputc>
9d00854c:	02002821 	move	a1,s0
9d008550:	0b402131 	j	9d0084c4 <fputc+0x48>
9d008554:	8e030004 	lw	v1,4(s0)
9d008558:	30630100 	andi	v1,v1,0x100
9d00855c:	1060ffe8 	beqz	v1,9d008500 <fputc+0x84>
9d008560:	2402000a 	li	v0,10
9d008564:	9604000e 	lhu	a0,14(s0)
9d008568:	8e050008 	lw	a1,8(s0)
9d00856c:	0f402519 	jal	9d009464 <.LFE0>
9d008570:	8e060004 	lw	a2,4(s0)
9d008574:	8e030004 	lw	v1,4(s0)
9d008578:	50430006 	beql	v0,v1,9d008594 <fputc+0x118>
9d00857c:	8e030008 	lw	v1,8(s0)
9d008580:	9602000c 	lhu	v0,12(s0)
9d008584:	2411ffff 	li	s1,-1
9d008588:	34420030 	ori	v0,v0,0x30
9d00858c:	a602000c 	sh	v0,12(s0)
9d008590:	8e030008 	lw	v1,8(s0)
9d008594:	ae000004 	sw	zero,4(s0)
9d008598:	02201021 	move	v0,s1
9d00859c:	0b402140 	j	9d008500 <fputc+0x84>
9d0085a0:	ae030000 	sw	v1,0(s0)
9d0085a4:	7c112420 	seb	a0,s1
9d0085a8:	0f4021c0 	jal	9d008700 <_flsbuf>
9d0085ac:	02002821 	move	a1,s0
9d0085b0:	0b402141 	j	9d008504 <fputc+0x88>
9d0085b4:	8fbf001c 	lw	ra,28(sp)
9d0085b8:	0b402140 	j	9d008500 <fputc+0x84>
9d0085bc:	2402ffff 	li	v0,-1

Disassembly of section .dinit:

9d0085c0 <.dinit>:
9d0085c0:	a00000c4 	sb	zero,196(zero)
9d0085c4:	0000427c 	0x427c
9d0085c8:	00000000 	nop
9d0085cc:	a0000014 	sb	zero,20(zero)
9d0085d0:	0000009c 	0x9c
9d0085d4:	00000000 	nop
9d0085d8:	a0000000 	sb	zero,0(zero)
9d0085dc:	00000010 	mfhi	zero
9d0085e0:	00000001 	movf	zero,zero,$fcc0
9d0085e4:	00000001 	movf	zero,zero,$fcc0
9d0085e8:	000000c8 	0xc8
9d0085ec:	3f800000 	0x3f800000
9d0085f0:	00000064 	0x64
9d0085f4:	a00000b0 	sb	zero,176(zero)
9d0085f8:	00000008 	jr	zero
9d0085fc:	00000000 	nop
9d008600:	a00000b8 	sb	zero,184(zero)
9d008604:	00000004 	sllv	zero,zero,zero
9d008608:	00000000 	nop
9d00860c:	a0004428 	sb	zero,17448(zero)
9d008610:	0000000c 	syscall
9d008614:	00000000 	nop
9d008618:	a0004434 	sb	zero,17460(zero)
9d00861c:	00000004 	sllv	zero,zero,zero
9d008620:	00000000 	nop
9d008624:	a0004340 	sb	zero,17216(zero)
9d008628:	000000a4 	0xa4
9d00862c:	00000001 	movf	zero,zero,$fcc0
9d008630:	a00043e8 	sb	zero,17384(zero)
9d008634:	00000000 	nop
9d008638:	a00043e8 	sb	zero,17384(zero)
9d00863c:	00000009 	jalr	zero,zero
9d008640:	00000020 	add	zero,zero,zero
9d008644:	a0004408 	sb	zero,17416(zero)
9d008648:	00000000 	nop
9d00864c:	a0004408 	sb	zero,17416(zero)
9d008650:	0001020e 	0x1020e
	...
9d008664:	00020206 	0x20206
	...
9d0086d0:	a0004340 	sb	zero,17216(zero)
9d0086d4:	a00043e4 	sb	zero,17380(zero)
9d0086d8:	00000044 	0x44
9d0086dc:	00000000 	nop
9d0086e0:	a0000010 	sb	zero,16(zero)
9d0086e4:	00000004 	sllv	zero,zero,zero
9d0086e8:	00000001 	movf	zero,zero,$fcc0
9d0086ec:	00000002 	srl	zero,zero,0x0
9d0086f0:	a0004438 	sb	zero,17464(zero)
9d0086f4:	00000004 	sllv	zero,zero,zero
	...

Disassembly of section .text._flsbuf:

9d008700 <_flsbuf>:
9d008700:	27bdffe8 	addiu	sp,sp,-24
9d008704:	afbf0014 	sw	ra,20(sp)
9d008708:	afb00010 	sw	s0,16(sp)
9d00870c:	00a08021 	move	s0,a1
9d008710:	94a2000c 	lhu	v0,12(a1)
9d008714:	30430040 	andi	v1,v0,0x40
9d008718:	1460001c 	bnez	v1,9d00878c <_flsbuf+0x8c>
9d00871c:	a3a40018 	sb	a0,24(sp)
9d008720:	30430002 	andi	v1,v0,0x2
9d008724:	5060003d 	beqzl	v1,9d00881c <_flsbuf+0x11c>
9d008728:	34420030 	ori	v0,v0,0x30
9d00872c:	8ca30010 	lw	v1,16(a1)
9d008730:	5060001b 	beqzl	v1,9d0087a0 <_flsbuf+0xa0>
9d008734:	94a4000e 	lhu	a0,14(a1)
9d008738:	8ca50008 	lw	a1,8(a1)
9d00873c:	50a0002d 	beqzl	a1,9d0087f4 <_flsbuf+0xf4>
9d008740:	3c05a000 	lui	a1,0xa000
9d008744:	8e060004 	lw	a2,4(s0)
9d008748:	0f402519 	jal	9d009464 <.LFE0>
9d00874c:	9604000e 	lhu	a0,14(s0)
9d008750:	8e020008 	lw	v0,8(s0)
9d008754:	83a30018 	lb	v1,24(sp)
9d008758:	24440001 	addiu	a0,v0,1
9d00875c:	2405ffff 	li	a1,-1
9d008760:	ae050004 	sw	a1,4(s0)
9d008764:	ae040000 	sw	a0,0(s0)
9d008768:	a0430000 	sb	v1,0(v0)
9d00876c:	83a20018 	lb	v0,24(sp)
9d008770:	2403000a 	li	v1,10
9d008774:	50430013 	beql	v0,v1,9d0087c4 <_flsbuf+0xc4>
9d008778:	9603000c 	lhu	v1,12(s0)
9d00877c:	8fbf0014 	lw	ra,20(sp)
9d008780:	8fb00010 	lw	s0,16(sp)
9d008784:	03e00008 	jr	ra
9d008788:	27bd0018 	addiu	sp,sp,24
9d00878c:	7c041420 	seb	v0,a0
9d008790:	8fbf0014 	lw	ra,20(sp)
9d008794:	8fb00010 	lw	s0,16(sp)
9d008798:	03e00008 	jr	ra
9d00879c:	27bd0018 	addiu	sp,sp,24
9d0087a0:	27a50018 	addiu	a1,sp,24
9d0087a4:	0f402519 	jal	9d009464 <.LFE0>
9d0087a8:	24060001 	li	a2,1
9d0087ac:	ae000004 	sw	zero,4(s0)
9d0087b0:	83a20018 	lb	v0,24(sp)
9d0087b4:	8fbf0014 	lw	ra,20(sp)
9d0087b8:	8fb00010 	lw	s0,16(sp)
9d0087bc:	03e00008 	jr	ra
9d0087c0:	27bd0018 	addiu	sp,sp,24
9d0087c4:	30630100 	andi	v1,v1,0x100
9d0087c8:	1060ffed 	beqz	v1,9d008780 <_flsbuf+0x80>
9d0087cc:	8fbf0014 	lw	ra,20(sp)
9d0087d0:	9604000e 	lhu	a0,14(s0)
9d0087d4:	8e050008 	lw	a1,8(s0)
9d0087d8:	0f402519 	jal	9d009464 <.LFE0>
9d0087dc:	8e060004 	lw	a2,4(s0)
9d0087e0:	8e030008 	lw	v1,8(s0)
9d0087e4:	83a20018 	lb	v0,24(sp)
9d0087e8:	ae000004 	sw	zero,4(s0)
9d0087ec:	0b4021df 	j	9d00877c <_flsbuf+0x7c>
9d0087f0:	ae030000 	sw	v1,0(s0)
9d0087f4:	24a54408 	addiu	a1,a1,17416
9d0087f8:	24030020 	li	v1,32
9d0087fc:	34420008 	ori	v0,v0,0x8
9d008800:	ae050008 	sw	a1,8(s0)
9d008804:	ae050000 	sw	a1,0(s0)
9d008808:	ae030010 	sw	v1,16(s0)
9d00880c:	ae030004 	sw	v1,4(s0)
9d008810:	a602000c 	sh	v0,12(s0)
9d008814:	0b4021d2 	j	9d008748 <_flsbuf+0x48>
9d008818:	24060020 	li	a2,32
9d00881c:	a4a2000c 	sh	v0,12(a1)
9d008820:	aca00004 	sw	zero,4(a1)
9d008824:	0b4021df 	j	9d00877c <_flsbuf+0x7c>
9d008828:	2402ffff 	li	v0,-1

Disassembly of section .text:

9d00882c <strcmp>:
9d00882c:	00854025 	or	t0,a0,a1
9d008830:	31080003 	andi	t0,t0,0x3
9d008834:	1500003d 	bnez	t0,9d00892c <strcmp+0x100>
9d008838:	3c090101 	lui	t1,0x101
9d00883c:	35290101 	ori	t1,t1,0x101
9d008840:	000979c0 	sll	t7,t1,0x7
9d008844:	8c820000 	lw	v0,0(a0)
9d008848:	8ca30000 	lw	v1,0(a1)
9d00884c:	00494023 	subu	t0,v0,t1
9d008850:	10430004 	beq	v0,v1,9d008864 <strcmp+0x38>
9d008854:	010f4024 	and	t0,t0,t7
9d008858:	24840000 	addiu	a0,a0,0
9d00885c:	10000033 	b	9d00892c <strcmp+0x100>
9d008860:	24a50000 	addiu	a1,a1,0
9d008864:	11000005 	beqz	t0,9d00887c <strcmp+0x50>
9d008868:	01036024 	and	t4,t0,v1
9d00886c:	11880003 	beq	t4,t0,9d00887c <strcmp+0x50>
9d008870:	00000000 	nop
9d008874:	03e00008 	jr	ra
9d008878:	00001021 	move	v0,zero
9d00887c:	8c820004 	lw	v0,4(a0)
9d008880:	8ca30004 	lw	v1,4(a1)
9d008884:	00494023 	subu	t0,v0,t1
9d008888:	10430004 	beq	v0,v1,9d00889c <strcmp+0x70>
9d00888c:	010f4024 	and	t0,t0,t7
9d008890:	24840004 	addiu	a0,a0,4
9d008894:	10000025 	b	9d00892c <strcmp+0x100>
9d008898:	24a50004 	addiu	a1,a1,4
9d00889c:	11000005 	beqz	t0,9d0088b4 <strcmp+0x88>
9d0088a0:	01036024 	and	t4,t0,v1
9d0088a4:	11880003 	beq	t4,t0,9d0088b4 <strcmp+0x88>
9d0088a8:	00000000 	nop
9d0088ac:	03e00008 	jr	ra
9d0088b0:	00001021 	move	v0,zero
9d0088b4:	8c820008 	lw	v0,8(a0)
9d0088b8:	8ca30008 	lw	v1,8(a1)
9d0088bc:	00494023 	subu	t0,v0,t1
9d0088c0:	10430004 	beq	v0,v1,9d0088d4 <strcmp+0xa8>
9d0088c4:	010f4024 	and	t0,t0,t7
9d0088c8:	24840008 	addiu	a0,a0,8
9d0088cc:	10000017 	b	9d00892c <strcmp+0x100>
9d0088d0:	24a50008 	addiu	a1,a1,8
9d0088d4:	11000005 	beqz	t0,9d0088ec <strcmp+0xc0>
9d0088d8:	01036024 	and	t4,t0,v1
9d0088dc:	11880003 	beq	t4,t0,9d0088ec <strcmp+0xc0>
9d0088e0:	00000000 	nop
9d0088e4:	03e00008 	jr	ra
9d0088e8:	00001021 	move	v0,zero
9d0088ec:	8c82000c 	lw	v0,12(a0)
9d0088f0:	8ca3000c 	lw	v1,12(a1)
9d0088f4:	00494023 	subu	t0,v0,t1
9d0088f8:	10430004 	beq	v0,v1,9d00890c <strcmp+0xe0>
9d0088fc:	010f4024 	and	t0,t0,t7
9d008900:	2484000c 	addiu	a0,a0,12
9d008904:	10000009 	b	9d00892c <strcmp+0x100>
9d008908:	24a5000c 	addiu	a1,a1,12
9d00890c:	24840010 	addiu	a0,a0,16
9d008910:	1100ffcc 	beqz	t0,9d008844 <strcmp+0x18>
9d008914:	24a50010 	addiu	a1,a1,16
9d008918:	01036024 	and	t4,t0,v1
9d00891c:	1188ffca 	beq	t4,t0,9d008848 <strcmp+0x1c>
9d008920:	8c820000 	lw	v0,0(a0)
9d008924:	03e00008 	jr	ra
9d008928:	00001021 	move	v0,zero
9d00892c:	90880000 	lbu	t0,0(a0)
9d008930:	90a90000 	lbu	t1,0(a1)
9d008934:	11000003 	beqz	t0,9d008944 <strcmp+0x118>
9d008938:	24840001 	addiu	a0,a0,1
9d00893c:	1109fffb 	beq	t0,t1,9d00892c <strcmp+0x100>
9d008940:	24a50001 	addiu	a1,a1,1
9d008944:	03e00008 	jr	ra
9d008948:	01091023 	subu	v0,t0,t1
#include "encoder.h"

static int encoder_command(int read) { // send a command to the encoder chip
                                       // 0 = reset count to 32,768, 1 = return the count
  SPI4BUF = read;                      // send the command
9d00894c:	3c02bf80 	lui	v0,0xbf80
9d008950:	ac445c20 	sw	a0,23584(v0)
  while (!SPI4STATbits.SPIRBF) { ; }   // wait for the response
9d008954:	3c03bf80 	lui	v1,0xbf80
9d008958:	8c625c10 	lw	v0,23568(v1)
9d00895c:	30420001 	andi	v0,v0,0x1
9d008960:	1040fffd 	beqz	v0,9d008958 <strcmp+0x12c>
9d008964:	3c02bf80 	lui	v0,0xbf80
  SPI4BUF;                             // garbage was transferred, ignore it
9d008968:	8c435c20 	lw	v1,23584(v0)
  SPI4BUF = 5;                         // write garbage, but the read will have the data
9d00896c:	24030005 	li	v1,5
9d008970:	ac435c20 	sw	v1,23584(v0)
  while (!SPI4STATbits.SPIRBF) { ; }
9d008974:	3c03bf80 	lui	v1,0xbf80
9d008978:	8c625c10 	lw	v0,23568(v1)
9d00897c:	30420001 	andi	v0,v0,0x1
9d008980:	1040fffd 	beqz	v0,9d008978 <strcmp+0x14c>
9d008984:	3c02bf80 	lui	v0,0xbf80
  return SPI4BUF;
9d008988:	8c425c20 	lw	v0,23584(v0)
}
9d00898c:	03e00008 	jr	ra
9d008990:	00000000 	nop

9d008994 <encoder_counts>:

int encoder_counts(void) {
9d008994:	27bdffe8 	addiu	sp,sp,-24
9d008998:	afbf0014 	sw	ra,20(sp)
  return encoder_command(1);
9d00899c:	0f402253 	jal	9d00894c <strcmp+0x120>
9d0089a0:	24040001 	li	a0,1
}
9d0089a4:	8fbf0014 	lw	ra,20(sp)
9d0089a8:	03e00008 	jr	ra
9d0089ac:	27bd0018 	addiu	sp,sp,24

9d0089b0 <encoder_reset>:

void encoder_reset(void){
9d0089b0:	27bdffe8 	addiu	sp,sp,-24
9d0089b4:	afbf0014 	sw	ra,20(sp)
  encoder_command(0);
9d0089b8:	0f402253 	jal	9d00894c <strcmp+0x120>
9d0089bc:	00002021 	move	a0,zero
}
9d0089c0:	8fbf0014 	lw	ra,20(sp)
9d0089c4:	03e00008 	jr	ra
9d0089c8:	27bd0018 	addiu	sp,sp,24

9d0089cc <encoder_init>:
void encoder_init(void) {
  // SPI initialization for reading from the decoder chip
  SPI4CON = 0;              // stop and reset SPI4
9d0089cc:	3c02bf80 	lui	v0,0xbf80
9d0089d0:	ac405c00 	sw	zero,23552(v0)
  SPI4BUF;                  // read to clear the rx receive buffer
9d0089d4:	3c02bf80 	lui	v0,0xbf80
9d0089d8:	8c425c20 	lw	v0,23584(v0)
  SPI4BRG = 0x4;            // bit rate to 8 MHz, SPI4BRG = 80000000/(2*desired)-1
9d0089dc:	24030004 	li	v1,4
9d0089e0:	3c02bf80 	lui	v0,0xbf80
9d0089e4:	ac435c30 	sw	v1,23600(v0)
  SPI4STATbits.SPIROV = 0;  // clear the overflow
9d0089e8:	3c02bf80 	lui	v0,0xbf80
9d0089ec:	8c435c10 	lw	v1,23568(v0)
9d0089f0:	7c033184 	ins	v1,zero,0x6,0x1
9d0089f4:	ac435c10 	sw	v1,23568(v0)
  SPI4CONbits.MSTEN = 1;    // master mode
9d0089f8:	3c02bf80 	lui	v0,0xbf80
9d0089fc:	8c445c00 	lw	a0,23552(v0)
9d008a00:	24030001 	li	v1,1
9d008a04:	7c642944 	ins	a0,v1,0x5,0x1
9d008a08:	ac445c00 	sw	a0,23552(v0)
  SPI4CONbits.MSSEN = 1;    // slave select enable
9d008a0c:	8c445c00 	lw	a0,23552(v0)
9d008a10:	7c64e704 	ins	a0,v1,0x1c,0x1
9d008a14:	ac445c00 	sw	a0,23552(v0)
  SPI4CONbits.MODE16 = 1;   // 16 bit mode
9d008a18:	8c445c00 	lw	a0,23552(v0)
9d008a1c:	7c645284 	ins	a0,v1,0xa,0x1
9d008a20:	ac445c00 	sw	a0,23552(v0)
  SPI4CONbits.MODE32 = 0;
9d008a24:	8c445c00 	lw	a0,23552(v0)
9d008a28:	7c045ac4 	ins	a0,zero,0xb,0x1
9d008a2c:	ac445c00 	sw	a0,23552(v0)
  SPI4CONbits.SMP = 1;      // sample at the end of the clock
9d008a30:	8c445c00 	lw	a0,23552(v0)
9d008a34:	7c644a44 	ins	a0,v1,0x9,0x1
9d008a38:	ac445c00 	sw	a0,23552(v0)
  SPI4CONbits.ON = 1;       // turn SPI on
9d008a3c:	8c445c00 	lw	a0,23552(v0)
9d008a40:	7c647bc4 	ins	a0,v1,0xf,0x1
9d008a44:	ac445c00 	sw	a0,23552(v0)
9d008a48:	03e00008 	jr	ra
9d008a4c:	00000000 	nop

Disassembly of section .text.fgetc:

9d008a50 <fgetc>:
9d008a50:	27bdffe0 	addiu	sp,sp,-32
9d008a54:	afbf001c 	sw	ra,28(sp)
9d008a58:	afb20018 	sw	s2,24(sp)
9d008a5c:	afb10014 	sw	s1,20(sp)
9d008a60:	afb00010 	sw	s0,16(sp)
9d008a64:	00808021 	move	s0,a0
9d008a68:	9483000c 	lhu	v1,12(a0)
9d008a6c:	30640011 	andi	a0,v1,0x11
9d008a70:	24020001 	li	v0,1
9d008a74:	1482001c 	bne	a0,v0,9d008ae8 <fgetc+0x98>
9d008a78:	30620200 	andi	v0,v1,0x200
9d008a7c:	14400018 	bnez	v0,9d008ae0 <fgetc+0x90>
9d008a80:	8e020004 	lw	v0,4(s0)
9d008a84:	3063fdff 	andi	v1,v1,0xfdff
9d008a88:	a603000c 	sh	v1,12(s0)
9d008a8c:	2411001a 	li	s1,26
9d008a90:	2412000d 	li	s2,13
9d008a94:	1840001f 	blez	v0,9d008b14 <fgetc+0xc4>
9d008a98:	2444ffff 	addiu	a0,v0,-1
9d008a9c:	8e020000 	lw	v0,0(s0)
9d008aa0:	ae040004 	sw	a0,4(s0)
9d008aa4:	24440001 	addiu	a0,v0,1
9d008aa8:	ae040000 	sw	a0,0(s0)
9d008aac:	90420000 	lbu	v0,0(v0)
9d008ab0:	30640080 	andi	a0,v1,0x80
9d008ab4:	14800005 	bnez	a0,9d008acc <fgetc+0x7c>
9d008ab8:	8fbf001c 	lw	ra,28(sp)
9d008abc:	5051001c 	beql	v0,s1,9d008b30 <fgetc+0xe0>
9d008ac0:	8e020008 	lw	v0,8(s0)
9d008ac4:	50520011 	beql	v0,s2,9d008b0c <fgetc+0xbc>
9d008ac8:	8e020004 	lw	v0,4(s0)
9d008acc:	8fb20018 	lw	s2,24(sp)
9d008ad0:	8fb10014 	lw	s1,20(sp)
9d008ad4:	8fb00010 	lw	s0,16(sp)
9d008ad8:	03e00008 	jr	ra
9d008adc:	27bd0020 	addiu	sp,sp,32
9d008ae0:	5040ffe9 	beqzl	v0,9d008a88 <fgetc+0x38>
9d008ae4:	3063fdff 	andi	v1,v1,0xfdff
9d008ae8:	34630010 	ori	v1,v1,0x10
9d008aec:	a603000c 	sh	v1,12(s0)
9d008af0:	2402ffff 	li	v0,-1
9d008af4:	8fbf001c 	lw	ra,28(sp)
9d008af8:	8fb20018 	lw	s2,24(sp)
9d008afc:	8fb10014 	lw	s1,20(sp)
9d008b00:	8fb00010 	lw	s0,16(sp)
9d008b04:	03e00008 	jr	ra
9d008b08:	27bd0020 	addiu	sp,sp,32
9d008b0c:	1c40ffe3 	bgtz	v0,9d008a9c <fgetc+0x4c>
9d008b10:	2444ffff 	addiu	a0,v0,-1
9d008b14:	30620040 	andi	v0,v1,0x40
9d008b18:	1440fff3 	bnez	v0,9d008ae8 <fgetc+0x98>
9d008b1c:	02002021 	move	a0,s0
9d008b20:	0f40200d 	jal	9d008034 <_filbuf>
9d008b24:	00000000 	nop
9d008b28:	0b4022ac 	j	9d008ab0 <fgetc+0x60>
9d008b2c:	9603000c 	lhu	v1,12(s0)
9d008b30:	5040ffee 	beqzl	v0,9d008aec <fgetc+0x9c>
9d008b34:	34630010 	ori	v1,v1,0x10
9d008b38:	8e040004 	lw	a0,4(s0)
9d008b3c:	8e020000 	lw	v0,0(s0)
9d008b40:	24840001 	addiu	a0,a0,1
9d008b44:	2442ffff 	addiu	v0,v0,-1
9d008b48:	ae040004 	sw	a0,4(s0)
9d008b4c:	0b4022ba 	j	9d008ae8 <fgetc+0x98>
9d008b50:	ae020000 	sw	v0,0(s0)

Disassembly of section .rodata:

9d008b54 <_ctype>:
9d008b54:	20202000 20202020 28282020 20282828     .         ((((( 
9d008b64:	20202020 20202020 20202020 20202020                     
9d008b74:	10108020 10101010 10101010 10101010      ...............
9d008b84:	04040410 04040404 10040404 10101010     ................
9d008b94:	41411010 41414141 01010101 01010101     ..AAAAAA........
9d008ba4:	01010101 01010101 01010101 10101010     ................
9d008bb4:	42421010 42424242 02020202 02020202     ..BBBBBB........
9d008bc4:	02020202 02020202 02020202 10101010     ................
9d008bd4:	00000020 00000000 00000000 00000000      ...............
	...

Disassembly of section .text.__ldexpf:

9d008c58 <__ldexpf>:
9d008c58:	7c863dc0 	ext	a2,a0,0x17,0x8
9d008c5c:	24c8ffff 	addiu	t0,a2,-1
9d008c60:	2d0800fe 	sltiu	t0,t0,254
9d008c64:	00044fc2 	srl	t1,a0,0x1f
9d008c68:	1100002b 	beqz	t0,9d008d18 <__ldexpf+0xc0>
9d008c6c:	7c87b000 	ext	a3,a0,0x0,0x17
9d008c70:	24c6ff81 	addiu	a2,a2,-127
9d008c74:	3c020080 	lui	v0,0x80
9d008c78:	00e21025 	or	v0,a3,v0
9d008c7c:	00c53021 	addu	a2,a2,a1
9d008c80:	24c3007f 	addiu	v1,a2,127
9d008c84:	18600018 	blez	v1,9d008ce8 <__ldexpf+0x90>
9d008c88:	000210c0 	sll	v0,v0,0x3
9d008c8c:	30440007 	andi	a0,v0,0x7
9d008c90:	1480000d 	bnez	a0,9d008cc8 <__ldexpf+0x70>
9d008c94:	7c4400c0 	ext	a0,v0,0x3,0x1
9d008c98:	286400ff 	slti	a0,v1,255
9d008c9c:	10800024 	beqz	a0,9d008d30 <__ldexpf+0xd8>
9d008ca0:	000210c2 	srl	v0,v0,0x3
9d008ca4:	7c4405c0 	ext	a0,v0,0x17,0x1
9d008ca8:	50800002 	beqzl	a0,9d008cb4 <__ldexpf+0x5c>
9d008cac:	00001821 	move	v1,zero
9d008cb0:	7c42b000 	ext	v0,v0,0x0,0x17
9d008cb4:	00094a00 	sll	t1,t1,0x8
9d008cb8:	00691825 	or	v1,v1,t1
9d008cbc:	00031dc0 	sll	v1,v1,0x17
9d008cc0:	03e00008 	jr	ra
9d008cc4:	00621025 	or	v0,v1,v0
9d008cc8:	24420003 	addiu	v0,v0,3
9d008ccc:	00441021 	addu	v0,v0,a0
9d008cd0:	000226c2 	srl	a0,v0,0x1b
9d008cd4:	1080fff1 	beqz	a0,9d008c9c <__ldexpf+0x44>
9d008cd8:	286400ff 	slti	a0,v1,255
9d008cdc:	00021042 	srl	v0,v0,0x1
9d008ce0:	0b402326 	j	9d008c98 <__ldexpf+0x40>
9d008ce4:	24630001 	addiu	v1,v1,1
9d008ce8:	2403ff82 	li	v1,-126
9d008cec:	00661823 	subu	v1,v1,a2
9d008cf0:	2864001b 	slti	a0,v1,27
9d008cf4:	50800012 	beqzl	a0,9d008d40 <__ldexpf+0xe8>
9d008cf8:	00001021 	move	v0,zero
9d008cfc:	24c4009e 	addiu	a0,a2,158
9d008d00:	00822004 	sllv	a0,v0,a0
9d008d04:	00621006 	srlv	v0,v0,v1
9d008d08:	0004182b 	sltu	v1,zero,a0
9d008d0c:	00621025 	or	v0,v1,v0
9d008d10:	0b402323 	j	9d008c8c <__ldexpf+0x34>
9d008d14:	24030001 	li	v1,1
9d008d18:	14c00003 	bnez	a2,9d008d28 <__ldexpf+0xd0>
9d008d1c:	00000000 	nop
9d008d20:	14e00009 	bnez	a3,9d008d48 <__ldexpf+0xf0>
9d008d24:	70e31820 	clz	v1,a3
9d008d28:	03e00008 	jr	ra
9d008d2c:	00801021 	move	v0,a0
9d008d30:	00091200 	sll	v0,t1,0x8
9d008d34:	344200ff 	ori	v0,v0,0xff
9d008d38:	03e00008 	jr	ra
9d008d3c:	000215c0 	sll	v0,v0,0x17
9d008d40:	0b40232d 	j	9d008cb4 <__ldexpf+0x5c>
9d008d44:	00001821 	move	v1,zero
9d008d48:	2462fff8 	addiu	v0,v1,-8
9d008d4c:	00471004 	sllv	v0,a3,v0
9d008d50:	2406ff8a 	li	a2,-118
9d008d54:	0b40231f 	j	9d008c7c <__ldexpf+0x24>
9d008d58:	00c33023 	subu	a2,a2,v1

Disassembly of section .text.dptofp:

9d008d5c <__truncdfsf2>:
9d008d5c:	00053ac0 00045d42 00eb3825 000432c0     .:..B]..%8...2..
9d008d6c:	3c018000 00e13825 3c018000 00a14824     ...<%8.....<$H..
9d008d7c:	00054040 00084542 2508fc80 250bffff     @@..BE.....%...%
9d008d8c:	2d6100fe 10200012 00000000              ..a-.. .....

9d008d98 <Hlab1>:
9d008d98:	10c00002 	beqz	a2,9d008da4 <i45>
9d008d9c:	00000000 	nop
9d008da0:	34e70001 	ori	a3,a3,0x1

9d008da4 <i45>:
9d008da4:	24e70080 	addiu	a3,a3,128
9d008da8:	2ceb0080 	sltiu	t3,a3,128
9d008dac:	010b4021 	addu	t0,t0,t3
9d008db0:	00075a02 	srl	t3,a3,0x8
9d008db4:	316b0001 	andi	t3,t3,0x1
9d008db8:	00eb3823 	subu	a3,a3,t3
9d008dbc:	00073840 	sll	a3,a3,0x1
9d008dc0:	00073a42 	srl	a3,a3,0x9
9d008dc4:	00085dc0 	sll	t3,t0,0x17
9d008dc8:	00eb3825 	or	a3,a3,t3
9d008dcc:	00e91025 	or	v0,a3,t1

9d008dd0 <H999>:
9d008dd0:	03e00008 	jr	ra
9d008dd4:	00000000 	nop
9d008dd8:	00000000 	nop

9d008ddc <Hspec>:
9d008ddc:	2401047f 	li	at,1151
9d008de0:	15010007 	bne	t0,at,9d008e00 <i46>
9d008de4:	00000000 	nop
9d008de8:	00075840 	sll	t3,a3,0x1
9d008dec:	01665825 	or	t3,t3,a2
9d008df0:	11600003 	beqz	t3,9d008e00 <i46>
9d008df4:	00000000 	nop
9d008df8:	1000fff5 	b	9d008dd0 <H999>
9d008dfc:	3c02ffc0 	lui	v0,0xffc0

9d008e00 <i46>:
9d008e00:	290100ff 	slti	at,t0,255
9d008e04:	14200004 	bnez	at,9d008e18 <i48>
9d008e08:	00000000 	nop
9d008e0c:	3c017f80 	lui	at,0x7f80
9d008e10:	1000ffef 	b	9d008dd0 <H999>
9d008e14:	01211025 	or	v0,t1,at

9d008e18 <i48>:
9d008e18:	240a0001 	li	t2,1
9d008e1c:	01485023 	subu	t2,t2,t0
9d008e20:	2d410020 	sltiu	at,t2,32
9d008e24:	14200003 	bnez	at,9d008e34 <i49>
9d008e28:	00000000 	nop
9d008e2c:	1000ffe8 	b	9d008dd0 <H999>
9d008e30:	00091025 	or	v0,zero,t1

9d008e34 <i49>:
9d008e34:	240c0020 	li	t4,32
9d008e38:	018a6023 	subu	t4,t4,t2
9d008e3c:	01875804 	sllv	t3,a3,t4
9d008e40:	00cb3025 	or	a2,a2,t3
9d008e44:	01473806 	srlv	a3,a3,t2
9d008e48:	24080000 	li	t0,0
9d008e4c:	3c018000 	lui	at,0x8000
9d008e50:	1000ffd1 	b	9d008d98 <Hlab1>
9d008e54:	00e13825 	or	a3,a3,at
9d008e58:	00000000 	nop

Disassembly of section .rodata:

9d008e60 <dpowers>:
9d008e60:	00000001 00000000 0000000a 00000000     ................
9d008e70:	00000064 00000000 000003e8 00000000     d...............
9d008e80:	00002710 00000000 000186a0 00000000     .'..............
9d008e90:	000f4240 00000000 00989680 00000000     @B..............
9d008ea0:	05f5e100 00000000 3b9aca00 00000000     ...........;....
9d008eb0:	540be400 00000002 4876e800 00000017     ...T......vH....
9d008ec0:	d4a51000 000000e8 4e72a000 00000918     ..........rN....
9d008ed0:	107a4000 00005af3 a4c68000 00038d7e     .@z..Z......~...
9d008ee0:	6fc10000 002386f2 5d8a0000 01634578     ...o..#....]xEc.
9d008ef0:	a7640000 0de0b6b3 89e80000 8ac72304     ..d..........#..
9d008f00:	6c756e28 0000296c 33323130 37363534     (null)..01234567
9d008f10:	42413938 46454443 00000000 33323130     89ABCDEF....0123
9d008f20:	37363534 62613938 66656463 00000000     456789abcdef....
9d008f30:	3f800000 41200000 3f000000 4089705f     ...?.. A...?_p.@

Disassembly of section .text.general_exception:

9d008f40 <_general_exception_context>:
9d008f40:	27bdffa8 	addiu	sp,sp,-88
9d008f44:	afa10004 	sw	at,4(sp)
9d008f48:	afa20008 	sw	v0,8(sp)
9d008f4c:	afa3000c 	sw	v1,12(sp)
9d008f50:	afa40010 	sw	a0,16(sp)
9d008f54:	afa50014 	sw	a1,20(sp)
9d008f58:	afa60018 	sw	a2,24(sp)
9d008f5c:	afa7001c 	sw	a3,28(sp)
9d008f60:	afa80020 	sw	t0,32(sp)
9d008f64:	afa90024 	sw	t1,36(sp)
9d008f68:	afaa0028 	sw	t2,40(sp)
9d008f6c:	afab002c 	sw	t3,44(sp)
9d008f70:	afac0030 	sw	t4,48(sp)
9d008f74:	afad0034 	sw	t5,52(sp)
9d008f78:	afae0038 	sw	t6,56(sp)
9d008f7c:	afaf003c 	sw	t7,60(sp)
9d008f80:	afb80040 	sw	t8,64(sp)
9d008f84:	afb90044 	sw	t9,68(sp)
9d008f88:	afbf0048 	sw	ra,72(sp)
9d008f8c:	00004012 	mflo	t0
9d008f90:	afa8004c 	sw	t0,76(sp)
9d008f94:	00004010 	mfhi	t0
9d008f98:	afa80050 	sw	t0,80(sp)
9d008f9c:	3c1a9d01 	lui	k0,0x9d01
9d008fa0:	275a9bbc 	addiu	k0,k0,-25668
9d008fa4:	00000000 	nop
9d008fa8:	40046800 	mfc0	a0,c0_cause
9d008fac:	40056000 	mfc0	a1,c0_status
9d008fb0:	0340f809 	jalr	k0
9d008fb4:	00000000 	nop
9d008fb8:	8fa80050 	lw	t0,80(sp)
9d008fbc:	01000011 	mthi	t0
9d008fc0:	8fa8004c 	lw	t0,76(sp)
9d008fc4:	01000013 	mtlo	t0
9d008fc8:	8fa10004 	lw	at,4(sp)
9d008fcc:	8fa20008 	lw	v0,8(sp)
9d008fd0:	8fa3000c 	lw	v1,12(sp)
9d008fd4:	8fa40010 	lw	a0,16(sp)
9d008fd8:	8fa50014 	lw	a1,20(sp)
9d008fdc:	8fa60018 	lw	a2,24(sp)
9d008fe0:	8fa7001c 	lw	a3,28(sp)
9d008fe4:	8fa80020 	lw	t0,32(sp)
9d008fe8:	8fa90024 	lw	t1,36(sp)
9d008fec:	8faa0028 	lw	t2,40(sp)
9d008ff0:	8fab002c 	lw	t3,44(sp)
9d008ff4:	8fac0030 	lw	t4,48(sp)
9d008ff8:	8fad0034 	lw	t5,52(sp)
9d008ffc:	8fae0038 	lw	t6,56(sp)
9d009000:	8faf003c 	lw	t7,60(sp)
9d009004:	8fb80040 	lw	t8,64(sp)
9d009008:	8fb90044 	lw	t9,68(sp)
9d00900c:	8fbf0048 	lw	ra,72(sp)
9d009010:	27bd0058 	addiu	sp,sp,88
9d009014:	000000c0 	ehb
9d009018:	42000018 	eret

Disassembly of section .text:

9d00901c <setMode>:
#include <stdlib.h>
#include <string.h>
#define modeLength 10
static char MODE[modeLength];

void setMode (char * mode){
9d00901c:	27bdffe8 	addiu	sp,sp,-24
9d009020:	afbf0014 	sw	ra,20(sp)
9d009024:	00802821 	move	a1,a0
  strcpy(MODE,mode);
9d009028:	3c04a000 	lui	a0,0xa000
9d00902c:	0f401fa5 	jal	9d007e94 <.LFE23>
9d009030:	24844428 	addiu	a0,a0,17448

9d009034 <.LVL2>:
}
9d009034:	8fbf0014 	lw	ra,20(sp)
9d009038:	03e00008 	jr	ra
9d00903c:	27bd0018 	addiu	sp,sp,24

9d009040 <getMode>:

char* getMode(void){
  return MODE;
}
9d009040:	3c02a000 	lui	v0,0xa000
9d009044:	03e00008 	jr	ra
9d009048:	24424428 	addiu	v0,v0,17448

9d00904c <getModeSimple>:

char getModeSimple(void){
9d00904c:	27bdffe8 	addiu	sp,sp,-24
9d009050:	afbf0014 	sw	ra,20(sp)
  char* mode = getMode();
  if (strcmp(mode, "IDLE") == 0)
9d009054:	3c04a000 	lui	a0,0xa000
9d009058:	24844428 	addiu	a0,a0,17448
9d00905c:	3c059d01 	lui	a1,0x9d01
9d009060:	0f40220b 	jal	9d00882c <.LFE0>
9d009064:	24a59d80 	addiu	a1,a1,-25216

9d009068 <.LVL3>:
9d009068:	1040001e 	beqz	v0,9d0090e4 <.LVL7+0xc>
9d00906c:	24030061 	li	v1,97
{
  return 'a';
}
else if (strcmp(mode, "PWM") == 0)
9d009070:	3c04a000 	lui	a0,0xa000
9d009074:	24844428 	addiu	a0,a0,17448
9d009078:	3c059d01 	lui	a1,0x9d01
9d00907c:	0f40220b 	jal	9d00882c <.LFE0>
9d009080:	24a59d88 	addiu	a1,a1,-25208

9d009084 <.LVL4>:
9d009084:	10400017 	beqz	v0,9d0090e4 <.LVL7+0xc>
9d009088:	24030062 	li	v1,98
{
 return 'b';
}
else if (strcmp(mode, "ITEST") == 0)
9d00908c:	3c04a000 	lui	a0,0xa000
9d009090:	24844428 	addiu	a0,a0,17448
9d009094:	3c059d01 	lui	a1,0x9d01
9d009098:	0f40220b 	jal	9d00882c <.LFE0>
9d00909c:	24a59d8c 	addiu	a1,a1,-25204

9d0090a0 <.LVL5>:
9d0090a0:	10400010 	beqz	v0,9d0090e4 <.LVL7+0xc>
9d0090a4:	24030063 	li	v1,99
{
 return 'c';
}
else if (strcmp(mode, "HOLD") == 0)
9d0090a8:	3c04a000 	lui	a0,0xa000
9d0090ac:	24844428 	addiu	a0,a0,17448
9d0090b0:	3c059d01 	lui	a1,0x9d01
9d0090b4:	0f40220b 	jal	9d00882c <.LFE0>
9d0090b8:	24a59d94 	addiu	a1,a1,-25196

9d0090bc <.LVL6>:
9d0090bc:	10400009 	beqz	v0,9d0090e4 <.LVL7+0xc>
9d0090c0:	24030064 	li	v1,100
{
 return 'd';
}
else if (strcmp(mode, "TRACK") == 0)
9d0090c4:	3c04a000 	lui	a0,0xa000
9d0090c8:	24844428 	addiu	a0,a0,17448
9d0090cc:	3c059d01 	lui	a1,0x9d01
9d0090d0:	0f40220b 	jal	9d00882c <.LFE0>
9d0090d4:	24a59d9c 	addiu	a1,a1,-25188

9d0090d8 <.LVL7>:
{
 return 'e';
9d0090d8:	24030065 	li	v1,101
9d0090dc:	24040078 	li	a0,120
9d0090e0:	0082180b 	movn	v1,a0,v0
 }
else return 'x';
}
9d0090e4:	00601021 	move	v0,v1
9d0090e8:	8fbf0014 	lw	ra,20(sp)
9d0090ec:	03e00008 	jr	ra
9d0090f0:	27bd0018 	addiu	sp,sp,24

Disassembly of section .text._mon_putc:

9d0090f4 <_mon_putc>:
9d0090f4:	27bdffe8 	addiu	sp,sp,-24
9d0090f8:	afbf0014 	sw	ra,20(sp)
9d0090fc:	3c02a000 	lui	v0,0xa000
9d009100:	8c420010 	lw	v0,16(v0)
9d009104:	1440000a 	bnez	v0,9d009130 <_mon_putc+0x3c>
9d009108:	7c042420 	seb	a0,a0
9d00910c:	3c020000 	lui	v0,0x0
9d009110:	24420000 	addiu	v0,v0,0
9d009114:	10400025 	beqz	v0,9d0091ac <_mon_putc+0xb8>
9d009118:	3c020000 	lui	v0,0x0
9d00911c:	0c000000 	jal	90000000 <_bmxdkpba_address+0x8ffe0000>
9d009120:	00000000 	nop
9d009124:	8fbf0014 	lw	ra,20(sp)
9d009128:	03e00008 	jr	ra
9d00912c:	27bd0018 	addiu	sp,sp,24
9d009130:	24030001 	li	v1,1
9d009134:	10430015 	beq	v0,v1,9d00918c <_mon_putc+0x98>
9d009138:	3c05bf80 	lui	a1,0xbf80
9d00913c:	3c05bf80 	lui	a1,0xbf80
9d009140:	24a56820 	addiu	a1,a1,26656
9d009144:	3c02bf80 	lui	v0,0xbf80
9d009148:	24426818 	addiu	v0,v0,26648
9d00914c:	3c06bf80 	lui	a2,0xbf80
9d009150:	24c66808 	addiu	a2,a2,26632
9d009154:	3c03bf80 	lui	v1,0xbf80
9d009158:	24636810 	addiu	v1,v1,26640
9d00915c:	34078000 	li	a3,0x8000
9d009160:	acc70000 	sw	a3,0(a2)
9d009164:	24060400 	li	a2,1024
9d009168:	ac460000 	sw	a2,0(v0)
9d00916c:	8c620000 	lw	v0,0(v1)
9d009170:	30420100 	andi	v0,v0,0x100
9d009174:	1040fffd 	beqz	v0,9d00916c <_mon_putc+0x78>
9d009178:	00000000 	nop
9d00917c:	aca40000 	sw	a0,0(a1)
9d009180:	8fbf0014 	lw	ra,20(sp)
9d009184:	03e00008 	jr	ra
9d009188:	27bd0018 	addiu	sp,sp,24
9d00918c:	24a56020 	addiu	a1,a1,24608
9d009190:	3c02bf80 	lui	v0,0xbf80
9d009194:	24426018 	addiu	v0,v0,24600
9d009198:	3c06bf80 	lui	a2,0xbf80
9d00919c:	24c66008 	addiu	a2,a2,24584
9d0091a0:	3c03bf80 	lui	v1,0xbf80
9d0091a4:	0b402457 	j	9d00915c <_mon_putc+0x68>
9d0091a8:	24636010 	addiu	v1,v1,24592
9d0091ac:	24420000 	addiu	v0,v0,0
9d0091b0:	1040ffe3 	beqz	v0,9d009140 <_mon_putc+0x4c>
9d0091b4:	3c05bf80 	lui	a1,0xbf80
9d0091b8:	0c000000 	jal	90000000 <_bmxdkpba_address+0x8ffe0000>
9d0091bc:	00000000 	nop
9d0091c0:	0b40244a 	j	9d009128 <_mon_putc+0x34>
9d0091c4:	8fbf0014 	lw	ra,20(sp)

Disassembly of section .text.fptodp:

9d0091c8 <__extendsfdf2>:
9d0091c8:	00043dc2 30e700ff 3c018000 00813024     .=.....0...<$0..
9d0091d8:	24e9ffff 2d2100fe 1020000d 00000000     ...$..!-.. .....

9d0091e8 <Glab1>:
9d0091e8:	24e70380 	addiu	a3,a3,896
9d0091ec:	00044a40 	sll	t1,a0,0x9
9d0091f0:	00094b02 	srl	t1,t1,0xc
9d0091f4:	00c93025 	or	a2,a2,t1
9d0091f8:	00042f40 	sll	a1,a0,0x1d

9d0091fc <Gret>:
9d0091fc:	00074d00 	sll	t1,a3,0x14
9d009200:	00c93025 	or	a2,a2,t1
9d009204:	00051025 	or	v0,zero,a1
9d009208:	00061825 	or	v1,zero,a2

9d00920c <G999>:
9d00920c:	03e00008 	jr	ra
9d009210:	00000000 	nop
9d009214:	00000000 	nop

9d009218 <Gspec>:
9d009218:	24050000 	li	a1,0
9d00921c:	00842021 	addu	a0,a0,a0
9d009220:	1080fff6 	beqz	a0,9d0091fc <Gret>
9d009224:	00000000 	nop
9d009228:	14e00009 	bnez	a3,9d009250 <i42>
9d00922c:	00000000 	nop

9d009230 <b43>:
9d009230:	24e7ffff 	addiu	a3,a3,-1
9d009234:	00842021 	addu	a0,a0,a0
9d009238:	3c010080 	lui	at,0x80
9d00923c:	0081082b 	sltu	at,a0,at
9d009240:	1420fffb 	bnez	at,9d009230 <b43>
9d009244:	00000000 	nop
9d009248:	1000ffe7 	b	9d0091e8 <Glab1>
9d00924c:	00000000 	nop

9d009250 <i42>:
9d009250:	240707ff 	li	a3,2047
9d009254:	3c01ff00 	lui	at,0xff00
9d009258:	34210001 	ori	at,at,0x1
9d00925c:	0081082b 	sltu	at,a0,at
9d009260:	1420ffe6 	bnez	at,9d0091fc <Gret>
9d009264:	00000000 	nop
9d009268:	1000ffe4 	b	9d0091fc <Gret>
9d00926c:	3c06fff8 	lui	a2,0xfff8
9d009270:	00000000 	nop

Disassembly of section .text.range:

9d009274 <range>:
9d009274:	27bdffe0 	addiu	sp,sp,-32
9d009278:	afbf001c 	sw	ra,28(sp)
9d00927c:	afb00018 	sw	s0,24(sp)
9d009280:	3c109d01 	lui	s0,0x9d01
9d009284:	26108b55 	addiu	s0,s0,-29867
9d009288:	00901821 	addu	v1,a0,s0
9d00928c:	90630000 	lbu	v1,0(v1)
9d009290:	30670004 	andi	a3,v1,0x4
9d009294:	10e0000a 	beqz	a3,9d0092c0 <range+0x4c>
9d009298:	00801021 	move	v0,a0
9d00929c:	2482ffd0 	addiu	v0,a0,-48
9d0092a0:	0045282a 	slt	a1,v0,a1
9d0092a4:	14a00013 	bnez	a1,9d0092f4 <range+0x80>
9d0092a8:	304200ff 	andi	v0,v0,0xff
9d0092ac:	240200ff 	li	v0,255
9d0092b0:	8fbf001c 	lw	ra,28(sp)
9d0092b4:	8fb00018 	lw	s0,24(sp)
9d0092b8:	03e00008 	jr	ra
9d0092bc:	27bd0020 	addiu	sp,sp,32
9d0092c0:	30670001 	andi	a3,v1,0x1
9d0092c4:	50e00004 	beqzl	a3,9d0092d8 <range+0x64>
9d0092c8:	30630003 	andi	v1,v1,0x3
9d0092cc:	14c0000d 	bnez	a2,9d009304 <range+0x90>
9d0092d0:	00000000 	nop
9d0092d4:	30630003 	andi	v1,v1,0x3
9d0092d8:	5060fff5 	beqzl	v1,9d0092b0 <range+0x3c>
9d0092dc:	240200ff 	li	v0,255
9d0092e0:	2442ffa9 	addiu	v0,v0,-87
9d0092e4:	0045282a 	slt	a1,v0,a1
9d0092e8:	50a0fff1 	beqzl	a1,9d0092b0 <range+0x3c>
9d0092ec:	240200ff 	li	v0,255
9d0092f0:	304200ff 	andi	v0,v0,0xff
9d0092f4:	8fbf001c 	lw	ra,28(sp)
9d0092f8:	8fb00018 	lw	s0,24(sp)
9d0092fc:	03e00008 	jr	ra
9d009300:	27bd0020 	addiu	sp,sp,32
9d009304:	0f402769 	jal	9d009da4 <tolower>
9d009308:	afa50010 	sw	a1,16(sp)
9d00930c:	00508021 	addu	s0,v0,s0
9d009310:	92030000 	lbu	v1,0(s0)
9d009314:	0b4024b5 	j	9d0092d4 <range+0x60>
9d009318:	8fa50010 	lw	a1,16(sp)

Disassembly of section .text.atoi:

9d00931c <atoi>:
9d00931c:	24030020 	li	v1,32
9d009320:	24050009 	li	a1,9
9d009324:	80820000 	lb	v0,0(a0)
9d009328:	5043fffe 	beql	v0,v1,9d009324 <atoi+0x8>
9d00932c:	24840001 	addiu	a0,a0,1
9d009330:	54450003 	bnel	v0,a1,9d009340 <atoi+0x24>
9d009334:	2403002d 	li	v1,45
9d009338:	0b4024c9 	j	9d009324 <atoi+0x8>
9d00933c:	24840001 	addiu	a0,a0,1
9d009340:	10430019 	beq	v0,v1,9d0093a8 <atoi+0x8c>
9d009344:	00802821 	move	a1,a0
9d009348:	2403002b 	li	v1,43
9d00934c:	1043001a 	beq	v0,v1,9d0093b8 <atoi+0x9c>
9d009350:	00004821 	move	t1,zero
9d009354:	3c089d01 	lui	t0,0x9d01
9d009358:	25088b55 	addiu	t0,t0,-29867
9d00935c:	01021821 	addu	v1,t0,v0
9d009360:	90630000 	lbu	v1,0(v1)
9d009364:	30630004 	andi	v1,v1,0x4
9d009368:	1060000c 	beqz	v1,9d00939c <atoi+0x80>
9d00936c:	00001821 	move	v1,zero
9d009370:	24840001 	addiu	a0,a0,1
9d009374:	2446ffd0 	addiu	a2,v0,-48
9d009378:	80820000 	lb	v0,0(a0)
9d00937c:	00033840 	sll	a3,v1,0x1
9d009380:	000318c0 	sll	v1,v1,0x3
9d009384:	01022821 	addu	a1,t0,v0
9d009388:	90a50000 	lbu	a1,0(a1)
9d00938c:	00e31821 	addu	v1,a3,v1
9d009390:	30a50004 	andi	a1,a1,0x4
9d009394:	14a0fff6 	bnez	a1,9d009370 <atoi+0x54>
9d009398:	00661821 	addu	v1,v1,a2
9d00939c:	00031023 	negu	v0,v1
9d0093a0:	03e00008 	jr	ra
9d0093a4:	0069100a 	movz	v0,v1,t1
9d0093a8:	24840001 	addiu	a0,a0,1
9d0093ac:	80a20001 	lb	v0,1(a1)
9d0093b0:	0b4024d5 	j	9d009354 <atoi+0x38>
9d0093b4:	24090001 	li	t1,1
9d0093b8:	24840001 	addiu	a0,a0,1
9d0093bc:	0b4024d5 	j	9d009354 <atoi+0x38>
9d0093c0:	80a20001 	lb	v0,1(a1)

Disassembly of section .text.fflush:

9d0093c4 <fflush>:
9d0093c4:	27bdffe8 	addiu	sp,sp,-24
9d0093c8:	afbf0014 	sw	ra,20(sp)
9d0093cc:	afb00010 	sw	s0,16(sp)
9d0093d0:	00808021 	move	s0,a0
9d0093d4:	9482000c 	lhu	v0,12(a0)
9d0093d8:	30440201 	andi	a0,v0,0x201
9d0093dc:	24030001 	li	v1,1
9d0093e0:	10830017 	beq	a0,v1,9d009440 <fflush+0x7c>
9d0093e4:	30440202 	andi	a0,v0,0x202
9d0093e8:	24030202 	li	v1,514
9d0093ec:	10830005 	beq	a0,v1,9d009404 <fflush+0x40>
9d0093f0:	00001021 	move	v0,zero
9d0093f4:	8fbf0014 	lw	ra,20(sp)
9d0093f8:	8fb00010 	lw	s0,16(sp)
9d0093fc:	03e00008 	jr	ra
9d009400:	27bd0018 	addiu	sp,sp,24
9d009404:	8e050008 	lw	a1,8(s0)
9d009408:	10a0fffb 	beqz	a1,9d0093f8 <fflush+0x34>
9d00940c:	8fbf0014 	lw	ra,20(sp)
9d009410:	8e020004 	lw	v0,4(s0)
9d009414:	5040fff9 	beqzl	v0,9d0093fc <fflush+0x38>
9d009418:	8fb00010 	lw	s0,16(sp)
9d00941c:	9604000e 	lhu	a0,14(s0)
9d009420:	0f402519 	jal	9d009464 <.LFE0>
9d009424:	00403021 	move	a2,v0
9d009428:	8e030004 	lw	v1,4(s0)
9d00942c:	10430004 	beq	v0,v1,9d009440 <fflush+0x7c>
9d009430:	9602000c 	lhu	v0,12(s0)
9d009434:	34420030 	ori	v0,v0,0x30
9d009438:	3042ffff 	andi	v0,v0,0xffff
9d00943c:	a602000c 	sh	v0,12(s0)
9d009440:	8e030008 	lw	v1,8(s0)
9d009444:	7c420140 	ext	v0,v0,0x5,0x1
9d009448:	ae000004 	sw	zero,4(s0)
9d00944c:	ae030000 	sw	v1,0(s0)
9d009450:	00021023 	negu	v0,v0
9d009454:	8fbf0014 	lw	ra,20(sp)
9d009458:	8fb00010 	lw	s0,16(sp)
9d00945c:	03e00008 	jr	ra
9d009460:	27bd0018 	addiu	sp,sp,24

Disassembly of section .text.write:

9d009464 <write>:
9d009464:	10a00018 	beqz	a1,9d0094c8 <write+0x64>
9d009468:	00001021 	move	v0,zero
9d00946c:	10c00012 	beqz	a2,9d0094b8 <write+0x54>
9d009470:	2c840003 	sltiu	a0,a0,3
9d009474:	10800012 	beqz	a0,9d0094c0 <write+0x5c>
9d009478:	00000000 	nop
9d00947c:	27bdffe0 	addiu	sp,sp,-32
9d009480:	afbf001c 	sw	ra,28(sp)
9d009484:	3c020000 	lui	v0,0x0
9d009488:	24420000 	addiu	v0,v0,0
9d00948c:	10400010 	beqz	v0,9d0094d0 <write+0x6c>
9d009490:	afb00018 	sw	s0,24(sp)
9d009494:	00a02021 	move	a0,a1
9d009498:	00c02821 	move	a1,a2
9d00949c:	0c000000 	jal	90000000 <_bmxdkpba_address+0x8ffe0000>
9d0094a0:	afa60014 	sw	a2,20(sp)
9d0094a4:	8fa60014 	lw	a2,20(sp)
9d0094a8:	00c01021 	move	v0,a2
9d0094ac:	8fbf001c 	lw	ra,28(sp)
9d0094b0:	8fb00018 	lw	s0,24(sp)
9d0094b4:	27bd0020 	addiu	sp,sp,32
9d0094b8:	03e00008 	jr	ra
9d0094bc:	00000000 	nop
9d0094c0:	03e00008 	jr	ra
9d0094c4:	00c01021 	move	v0,a2
9d0094c8:	03e00008 	jr	ra
9d0094cc:	00000000 	nop
9d0094d0:	00c08021 	move	s0,a2
9d0094d4:	80a40000 	lb	a0,0(a1)
9d0094d8:	2610ffff 	addiu	s0,s0,-1
9d0094dc:	24a50001 	addiu	a1,a1,1
9d0094e0:	afa50010 	sw	a1,16(sp)
9d0094e4:	0f40243d 	jal	9d0090f4 <.LFE2>
9d0094e8:	afa60014 	sw	a2,20(sp)
9d0094ec:	8fa50010 	lw	a1,16(sp)
9d0094f0:	1600fff8 	bnez	s0,9d0094d4 <write+0x70>
9d0094f4:	8fa60014 	lw	a2,20(sp)
9d0094f8:	0b40252b 	j	9d0094ac <write+0x48>
9d0094fc:	00c01021 	move	v0,a2

Disassembly of section .text.fpcmp:

9d009500 <__eqsf2>:
9d009500:	2408fffe 00043040 00053840 00c74825     ...$@0..@8..%H..
9d009510:	1120001b 00000000 3c01ff00 34210001     .. ........<..!4
9d009520:	00c1082b 1020001a 00000000 3c01ff00     +..... ........<
9d009530:	34210001 00e1082b 10200015 00000000     ..!4+..... .....
9d009540:	04810002 00063042 00063023              ....B0..#0..

9d00954c <i48>:
9d00954c:	04a10002 	bgez	a1,9d009558 <i49>
9d009550:	00073842 	srl	a3,a3,0x1
9d009554:	00073823 	negu	a3,a3

9d009558 <i49>:
9d009558:	00c7082a 	slt	at,a2,a3
9d00955c:	10200003 	beqz	at,9d00956c <i50>
9d009560:	00000000 	nop
9d009564:	10000007 	b	9d009584 <J999>
9d009568:	2402ffff 	li	v0,-1

9d00956c <i50>:
9d00956c:	00e6082a 	slt	at,a3,a2
9d009570:	10200003 	beqz	at,9d009580 <Jequ>
9d009574:	00000000 	nop
9d009578:	10000002 	b	9d009584 <J999>
9d00957c:	24020001 	li	v0,1

9d009580 <Jequ>:
9d009580:	24020000 	li	v0,0

9d009584 <J999>:
9d009584:	03e00008 	jr	ra
9d009588:	00000000 	nop
9d00958c:	00000000 	nop

9d009590 <Jnan>:
9d009590:	1000fffc 	b	9d009584 <J999>
9d009594:	00081025 	or	v0,zero,t0
9d009598:	00000000 	nop

Disassembly of section .rodata:

9d00959c <.LC3>:
9d00959c:	00000020 	add	zero,zero,zero

9d0095a0 <.LC4>:
9d0095a0:	253a704b 	addiu	k0,t1,28747
9d0095a4:	66312e31 	0x66312e31
9d0095a8:	31253a69 	andi	a1,t1,0x3a69
9d0095ac:	0066312e 	0x66312e

9d0095b0 <.LC5>:
9d0095b0:	253a704b 	addiu	k0,t1,28747
9d0095b4:	66312e31 	0x66312e31
9d0095b8:	31253a64 	andi	a1,t1,0x3a64
9d0095bc:	6966312e 	0x6966312e
9d0095c0:	2e31253a 	sltiu	s1,s1,9530
9d0095c4:	00206631 	tgeu	at,zero,0x198

9d0095c8 <.LC6>:
9d0095c8:	000a6425 	0xa6425

9d0095cc <.LC7>:
9d0095cc:	444c4f48 	0x444c4f48
9d0095d0:	00000000 	nop
9d0095d4:	25206425 	addiu	zero,t1,25637
9d0095d8:	00000a64 	0xa64

9d0095dc <.LC9>:
9d0095dc:	454c4449 	bc1any4f	$fcc3,9d01a704 <.LFE16+0x1072c>
9d0095e0:	00000000 	nop

9d0095e4 <.LC10>:
9d0095e4:	004d5750 	0x4d5750

9d0095e8 <.LC11>:
9d0095e8:	43415254 	c0	0x1415254
9d0095ec:	0000004b 	0x4b

9d0095f0 <.LC12>:
9d0095f0:	0a0d6425 	j	98359094 <_bmxdkpba_address+0x98339094>
9d0095f4:	00000000 	nop

9d0095f8 <.LC13>:
9d0095f8:	00006425 	0x6425

9d0095fc <.LC14>:
9d0095fc:	25206625 	addiu	zero,t1,26149
9d009600:	00000066 	0x66

9d009604 <.LC15>:
9d009604:	25206625 	addiu	zero,t1,26149
9d009608:	66252066 	0x66252066
9d00960c:	00000000 	nop

9d009610 <.LC16>:
9d009610:	53455449 	beql	k0,a1,9d01e738 <.LFE16+0x14760>
9d009614:	00000054 	0x54

9d009618 <.LC17>:
9d009618:	0a0d7325 	j	9835cc94 <_bmxdkpba_address+0x9833cc94>
9d00961c:	00000000 	nop

9d009620 <.LC18>:
9d009620:	64256425 	0x64256425
9d009624:	0000000a 	movz	zero,zero,zero
9d009628:	400f9724 	0x400f9724
9d00962c:	448de000 	mtc1	t5,$f28
9d009630:	447a0000 	mfhc1	k0,$f0

Disassembly of section .text.libm:

9d009634 <fpfrexp>:
9d009634:	000435c2 30c600ff 24c9ffff 2d2100fe     .5.....0...$..!-
9d009644:	1020000b 00000000                       .. .....

9d00964c <Blab1>:
9d00964c:	24c6ff82 	addiu	a2,a2,-126
9d009650:	3c01807f 	lui	at,0x807f
9d009654:	3421ffff 	ori	at,at,0xffff
9d009658:	00812024 	and	a0,a0,at
9d00965c:	3c013f00 	lui	at,0x3f00
9d009660:	00812025 	or	a0,a0,at

9d009664 <Bret>:
9d009664:	aca60000 	sw	a2,0(a1)
9d009668:	00041025 	or	v0,zero,a0

9d00966c <B999>:
9d00966c:	03e00008 	jr	ra
9d009670:	00000000 	nop

9d009674 <Bspec>:
9d009674:	14c0000d 	bnez	a2,9d0096ac <i8>
9d009678:	00000000 	nop
9d00967c:	00844821 	addu	t1,a0,a0
9d009680:	1120fff8 	beqz	t1,9d009664 <Bret>
9d009684:	00000000 	nop
9d009688:	00043a40 	sll	a3,a0,0x9
9d00968c:	70e84020 	clz	t0,a3
9d009690:	00c83023 	subu	a2,a2,t0
9d009694:	01073804 	sllv	a3,a3,t0
9d009698:	3c018000 	lui	at,0x8000
9d00969c:	00812024 	and	a0,a0,at
9d0096a0:	00074a02 	srl	t1,a3,0x8
9d0096a4:	1000ffe9 	b	9d00964c <Blab1>
9d0096a8:	00892025 	or	a0,a0,t1

9d0096ac <i8>:
9d0096ac:	3c04ffc0 	lui	a0,0xffc0
9d0096b0:	1000ffec 	b	9d009664 <Bret>
9d0096b4:	24060000 	li	a2,0
9d0096b8:	00000000 	nop

Disassembly of section .text.fptoli:

9d0096bc <__fixsfsi>:
9d0096bc:	00042a00 3c018000 00a12825 00043dc2     .*.....<%(...=..
9d0096cc:	30e700ff 2406009e 00c73023 18c0000d     ...0...$#0......
9d0096dc:	00000000 28c10020 14200003 00000000     .... ..(.. .....
9d0096ec:	10000005 24020000                       .......$

9d0096f4 <i42>:
9d0096f4:	04810002 	bgez	a0,9d009700 <i43>
9d0096f8:	00c52806 	srlv	a1,a1,a2
9d0096fc:	00052823 	negu	a1,a1

9d009700 <i43>:
9d009700:	00051025 	or	v0,zero,a1

9d009704 <G999>:
9d009704:	03e00008 	jr	ra
9d009708:	00000000 	nop
9d00970c:	00000000 	nop

9d009710 <Gspec>:
9d009710:	3c017f80 	lui	at,0x7f80
9d009714:	34210001 	ori	at,at,0x1
9d009718:	0081082b 	sltu	at,a0,at
9d00971c:	14200003 	bnez	at,9d00972c <i44>
9d009720:	00000000 	nop
9d009724:	1000fff7 	b	9d009704 <G999>
9d009728:	3c028000 	lui	v0,0x8000

9d00972c <i44>:
9d00972c:	3c027fff 	lui	v0,0x7fff
9d009730:	1000fff4 	b	9d009704 <G999>
9d009734:	3442ffff 	ori	v0,v0,0xffff
9d009738:	00000000 	nop

Disassembly of section .text.fptoul:

9d00973c <__fixunssfsi>:
9d00973c:	00042a00 3c018000 00a12825 00043dc2     .*.....<%(...=..
9d00974c:	30e700ff 2406009e 00c73023 04c0000d     ...0...$#0......
9d00975c:	00000000 28c10020 14200003 00000000     .... ..(.. .....
9d00976c:	10000005 24020000                       .......$

9d009774 <i45>:
9d009774:	04810002 	bgez	a0,9d009780 <i46>
9d009778:	00c52806 	srlv	a1,a1,a2
9d00977c:	00052823 	negu	a1,a1

9d009780 <i46>:
9d009780:	00051025 	or	v0,zero,a1

9d009784 <I999>:
9d009784:	03e00008 	jr	ra
9d009788:	00000000 	nop
9d00978c:	00000000 	nop

9d009790 <Ispec>:
9d009790:	3c017f80 	lui	at,0x7f80
9d009794:	34210001 	ori	at,at,0x1
9d009798:	0081082b 	sltu	at,a0,at
9d00979c:	14200003 	bnez	at,9d0097ac <i47>
9d0097a0:	00000000 	nop
9d0097a4:	1000fff7 	b	9d009784 <I999>
9d0097a8:	3c028000 	lui	v0,0x8000

9d0097ac <i47>:
9d0097ac:	1000fff5 	b	9d009784 <I999>
9d0097b0:	2402ffff 	li	v0,-1
9d0097b4:	00000000 	nop

Disassembly of section .text.litodp:

9d0097b8 <__floatsidf>:
9d0097b8:	24050000 00054825 00053825 00043025     ...$%H..%8..%0..
9d0097c8:	10c0000c 00000000 04c10006 00000000     ................
9d0097d8:	3c098000 0005502b 00052823 00063023     ...<+P..#(..#0..
9d0097e8:	00ca3023                                #0..

9d0097ec <i40>:
9d0097ec:	2407041e 	li	a3,1054
9d0097f0:	70c84020 	clz	t0,a2
9d0097f4:	00e83823 	subu	a3,a3,t0
9d0097f8:	01063004 	sllv	a2,a2,t0

9d0097fc <i39>:
9d0097fc:	000542c2 	srl	t0,a1,0xb
9d009800:	00065540 	sll	t2,a2,0x15
9d009804:	010a4025 	or	t0,t0,t2
9d009808:	00065040 	sll	t2,a2,0x1
9d00980c:	000a5302 	srl	t2,t2,0xc
9d009810:	012a4825 	or	t1,t1,t2
9d009814:	00075500 	sll	t2,a3,0x14
9d009818:	012a4825 	or	t1,t1,t2
9d00981c:	00081025 	or	v0,zero,t0
9d009820:	00091825 	or	v1,zero,t1

9d009824 <E999>:
9d009824:	03e00008 	jr	ra
9d009828:	00000000 	nop
9d00982c:	00000000 	nop

Disassembly of section .text.ungetc:

9d009830 <ungetc>:
9d009830:	2402ffff 	li	v0,-1
9d009834:	10820017 	beq	a0,v0,9d009894 <ungetc+0x64>
9d009838:	24030001 	li	v1,1
9d00983c:	94a2000c 	lhu	v0,12(a1)
9d009840:	30460201 	andi	a2,v0,0x201
9d009844:	54c30013 	bnel	a2,v1,9d009894 <ungetc+0x64>
9d009848:	2402ffff 	li	v0,-1
9d00984c:	8ca60008 	lw	a2,8(a1)
9d009850:	50c00010 	beqzl	a2,9d009894 <ungetc+0x64>
9d009854:	2402ffff 	li	v0,-1
9d009858:	8ca70004 	lw	a3,4(a1)
9d00985c:	8ca30010 	lw	v1,16(a1)
9d009860:	50e3000c 	beql	a3,v1,9d009894 <ungetc+0x64>
9d009864:	2402ffff 	li	v0,-1
9d009868:	8ca30000 	lw	v1,0(a1)
9d00986c:	10c3000b 	beq	a2,v1,9d00989c <ungetc+0x6c>
9d009870:	24e70001 	addiu	a3,a3,1
9d009874:	aca70004 	sw	a3,4(a1)
9d009878:	2467ffff 	addiu	a3,v1,-1
9d00987c:	30460040 	andi	a2,v0,0x40
9d009880:	aca70000 	sw	a3,0(a1)
9d009884:	14c00003 	bnez	a2,9d009894 <ungetc+0x64>
9d009888:	00801021 	move	v0,a0
9d00988c:	03e00008 	jr	ra
9d009890:	a064ffff 	sb	a0,-1(v1)
9d009894:	03e00008 	jr	ra
9d009898:	00000000 	nop
9d00989c:	0b40261e 	j	9d009878 <ungetc+0x48>
9d0098a0:	24630001 	addiu	v1,v1,1

Disassembly of section .text._sprintf_cdfFnopsuxX:

9d0098a4 <_sprintf_cdfFnopsuxX>:
9d0098a4:	27bdffd0 	addiu	sp,sp,-48
9d0098a8:	afbf002c 	sw	ra,44(sp)
9d0098ac:	afb00028 	sw	s0,40(sp)
9d0098b0:	27a20038 	addiu	v0,sp,56
9d0098b4:	00808021 	move	s0,a0
9d0098b8:	afa60038 	sw	a2,56(sp)
9d0098bc:	27a40010 	addiu	a0,sp,16
9d0098c0:	00403021 	move	a2,v0
9d0098c4:	afa7003c 	sw	a3,60(sp)
9d0098c8:	afa20024 	sw	v0,36(sp)
9d0098cc:	24027fff 	li	v0,32767
9d0098d0:	afa20020 	sw	v0,32(sp)
9d0098d4:	afa00014 	sw	zero,20(sp)
9d0098d8:	afb00010 	sw	s0,16(sp)
9d0098dc:	afb00018 	sw	s0,24(sp)
9d0098e0:	240200c2 	li	v0,194
9d0098e4:	0f400780 	jal	9d001e00 <_vfprintf_cdfFnopsuxX>
9d0098e8:	a7a2001c 	sh	v0,28(sp)
9d0098ec:	8fa20010 	lw	v0,16(sp)
9d0098f0:	a0400000 	sb	zero,0(v0)
9d0098f4:	8fa20010 	lw	v0,16(sp)
9d0098f8:	00501023 	subu	v0,v0,s0
9d0098fc:	8fbf002c 	lw	ra,44(sp)
9d009900:	8fb00028 	lw	s0,40(sp)
9d009904:	03e00008 	jr	ra
9d009908:	27bd0030 	addiu	sp,sp,48

Disassembly of section .rodata:

9d00990c <_powers_f>:
9d00990c:	3f800000 41200000 42c80000 447a0000     ...?.. A...B..zD
9d00991c:	461c4000 47c35000 49742400 4b189680     .@.F.P.G.$tI...K
9d00992c:	4cbebc20 4e6e6b28 501502f9 60ad78ec      ..L(knN...P.x.`
9d00993c:	7149f2ca                                ..Iq

9d009940 <_npowers_f>:
9d009940:	3f800000 3dcccccd 3c23d70a 3a83126f     ...?...=..#<o..:
9d009950:	38d1b717 3727c5ac 358637bd 33d6bf95     ...8..'7.7.5...3
9d009960:	322bcc77 3089705f 2edbe6ff 1e3ce508     w.+2_p.0......<.
9d009970:	0da24260                                `B..

Disassembly of section .text.sitofp:

9d009974 <__floatsisf>:
9d009974:	3c018000 10800012 00813024 04810002     ...<....$0......
9d009984:	00000000 00042023                       ....# ..

9d00998c <i40>:
9d00998c:	2405009e 	li	a1,158
9d009990:	70873820 	clz	a3,a0
9d009994:	00a72823 	subu	a1,a1,a3
9d009998:	00e42004 	sllv	a0,a0,a3
9d00999c:	24840080 	addiu	a0,a0,128
9d0099a0:	2c880080 	sltiu	t0,a0,128
9d0099a4:	00a82821 	addu	a1,a1,t0
9d0099a8:	00044203 	sra	t0,a0,0x8
9d0099ac:	31080001 	andi	t0,t0,0x1
9d0099b0:	00882023 	subu	a0,a0,t0
9d0099b4:	00042040 	sll	a0,a0,0x1
9d0099b8:	00042242 	srl	a0,a0,0x9
9d0099bc:	000545c0 	sll	t0,a1,0x17
9d0099c0:	00882025 	or	a0,a0,t0

9d0099c4 <i39>:
9d0099c4:	00861025 	or	v0,a0,a2

9d0099c8 <E999>:
9d0099c8:	03e00008 	jr	ra
9d0099cc:	00000000 	nop
9d0099d0:	00000000 	nop

Disassembly of section .text.wspace:

9d0099d4 <wspace>:
9d0099d4:	27bdffe0 	addiu	sp,sp,-32
9d0099d8:	afbf001c 	sw	ra,28(sp)
9d0099dc:	afb10018 	sw	s1,24(sp)
9d0099e0:	afb00014 	sw	s0,20(sp)
9d0099e4:	3c11a000 	lui	s1,0xa000
9d0099e8:	3c109d01 	lui	s0,0x9d01
9d0099ec:	26108b55 	addiu	s0,s0,-29867
9d0099f0:	0f402294 	jal	9d008a50 <fgetc>
9d0099f4:	8e244434 	lw	a0,17460(s1)
9d0099f8:	02021821 	addu	v1,s0,v0
9d0099fc:	80630000 	lb	v1,0(v1)
9d009a00:	30630088 	andi	v1,v1,0x88
9d009a04:	1460fffa 	bnez	v1,9d0099f0 <wspace+0x1c>
9d009a08:	2403ffff 	li	v1,-1
9d009a0c:	10430004 	beq	v0,v1,9d009a20 <wspace+0x4c>
9d009a10:	3c03a000 	lui	v1,0xa000
9d009a14:	8c654434 	lw	a1,17460(v1)
9d009a18:	0f40260c 	jal	9d009830 <ungetc>
9d009a1c:	00402021 	move	a0,v0
9d009a20:	8fbf001c 	lw	ra,28(sp)
9d009a24:	8fb10018 	lw	s1,24(sp)
9d009a28:	8fb00014 	lw	s0,20(sp)
9d009a2c:	03e00008 	jr	ra
9d009a30:	27bd0020 	addiu	sp,sp,32

Disassembly of section .text.main_entry:

9d009a34 <_main_entry>:
9d009a34:	3c040000 	lui	a0,0x0
9d009a38:	27bdffe8 	addiu	sp,sp,-24
9d009a3c:	24840000 	addiu	a0,a0,0
9d009a40:	10800003 	beqz	a0,9d009a50 <_main_entry+0x1c>
9d009a44:	afbf0014 	sw	ra,20(sp)
9d009a48:	0080f809 	jalr	a0
9d009a4c:	00000000 	nop
9d009a50:	30840000 	andi	a0,a0,0x0
9d009a54:	30a50000 	andi	a1,a1,0x0
9d009a58:	3c089d00 	lui	t0,0x9d00
9d009a5c:	25084098 	addiu	t0,t0,16536
9d009a60:	0100f809 	jalr	t0
9d009a64:	00000000 	nop

9d009a68 <__crt0_exit>:
9d009a68:	3c020000 24420000 10400003 00000000     ...<..B$..@.....
9d009a78:	0040f809 00000000 1000fff9 00000000     ..@.............

Disassembly of section .text._sscanf_cdfFnopuxX:

9d009a88 <_sscanf_cdfFnopuxX>:
9d009a88:	27bdffc8 	addiu	sp,sp,-56
9d009a8c:	afbf0034 	sw	ra,52(sp)
9d009a90:	afa60040 	sw	a2,64(sp)
9d009a94:	afa70044 	sw	a3,68(sp)
9d009a98:	27a30040 	addiu	v1,sp,64
9d009a9c:	afa30024 	sw	v1,36(sp)
9d009aa0:	afa40010 	sw	a0,16(sp)
9d009aa4:	afa40018 	sw	a0,24(sp)
9d009aa8:	0f40206f 	jal	9d0081bc <.LFE0>
9d009aac:	afa50028 	sw	a1,40(sp)
9d009ab0:	8fa60024 	lw	a2,36(sp)
9d009ab4:	27a40010 	addiu	a0,sp,16
9d009ab8:	8fa50028 	lw	a1,40(sp)
9d009abc:	afa20014 	sw	v0,20(sp)
9d009ac0:	afa20020 	sw	v0,32(sp)
9d009ac4:	240200c1 	li	v0,193
9d009ac8:	0f401187 	jal	9d00461c <.LFE14>
9d009acc:	a7a2001c 	sh	v0,28(sp)
9d009ad0:	8fbf0034 	lw	ra,52(sp)
9d009ad4:	03e00008 	jr	ra
9d009ad8:	27bd0038 	addiu	sp,sp,56

Disassembly of section .text:

9d009adc <ADCinitialize>:
#include "isense.h"
#include "NU32.h"

void ADCinitialize(){
9d009adc:	27bdffe8 	addiu	sp,sp,-24
9d009ae0:	afbf0014 	sw	ra,20(sp)
  initADC();
9d009ae4:	0f400ca6 	jal	9d003298 <initADC>
9d009ae8:	00000000 	nop
  AD1PCFGbits.PCFG15 = 0; //set pin 15 to be analog input
9d009aec:	3c02bf81 	lui	v0,0xbf81
9d009af0:	94439060 	lhu	v1,-28576(v0)
9d009af4:	7c037bc4 	ins	v1,zero,0xf,0x1
9d009af8:	a4439060 	sh	v1,-28576(v0)
  AD1CON1bits.ON = 1;  // enable ADC
9d009afc:	3c02bf81 	lui	v0,0xbf81
9d009b00:	94439000 	lhu	v1,-28672(v0)
9d009b04:	24040001 	li	a0,1
9d009b08:	7c837bc4 	ins	v1,a0,0xf,0x1
9d009b0c:	a4439000 	sh	v1,-28672(v0)
  AD1CON3bits.ADCS = 2; // set ADC clock period to 75ns
9d009b10:	24030002 	li	v1,2
9d009b14:	3c02bf81 	lui	v0,0xbf81
9d009b18:	a0439020 	sb	v1,-28640(v0)
}
9d009b1c:	8fbf0014 	lw	ra,20(sp)
9d009b20:	03e00008 	jr	ra
9d009b24:	27bd0018 	addiu	sp,sp,24

9d009b28 <__floatunsisf>:
9d009b28:	27bdffe8 	addiu	sp,sp,-24
9d009b2c:	afbf0014 	sw	ra,20(sp)
9d009b30:	04800006 	bltz	a0,9d009b4c <__floatunsisf+0x24>
9d009b34:	00801021 	move	v0,a0
9d009b38:	0f40265d 	jal	9d009974 <__floatsisf>
9d009b3c:	00000000 	nop
9d009b40:	8fbf0014 	lw	ra,20(sp)
9d009b44:	03e00008 	jr	ra
9d009b48:	27bd0018 	addiu	sp,sp,24
9d009b4c:	00042042 	srl	a0,a0,0x1
9d009b50:	30420001 	andi	v0,v0,0x1
9d009b54:	0f40265d 	jal	9d009974 <__floatsisf>
9d009b58:	00822025 	or	a0,a0,v0
9d009b5c:	00402021 	move	a0,v0
9d009b60:	0f401c27 	jal	9d00709c <__addsf3>
9d009b64:	00402821 	move	a1,v0
9d009b68:	8fbf0014 	lw	ra,20(sp)
9d009b6c:	03e00008 	jr	ra
9d009b70:	27bd0018 	addiu	sp,sp,24

Disassembly of section .text._bootstrap_exception_handler:

9d009b74 <_bootstrap_exception_handler>:
9d009b74:	3c020000 	lui	v0,0x0
9d009b78:	24420000 	addiu	v0,v0,0
9d009b7c:	10400005 	beqz	v0,9d009b94 <_bootstrap_exception_handler+0x20>
9d009b80:	3c020000 	lui	v0,0x0
9d009b84:	24420000 	addiu	v0,v0,0
9d009b88:	10400003 	beqz	v0,9d009b98 <_bootstrap_exception_handler+0x24>
9d009b8c:	3c029d01 	lui	v0,0x9d01
9d009b90:	7000003f 	sdbbp
9d009b94:	3c029d01 	lui	v0,0x9d01
9d009b98:	24429c94 	addiu	v0,v0,-25452
9d009b9c:	10400005 	beqz	v0,9d009bb4 <_bootstrap_exception_handler+0x40>
9d009ba0:	00000000 	nop
9d009ba4:	27bdffe8 	addiu	sp,sp,-24
9d009ba8:	afbf0014 	sw	ra,20(sp)
9d009bac:	0040f809 	jalr	v0
9d009bb0:	00000000 	nop
9d009bb4:	0b4026ed 	j	9d009bb4 <_bootstrap_exception_handler+0x40>
9d009bb8:	00000000 	nop

Disassembly of section .text._general_exception_handler:

9d009bbc <_general_exception_handler>:
9d009bbc:	3c020000 	lui	v0,0x0
9d009bc0:	24420000 	addiu	v0,v0,0
9d009bc4:	10400005 	beqz	v0,9d009bdc <_general_exception_handler+0x20>
9d009bc8:	3c020000 	lui	v0,0x0
9d009bcc:	24420000 	addiu	v0,v0,0
9d009bd0:	10400003 	beqz	v0,9d009be0 <_general_exception_handler+0x24>
9d009bd4:	3c029d01 	lui	v0,0x9d01
9d009bd8:	7000003f 	sdbbp
9d009bdc:	3c029d01 	lui	v0,0x9d01
9d009be0:	24429c94 	addiu	v0,v0,-25452
9d009be4:	10400005 	beqz	v0,9d009bfc <_general_exception_handler+0x40>
9d009be8:	00000000 	nop
9d009bec:	27bdffe8 	addiu	sp,sp,-24
9d009bf0:	afbf0014 	sw	ra,20(sp)
9d009bf4:	0040f809 	jalr	v0
9d009bf8:	00000000 	nop
9d009bfc:	0b4026ff 	j	9d009bfc <_general_exception_handler+0x40>
9d009c00:	00000000 	nop

Disassembly of section .vector_default:

9d009c04 <_DefaultInterrupt>:
9d009c04:	3c020000 	lui	v0,0x0
9d009c08:	24420000 	addiu	v0,v0,0
9d009c0c:	10400007 	beqz	v0,9d009c2c <_DefaultInterrupt+0x28>
9d009c10:	3c020000 	lui	v0,0x0
9d009c14:	24420000 	addiu	v0,v0,0
9d009c18:	50400005 	beqzl	v0,9d009c30 <_DefaultInterrupt+0x2c>
9d009c1c:	3c029d01 	lui	v0,0x9d01
9d009c20:	7000003f 	sdbbp
9d009c24:	03e00008 	jr	ra
9d009c28:	00000000 	nop
9d009c2c:	3c029d01 	lui	v0,0x9d01
9d009c30:	24429c94 	addiu	v0,v0,-25452
9d009c34:	10400003 	beqz	v0,9d009c44 <_DefaultInterrupt+0x40>
9d009c38:	00000000 	nop
9d009c3c:	0040f809 	jalr	v0
9d009c40:	00000000 	nop
9d009c44:	03e00008 	jr	ra
9d009c48:	00000000 	nop

Disassembly of section .rodata:

9d009c4c <f5pow>:
9d009c4c:	00000000 40140000 00000000 40390000     .......@......9@
9d009c5c:	00000000 40838800 00000000 4117d784     .......@.......A
9d009c6c:	37e08000 4241c379 b5056e17 4493b8b5     ...7y.AB.n.....D
9d009c7c:	e93ff9f5 49384f03 f9301d32 52827748     ..?..O8I2.0.Hw.R
9d009c8c:	7f73bf3c 65154fdd                       <.s..O.e

Disassembly of section .text:

9d009c94 <__pic32_software_reset>:
9d009c94:	41606000 	di
9d009c98:	000000c0 	ehb
9d009c9c:	3c03aa99 	lui	v1,0xaa99
9d009ca0:	3c02bf81 	lui	v0,0xbf81
9d009ca4:	24636655 	addiu	v1,v1,26197
9d009ca8:	ac40f230 	sw	zero,-3536(v0)
9d009cac:	ac43f230 	sw	v1,-3536(v0)
9d009cb0:	3c035566 	lui	v1,0x5566
9d009cb4:	346399aa 	ori	v1,v1,0x99aa
9d009cb8:	ac43f230 	sw	v1,-3536(v0)
9d009cbc:	3c02bf81 	lui	v0,0xbf81
9d009cc0:	24030001 	li	v1,1
9d009cc4:	ac43f618 	sw	v1,-2536(v0)
9d009cc8:	3c02bf81 	lui	v0,0xbf81
9d009ccc:	8c42f610 	lw	v0,-2544(v0)
9d009cd0:	0b402727 	j	9d009c9c <__pic32_software_reset+0x8>
9d009cd4:	00000000 	nop

9d009cd8 <__lshrdi3>:
9d009cd8:	10c00009 	beqz	a2,9d009d00 <__lshrdi3+0x28>
9d009cdc:	00801021 	move	v0,a0
9d009ce0:	24020020 	li	v0,32
9d009ce4:	00461023 	subu	v0,v0,a2
9d009ce8:	18400007 	blez	v0,9d009d08 <__lshrdi3+0x30>
9d009cec:	00c42006 	srlv	a0,a0,a2
9d009cf0:	00451004 	sllv	v0,a1,v0
9d009cf4:	00c51806 	srlv	v1,a1,a2
9d009cf8:	03e00008 	jr	ra
9d009cfc:	00441025 	or	v0,v0,a0
9d009d00:	03e00008 	jr	ra
9d009d04:	00a01821 	move	v1,a1
9d009d08:	00021023 	negu	v0,v0
9d009d0c:	00001821 	move	v1,zero
9d009d10:	03e00008 	jr	ra
9d009d14:	00451006 	srlv	v0,a1,v0

9d009d18 <__ashldi3>:
9d009d18:	10c00009 	beqz	a2,9d009d40 <__ashldi3+0x28>
9d009d1c:	00801021 	move	v0,a0
9d009d20:	24030020 	li	v1,32
9d009d24:	00661823 	subu	v1,v1,a2
9d009d28:	18600007 	blez	v1,9d009d48 <__ashldi3+0x30>
9d009d2c:	00c52804 	sllv	a1,a1,a2
9d009d30:	00641806 	srlv	v1,a0,v1
9d009d34:	00c41004 	sllv	v0,a0,a2
9d009d38:	03e00008 	jr	ra
9d009d3c:	00651825 	or	v1,v1,a1
9d009d40:	03e00008 	jr	ra
9d009d44:	00a01821 	move	v1,a1
9d009d48:	00031823 	negu	v1,v1
9d009d4c:	00001021 	move	v0,zero
9d009d50:	03e00008 	jr	ra
9d009d54:	00641804 	sllv	v1,a0,v1

Disassembly of section .text.strtod:

9d009d58 <strtod>:
9d009d58:	27bdffe8 	addiu	sp,sp,-24
9d009d5c:	afbf0014 	sw	ra,20(sp)
9d009d60:	0f401990 	jal	9d006640 <__strtod>
9d009d64:	00000000 	nop
9d009d68:	00402021 	move	a0,v0
9d009d6c:	0f402357 	jal	9d008d5c <.LFE23>
9d009d70:	00602821 	move	a1,v1
9d009d74:	8fbf0014 	lw	ra,20(sp)
9d009d78:	03e00008 	jr	ra
9d009d7c:	27bd0018 	addiu	sp,sp,24

Disassembly of section .rodata:

9d009d80 <.LC0>:
9d009d80:	454c4449 	bc1any4f	$fcc3,9d01aea8 <.LFE16+0x10ed0>
9d009d84:	00000000 	nop

9d009d88 <.LC1>:
9d009d88:	004d5750 	0x4d5750

9d009d8c <.LC2>:
9d009d8c:	53455449 	beql	k0,a1,9d01eeb4 <.LFE16+0x14edc>
9d009d90:	00000054 	0x54

9d009d94 <.LC3>:
9d009d94:	444c4f48 	0x444c4f48
9d009d98:	00000000 	nop

9d009d9c <.LC4>:
9d009d9c:	43415254 	c0	0x1415254
9d009da0:	0000004b 	0x4b

Disassembly of section .text.tolower:

9d009da4 <tolower>:
9d009da4:	3c029d01 	lui	v0,0x9d01
9d009da8:	24428b55 	addiu	v0,v0,-29867
9d009dac:	00821021 	addu	v0,a0,v0
9d009db0:	90420000 	lbu	v0,0(v0)
9d009db4:	24830020 	addiu	v1,a0,32
9d009db8:	30420001 	andi	v0,v0,0x1
9d009dbc:	0062200b 	movn	a0,v1,v0
9d009dc0:	03e00008 	jr	ra
9d009dc4:	00801021 	move	v0,a0

Disassembly of section .text.toupper:

9d009dc8 <toupper>:
9d009dc8:	3c029d01 	lui	v0,0x9d01
9d009dcc:	24428b55 	addiu	v0,v0,-29867
9d009dd0:	00821021 	addu	v0,a0,v0
9d009dd4:	90420000 	lbu	v0,0(v0)
9d009dd8:	2483ffe0 	addiu	v1,a0,-32
9d009ddc:	30420002 	andi	v0,v0,0x2
9d009de0:	0062200b 	movn	a0,v1,v0
9d009de4:	03e00008 	jr	ra
9d009de8:	00801021 	move	v0,a0

Disassembly of section .text._dstrtod:

9d009dec <_dstrtod>:
9d009dec:	27bdffe8 	addiu	sp,sp,-24
9d009df0:	afbf0014 	sw	ra,20(sp)
9d009df4:	0f401990 	jal	9d006640 <__strtod>
9d009df8:	00000000 	nop
9d009dfc:	8fbf0014 	lw	ra,20(sp)
9d009e00:	03e00008 	jr	ra
9d009e04:	27bd0018 	addiu	sp,sp,24

Disassembly of section .text.strtof:

9d009e08 <strtof>:
9d009e08:	27bdffe8 	addiu	sp,sp,-24
9d009e0c:	afbf0014 	sw	ra,20(sp)
9d009e10:	0f401a84 	jal	9d006a10 <.LFE23>
9d009e14:	00000000 	nop
9d009e18:	8fbf0014 	lw	ra,20(sp)
9d009e1c:	03e00008 	jr	ra
9d009e20:	27bd0018 	addiu	sp,sp,24

Disassembly of section .text.strtodf:

9d009e24 <strtodf>:
9d009e24:	27bdffe8 	addiu	sp,sp,-24
9d009e28:	afbf0014 	sw	ra,20(sp)
9d009e2c:	0f401a84 	jal	9d006a10 <.LFE23>
9d009e30:	00000000 	nop
9d009e34:	8fbf0014 	lw	ra,20(sp)
9d009e38:	03e00008 	jr	ra
9d009e3c:	27bd0018 	addiu	sp,sp,24

Disassembly of section .text.negdf2:

9d009e40 <__negdf2>:
9d009e40:	3c018000 00a12826 00041025 00051825     ...<&(..%...%...

9d009e50 <M999>:
9d009e50:	03e00008 	jr	ra
9d009e54:	00000000 	nop
9d009e58:	00000000 	nop

Disassembly of section .text:

9d009e5c <_nmi_handler>:
9d009e5c:	401a6000 	mfc0	k0,c0_status
9d009e60:	3c1bffbf 	lui	k1,0xffbf
9d009e64:	377bffff 	ori	k1,k1,0xffff
9d009e68:	035bd024 	and	k0,k0,k1
9d009e6c:	409a6000 	mtc0	k0,c0_status
9d009e70:	42000018 	eret

Disassembly of section .text.isalnum:

9d009e74 <isalnum>:
9d009e74:	3c029d01 	lui	v0,0x9d01
9d009e78:	24428b55 	addiu	v0,v0,-29867
9d009e7c:	00442021 	addu	a0,v0,a0
9d009e80:	90820000 	lbu	v0,0(a0)
9d009e84:	03e00008 	jr	ra
9d009e88:	30420007 	andi	v0,v0,0x7

Disassembly of section .text.isalpha:

9d009e8c <isalpha>:
9d009e8c:	3c029d01 	lui	v0,0x9d01
9d009e90:	24428b55 	addiu	v0,v0,-29867
9d009e94:	00442021 	addu	a0,v0,a0
9d009e98:	90820000 	lbu	v0,0(a0)
9d009e9c:	03e00008 	jr	ra
9d009ea0:	30420003 	andi	v0,v0,0x3

Disassembly of section .text.iscntrl:

9d009ea4 <iscntrl>:
9d009ea4:	3c029d01 	lui	v0,0x9d01
9d009ea8:	24428b55 	addiu	v0,v0,-29867
9d009eac:	00442021 	addu	a0,v0,a0
9d009eb0:	90820000 	lbu	v0,0(a0)
9d009eb4:	03e00008 	jr	ra
9d009eb8:	30420020 	andi	v0,v0,0x20

Disassembly of section .text.isdigit:

9d009ebc <isdigit>:
9d009ebc:	3c029d01 	lui	v0,0x9d01
9d009ec0:	24428b55 	addiu	v0,v0,-29867
9d009ec4:	00442021 	addu	a0,v0,a0
9d009ec8:	90820000 	lbu	v0,0(a0)
9d009ecc:	03e00008 	jr	ra
9d009ed0:	30420004 	andi	v0,v0,0x4

Disassembly of section .text.isgraph:

9d009ed4 <isgraph>:
9d009ed4:	3c029d01 	lui	v0,0x9d01
9d009ed8:	24428b55 	addiu	v0,v0,-29867
9d009edc:	00442021 	addu	a0,v0,a0
9d009ee0:	90820000 	lbu	v0,0(a0)
9d009ee4:	03e00008 	jr	ra
9d009ee8:	30420017 	andi	v0,v0,0x17

Disassembly of section .text.islower:

9d009eec <islower>:
9d009eec:	3c029d01 	lui	v0,0x9d01
9d009ef0:	24428b55 	addiu	v0,v0,-29867
9d009ef4:	00442021 	addu	a0,v0,a0
9d009ef8:	90820000 	lbu	v0,0(a0)
9d009efc:	03e00008 	jr	ra
9d009f00:	30420002 	andi	v0,v0,0x2

Disassembly of section .text.isprint:

9d009f04 <isprint>:
9d009f04:	3c029d01 	lui	v0,0x9d01
9d009f08:	24428b55 	addiu	v0,v0,-29867
9d009f0c:	00442021 	addu	a0,v0,a0
9d009f10:	80820000 	lb	v0,0(a0)
9d009f14:	03e00008 	jr	ra
9d009f18:	30420097 	andi	v0,v0,0x97

Disassembly of section .text.ispunct:

9d009f1c <ispunct>:
9d009f1c:	3c029d01 	lui	v0,0x9d01
9d009f20:	24428b55 	addiu	v0,v0,-29867
9d009f24:	00442021 	addu	a0,v0,a0
9d009f28:	90820000 	lbu	v0,0(a0)
9d009f2c:	03e00008 	jr	ra
9d009f30:	30420010 	andi	v0,v0,0x10

Disassembly of section .text.isspace:

9d009f34 <isspace>:
9d009f34:	3c029d01 	lui	v0,0x9d01
9d009f38:	24428b55 	addiu	v0,v0,-29867
9d009f3c:	00442021 	addu	a0,v0,a0
9d009f40:	80820000 	lb	v0,0(a0)
9d009f44:	03e00008 	jr	ra
9d009f48:	30420088 	andi	v0,v0,0x88

Disassembly of section .text.isupper:

9d009f4c <isupper>:
9d009f4c:	3c029d01 	lui	v0,0x9d01
9d009f50:	24428b55 	addiu	v0,v0,-29867
9d009f54:	00442021 	addu	a0,v0,a0
9d009f58:	90820000 	lbu	v0,0(a0)
9d009f5c:	03e00008 	jr	ra
9d009f60:	30420001 	andi	v0,v0,0x1

Disassembly of section .text.isxdigit:

9d009f64 <isxdigit>:
9d009f64:	3c029d01 	lui	v0,0x9d01
9d009f68:	24428b55 	addiu	v0,v0,-29867
9d009f6c:	00442021 	addu	a0,v0,a0
9d009f70:	90820000 	lbu	v0,0(a0)
9d009f74:	03e00008 	jr	ra
9d009f78:	30420044 	andi	v0,v0,0x44

Disassembly of section .rodata:

9d009f7c <f5pow>:
9d009f7c:	40a00000 41c80000 441c4000 48bebc20     ...@...A.@.D ..H
9d009f8c:	520e1bca 649dc5ae                       ...R...d

Disassembly of section .text.negsf2:

9d009f94 <__negsf2>:
9d009f94:	3c018000 00811026                       ...<&...

9d009f9c <L999>:
9d009f9c:	03e00008 	jr	ra
9d009fa0:	00000000 	nop
9d009fa4:	00000000 	nop

Disassembly of section .text._on_reset:

9d009fa8 <_on_reset>:
9d009fa8:	03e00008 	jr	ra
9d009fac:	00000000 	nop

Disassembly of section .text._on_bootstrap:

9d009fb0 <_on_bootstrap>:
9d009fb0:	03e00008 	jr	ra
9d009fb4:	00000000 	nop

Disassembly of section .text.isascii:

9d009fb8 <isascii>:
9d009fb8:	03e00008 	jr	ra
9d009fbc:	2c820080 	sltiu	v0,a0,128

Disassembly of section .text.toascii:

9d009fc0 <toascii>:
9d009fc0:	03e00008 	jr	ra
9d009fc4:	3082007f 	andi	v0,a0,0x7f

Disassembly of section .text._tolower:

9d009fc8 <_tolower>:
9d009fc8:	03e00008 	jr	ra
9d009fcc:	24820020 	addiu	v0,a0,32

Disassembly of section .text._toupper:

9d009fd0 <_toupper>:
9d009fd0:	03e00008 	jr	ra
9d009fd4:	2482ffe0 	addiu	v0,a0,-32
