
out.elf:     file format elf32-tradlittlemips


Disassembly of section .config_BFC02FF0:

bfc02ff0 <__config_BFC02FF0>:
bfc02ff0:	ff ff fe fa                                         ....

Disassembly of section .config_BFC02FF4:

bfc02ff4 <__config_BFC02FF4>:
bfc02ff4:	d9 79 f8 ff                                         .y..

Disassembly of section .config_BFC02FF8:

bfc02ff8 <__config_BFC02FF8>:
bfc02ff8:	db ce 6c ff                                         ..l.

Disassembly of section .config_BFC02FFC:

bfc02ffc <__config_BFC02FFC>:
bfc02ffc:	ff ff ff 7e                                         ...~

Disassembly of section .reset:

bd001970 <_reset>:
bd001970:	0f40065e 	jal	bd001978 <_startup>
bd001974:	00000000 	nop

bd001978 <_startup>:
bd001978:	401a6000 	mfc0	k0,c0_status
bd00197c:	7f5a04c0 	ext	k0,k0,0x13,0x1
bd001980:	13400005 	beqz	k0,bd001998 <_no_nmi>
bd001984:	00000000 	nop
bd001988:	3c1a9d00 	lui	k0,0x9d00
bd00198c:	275a23cc 	addiu	k0,k0,9164
bd001990:	03400008 	jr	k0
bd001994:	00000000 	nop

bd001998 <_no_nmi>:
bd001998:	3c1da002 	lui	sp,0xa002
bd00199c:	27bdfff8 	addiu	sp,sp,-8
bd0019a0:	3c1ca000 	lui	gp,0xa000
bd0019a4:	279c7ff0 	addiu	gp,gp,32752
bd0019a8:	40096002 	mfc0	t1,c0_srsctl
bd0019ac:	01205820 	add	t3,t1,zero
bd0019b0:	7d2a1e80 	ext	t2,t1,0x1a,0x4
bd0019b4:	7d494984 	ins	t1,t2,0x6,0x4
bd0019b8:	40896002 	mtc0	t1,c0_srsctl
bd0019bc:	000000c0 	ehb
bd0019c0:	41dce000 	wrpgpr	gp,gp
bd0019c4:	408b6002 	mtc0	t3,c0_srsctl
bd0019c8:	000000c0 	ehb
bd0019cc:	3c089d00 	lui	t0,0x9d00
bd0019d0:	250823f4 	addiu	t0,t0,9204
bd0019d4:	0100f809 	jalr	t0
bd0019d8:	00000000 	nop
bd0019dc:	3c08a000 	lui	t0,0xa000
bd0019e0:	25080000 	addiu	t0,t0,0
bd0019e4:	3c09a000 	lui	t1,0xa000
bd0019e8:	25290000 	addiu	t1,t1,0
bd0019ec:	10000006 	b	bd001a08 <_bss_check>
bd0019f0:	00000000 	nop

bd0019f4 <_bss_init>:
bd0019f4:	ad000000 	sw	zero,0(t0)
bd0019f8:	ad000004 	sw	zero,4(t0)
bd0019fc:	ad000008 	sw	zero,8(t0)
bd001a00:	ad00000c 	sw	zero,12(t0)
bd001a04:	25080010 	addiu	t0,t0,16

bd001a08 <_bss_check>:
bd001a08:	0109082b 	sltu	at,t0,t1
bd001a0c:	1420fff9 	bnez	at,bd0019f4 <_bss_init>
bd001a10:	00000000 	nop

bd001a14 <_dinit_init>:
bd001a14:	3c089d00 	lui	t0,0x9d00
bd001a18:	250823e4 	addiu	t0,t0,9188
bd001a1c:	8d090000 	lw	t1,0(t0)
bd001a20:	11200018 	beqz	t1,bd001a84 <_dinit_end+0x18>
bd001a24:	25080004 	addiu	t0,t0,4
bd001a28:	8d0a0000 	lw	t2,0(t0)
bd001a2c:	25080004 	addiu	t0,t0,4
bd001a30:	8d0b0000 	lw	t3,0(t0)
bd001a34:	11600009 	beqz	t3,bd001a5c <_dinit_clear>
bd001a38:	25080004 	addiu	t0,t0,4

bd001a3c <_dinit_copy>:
bd001a3c:	910c0000 	lbu	t4,0(t0)
bd001a40:	254affff 	addiu	t2,t2,-1
bd001a44:	25080001 	addiu	t0,t0,1
bd001a48:	a12c0000 	sb	t4,0(t1)
bd001a4c:	1540fffb 	bnez	t2,bd001a3c <_dinit_copy>
bd001a50:	25290001 	addiu	t1,t1,1
bd001a54:	10000005 	b	bd001a6c <_dinit_end>
bd001a58:	00000000 	nop

bd001a5c <_dinit_clear>:
bd001a5c:	a1200000 	sb	zero,0(t1)
bd001a60:	254affff 	addiu	t2,t2,-1
bd001a64:	1540fffd 	bnez	t2,bd001a5c <_dinit_clear>
bd001a68:	25290001 	addiu	t1,t1,1

bd001a6c <_dinit_end>:
bd001a6c:	25080003 	addiu	t0,t0,3
bd001a70:	240afffc 	li	t2,-4
bd001a74:	01484024 	and	t0,t2,t0
bd001a78:	8d090000 	lw	t1,0(t0)
bd001a7c:	1520ffe7 	bnez	t1,bd001a1c <_dinit_init+0x8>
bd001a80:	00000000 	nop
bd001a84:	3c090000 	lui	t1,0x0
bd001a88:	25290000 	addiu	t1,t1,0
bd001a8c:	11200010 	beqz	t1,bd001ad0 <_ramfunc_done>
bd001a90:	00000000 	nop
bd001a94:	3c090002 	lui	t1,0x2
bd001a98:	25290000 	addiu	t1,t1,0
bd001a9c:	3c0abf88 	lui	t2,0xbf88
bd001aa0:	254a2010 	addiu	t2,t2,8208
bd001aa4:	ad490000 	sw	t1,0(t2)
bd001aa8:	3c090002 	lui	t1,0x2
bd001aac:	25290000 	addiu	t1,t1,0
bd001ab0:	3c0abf88 	lui	t2,0xbf88
bd001ab4:	254a2020 	addiu	t2,t2,8224
bd001ab8:	ad490000 	sw	t1,0(t2)
bd001abc:	3c090002 	lui	t1,0x2
bd001ac0:	25290000 	addiu	t1,t1,0
bd001ac4:	3c0abf88 	lui	t2,0xbf88
bd001ac8:	254a2030 	addiu	t2,t2,8240
bd001acc:	ad490000 	sw	t1,0(t2)

bd001ad0 <_ramfunc_done>:
bd001ad0:	40804800 	mtc0	zero,c0_count
bd001ad4:	240affff 	li	t2,-1
bd001ad8:	408a5800 	mtc0	t2,c0_compare
bd001adc:	3c099d00 	lui	t1,0x9d00
bd001ae0:	25290000 	addiu	t1,t1,0
bd001ae4:	40897801 	mtc0	t1,c0_ebase
bd001ae8:	3c090000 	lui	t1,0x0
bd001aec:	25290001 	addiu	t1,t1,1
bd001af0:	240a0000 	li	t2,0
bd001af4:	7d2a4944 	ins	t2,t1,0x5,0x5
bd001af8:	408a6001 	mtc0	t2,c0_intctl
bd001afc:	3c090080 	lui	t1,0x80
bd001b00:	40896800 	mtc0	t1,c0_cause
bd001b04:	40088000 	mfc0	t0,c0_config
bd001b08:	7d090580 	ext	t1,t0,0x16,0x1
bd001b0c:	00094c40 	sll	t1,t1,0x11
bd001b10:	40086000 	mfc0	t0,c0_status
bd001b14:	3c010058 	lui	at,0x58
bd001b18:	01014024 	and	t0,t0,at
bd001b1c:	01284025 	or	t0,t1,t0
bd001b20:	40886000 	mtc0	t0,c0_status
bd001b24:	000000c0 	ehb
bd001b28:	3c089d00 	lui	t0,0x9d00
bd001b2c:	250823fc 	addiu	t0,t0,9212
bd001b30:	0100f809 	jalr	t0
bd001b34:	00000000 	nop
bd001b38:	40086000 	mfc0	t0,c0_status
bd001b3c:	3c01ffbf 	lui	at,0xffbf
bd001b40:	3421ffff 	ori	at,at,0xffff
bd001b44:	01014024 	and	t0,t0,at
bd001b48:	40886000 	mtc0	t0,c0_status
bd001b4c:	30840000 	andi	a0,a0,0x0
bd001b50:	30a50000 	andi	a1,a1,0x0
bd001b54:	3c089d00 	lui	t0,0x9d00
bd001b58:	2508225c 	addiu	t0,t0,8796
bd001b5c:	01000008 	jr	t0
bd001b60:	00000000 	nop

Disassembly of section .bev_excpt:

bd001cf0 <_bev_exception>:
bd001cf0:	3c1a9d00 	lui	k0,0x9d00
bd001cf4:	275a22b0 	addiu	k0,k0,8880
bd001cf8:	03400008 	jr	k0
bd001cfc:	00000000 	nop

Disassembly of section .app_excpt:

9d000180 <_gen_exception>:
9d000180:	3c1a9d00 	lui	k0,0x9d00
9d000184:	275a20b4 	addiu	k0,k0,8372
9d000188:	03400008 	jr	k0
9d00018c:	00000000 	nop

Disassembly of section .vector_0:

9d000200 <__vector_dispatch_0>:
9d000200:	0b4008d0 	j	9d002340 <.LFE0>
9d000204:	00000000 	nop

Disassembly of section .vector_1:

9d000220 <__vector_dispatch_1>:
9d000220:	0b4008d0 	j	9d002340 <.LFE0>
9d000224:	00000000 	nop

Disassembly of section .vector_2:

9d000240 <__vector_dispatch_2>:
9d000240:	0b4008d0 	j	9d002340 <.LFE0>
9d000244:	00000000 	nop

Disassembly of section .vector_3:

9d000260 <__vector_dispatch_3>:
9d000260:	0b4008d0 	j	9d002340 <.LFE0>
9d000264:	00000000 	nop

Disassembly of section .vector_4:

9d000280 <__vector_dispatch_4>:
9d000280:	0b4008d0 	j	9d002340 <.LFE0>
9d000284:	00000000 	nop

Disassembly of section .vector_5:

9d0002a0 <__vector_dispatch_5>:
9d0002a0:	0b4008d0 	j	9d002340 <.LFE0>
9d0002a4:	00000000 	nop

Disassembly of section .vector_6:

9d0002c0 <__vector_dispatch_6>:
9d0002c0:	0b4008d0 	j	9d002340 <.LFE0>
9d0002c4:	00000000 	nop

Disassembly of section .vector_7:

9d0002e0 <__vector_dispatch_7>:
9d0002e0:	0b4008d0 	j	9d002340 <.LFE0>
9d0002e4:	00000000 	nop

Disassembly of section .vector_8:

9d000300 <__vector_dispatch_8>:
9d000300:	0b4008d0 	j	9d002340 <.LFE0>
9d000304:	00000000 	nop

Disassembly of section .vector_9:

9d000320 <__vector_dispatch_9>:
9d000320:	0b4008d0 	j	9d002340 <.LFE0>
9d000324:	00000000 	nop

Disassembly of section .vector_10:

9d000340 <__vector_dispatch_10>:
9d000340:	0b4008d0 	j	9d002340 <.LFE0>
9d000344:	00000000 	nop

Disassembly of section .vector_11:

9d000360 <__vector_dispatch_11>:
9d000360:	0b4008d0 	j	9d002340 <.LFE0>
9d000364:	00000000 	nop

Disassembly of section .vector_12:

9d000380 <__vector_dispatch_12>:
9d000380:	0b4008d0 	j	9d002340 <.LFE0>
9d000384:	00000000 	nop

Disassembly of section .vector_13:

9d0003a0 <__vector_dispatch_13>:
9d0003a0:	0b4008d0 	j	9d002340 <.LFE0>
9d0003a4:	00000000 	nop

Disassembly of section .vector_14:

9d0003c0 <__vector_dispatch_14>:
9d0003c0:	0b4008d0 	j	9d002340 <.LFE0>
9d0003c4:	00000000 	nop

Disassembly of section .vector_15:

9d0003e0 <__vector_dispatch_15>:
9d0003e0:	0b4008d0 	j	9d002340 <.LFE0>
9d0003e4:	00000000 	nop

Disassembly of section .vector_16:

9d000400 <__vector_dispatch_16>:
9d000400:	0b4008d0 	j	9d002340 <.LFE0>
9d000404:	00000000 	nop

Disassembly of section .vector_17:

9d000420 <__vector_dispatch_17>:
9d000420:	0b4008d0 	j	9d002340 <.LFE0>
9d000424:	00000000 	nop

Disassembly of section .vector_18:

9d000440 <__vector_dispatch_18>:
9d000440:	0b4008d0 	j	9d002340 <.LFE0>
9d000444:	00000000 	nop

Disassembly of section .vector_19:

9d000460 <__vector_dispatch_19>:
9d000460:	0b4008d0 	j	9d002340 <.LFE0>
9d000464:	00000000 	nop

Disassembly of section .vector_20:

9d000480 <__vector_dispatch_20>:
9d000480:	0b4008d0 	j	9d002340 <.LFE0>
9d000484:	00000000 	nop

Disassembly of section .vector_21:

9d0004a0 <__vector_dispatch_21>:
9d0004a0:	0b4008d0 	j	9d002340 <.LFE0>
9d0004a4:	00000000 	nop

Disassembly of section .vector_22:

9d0004c0 <__vector_dispatch_22>:
9d0004c0:	0b4008d0 	j	9d002340 <.LFE0>
9d0004c4:	00000000 	nop

Disassembly of section .vector_23:

9d0004e0 <__vector_dispatch_23>:
9d0004e0:	0b4008d0 	j	9d002340 <.LFE0>
9d0004e4:	00000000 	nop

Disassembly of section .vector_24:

9d000500 <__vector_dispatch_24>:
9d000500:	0b4008d0 	j	9d002340 <.LFE0>
9d000504:	00000000 	nop

Disassembly of section .vector_25:

9d000520 <__vector_dispatch_25>:
9d000520:	0b4008d0 	j	9d002340 <.LFE0>
9d000524:	00000000 	nop

Disassembly of section .vector_26:

9d000540 <__vector_dispatch_26>:
9d000540:	0b4008d0 	j	9d002340 <.LFE0>
9d000544:	00000000 	nop

Disassembly of section .vector_27:

9d000560 <__vector_dispatch_27>:
9d000560:	0b4008d0 	j	9d002340 <.LFE0>
9d000564:	00000000 	nop

Disassembly of section .vector_28:

9d000580 <__vector_dispatch_28>:
9d000580:	0b4008d0 	j	9d002340 <.LFE0>
9d000584:	00000000 	nop

Disassembly of section .vector_29:

9d0005a0 <__vector_dispatch_29>:
9d0005a0:	0b4008d0 	j	9d002340 <.LFE0>
9d0005a4:	00000000 	nop

Disassembly of section .vector_30:

9d0005c0 <__vector_dispatch_30>:
9d0005c0:	0b4008d0 	j	9d002340 <.LFE0>
9d0005c4:	00000000 	nop

Disassembly of section .vector_31:

9d0005e0 <__vector_dispatch_31>:
9d0005e0:	0b4008d0 	j	9d002340 <.LFE0>
9d0005e4:	00000000 	nop

Disassembly of section .vector_32:

9d000600 <__vector_dispatch_32>:
9d000600:	0b4008d0 	j	9d002340 <.LFE0>
9d000604:	00000000 	nop

Disassembly of section .vector_33:

9d000620 <__vector_dispatch_33>:
9d000620:	0b4008d0 	j	9d002340 <.LFE0>
9d000624:	00000000 	nop

Disassembly of section .vector_34:

9d000640 <__vector_dispatch_34>:
9d000640:	0b4008d0 	j	9d002340 <.LFE0>
9d000644:	00000000 	nop

Disassembly of section .vector_35:

9d000660 <__vector_dispatch_35>:
9d000660:	0b4008d0 	j	9d002340 <.LFE0>
9d000664:	00000000 	nop

Disassembly of section .vector_36:

9d000680 <__vector_dispatch_36>:
9d000680:	0b4008d0 	j	9d002340 <.LFE0>
9d000684:	00000000 	nop

Disassembly of section .vector_37:

9d0006a0 <__vector_dispatch_37>:
9d0006a0:	0b4008d0 	j	9d002340 <.LFE0>
9d0006a4:	00000000 	nop

Disassembly of section .vector_38:

9d0006c0 <__vector_dispatch_38>:
9d0006c0:	0b4008d0 	j	9d002340 <.LFE0>
9d0006c4:	00000000 	nop

Disassembly of section .vector_39:

9d0006e0 <__vector_dispatch_39>:
9d0006e0:	0b4008d0 	j	9d002340 <.LFE0>
9d0006e4:	00000000 	nop

Disassembly of section .vector_40:

9d000700 <__vector_dispatch_40>:
9d000700:	0b4008d0 	j	9d002340 <.LFE0>
9d000704:	00000000 	nop

Disassembly of section .vector_41:

9d000720 <__vector_dispatch_41>:
9d000720:	0b4008d0 	j	9d002340 <.LFE0>
9d000724:	00000000 	nop

Disassembly of section .vector_42:

9d000740 <__vector_dispatch_42>:
9d000740:	0b4008d0 	j	9d002340 <.LFE0>
9d000744:	00000000 	nop

Disassembly of section .vector_43:

9d000760 <__vector_dispatch_43>:
9d000760:	0b4008d0 	j	9d002340 <.LFE0>
9d000764:	00000000 	nop

Disassembly of section .vector_44:

9d000780 <__vector_dispatch_44>:
9d000780:	0b4008d0 	j	9d002340 <.LFE0>
9d000784:	00000000 	nop

Disassembly of section .vector_45:

9d0007a0 <__vector_dispatch_45>:
9d0007a0:	0b4008d0 	j	9d002340 <.LFE0>
9d0007a4:	00000000 	nop

Disassembly of section .vector_46:

9d0007c0 <__vector_dispatch_46>:
9d0007c0:	0b4008d0 	j	9d002340 <.LFE0>
9d0007c4:	00000000 	nop

Disassembly of section .vector_47:

9d0007e0 <__vector_dispatch_47>:
9d0007e0:	0b4008d0 	j	9d002340 <.LFE0>
9d0007e4:	00000000 	nop

Disassembly of section .vector_48:

9d000800 <__vector_dispatch_48>:
9d000800:	0b4008d0 	j	9d002340 <.LFE0>
9d000804:	00000000 	nop

Disassembly of section .vector_49:

9d000820 <__vector_dispatch_49>:
9d000820:	0b4008d0 	j	9d002340 <.LFE0>
9d000824:	00000000 	nop

Disassembly of section .vector_50:

9d000840 <__vector_dispatch_50>:
9d000840:	0b4008d0 	j	9d002340 <.LFE0>
9d000844:	00000000 	nop

Disassembly of section .vector_51:

9d000860 <__vector_dispatch_51>:
9d000860:	0b4008d0 	j	9d002340 <.LFE0>
9d000864:	00000000 	nop

Disassembly of section ._debug_exception:

bfc00480 <__DbgExecReturn>:
bfc00480:	409bf800 	mtc0	k1,c0_desave
bfc00484:	000000c0 	ehb
bfc00488:	3c1b9d00 	lui	k1,0x9d00
bfc0048c:	277b2388 	addiu	k1,k1,9096
bfc00490:	13600002 	beqz	k1,bfc0049c <__DbgExecReturn+0x1c>
bfc00494:	00000000 	nop
bfc00498:	409bc000 	mtc0	k1,c0_depc
bfc0049c:	401bf800 	mfc0	k1,c0_desave
bfc004a0:	000000c0 	ehb
bfc004a4:	4200001f 	deret
bfc004a8:	00000000 	nop

Disassembly of section .text:

9d001e00 <NU32_Startup>:

// Perform startup routines:
//  Make NU32_LED1 and NU32_LED2 pins outputs (NU32_USER is by default an input)
//  Initialize the serial port - UART3 (no interrupt) 
//  Enable interrupts
void NU32_Startup() {
9d001e00:	27bdfff8 	addiu	sp,sp,-8
9d001e04:	afbf0004 	sw	ra,4(sp)
9d001e08:	afbe0000 	sw	s8,0(sp)
9d001e0c:	03a0f021 	move	s8,sp
  // disable interrupts
  __builtin_disable_interrupts();
9d001e10:	41626000 	di	v0
9d001e14:	000000c0 	ehb
9d001e18:	00000000 	nop
  // see Chapter 2 "CPU for Devices with M4K Core" of the PIC32 reference manual
  // most of the other bits have prescribed values
  // microchip does not provide a _CP0_SET_CONFIG macro, so we directly use
  // the compiler built-in command _mtc0
  // to disable cache, use 0xa4210582 
  __builtin_mtc0(_CP0_CONFIG, _CP0_CONFIG_SELECT, 0xa4210583); 
9d001e1c:	3c02a421 	lui	v0,0xa421
9d001e20:	34420583 	ori	v0,v0,0x583
9d001e24:	40828000 	mtc0	v0,c0_config
9d001e28:	000000c0 	ehb
  
  // set the prefectch cache wait state to 2, as per the
  // electrical characteristics data sheet
  CHECONbits.PFMWS = 0x2;   
9d001e2c:	3c03bf88 	lui	v1,0xbf88
9d001e30:	8c624000 	lw	v0,16384(v1)
9d001e34:	24040002 	li	a0,2
9d001e38:	7c821004 	ins	v0,a0,0x0,0x3
9d001e3c:	ac624000 	sw	v0,16384(v1)

  //enable prefetch for cacheable and noncacheable memory
  CHECONbits.PREFEN = 0x3; 
9d001e40:	3c03bf88 	lui	v1,0xbf88
9d001e44:	8c624000 	lw	v0,16384(v1)
9d001e48:	24040003 	li	a0,3
9d001e4c:	7c822904 	ins	v0,a0,0x4,0x2
9d001e50:	ac624000 	sw	v0,16384(v1)

  // 0 data RAM access wait states
  BMXCONbits.BMXWSDRM = 0x0;
9d001e54:	3c03bf88 	lui	v1,0xbf88
9d001e58:	8c622000 	lw	v0,8192(v1)
9d001e5c:	7c023184 	ins	v0,zero,0x6,0x1
9d001e60:	ac622000 	sw	v0,8192(v1)
  
  // enable multi vector interrupts
  INTCONbits.MVEC = 0x1;
9d001e64:	3c03bf88 	lui	v1,0xbf88
9d001e68:	8c621000 	lw	v0,4096(v1)
9d001e6c:	24040001 	li	a0,1
9d001e70:	7c826304 	ins	v0,a0,0xc,0x1
9d001e74:	ac621000 	sw	v0,4096(v1)

  // disable JTAG to get B10, B11, B12 and B13 back
  DDPCONbits.JTAGEN = 0;
9d001e78:	3c03bf81 	lui	v1,0xbf81
9d001e7c:	9062f200 	lbu	v0,-3584(v1)
9d001e80:	7c0218c4 	ins	v0,zero,0x3,0x1
9d001e84:	a062f200 	sb	v0,-3584(v1)

  TRISFCLR = 0x0003;  // Make F0 and F1 outputs (LED1 and LED2)
9d001e88:	3c02bf88 	lui	v0,0xbf88
9d001e8c:	24030003 	li	v1,3
9d001e90:	ac436144 	sw	v1,24900(v0)
  NU32_LED1 = 1;      // LED1 is off
9d001e94:	3c03bf88 	lui	v1,0xbf88
9d001e98:	90626160 	lbu	v0,24928(v1)
9d001e9c:	24040001 	li	a0,1
9d001ea0:	7c820004 	ins	v0,a0,0x0,0x1
9d001ea4:	a0626160 	sb	v0,24928(v1)
  NU32_LED2 = 0;      // LED2 is on
9d001ea8:	3c03bf88 	lui	v1,0xbf88
9d001eac:	90626160 	lbu	v0,24928(v1)
9d001eb0:	7c020844 	ins	v0,zero,0x1,0x1
9d001eb4:	a0626160 	sb	v0,24928(v1)

  // turn on UART3 without an interrupt
  U3MODEbits.BRGH = 0; // set baud to NU32_DESIRED_BAUD
9d001eb8:	3c03bf80 	lui	v1,0xbf80
9d001ebc:	94626400 	lhu	v0,25600(v1)
9d001ec0:	7c0218c4 	ins	v0,zero,0x3,0x1
9d001ec4:	a4626400 	sh	v0,25600(v1)
  U3BRG = ((NU32_SYS_FREQ / NU32_DESIRED_BAUD) / 16) - 1;
9d001ec8:	3c02bf80 	lui	v0,0xbf80
9d001ecc:	24030014 	li	v1,20
9d001ed0:	ac436440 	sw	v1,25664(v0)

  // 8 bit, no parity bit, and 1 stop bit (8N1 setup)
  U3MODEbits.PDSEL = 0;
9d001ed4:	3c03bf80 	lui	v1,0xbf80
9d001ed8:	94626400 	lhu	v0,25600(v1)
9d001edc:	7c021044 	ins	v0,zero,0x1,0x2
9d001ee0:	a4626400 	sh	v0,25600(v1)
  U3MODEbits.STSEL = 0;
9d001ee4:	3c03bf80 	lui	v1,0xbf80
9d001ee8:	94626400 	lhu	v0,25600(v1)
9d001eec:	7c020004 	ins	v0,zero,0x0,0x1
9d001ef0:	a4626400 	sh	v0,25600(v1)

  // configure TX & RX pins as output & input pins
  U3STAbits.UTXEN = 1;
9d001ef4:	3c03bf80 	lui	v1,0xbf80
9d001ef8:	8c626410 	lw	v0,25616(v1)
9d001efc:	24040001 	li	a0,1
9d001f00:	7c825284 	ins	v0,a0,0xa,0x1
9d001f04:	ac626410 	sw	v0,25616(v1)
  U3STAbits.URXEN = 1;
9d001f08:	3c03bf80 	lui	v1,0xbf80
9d001f0c:	8c626410 	lw	v0,25616(v1)
9d001f10:	24040001 	li	a0,1
9d001f14:	7c826304 	ins	v0,a0,0xc,0x1
9d001f18:	ac626410 	sw	v0,25616(v1)
  // configure hardware flow control using RTS and CTS
  U3MODEbits.UEN = 2;
9d001f1c:	3c03bf80 	lui	v1,0xbf80
9d001f20:	94626400 	lhu	v0,25600(v1)
9d001f24:	24040002 	li	a0,2
9d001f28:	7c824a04 	ins	v0,a0,0x8,0x2
9d001f2c:	a4626400 	sh	v0,25600(v1)

  // enable the uart
  U3MODEbits.ON = 1;
9d001f30:	3c03bf80 	lui	v1,0xbf80
9d001f34:	94626400 	lhu	v0,25600(v1)
9d001f38:	24040001 	li	a0,1
9d001f3c:	7c827bc4 	ins	v0,a0,0xf,0x1
9d001f40:	a4626400 	sh	v0,25600(v1)

  __builtin_enable_interrupts();
9d001f44:	41626020 	ei	v0
}
9d001f48:	03c0e821 	move	sp,s8
9d001f4c:	8fbf0004 	lw	ra,4(sp)
9d001f50:	8fbe0000 	lw	s8,0(sp)
9d001f54:	27bd0008 	addiu	sp,sp,8
9d001f58:	03e00008 	jr	ra
9d001f5c:	00000000 	nop

9d001f60 <NU32_ReadUART3>:

// Read from UART3
// block other functions until you get a '\r' or '\n'
// send the pointer to your char array and the number of elements in the array
void NU32_ReadUART3(char * message, int maxLength) {
9d001f60:	27bdffe8 	addiu	sp,sp,-24
9d001f64:	afbe0014 	sw	s8,20(sp)
9d001f68:	03a0f021 	move	s8,sp
9d001f6c:	afc40018 	sw	a0,24(s8)
9d001f70:	afc5001c 	sw	a1,28(s8)
  char data = 0;
9d001f74:	a3c00008 	sb	zero,8(s8)
  int complete = 0, num_bytes = 0;
9d001f78:	afc00000 	sw	zero,0(s8)
9d001f7c:	afc00004 	sw	zero,4(s8)
  // loop until you get a '\r' or '\n'
  while (!complete) {
9d001f80:	0b400804 	j	9d002010 <NU32_ReadUART3+0xb0>
9d001f84:	00000000 	nop
    if (U3STAbits.URXDA) { // if data is available
9d001f88:	3c02bf80 	lui	v0,0xbf80
9d001f8c:	8c426410 	lw	v0,25616(v0)
9d001f90:	30420001 	andi	v0,v0,0x1
9d001f94:	1040001e 	beqz	v0,9d002010 <NU32_ReadUART3+0xb0>
9d001f98:	00000000 	nop
      data = U3RXREG;      // read the data
9d001f9c:	3c02bf80 	lui	v0,0xbf80
9d001fa0:	8c426430 	lw	v0,25648(v0)
9d001fa4:	a3c20008 	sb	v0,8(s8)
      if ((data == '\n') || (data == '\r')) {
9d001fa8:	83c30008 	lb	v1,8(s8)
9d001fac:	2402000a 	li	v0,10
9d001fb0:	10620005 	beq	v1,v0,9d001fc8 <NU32_ReadUART3+0x68>
9d001fb4:	00000000 	nop
9d001fb8:	83c30008 	lb	v1,8(s8)
9d001fbc:	2402000d 	li	v0,13
9d001fc0:	14620005 	bne	v1,v0,9d001fd8 <NU32_ReadUART3+0x78>
9d001fc4:	00000000 	nop
        complete = 1;
9d001fc8:	24020001 	li	v0,1
9d001fcc:	afc20000 	sw	v0,0(s8)
9d001fd0:	0b400804 	j	9d002010 <NU32_ReadUART3+0xb0>
9d001fd4:	00000000 	nop
      } else {
        message[num_bytes] = data;
9d001fd8:	8fc20004 	lw	v0,4(s8)
9d001fdc:	8fc30018 	lw	v1,24(s8)
9d001fe0:	00621021 	addu	v0,v1,v0
9d001fe4:	93c30008 	lbu	v1,8(s8)
9d001fe8:	a0430000 	sb	v1,0(v0)
        ++num_bytes;
9d001fec:	8fc20004 	lw	v0,4(s8)
9d001ff0:	24420001 	addiu	v0,v0,1
9d001ff4:	afc20004 	sw	v0,4(s8)
        // roll over if the array is too small
        if (num_bytes >= maxLength) {
9d001ff8:	8fc30004 	lw	v1,4(s8)
9d001ffc:	8fc2001c 	lw	v0,28(s8)
9d002000:	0062102a 	slt	v0,v1,v0
9d002004:	14400002 	bnez	v0,9d002010 <NU32_ReadUART3+0xb0>
9d002008:	00000000 	nop
          num_bytes = 0;
9d00200c:	afc00004 	sw	zero,4(s8)
// send the pointer to your char array and the number of elements in the array
void NU32_ReadUART3(char * message, int maxLength) {
  char data = 0;
  int complete = 0, num_bytes = 0;
  // loop until you get a '\r' or '\n'
  while (!complete) {
9d002010:	8fc20000 	lw	v0,0(s8)
9d002014:	1040ffdc 	beqz	v0,9d001f88 <NU32_ReadUART3+0x28>
9d002018:	00000000 	nop
        }
      }
    }
  }
  // end the string
  message[num_bytes] = '\0';
9d00201c:	8fc20004 	lw	v0,4(s8)
9d002020:	8fc30018 	lw	v1,24(s8)
9d002024:	00621021 	addu	v0,v1,v0
9d002028:	a0400000 	sb	zero,0(v0)
}
9d00202c:	03c0e821 	move	sp,s8
9d002030:	8fbe0014 	lw	s8,20(sp)
9d002034:	27bd0018 	addiu	sp,sp,24
9d002038:	03e00008 	jr	ra
9d00203c:	00000000 	nop

9d002040 <NU32_WriteUART3>:

// Write a character array using UART3
void NU32_WriteUART3(const char * string) {
9d002040:	27bdfff8 	addiu	sp,sp,-8
9d002044:	afbe0004 	sw	s8,4(sp)
9d002048:	03a0f021 	move	s8,sp
9d00204c:	afc40008 	sw	a0,8(s8)
  while (*string != '\0') {
9d002050:	0b400824 	j	9d002090 <NU32_WriteUART3+0x50>
9d002054:	00000000 	nop
    while (U3STAbits.UTXBF) {
9d002058:	00000000 	nop
9d00205c:	3c02bf80 	lui	v0,0xbf80
9d002060:	8c426410 	lw	v0,25616(v0)
9d002064:	30420200 	andi	v0,v0,0x200
9d002068:	1440fffc 	bnez	v0,9d00205c <NU32_WriteUART3+0x1c>
9d00206c:	00000000 	nop
      ; // wait until tx buffer isn't full
    }
    U3TXREG = *string;
9d002070:	8fc20008 	lw	v0,8(s8)
9d002074:	80420000 	lb	v0,0(v0)
9d002078:	00401821 	move	v1,v0
9d00207c:	3c02bf80 	lui	v0,0xbf80
9d002080:	ac436420 	sw	v1,25632(v0)
    ++string;
9d002084:	8fc20008 	lw	v0,8(s8)
9d002088:	24420001 	addiu	v0,v0,1
9d00208c:	afc20008 	sw	v0,8(s8)
  message[num_bytes] = '\0';
}

// Write a character array using UART3
void NU32_WriteUART3(const char * string) {
  while (*string != '\0') {
9d002090:	8fc20008 	lw	v0,8(s8)
9d002094:	80420000 	lb	v0,0(v0)
9d002098:	1440ffef 	bnez	v0,9d002058 <NU32_WriteUART3+0x18>
9d00209c:	00000000 	nop
      ; // wait until tx buffer isn't full
    }
    U3TXREG = *string;
    ++string;
  }
}
9d0020a0:	03c0e821 	move	sp,s8
9d0020a4:	8fbe0004 	lw	s8,4(sp)
9d0020a8:	27bd0008 	addiu	sp,sp,8
9d0020ac:	03e00008 	jr	ra
9d0020b0:	00000000 	nop

Disassembly of section .text.general_exception:

9d0020b4 <_general_exception_context>:
9d0020b4:	27bdffa8 	addiu	sp,sp,-88
9d0020b8:	afa10004 	sw	at,4(sp)
9d0020bc:	afa20008 	sw	v0,8(sp)
9d0020c0:	afa3000c 	sw	v1,12(sp)
9d0020c4:	afa40010 	sw	a0,16(sp)
9d0020c8:	afa50014 	sw	a1,20(sp)
9d0020cc:	afa60018 	sw	a2,24(sp)
9d0020d0:	afa7001c 	sw	a3,28(sp)
9d0020d4:	afa80020 	sw	t0,32(sp)
9d0020d8:	afa90024 	sw	t1,36(sp)
9d0020dc:	afaa0028 	sw	t2,40(sp)
9d0020e0:	afab002c 	sw	t3,44(sp)
9d0020e4:	afac0030 	sw	t4,48(sp)
9d0020e8:	afad0034 	sw	t5,52(sp)
9d0020ec:	afae0038 	sw	t6,56(sp)
9d0020f0:	afaf003c 	sw	t7,60(sp)
9d0020f4:	afb80040 	sw	t8,64(sp)
9d0020f8:	afb90044 	sw	t9,68(sp)
9d0020fc:	afbf0048 	sw	ra,72(sp)
9d002100:	00004012 	mflo	t0
9d002104:	afa8004c 	sw	t0,76(sp)
9d002108:	00004010 	mfhi	t0
9d00210c:	afa80050 	sw	t0,80(sp)
9d002110:	3c1a9d00 	lui	k0,0x9d00
9d002114:	275a22f8 	addiu	k0,k0,8952
9d002118:	00000000 	nop
9d00211c:	40046800 	mfc0	a0,c0_cause
9d002120:	40056000 	mfc0	a1,c0_status
9d002124:	0340f809 	jalr	k0
9d002128:	00000000 	nop
9d00212c:	8fa80050 	lw	t0,80(sp)
9d002130:	01000011 	mthi	t0
9d002134:	8fa8004c 	lw	t0,76(sp)
9d002138:	01000013 	mtlo	t0
9d00213c:	8fa10004 	lw	at,4(sp)
9d002140:	8fa20008 	lw	v0,8(sp)
9d002144:	8fa3000c 	lw	v1,12(sp)
9d002148:	8fa40010 	lw	a0,16(sp)
9d00214c:	8fa50014 	lw	a1,20(sp)
9d002150:	8fa60018 	lw	a2,24(sp)
9d002154:	8fa7001c 	lw	a3,28(sp)
9d002158:	8fa80020 	lw	t0,32(sp)
9d00215c:	8fa90024 	lw	t1,36(sp)
9d002160:	8faa0028 	lw	t2,40(sp)
9d002164:	8fab002c 	lw	t3,44(sp)
9d002168:	8fac0030 	lw	t4,48(sp)
9d00216c:	8fad0034 	lw	t5,52(sp)
9d002170:	8fae0038 	lw	t6,56(sp)
9d002174:	8faf003c 	lw	t7,60(sp)
9d002178:	8fb80040 	lw	t8,64(sp)
9d00217c:	8fb90044 	lw	t9,68(sp)
9d002180:	8fbf0048 	lw	ra,72(sp)
9d002184:	27bd0058 	addiu	sp,sp,88
9d002188:	000000c0 	ehb
9d00218c:	42000018 	eret

Disassembly of section .text:

9d002190 <main>:
#include <stdio.h>
#include <math.h>

int main(void){
9d002190:	27bdffd8 	addiu	sp,sp,-40
9d002194:	afbf0024 	sw	ra,36(sp)
9d002198:	afbe0020 	sw	s8,32(sp)
9d00219c:	03a0f021 	move	s8,sp
int i = 131021/8 + 5, u;
9d0021a0:	24023ffe 	li	v0,16382
9d0021a4:	afc20014 	sw	v0,20(s8)

for (u=0;u<i;u++){
9d0021a8:	afc00010 	sw	zero,16(s8)
9d0021ac:	0b400874 	j	9d0021d0 <.LBE2+0xc>
9d0021b0:	00000000 	nop

9d0021b4 <.LBB2>:
  double x = u;
9d0021b4:	8fc40010 	lw	a0,16(s8)
9d0021b8:	0f40087f 	jal	9d0021fc <.LFE0>
9d0021bc:	00000000 	nop
9d0021c0:	afc20018 	sw	v0,24(s8)

9d0021c4 <.LBE2>:
#include <math.h>

int main(void){
int i = 131021/8 + 5, u;

for (u=0;u<i;u++){
9d0021c4:	8fc20010 	lw	v0,16(s8)
9d0021c8:	24420001 	addiu	v0,v0,1
9d0021cc:	afc20010 	sw	v0,16(s8)
9d0021d0:	8fc30010 	lw	v1,16(s8)
9d0021d4:	8fc20014 	lw	v0,20(s8)
9d0021d8:	0062102a 	slt	v0,v1,v0
9d0021dc:	1440fff5 	bnez	v0,9d0021b4 <.LBB2>
9d0021e0:	00000000 	nop
  double x = u;
}
}
9d0021e4:	03c0e821 	move	sp,s8
9d0021e8:	8fbf0024 	lw	ra,36(sp)
9d0021ec:	8fbe0020 	lw	s8,32(sp)
9d0021f0:	27bd0028 	addiu	sp,sp,40
9d0021f4:	03e00008 	jr	ra
9d0021f8:	00000000 	nop

Disassembly of section .text.sitofp:

9d0021fc <__floatsisf>:
9d0021fc:	3c018000 10800012 00813024 04810002     ...<....$0......
9d00220c:	00000000 00042023                       ....# ..

9d002214 <i40>:
9d002214:	2405009e 	li	a1,158
9d002218:	70873820 	clz	a3,a0
9d00221c:	00a72823 	subu	a1,a1,a3
9d002220:	00e42004 	sllv	a0,a0,a3
9d002224:	24840080 	addiu	a0,a0,128
9d002228:	2c880080 	sltiu	t0,a0,128
9d00222c:	00a82821 	addu	a1,a1,t0
9d002230:	00044203 	sra	t0,a0,0x8
9d002234:	31080001 	andi	t0,t0,0x1
9d002238:	00882023 	subu	a0,a0,t0
9d00223c:	00042040 	sll	a0,a0,0x1
9d002240:	00042242 	srl	a0,a0,0x9
9d002244:	000545c0 	sll	t0,a1,0x17
9d002248:	00882025 	or	a0,a0,t0

9d00224c <i39>:
9d00224c:	00861025 	or	v0,a0,a2

9d002250 <E999>:
9d002250:	03e00008 	jr	ra
9d002254:	00000000 	nop
9d002258:	00000000 	nop

Disassembly of section .text.main_entry:

9d00225c <_main_entry>:
9d00225c:	3c040000 	lui	a0,0x0
9d002260:	27bdffe8 	addiu	sp,sp,-24
9d002264:	24840000 	addiu	a0,a0,0
9d002268:	10800003 	beqz	a0,9d002278 <_main_entry+0x1c>
9d00226c:	afbf0014 	sw	ra,20(sp)
9d002270:	0080f809 	jalr	a0
9d002274:	00000000 	nop
9d002278:	30840000 	andi	a0,a0,0x0
9d00227c:	30a50000 	andi	a1,a1,0x0
9d002280:	3c089d00 	lui	t0,0x9d00
9d002284:	25082190 	addiu	t0,t0,8592
9d002288:	0100f809 	jalr	t0
9d00228c:	00000000 	nop

9d002290 <__crt0_exit>:
9d002290:	3c020000 24420000 10400003 00000000     ...<..B$..@.....
9d0022a0:	0040f809 00000000 1000fff9 00000000     ..@.............

Disassembly of section .text._bootstrap_exception_handler:

9d0022b0 <_bootstrap_exception_handler>:
9d0022b0:	3c020000 	lui	v0,0x0
9d0022b4:	24420000 	addiu	v0,v0,0
9d0022b8:	10400005 	beqz	v0,9d0022d0 <_bootstrap_exception_handler+0x20>
9d0022bc:	3c020000 	lui	v0,0x0
9d0022c0:	24420000 	addiu	v0,v0,0
9d0022c4:	10400003 	beqz	v0,9d0022d4 <_bootstrap_exception_handler+0x24>
9d0022c8:	3c029d00 	lui	v0,0x9d00
9d0022cc:	7000003f 	sdbbp
9d0022d0:	3c029d00 	lui	v0,0x9d00
9d0022d4:	24422388 	addiu	v0,v0,9096
9d0022d8:	10400005 	beqz	v0,9d0022f0 <_bootstrap_exception_handler+0x40>
9d0022dc:	00000000 	nop
9d0022e0:	27bdffe8 	addiu	sp,sp,-24
9d0022e4:	afbf0014 	sw	ra,20(sp)
9d0022e8:	0040f809 	jalr	v0
9d0022ec:	00000000 	nop
9d0022f0:	0b4008bc 	j	9d0022f0 <_bootstrap_exception_handler+0x40>
9d0022f4:	00000000 	nop

Disassembly of section .text._general_exception_handler:

9d0022f8 <_general_exception_handler>:
9d0022f8:	3c020000 	lui	v0,0x0
9d0022fc:	24420000 	addiu	v0,v0,0
9d002300:	10400005 	beqz	v0,9d002318 <_general_exception_handler+0x20>
9d002304:	3c020000 	lui	v0,0x0
9d002308:	24420000 	addiu	v0,v0,0
9d00230c:	10400003 	beqz	v0,9d00231c <_general_exception_handler+0x24>
9d002310:	3c029d00 	lui	v0,0x9d00
9d002314:	7000003f 	sdbbp
9d002318:	3c029d00 	lui	v0,0x9d00
9d00231c:	24422388 	addiu	v0,v0,9096
9d002320:	10400005 	beqz	v0,9d002338 <_general_exception_handler+0x40>
9d002324:	00000000 	nop
9d002328:	27bdffe8 	addiu	sp,sp,-24
9d00232c:	afbf0014 	sw	ra,20(sp)
9d002330:	0040f809 	jalr	v0
9d002334:	00000000 	nop
9d002338:	0b4008ce 	j	9d002338 <_general_exception_handler+0x40>
9d00233c:	00000000 	nop

Disassembly of section .vector_default:

9d002340 <_DefaultInterrupt>:
9d002340:	3c020000 	lui	v0,0x0
9d002344:	24420000 	addiu	v0,v0,0
9d002348:	10400007 	beqz	v0,9d002368 <_DefaultInterrupt+0x28>
9d00234c:	3c020000 	lui	v0,0x0
9d002350:	24420000 	addiu	v0,v0,0
9d002354:	50400005 	beqzl	v0,9d00236c <_DefaultInterrupt+0x2c>
9d002358:	3c029d00 	lui	v0,0x9d00
9d00235c:	7000003f 	sdbbp
9d002360:	03e00008 	jr	ra
9d002364:	00000000 	nop
9d002368:	3c029d00 	lui	v0,0x9d00
9d00236c:	24422388 	addiu	v0,v0,9096
9d002370:	10400003 	beqz	v0,9d002380 <_DefaultInterrupt+0x40>
9d002374:	00000000 	nop
9d002378:	0040f809 	jalr	v0
9d00237c:	00000000 	nop
9d002380:	03e00008 	jr	ra
9d002384:	00000000 	nop

Disassembly of section .text:

9d002388 <__pic32_software_reset>:
9d002388:	41606000 	di
9d00238c:	000000c0 	ehb
9d002390:	3c03aa99 	lui	v1,0xaa99
9d002394:	3c02bf81 	lui	v0,0xbf81
9d002398:	24636655 	addiu	v1,v1,26197
9d00239c:	ac40f230 	sw	zero,-3536(v0)
9d0023a0:	ac43f230 	sw	v1,-3536(v0)
9d0023a4:	3c035566 	lui	v1,0x5566
9d0023a8:	346399aa 	ori	v1,v1,0x99aa
9d0023ac:	ac43f230 	sw	v1,-3536(v0)
9d0023b0:	3c02bf81 	lui	v0,0xbf81
9d0023b4:	24030001 	li	v1,1
9d0023b8:	ac43f618 	sw	v1,-2536(v0)
9d0023bc:	3c02bf81 	lui	v0,0xbf81
9d0023c0:	8c42f610 	lw	v0,-2544(v0)
9d0023c4:	0b4008e4 	j	9d002390 <__pic32_software_reset+0x8>
9d0023c8:	00000000 	nop

9d0023cc <_nmi_handler>:
9d0023cc:	401a6000 	mfc0	k0,c0_status
9d0023d0:	3c1bffbf 	lui	k1,0xffbf
9d0023d4:	377bffff 	ori	k1,k1,0xffff
9d0023d8:	035bd024 	and	k0,k0,k1
9d0023dc:	409a6000 	mtc0	k0,c0_status
9d0023e0:	42000018 	eret

Disassembly of section .dinit:

9d0023e4 <.dinit>:
9d0023e4:	00000000 	nop
9d0023e8:	22222222 	addi	v0,s1,8738
9d0023ec:	22222222 	addi	v0,s1,8738
9d0023f0:	22222222 	addi	v0,s1,8738

Disassembly of section .text._on_reset:

9d0023f4 <_on_reset>:
9d0023f4:	03e00008 	jr	ra
9d0023f8:	00000000 	nop

Disassembly of section .text._on_bootstrap:

9d0023fc <_on_bootstrap>:
9d0023fc:	03e00008 	jr	ra
9d002400:	00000000 	nop
