
out.elf:     file format elf32-tradlittlemips


Disassembly of section .config_BFC02FF0:

bfc02ff0 <__config_BFC02FF0>:
bfc02ff0:	ff ff fe fa                                         ....

Disassembly of section .config_BFC02FF4:

bfc02ff4 <__config_BFC02FF4>:
bfc02ff4:	d9 79 f8 ff                                         .y..

Disassembly of section .config_BFC02FF8:

bfc02ff8 <__config_BFC02FF8>:
bfc02ff8:	db ce 6c ff                                         ..l.

Disassembly of section .config_BFC02FFC:

bfc02ffc <__config_BFC02FFC>:
bfc02ffc:	ff ff ff 7e                                         ...~

Disassembly of section .reset:

bd001970 <_reset>:
bd001970:	0f40065e 	jal	bd001978 <_startup>
bd001974:	00000000 	nop

bd001978 <_startup>:
bd001978:	401a6000 	mfc0	k0,c0_status
bd00197c:	7f5a04c0 	ext	k0,k0,0x13,0x1
bd001980:	13400005 	beqz	k0,bd001998 <_no_nmi>
bd001984:	00000000 	nop
bd001988:	3c1a9d01 	lui	k0,0x9d01
bd00198c:	275aa630 	addiu	k0,k0,-22992
bd001990:	03400008 	jr	k0
bd001994:	00000000 	nop

bd001998 <_no_nmi>:
bd001998:	3c1da002 	lui	sp,0xa002
bd00199c:	27bdfff0 	addiu	sp,sp,-16
bd0019a0:	3c1ca000 	lui	gp,0xa000
bd0019a4:	279c7ff0 	addiu	gp,gp,32752
bd0019a8:	40096002 	mfc0	t1,c0_srsctl
bd0019ac:	01205820 	add	t3,t1,zero
bd0019b0:	7d2a1e80 	ext	t2,t1,0x1a,0x4
bd0019b4:	7d494984 	ins	t1,t2,0x6,0x4
bd0019b8:	40896002 	mtc0	t1,c0_srsctl
bd0019bc:	000000c0 	ehb
bd0019c0:	41dce000 	wrpgpr	gp,gp
bd0019c4:	408b6002 	mtc0	t3,c0_srsctl
bd0019c8:	000000c0 	ehb
bd0019cc:	3c089d01 	lui	t0,0x9d01
bd0019d0:	2508a77c 	addiu	t0,t0,-22660
bd0019d4:	0100f809 	jalr	t0
bd0019d8:	00000000 	nop
bd0019dc:	3c08a000 	lui	t0,0xa000
bd0019e0:	25080004 	addiu	t0,t0,4
bd0019e4:	3c09a000 	lui	t1,0xa000
bd0019e8:	25290004 	addiu	t1,t1,4
bd0019ec:	10000006 	b	bd001a08 <_bss_check>
bd0019f0:	00000000 	nop

bd0019f4 <_bss_init>:
bd0019f4:	ad000000 	sw	zero,0(t0)
bd0019f8:	ad000004 	sw	zero,4(t0)
bd0019fc:	ad000008 	sw	zero,8(t0)
bd001a00:	ad00000c 	sw	zero,12(t0)
bd001a04:	25080010 	addiu	t0,t0,16

bd001a08 <_bss_check>:
bd001a08:	0109082b 	sltu	at,t0,t1
bd001a0c:	1420fff9 	bnez	at,bd0019f4 <_bss_init>
bd001a10:	00000000 	nop

bd001a14 <_dinit_init>:
bd001a14:	3c089d01 	lui	t0,0x9d01
bd001a18:	250894e8 	addiu	t0,t0,-27416
bd001a1c:	8d090000 	lw	t1,0(t0)
bd001a20:	11200018 	beqz	t1,bd001a84 <_dinit_end+0x18>
bd001a24:	25080004 	addiu	t0,t0,4
bd001a28:	8d0a0000 	lw	t2,0(t0)
bd001a2c:	25080004 	addiu	t0,t0,4
bd001a30:	8d0b0000 	lw	t3,0(t0)
bd001a34:	11600009 	beqz	t3,bd001a5c <_dinit_clear>
bd001a38:	25080004 	addiu	t0,t0,4

bd001a3c <_dinit_copy>:
bd001a3c:	910c0000 	lbu	t4,0(t0)
bd001a40:	254affff 	addiu	t2,t2,-1
bd001a44:	25080001 	addiu	t0,t0,1
bd001a48:	a12c0000 	sb	t4,0(t1)
bd001a4c:	1540fffb 	bnez	t2,bd001a3c <_dinit_copy>
bd001a50:	25290001 	addiu	t1,t1,1
bd001a54:	10000005 	b	bd001a6c <_dinit_end>
bd001a58:	00000000 	nop

bd001a5c <_dinit_clear>:
bd001a5c:	a1200000 	sb	zero,0(t1)
bd001a60:	254affff 	addiu	t2,t2,-1
bd001a64:	1540fffd 	bnez	t2,bd001a5c <_dinit_clear>
bd001a68:	25290001 	addiu	t1,t1,1

bd001a6c <_dinit_end>:
bd001a6c:	25080003 	addiu	t0,t0,3
bd001a70:	240afffc 	li	t2,-4
bd001a74:	01484024 	and	t0,t2,t0
bd001a78:	8d090000 	lw	t1,0(t0)
bd001a7c:	1520ffe7 	bnez	t1,bd001a1c <_dinit_init+0x8>
bd001a80:	00000000 	nop
bd001a84:	3c090000 	lui	t1,0x0
bd001a88:	25290000 	addiu	t1,t1,0
bd001a8c:	11200010 	beqz	t1,bd001ad0 <_ramfunc_done>
bd001a90:	00000000 	nop
bd001a94:	3c090002 	lui	t1,0x2
bd001a98:	25290000 	addiu	t1,t1,0
bd001a9c:	3c0abf88 	lui	t2,0xbf88
bd001aa0:	254a2010 	addiu	t2,t2,8208
bd001aa4:	ad490000 	sw	t1,0(t2)
bd001aa8:	3c090002 	lui	t1,0x2
bd001aac:	25290000 	addiu	t1,t1,0
bd001ab0:	3c0abf88 	lui	t2,0xbf88
bd001ab4:	254a2020 	addiu	t2,t2,8224
bd001ab8:	ad490000 	sw	t1,0(t2)
bd001abc:	3c090002 	lui	t1,0x2
bd001ac0:	25290000 	addiu	t1,t1,0
bd001ac4:	3c0abf88 	lui	t2,0xbf88
bd001ac8:	254a2030 	addiu	t2,t2,8240
bd001acc:	ad490000 	sw	t1,0(t2)

bd001ad0 <_ramfunc_done>:
bd001ad0:	40804800 	mtc0	zero,c0_count
bd001ad4:	240affff 	li	t2,-1
bd001ad8:	408a5800 	mtc0	t2,c0_compare
bd001adc:	3c099d00 	lui	t1,0x9d00
bd001ae0:	25290000 	addiu	t1,t1,0
bd001ae4:	40897801 	mtc0	t1,c0_ebase
bd001ae8:	3c090000 	lui	t1,0x0
bd001aec:	25290001 	addiu	t1,t1,1
bd001af0:	240a0000 	li	t2,0
bd001af4:	7d2a4944 	ins	t2,t1,0x5,0x5
bd001af8:	408a6001 	mtc0	t2,c0_intctl
bd001afc:	3c090080 	lui	t1,0x80
bd001b00:	40896800 	mtc0	t1,c0_cause
bd001b04:	40088000 	mfc0	t0,c0_config
bd001b08:	7d090580 	ext	t1,t0,0x16,0x1
bd001b0c:	00094c40 	sll	t1,t1,0x11
bd001b10:	40086000 	mfc0	t0,c0_status
bd001b14:	3c010058 	lui	at,0x58
bd001b18:	01014024 	and	t0,t0,at
bd001b1c:	01284025 	or	t0,t1,t0
bd001b20:	40886000 	mtc0	t0,c0_status
bd001b24:	000000c0 	ehb
bd001b28:	3c089d01 	lui	t0,0x9d01
bd001b2c:	2508a784 	addiu	t0,t0,-22652
bd001b30:	0100f809 	jalr	t0
bd001b34:	00000000 	nop
bd001b38:	40086000 	mfc0	t0,c0_status
bd001b3c:	3c01ffbf 	lui	at,0xffbf
bd001b40:	3421ffff 	ori	at,at,0xffff
bd001b44:	01014024 	and	t0,t0,at
bd001b48:	40886000 	mtc0	t0,c0_status
bd001b4c:	30840000 	andi	a0,a0,0x0
bd001b50:	30a50000 	andi	a1,a1,0x0
bd001b54:	3c089d01 	lui	t0,0x9d01
bd001b58:	2508a1ec 	addiu	t0,t0,-24084
bd001b5c:	01000008 	jr	t0
bd001b60:	00000000 	nop

Disassembly of section .bev_excpt:

bd001cf0 <_bev_exception>:
bd001cf0:	3c1a9d01 	lui	k0,0x9d01
bd001cf4:	275aa32c 	addiu	k0,k0,-23764
bd001cf8:	03400008 	jr	k0
bd001cfc:	00000000 	nop

Disassembly of section .app_excpt:

9d000180 <_gen_exception>:
9d000180:	3c1a9d01 	lui	k0,0x9d01
9d000184:	275a97a0 	addiu	k0,k0,-26720
9d000188:	03400008 	jr	k0
9d00018c:	00000000 	nop

Disassembly of section .vector_0:

9d000200 <__vector_dispatch_0>:
9d000200:	0b4028ef 	j	9d00a3bc <.LFE0>
9d000204:	00000000 	nop

Disassembly of section .vector_1:

9d000220 <__vector_dispatch_1>:
9d000220:	0b4028ef 	j	9d00a3bc <.LFE0>
9d000224:	00000000 	nop

Disassembly of section .vector_2:

9d000240 <__vector_dispatch_2>:
9d000240:	0b4028ef 	j	9d00a3bc <.LFE0>
9d000244:	00000000 	nop

Disassembly of section .vector_3:

9d000260 <__vector_dispatch_3>:
9d000260:	0b4028ef 	j	9d00a3bc <.LFE0>
9d000264:	00000000 	nop

Disassembly of section .vector_4:

9d000280 <__vector_dispatch_4>:
9d000280:	0b4028ef 	j	9d00a3bc <.LFE0>
9d000284:	00000000 	nop

Disassembly of section .vector_5:

9d0002a0 <__vector_dispatch_5>:
9d0002a0:	0b4028ef 	j	9d00a3bc <.LFE0>
9d0002a4:	00000000 	nop

Disassembly of section .vector_6:

9d0002c0 <__vector_dispatch_6>:
9d0002c0:	0b4028ef 	j	9d00a3bc <.LFE0>
9d0002c4:	00000000 	nop

Disassembly of section .vector_7:

9d0002e0 <__vector_dispatch_7>:
9d0002e0:	0b4028ef 	j	9d00a3bc <.LFE0>
9d0002e4:	00000000 	nop

Disassembly of section .vector_8:

9d000300 <__vector_dispatch_8>:
9d000300:	0b4028ef 	j	9d00a3bc <.LFE0>
9d000304:	00000000 	nop

Disassembly of section .vector_9:

9d000320 <__vector_dispatch_9>:
9d000320:	0b4028ef 	j	9d00a3bc <.LFE0>
9d000324:	00000000 	nop

Disassembly of section .vector_10:

9d000340 <__vector_dispatch_10>:
9d000340:	0b4028ef 	j	9d00a3bc <.LFE0>
9d000344:	00000000 	nop

Disassembly of section .vector_11:

9d000360 <__vector_dispatch_11>:
9d000360:	0b4028ef 	j	9d00a3bc <.LFE0>
9d000364:	00000000 	nop

Disassembly of section .vector_12:

9d000380 <__vector_dispatch_12>:
9d000380:	0b4028ef 	j	9d00a3bc <.LFE0>
9d000384:	00000000 	nop

Disassembly of section .vector_13:

9d0003a0 <__vector_dispatch_13>:
9d0003a0:	0b4028ef 	j	9d00a3bc <.LFE0>
9d0003a4:	00000000 	nop

Disassembly of section .vector_14:

9d0003c0 <__vector_dispatch_14>:
9d0003c0:	0b4028ef 	j	9d00a3bc <.LFE0>
9d0003c4:	00000000 	nop

Disassembly of section .vector_15:

9d0003e0 <__vector_dispatch_15>:
9d0003e0:	0b4028ef 	j	9d00a3bc <.LFE0>
9d0003e4:	00000000 	nop

Disassembly of section .vector_16:

9d000400 <__vector_dispatch_16>:
9d000400:	0b4028ef 	j	9d00a3bc <.LFE0>
9d000404:	00000000 	nop

Disassembly of section .vector_17:

9d000420 <__vector_dispatch_17>:
9d000420:	0b4028ef 	j	9d00a3bc <.LFE0>
9d000424:	00000000 	nop

Disassembly of section .vector_18:

9d000440 <__vector_dispatch_18>:
9d000440:	0b4028ef 	j	9d00a3bc <.LFE0>
9d000444:	00000000 	nop

Disassembly of section .vector_19:

9d000460 <__vector_dispatch_19>:
9d000460:	0b4028ef 	j	9d00a3bc <.LFE0>
9d000464:	00000000 	nop

Disassembly of section .vector_20:

9d000480 <__vector_dispatch_20>:
9d000480:	0b4028ef 	j	9d00a3bc <.LFE0>
9d000484:	00000000 	nop

Disassembly of section .vector_21:

9d0004a0 <__vector_dispatch_21>:
9d0004a0:	0b4028ef 	j	9d00a3bc <.LFE0>
9d0004a4:	00000000 	nop

Disassembly of section .vector_22:

9d0004c0 <__vector_dispatch_22>:
9d0004c0:	0b4028ef 	j	9d00a3bc <.LFE0>
9d0004c4:	00000000 	nop

Disassembly of section .vector_23:

9d0004e0 <__vector_dispatch_23>:
9d0004e0:	0b4028ef 	j	9d00a3bc <.LFE0>
9d0004e4:	00000000 	nop

Disassembly of section .vector_24:

9d000500 <__vector_dispatch_24>:
9d000500:	0b4028ef 	j	9d00a3bc <.LFE0>
9d000504:	00000000 	nop

Disassembly of section .vector_25:

9d000520 <__vector_dispatch_25>:
9d000520:	0b4028ef 	j	9d00a3bc <.LFE0>
9d000524:	00000000 	nop

Disassembly of section .vector_26:

9d000540 <__vector_dispatch_26>:
9d000540:	0b4028ef 	j	9d00a3bc <.LFE0>
9d000544:	00000000 	nop

Disassembly of section .vector_27:

9d000560 <__vector_dispatch_27>:
9d000560:	0b4028ef 	j	9d00a3bc <.LFE0>
9d000564:	00000000 	nop

Disassembly of section .vector_28:

9d000580 <__vector_dispatch_28>:
9d000580:	0b4028ef 	j	9d00a3bc <.LFE0>
9d000584:	00000000 	nop

Disassembly of section .vector_29:

9d0005a0 <__vector_dispatch_29>:
9d0005a0:	0b4028ef 	j	9d00a3bc <.LFE0>
9d0005a4:	00000000 	nop

Disassembly of section .vector_30:

9d0005c0 <__vector_dispatch_30>:
9d0005c0:	0b4028ef 	j	9d00a3bc <.LFE0>
9d0005c4:	00000000 	nop

Disassembly of section .vector_31:

9d0005e0 <__vector_dispatch_31>:
9d0005e0:	0b4028ef 	j	9d00a3bc <.LFE0>
9d0005e4:	00000000 	nop

Disassembly of section .vector_32:

9d000600 <__vector_dispatch_32>:
9d000600:	0b4028ef 	j	9d00a3bc <.LFE0>
9d000604:	00000000 	nop

Disassembly of section .vector_33:

9d000620 <__vector_dispatch_33>:
9d000620:	0b4028ef 	j	9d00a3bc <.LFE0>
9d000624:	00000000 	nop

Disassembly of section .vector_34:

9d000640 <__vector_dispatch_34>:
9d000640:	0b4028ef 	j	9d00a3bc <.LFE0>
9d000644:	00000000 	nop

Disassembly of section .vector_35:

9d000660 <__vector_dispatch_35>:
9d000660:	0b4028ef 	j	9d00a3bc <.LFE0>
9d000664:	00000000 	nop

Disassembly of section .vector_36:

9d000680 <__vector_dispatch_36>:
9d000680:	0b4028ef 	j	9d00a3bc <.LFE0>
9d000684:	00000000 	nop

Disassembly of section .vector_37:

9d0006a0 <__vector_dispatch_37>:
9d0006a0:	0b4028ef 	j	9d00a3bc <.LFE0>
9d0006a4:	00000000 	nop

Disassembly of section .vector_38:

9d0006c0 <__vector_dispatch_38>:
9d0006c0:	0b4028ef 	j	9d00a3bc <.LFE0>
9d0006c4:	00000000 	nop

Disassembly of section .vector_39:

9d0006e0 <__vector_dispatch_39>:
9d0006e0:	0b4028ef 	j	9d00a3bc <.LFE0>
9d0006e4:	00000000 	nop

Disassembly of section .vector_40:

9d000700 <__vector_dispatch_40>:
9d000700:	0b4028ef 	j	9d00a3bc <.LFE0>
9d000704:	00000000 	nop

Disassembly of section .vector_41:

9d000720 <__vector_dispatch_41>:
9d000720:	0b4028ef 	j	9d00a3bc <.LFE0>
9d000724:	00000000 	nop

Disassembly of section .vector_42:

9d000740 <__vector_dispatch_42>:
9d000740:	0b4028ef 	j	9d00a3bc <.LFE0>
9d000744:	00000000 	nop

Disassembly of section .vector_43:

9d000760 <__vector_dispatch_43>:
9d000760:	0b4028ef 	j	9d00a3bc <.LFE0>
9d000764:	00000000 	nop

Disassembly of section .vector_44:

9d000780 <__vector_dispatch_44>:
9d000780:	0b4028ef 	j	9d00a3bc <.LFE0>
9d000784:	00000000 	nop

Disassembly of section .vector_45:

9d0007a0 <__vector_dispatch_45>:
9d0007a0:	0b4028ef 	j	9d00a3bc <.LFE0>
9d0007a4:	00000000 	nop

Disassembly of section .vector_46:

9d0007c0 <__vector_dispatch_46>:
9d0007c0:	0b4028ef 	j	9d00a3bc <.LFE0>
9d0007c4:	00000000 	nop

Disassembly of section .vector_47:

9d0007e0 <__vector_dispatch_47>:
9d0007e0:	0b4028ef 	j	9d00a3bc <.LFE0>
9d0007e4:	00000000 	nop

Disassembly of section .vector_48:

9d000800 <__vector_dispatch_48>:
9d000800:	0b4028ef 	j	9d00a3bc <.LFE0>
9d000804:	00000000 	nop

Disassembly of section .vector_49:

9d000820 <__vector_dispatch_49>:
9d000820:	0b4028ef 	j	9d00a3bc <.LFE0>
9d000824:	00000000 	nop

Disassembly of section .vector_50:

9d000840 <__vector_dispatch_50>:
9d000840:	0b4028ef 	j	9d00a3bc <.LFE0>
9d000844:	00000000 	nop

Disassembly of section .vector_51:

9d000860 <__vector_dispatch_51>:
9d000860:	0b4028ef 	j	9d00a3bc <.LFE0>
9d000864:	00000000 	nop

Disassembly of section ._debug_exception:

bfc00480 <__DbgExecReturn>:
bfc00480:	409bf800 	mtc0	k1,c0_desave
bfc00484:	000000c0 	ehb
bfc00488:	3c1b9d01 	lui	k1,0x9d01
bfc0048c:	277ba44c 	addiu	k1,k1,-23476
bfc00490:	13600002 	beqz	k1,bfc0049c <__DbgExecReturn+0x1c>
bfc00494:	00000000 	nop
bfc00498:	409bc000 	mtc0	k1,c0_depc
bfc0049c:	401bf800 	mfc0	k1,c0_desave
bfc004a0:	000000c0 	ehb
bfc004a4:	4200001f 	deret
bfc004a8:	00000000 	nop

Disassembly of section .text.vfprintf:

9d001e00 <vfprintf>:
9d001e00:	27bdffa8 	addiu	sp,sp,-88
9d001e04:	afbf0054 	sw	ra,84(sp)
9d001e08:	afbe0050 	sw	s8,80(sp)
9d001e0c:	afb7004c 	sw	s7,76(sp)
9d001e10:	afb60048 	sw	s6,72(sp)
9d001e14:	afb50044 	sw	s5,68(sp)
9d001e18:	afb40040 	sw	s4,64(sp)
9d001e1c:	afb3003c 	sw	s3,60(sp)
9d001e20:	afb20038 	sw	s2,56(sp)
9d001e24:	afb10034 	sw	s1,52(sp)
9d001e28:	afb00030 	sw	s0,48(sp)
9d001e2c:	00809021 	move	s2,a0
9d001e30:	00a08821 	move	s1,a1
9d001e34:	afa60060 	sw	a2,96(sp)
9d001e38:	00001021 	move	v0,zero
9d001e3c:	afa20028 	sw	v0,40(sp)
9d001e40:	00008021 	move	s0,zero
9d001e44:	82240000 	lb	a0,0(s1)
9d001e48:	26330001 	addiu	s3,s1,1
9d001e4c:	108000e0 	beqz	a0,9d0021d0 <vfprintf+0x3d0>
9d001e50:	a3a40016 	sb	a0,22(sp)
9d001e54:	24020025 	li	v0,37
9d001e58:	148200ea 	bne	a0,v0,9d002204 <vfprintf+0x404>
9d001e5c:	26220002 	addiu	v0,s1,2
9d001e60:	0000a021 	move	s4,zero
9d001e64:	8048ffff 	lb	t0,-1(v0)
9d001e68:	2503ffe0 	addiu	v1,t0,-32
9d001e6c:	306300ff 	andi	v1,v1,0xff
9d001e70:	2c640011 	sltiu	a0,v1,17
9d001e74:	10800021 	beqz	a0,9d001efc <vfprintf+0xfc>
9d001e78:	2451ffff 	addiu	s1,v0,-1
9d001e7c:	00031880 	sll	v1,v1,0x2
9d001e80:	3c049d00 	lui	a0,0x9d00
9d001e84:	24841e98 	addiu	a0,a0,7832
9d001e88:	00831821 	addu	v1,a0,v1
9d001e8c:	8c630000 	lw	v1,0(v1)
9d001e90:	00600008 	jr	v1
9d001e94:	00000000 	nop
9d001e98:	9d0021c4 	0x9d0021c4
9d001e9c:	9d001efc 	0x9d001efc
9d001ea0:	9d001efc 	0x9d001efc
9d001ea4:	9d0021b8 	0x9d0021b8
9d001ea8:	9d001efc 	0x9d001efc
9d001eac:	9d001efc 	0x9d001efc
9d001eb0:	9d001efc 	0x9d001efc
9d001eb4:	9d001efc 	0x9d001efc
9d001eb8:	9d001efc 	0x9d001efc
9d001ebc:	9d001efc 	0x9d001efc
9d001ec0:	9d001efc 	0x9d001efc
9d001ec4:	9d0021ac 	0x9d0021ac
9d001ec8:	9d001efc 	0x9d001efc
9d001ecc:	9d0021a0 	0x9d0021a0
9d001ed0:	9d001efc 	0x9d001efc
9d001ed4:	9d001efc 	0x9d001efc
9d001ed8:	9d001edc 	0x9d001edc
9d001edc:	36940004 	ori	s4,s4,0x4
9d001ee0:	24420001 	addiu	v0,v0,1
9d001ee4:	8048ffff 	lb	t0,-1(v0)
9d001ee8:	2503ffe0 	addiu	v1,t0,-32
9d001eec:	306300ff 	andi	v1,v1,0xff
9d001ef0:	2c640011 	sltiu	a0,v1,17
9d001ef4:	1480ffe1 	bnez	a0,9d001e7c <vfprintf+0x7c>
9d001ef8:	2451ffff 	addiu	s1,v0,-1
9d001efc:	3c059d01 	lui	a1,0x9d01
9d001f00:	24a591e1 	addiu	a1,a1,-28191
9d001f04:	00a81021 	addu	v0,a1,t0
9d001f08:	90420000 	lbu	v0,0(v0)
9d001f0c:	32840002 	andi	a0,s4,0x2
9d001f10:	3283fffe 	andi	v1,s4,0xfffe
9d001f14:	0064a00b 	movn	s4,v1,a0
9d001f18:	32840008 	andi	a0,s4,0x8
9d001f1c:	3283fffb 	andi	v1,s4,0xfffb
9d001f20:	30420004 	andi	v0,v0,0x4
9d001f24:	02202821 	move	a1,s1
9d001f28:	104000bd 	beqz	v0,9d002220 <vfprintf+0x420>
9d001f2c:	0064a00b 	movn	s4,v1,a0
9d001f30:	0100a821 	move	s5,t0
9d001f34:	0b4007d0 	j	9d001f40 <vfprintf+0x140>
9d001f38:	0000f021 	move	s8,zero
9d001f3c:	0040a821 	move	s5,v0
9d001f40:	26310001 	addiu	s1,s1,1
9d001f44:	82220000 	lb	v0,0(s1)
9d001f48:	001e2040 	sll	a0,s8,0x1
9d001f4c:	001eb0c0 	sll	s6,s8,0x3
9d001f50:	3c079d01 	lui	a3,0x9d01
9d001f54:	24e791e1 	addiu	a3,a3,-28191
9d001f58:	00e21821 	addu	v1,a3,v0
9d001f5c:	90630000 	lbu	v1,0(v1)
9d001f60:	0096b021 	addu	s6,a0,s6
9d001f64:	02d54021 	addu	t0,s6,s5
9d001f68:	30630004 	andi	v1,v1,0x4
9d001f6c:	1460fff3 	bnez	v1,9d001f3c <vfprintf+0x13c>
9d001f70:	251effd0 	addiu	s8,t0,-48
9d001f74:	2403002e 	li	v1,46
9d001f78:	504300b0 	beql	v0,v1,9d00223c <vfprintf+0x43c>
9d001f7c:	82220001 	lb	v0,1(s1)
9d001f80:	36941000 	ori	s4,s4,0x1000
9d001f84:	00009821 	move	s3,zero
9d001f88:	3c079d00 	lui	a3,0x9d00
9d001f8c:	24e51fbc 	addiu	a1,a3,8124
9d001f90:	24070010 	li	a3,16
9d001f94:	34068000 	li	a2,0x8000
9d001f98:	304300ff 	andi	v1,v0,0xff
9d001f9c:	2c640079 	sltiu	a0,v1,121
9d001fa0:	1080029d 	beqz	a0,9d002a18 <vfprintf+0xc18>
9d001fa4:	26310001 	addiu	s1,s1,1
9d001fa8:	00031880 	sll	v1,v1,0x2
9d001fac:	00a31821 	addu	v1,a1,v1
9d001fb0:	8c630000 	lw	v1,0(v1)
9d001fb4:	00600008 	jr	v1
9d001fb8:	00000000 	nop
9d001fbc:	9d0021d0 	0x9d0021d0
9d001fc0:	9d002a18 	0x9d002a18
9d001fc4:	9d002a18 	0x9d002a18
9d001fc8:	9d002a18 	0x9d002a18
9d001fcc:	9d002a18 	0x9d002a18
9d001fd0:	9d002a18 	0x9d002a18
9d001fd4:	9d002a18 	0x9d002a18
9d001fd8:	9d002a18 	0x9d002a18
9d001fdc:	9d002a18 	0x9d002a18
9d001fe0:	9d002a18 	0x9d002a18
9d001fe4:	9d002a18 	0x9d002a18
9d001fe8:	9d002a18 	0x9d002a18
9d001fec:	9d002a18 	0x9d002a18
9d001ff0:	9d002a18 	0x9d002a18
9d001ff4:	9d002a18 	0x9d002a18
9d001ff8:	9d002a18 	0x9d002a18
9d001ffc:	9d002a18 	0x9d002a18
9d002000:	9d002a18 	0x9d002a18
9d002004:	9d002a18 	0x9d002a18
9d002008:	9d002a18 	0x9d002a18
9d00200c:	9d002a18 	0x9d002a18
9d002010:	9d002a18 	0x9d002a18
9d002014:	9d002a18 	0x9d002a18
9d002018:	9d002a18 	0x9d002a18
9d00201c:	9d002a18 	0x9d002a18
9d002020:	9d002a18 	0x9d002a18
9d002024:	9d002a18 	0x9d002a18
9d002028:	9d002a18 	0x9d002a18
9d00202c:	9d002a18 	0x9d002a18
9d002030:	9d002a18 	0x9d002a18
9d002034:	9d002a18 	0x9d002a18
9d002038:	9d002a18 	0x9d002a18
9d00203c:	9d002a18 	0x9d002a18
9d002040:	9d002a18 	0x9d002a18
9d002044:	9d002a18 	0x9d002a18
9d002048:	9d002a18 	0x9d002a18
9d00204c:	9d002a18 	0x9d002a18
9d002050:	9d002a18 	0x9d002a18
9d002054:	9d002a18 	0x9d002a18
9d002058:	9d002a18 	0x9d002a18
9d00205c:	9d002a18 	0x9d002a18
9d002060:	9d002a18 	0x9d002a18
9d002064:	9d002a18 	0x9d002a18
9d002068:	9d002a18 	0x9d002a18
9d00206c:	9d002a18 	0x9d002a18
9d002070:	9d002a18 	0x9d002a18
9d002074:	9d002a18 	0x9d002a18
9d002078:	9d002a18 	0x9d002a18
9d00207c:	9d002a18 	0x9d002a18
9d002080:	9d002a18 	0x9d002a18
9d002084:	9d002a18 	0x9d002a18
9d002088:	9d002a18 	0x9d002a18
9d00208c:	9d002a18 	0x9d002a18
9d002090:	9d002a18 	0x9d002a18
9d002094:	9d002a18 	0x9d002a18
9d002098:	9d002a18 	0x9d002a18
9d00209c:	9d002a18 	0x9d002a18
9d0020a0:	9d002a18 	0x9d002a18
9d0020a4:	9d002a18 	0x9d002a18
9d0020a8:	9d002a18 	0x9d002a18
9d0020ac:	9d002a18 	0x9d002a18
9d0020b0:	9d002a18 	0x9d002a18
9d0020b4:	9d002a18 	0x9d002a18
9d0020b8:	9d002a18 	0x9d002a18
9d0020bc:	9d002a18 	0x9d002a18
9d0020c0:	9d002a18 	0x9d002a18
9d0020c4:	9d002a18 	0x9d002a18
9d0020c8:	9d002a18 	0x9d002a18
9d0020cc:	9d002a18 	0x9d002a18
9d0020d0:	9d002a3c 	0x9d002a3c
9d0020d4:	9d002a18 	0x9d002a18
9d0020d8:	9d002a28 	0x9d002a28
9d0020dc:	9d002a18 	0x9d002a18
9d0020e0:	9d002a18 	0x9d002a18
9d0020e4:	9d002a18 	0x9d002a18
9d0020e8:	9d002a18 	0x9d002a18
9d0020ec:	9d002a18 	0x9d002a18
9d0020f0:	9d002a18 	0x9d002a18
9d0020f4:	9d002a18 	0x9d002a18
9d0020f8:	9d002a18 	0x9d002a18
9d0020fc:	9d002a18 	0x9d002a18
9d002100:	9d002a18 	0x9d002a18
9d002104:	9d002a18 	0x9d002a18
9d002108:	9d002a18 	0x9d002a18
9d00210c:	9d002a18 	0x9d002a18
9d002110:	9d002a18 	0x9d002a18
9d002114:	9d002a18 	0x9d002a18
9d002118:	9d002a18 	0x9d002a18
9d00211c:	9d0029c8 	0x9d0029c8
9d002120:	9d002a18 	0x9d002a18
9d002124:	9d002a18 	0x9d002a18
9d002128:	9d002a18 	0x9d002a18
9d00212c:	9d002a18 	0x9d002a18
9d002130:	9d002a18 	0x9d002a18
9d002134:	9d002a18 	0x9d002a18
9d002138:	9d002a18 	0x9d002a18
9d00213c:	9d002a18 	0x9d002a18
9d002140:	9d002a18 	0x9d002a18
9d002144:	9d002a18 	0x9d002a18
9d002148:	9d002970 	0x9d002970
9d00214c:	9d002968 	0x9d002968
9d002150:	9d002958 	0x9d002958
9d002154:	9d0029e4 	0x9d0029e4
9d002158:	9d0029d4 	0x9d0029d4
9d00215c:	9d002a18 	0x9d002a18
9d002160:	9d002968 	0x9d002968
9d002164:	9d002a18 	0x9d002a18
9d002168:	9d002a18 	0x9d002a18
9d00216c:	9d0029f4 	0x9d0029f4
9d002170:	9d002a18 	0x9d002a18
9d002174:	9d002a18 	0x9d002a18
9d002178:	9d002948 	0x9d002948
9d00217c:	9d0029c8 	0x9d0029c8
9d002180:	9d002a18 	0x9d002a18
9d002184:	9d002a18 	0x9d002a18
9d002188:	9d002850 	0x9d002850
9d00218c:	9d002a18 	0x9d002a18
9d002190:	9d0026e0 	0x9d0026e0
9d002194:	9d002a18 	0x9d002a18
9d002198:	9d002a18 	0x9d002a18
9d00219c:	9d0022c4 	0x9d0022c4
9d0021a0:	36940008 	ori	s4,s4,0x8
9d0021a4:	0b4007b9 	j	9d001ee4 <vfprintf+0xe4>
9d0021a8:	24420001 	addiu	v0,v0,1
9d0021ac:	36940002 	ori	s4,s4,0x2
9d0021b0:	0b4007b9 	j	9d001ee4 <vfprintf+0xe4>
9d0021b4:	24420001 	addiu	v0,v0,1
9d0021b8:	36940800 	ori	s4,s4,0x800
9d0021bc:	0b4007b9 	j	9d001ee4 <vfprintf+0xe4>
9d0021c0:	24420001 	addiu	v0,v0,1
9d0021c4:	36940001 	ori	s4,s4,0x1
9d0021c8:	0b4007b9 	j	9d001ee4 <vfprintf+0xe4>
9d0021cc:	24420001 	addiu	v0,v0,1
9d0021d0:	02001021 	move	v0,s0
9d0021d4:	8fbf0054 	lw	ra,84(sp)
9d0021d8:	8fbe0050 	lw	s8,80(sp)
9d0021dc:	8fb7004c 	lw	s7,76(sp)
9d0021e0:	8fb60048 	lw	s6,72(sp)
9d0021e4:	8fb50044 	lw	s5,68(sp)
9d0021e8:	8fb40040 	lw	s4,64(sp)
9d0021ec:	8fb3003c 	lw	s3,60(sp)
9d0021f0:	8fb20038 	lw	s2,56(sp)
9d0021f4:	8fb10034 	lw	s1,52(sp)
9d0021f8:	8fb00030 	lw	s0,48(sp)
9d0021fc:	03e00008 	jr	ra
9d002200:	27bd0058 	addiu	sp,sp,88
9d002204:	0f40239b 	jal	9d008e6c <.LFE0>
9d002208:	02402821 	move	a1,s2
9d00220c:	2403ffff 	li	v1,-1
9d002210:	1043ff0c 	beq	v0,v1,9d001e44 <vfprintf+0x44>
9d002214:	02608821 	move	s1,s3
9d002218:	0b400791 	j	9d001e44 <vfprintf+0x44>
9d00221c:	26100001 	addiu	s0,s0,1
9d002220:	2402002a 	li	v0,42
9d002224:	1102001f 	beq	t0,v0,9d0022a4 <vfprintf+0x4a4>
9d002228:	2403002e 	li	v1,46
9d00222c:	01001021 	move	v0,t0
9d002230:	1443ff53 	bne	v0,v1,9d001f80 <vfprintf+0x180>
9d002234:	0000f021 	move	s8,zero
9d002238:	82220001 	lb	v0,1(s1)
9d00223c:	2403002a 	li	v1,42
9d002240:	10430513 	beq	v0,v1,9d003690 <vfprintf+0x1890>
9d002244:	36944000 	ori	s4,s4,0x4000
9d002248:	3c049d01 	lui	a0,0x9d01
9d00224c:	248491e1 	addiu	a0,a0,-28191
9d002250:	00821821 	addu	v1,a0,v0
9d002254:	90630000 	lbu	v1,0(v1)
9d002258:	26310001 	addiu	s1,s1,1
9d00225c:	30630004 	andi	v1,v1,0x4
9d002260:	1060ff49 	beqz	v1,9d001f88 <vfprintf+0x188>
9d002264:	00009821 	move	s3,zero
9d002268:	00131840 	sll	v1,s3,0x1
9d00226c:	001398c0 	sll	s3,s3,0x3
9d002270:	26310001 	addiu	s1,s1,1
9d002274:	00739821 	addu	s3,v1,s3
9d002278:	02629821 	addu	s3,s3,v0
9d00227c:	82220000 	lb	v0,0(s1)
9d002280:	3c049d01 	lui	a0,0x9d01
9d002284:	248491e1 	addiu	a0,a0,-28191
9d002288:	00821821 	addu	v1,a0,v0
9d00228c:	90630000 	lbu	v1,0(v1)
9d002290:	30630004 	andi	v1,v1,0x4
9d002294:	1460fff4 	bnez	v1,9d002268 <vfprintf+0x468>
9d002298:	2673ffd0 	addiu	s3,s3,-48
9d00229c:	0b4007e3 	j	9d001f8c <vfprintf+0x18c>
9d0022a0:	3c079d00 	lui	a3,0x9d00
9d0022a4:	8fa20060 	lw	v0,96(sp)
9d0022a8:	8c5e0000 	lw	s8,0(v0)
9d0022ac:	26310001 	addiu	s1,s1,1
9d0022b0:	80a20001 	lb	v0,1(a1)
9d0022b4:	8fa30060 	lw	v1,96(sp)
9d0022b8:	24630004 	addiu	v1,v1,4
9d0022bc:	0b4007dd 	j	9d001f74 <vfprintf+0x174>
9d0022c0:	afa30060 	sw	v1,96(sp)
9d0022c4:	24020078 	li	v0,120
9d0022c8:	a3a20016 	sb	v0,22(sp)
9d0022cc:	36940080 	ori	s4,s4,0x80
9d0022d0:	32820700 	andi	v0,s4,0x700
9d0022d4:	10400109 	beqz	v0,9d0026fc <vfprintf+0x8fc>
9d0022d8:	328200c0 	andi	v0,s4,0xc0
9d0022dc:	32841000 	andi	a0,s4,0x1000
9d0022e0:	32820010 	andi	v0,s4,0x10
9d0022e4:	24030006 	li	v1,6
9d0022e8:	10400317 	beqz	v0,9d002f48 <vfprintf+0x1148>
9d0022ec:	0064980b 	movn	s3,v1,a0
9d0022f0:	8fa20060 	lw	v0,96(sp)
9d0022f4:	24430007 	addiu	v1,v0,7
9d0022f8:	2402fff8 	li	v0,-8
9d0022fc:	00621024 	and	v0,v1,v0
9d002300:	8c440000 	lw	a0,0(v0)
9d002304:	8c450004 	lw	a1,4(v0)
9d002308:	24420008 	addiu	v0,v0,8
9d00230c:	0f401fe9 	jal	9d007fa4 <__floatdisf>
9d002310:	afa20060 	sw	v0,96(sp)
9d002314:	0040a821 	move	s5,v0
9d002318:	02a02021 	move	a0,s5
9d00231c:	0f40274d 	jal	9d009d34 <.LFE0>
9d002320:	00002821 	move	a1,zero
9d002324:	04400312 	bltz	v0,9d002f70 <vfprintf+0x1170>
9d002328:	3c028000 	lui	v0,0x8000
9d00232c:	02a02021 	move	a0,s5
9d002330:	00002821 	move	a1,zero
9d002334:	0f40274d 	jal	9d009d34 <.LFE0>
9d002338:	afa00010 	sw	zero,16(sp)
9d00233c:	14400315 	bnez	v0,9d002f94 <vfprintf+0x1194>
9d002340:	02a02021 	move	a0,s5
9d002344:	afa0001c 	sw	zero,28(sp)
9d002348:	32820100 	andi	v0,s4,0x100
9d00234c:	144001ff 	bnez	v0,9d002b4c <vfprintf+0xd4c>
9d002350:	32820200 	andi	v0,s4,0x200
9d002354:	144001f8 	bnez	v0,9d002b38 <vfprintf+0xd38>
9d002358:	8fa3001c 	lw	v1,28(sp)
9d00235c:	2a620019 	slti	v0,s3,25
9d002360:	14400552 	bnez	v0,9d0038ac <vfprintf+0x1aac>
9d002364:	00000000 	nop
9d002368:	8fa4001c 	lw	a0,28(sp)
9d00236c:	2882000a 	slti	v0,a0,10
9d002370:	1040000f 	beqz	v0,9d0023b0 <vfprintf+0x5b0>
9d002374:	3c029d01 	lui	v0,0x9d01
9d002378:	02a02021 	move	a0,s5
9d00237c:	0f40274d 	jal	9d009d34 <.LFE0>
9d002380:	00002821 	move	a1,zero
9d002384:	1040053c 	beqz	v0,9d003878 <vfprintf+0x1a78>
9d002388:	02a02021 	move	a0,s5
9d00238c:	0f4027bd 	jal	9d009ef4 <__fixunssfsi>
9d002390:	00000000 	nop
9d002394:	1440053b 	bnez	v0,9d003884 <vfprintf+0x1a84>
9d002398:	0040b821 	move	s7,v0
9d00239c:	8fa5001c 	lw	a1,28(sp)
9d0023a0:	28a30002 	slti	v1,a1,2
9d0023a4:	14600537 	bnez	v1,9d003884 <vfprintf+0x1a84>
9d0023a8:	00000000 	nop
9d0023ac:	3c029d01 	lui	v0,0x9d01
9d0023b0:	8c4596b8 	lw	a1,-26952(v0)
9d0023b4:	0f40274d 	jal	9d009d34 <.LFE0>
9d0023b8:	8fa40028 	lw	a0,40(sp)
9d0023bc:	04410512 	bgez	v0,9d003808 <vfprintf+0x1a08>
9d0023c0:	8fa2001c 	lw	v0,28(sp)
9d0023c4:	8fa7001c 	lw	a3,28(sp)
9d0023c8:	24f6ffed 	addiu	s6,a3,-19
9d0023cc:	afb60010 	sw	s6,16(sp)
9d0023d0:	0f401f62 	jal	9d007d88 <Dnan+0x228>
9d0023d4:	7c162420 	seb	a0,s6
9d0023d8:	afa20028 	sw	v0,40(sp)
9d0023dc:	02a02021 	move	a0,s5
9d0023e0:	0f401e4f 	jal	9d00793c <__divsf3>
9d0023e4:	00402821 	move	a1,v0
9d0023e8:	0f4027bd 	jal	9d009ef4 <__fixunssfsi>
9d0023ec:	00402021 	move	a0,v0
9d0023f0:	0040b821 	move	s7,v0
9d0023f4:	0040a821 	move	s5,v0
9d0023f8:	00001821 	move	v1,zero
9d0023fc:	afa30018 	sw	v1,24(sp)
9d002400:	2ee2000a 	sltiu	v0,s7,10
9d002404:	14400564 	bnez	v0,9d003998 <vfprintf+0x1b98>
9d002408:	3c039d01 	lui	v1,0x9d01
9d00240c:	246395e8 	addiu	v1,v1,-27160
9d002410:	24050002 	li	a1,2
9d002414:	24060002 	li	a2,2
9d002418:	240a0014 	li	t2,20
9d00241c:	8c670004 	lw	a3,4(v1)
9d002420:	54e0000c 	bnezl	a3,9d002454 <vfprintf+0x654>
9d002424:	a3a60016 	sb	a2,22(sp)
9d002428:	8c620000 	lw	v0,0(v1)
9d00242c:	02e2102b 	sltu	v0,s7,v0
9d002430:	54400008 	bnezl	v0,9d002454 <vfprintf+0x654>
9d002434:	a3a60016 	sb	a2,22(sp)
9d002438:	24a60001 	addiu	a2,a1,1
9d00243c:	00c02821 	move	a1,a2
9d002440:	7c063420 	seb	a2,a2
9d002444:	14aafff5 	bne	a1,t2,9d00241c <vfprintf+0x61c>
9d002448:	24630008 	addiu	v1,v1,8
9d00244c:	a3a60016 	sb	a2,22(sp)
9d002450:	24050014 	li	a1,20
9d002454:	32970800 	andi	s7,s4,0x800
9d002458:	02652821 	addu	a1,s3,a1
9d00245c:	32f7ffff 	andi	s7,s7,0xffff
9d002460:	00b6b021 	addu	s6,a1,s6
9d002464:	02771025 	or	v0,s3,s7
9d002468:	03d6b023 	subu	s6,s8,s6
9d00246c:	0002102b 	sltu	v0,zero,v0
9d002470:	32830003 	andi	v1,s4,0x3
9d002474:	02c2b023 	subu	s6,s6,v0
9d002478:	0003182b 	sltu	v1,zero,v1
9d00247c:	32820004 	andi	v0,s4,0x4
9d002480:	104004a9 	beqz	v0,9d003728 <vfprintf+0x1928>
9d002484:	02c3b023 	subu	s6,s6,v1
9d002488:	32820002 	andi	v0,s4,0x2
9d00248c:	104004f6 	beqz	v0,9d003868 <vfprintf+0x1a68>
9d002490:	32820001 	andi	v0,s4,0x1
9d002494:	32840001 	andi	a0,s4,0x1
9d002498:	2402002d 	li	v0,45
9d00249c:	2403002b 	li	v1,43
9d0024a0:	0064100a 	movz	v0,v1,a0
9d0024a4:	00402021 	move	a0,v0
9d0024a8:	0f40239b 	jal	9d008e6c <.LFE0>
9d0024ac:	02402821 	move	a1,s2
9d0024b0:	00021027 	nor	v0,zero,v0
9d0024b4:	0002102b 	sltu	v0,zero,v0
9d0024b8:	02028021 	addu	s0,s0,v0
9d0024bc:	5ac0000a 	blezl	s6,9d0024e8 <vfprintf+0x6e8>
9d0024c0:	32940008 	andi	s4,s4,0x8
9d0024c4:	24040030 	li	a0,48
9d0024c8:	0f40239b 	jal	9d008e6c <.LFE0>
9d0024cc:	02402821 	move	a1,s2
9d0024d0:	00021027 	nor	v0,zero,v0
9d0024d4:	0002102b 	sltu	v0,zero,v0
9d0024d8:	26d6ffff 	addiu	s6,s6,-1
9d0024dc:	16c0fff9 	bnez	s6,9d0024c4 <vfprintf+0x6c4>
9d0024e0:	02028021 	addu	s0,s0,v0
9d0024e4:	32940008 	andi	s4,s4,0x8
9d0024e8:	0b400950 	j	9d002540 <vfprintf+0x740>
9d0024ec:	329effff 	andi	s8,s4,0xffff
9d0024f0:	000318c0 	sll	v1,v1,0x3
9d0024f4:	3c049d01 	lui	a0,0x9d01
9d0024f8:	248495d8 	addiu	a0,a0,-27176
9d0024fc:	00831821 	addu	v1,a0,v1
9d002500:	8c660000 	lw	a2,0(v1)
9d002504:	8c670004 	lw	a3,4(v1)
9d002508:	02a02021 	move	a0,s5
9d00250c:	0f40185b 	jal	9d00616c <__udivdi3>
9d002510:	00002821 	move	a1,zero
9d002514:	00402021 	move	a0,v0
9d002518:	00602821 	move	a1,v1
9d00251c:	2406000a 	li	a2,10
9d002520:	0f401742 	jal	9d005d08 <__umoddi3>
9d002524:	00003821 	move	a3,zero
9d002528:	24440030 	addiu	a0,v0,48
9d00252c:	0f40239b 	jal	9d008e6c <.LFE0>
9d002530:	02402821 	move	a1,s2
9d002534:	00021027 	nor	v0,zero,v0
9d002538:	0002102b 	sltu	v0,zero,v0
9d00253c:	02028021 	addu	s0,s0,v0
9d002540:	83a20016 	lb	v0,22(sp)
9d002544:	2443ffff 	addiu	v1,v0,-1
9d002548:	7c031c20 	seb	v1,v1
9d00254c:	1440ffe8 	bnez	v0,9d0024f0 <vfprintf+0x6f0>
9d002550:	a3a30016 	sb	v1,22(sp)
9d002554:	8fa20010 	lw	v0,16(sp)
9d002558:	1840000c 	blez	v0,9d00258c <vfprintf+0x78c>
9d00255c:	2a620013 	slti	v0,s3,19
9d002560:	24040030 	li	a0,48
9d002564:	0f40239b 	jal	9d008e6c <.LFE0>
9d002568:	02402821 	move	a1,s2
9d00256c:	00021027 	nor	v0,zero,v0
9d002570:	0002182b 	sltu	v1,zero,v0
9d002574:	8fa20010 	lw	v0,16(sp)
9d002578:	2442ffff 	addiu	v0,v0,-1
9d00257c:	02038021 	addu	s0,s0,v1
9d002580:	1c40fff7 	bgtz	v0,9d002560 <vfprintf+0x760>
9d002584:	afa20010 	sw	v0,16(sp)
9d002588:	2a620013 	slti	v0,s3,19
9d00258c:	144004d2 	bnez	v0,9d0038d8 <vfprintf+0x1ad8>
9d002590:	7c131420 	seb	v0,s3
9d002594:	24020012 	li	v0,18
9d002598:	a3a20016 	sb	v0,22(sp)
9d00259c:	2673ffee 	addiu	s3,s3,-18
9d0025a0:	2404002e 	li	a0,46
9d0025a4:	0f40239b 	jal	9d008e6c <.LFE0>
9d0025a8:	02402821 	move	a1,s2
9d0025ac:	2403ffff 	li	v1,-1
9d0025b0:	10430002 	beq	v0,v1,9d0025bc <vfprintf+0x7bc>
9d0025b4:	83b40016 	lb	s4,22(sp)
9d0025b8:	26100001 	addiu	s0,s0,1
9d0025bc:	0f401f62 	jal	9d007d88 <Dnan+0x228>
9d0025c0:	02802021 	move	a0,s4
9d0025c4:	00402021 	move	a0,v0
9d0025c8:	0f4020df 	jal	9d00837c <.LFE4>
9d0025cc:	8fa50018 	lw	a1,24(sp)
9d0025d0:	0f4027bd 	jal	9d009ef4 <__fixunssfsi>
9d0025d4:	00402021 	move	a0,v0
9d0025d8:	0040a821 	move	s5,v0
9d0025dc:	2686ffff 	addiu	a2,s4,-1
9d0025e0:	7c063420 	seb	a2,a2
9d0025e4:	0000b821 	move	s7,zero
9d0025e8:	12800025 	beqz	s4,9d002680 <vfprintf+0x880>
9d0025ec:	a3a60016 	sb	a2,22(sp)
9d0025f0:	000630c0 	sll	a2,a2,0x3
9d0025f4:	3c059d01 	lui	a1,0x9d01
9d0025f8:	24a595d8 	addiu	a1,a1,-27176
9d0025fc:	00a63021 	addu	a2,a1,a2
9d002600:	8cc70004 	lw	a3,4(a2)
9d002604:	8cc60000 	lw	a2,0(a2)
9d002608:	02a02021 	move	a0,s5
9d00260c:	0f40185b 	jal	9d00616c <__udivdi3>
9d002610:	02e02821 	move	a1,s7
9d002614:	00402021 	move	a0,v0
9d002618:	00602821 	move	a1,v1
9d00261c:	2406000a 	li	a2,10
9d002620:	0f401742 	jal	9d005d08 <__umoddi3>
9d002624:	00003821 	move	a3,zero
9d002628:	24440030 	addiu	a0,v0,48
9d00262c:	0f40239b 	jal	9d008e6c <.LFE0>
9d002630:	02402821 	move	a1,s2
9d002634:	83b40016 	lb	s4,22(sp)
9d002638:	00021027 	nor	v0,zero,v0
9d00263c:	0002102b 	sltu	v0,zero,v0
9d002640:	001418c0 	sll	v1,s4,0x3
9d002644:	3c079d01 	lui	a3,0x9d01
9d002648:	24e795d8 	addiu	a3,a3,-27176
9d00264c:	00e31821 	addu	v1,a3,v1
9d002650:	8c660000 	lw	a2,0(v1)
9d002654:	8c670004 	lw	a3,4(v1)
9d002658:	02a02021 	move	a0,s5
9d00265c:	02e02821 	move	a1,s7
9d002660:	0f401742 	jal	9d005d08 <__umoddi3>
9d002664:	02028021 	addu	s0,s0,v0
9d002668:	2686ffff 	addiu	a2,s4,-1
9d00266c:	7c063420 	seb	a2,a2
9d002670:	0040a821 	move	s5,v0
9d002674:	0060b821 	move	s7,v1
9d002678:	1680ffdd 	bnez	s4,9d0025f0 <vfprintf+0x7f0>
9d00267c:	a3a60016 	sb	a2,22(sp)
9d002680:	12600009 	beqz	s3,9d0026a8 <vfprintf+0x8a8>
9d002684:	00000000 	nop
9d002688:	24040030 	li	a0,48
9d00268c:	0f40239b 	jal	9d008e6c <.LFE0>
9d002690:	02402821 	move	a1,s2
9d002694:	00021027 	nor	v0,zero,v0
9d002698:	0002102b 	sltu	v0,zero,v0
9d00269c:	2673ffff 	addiu	s3,s3,-1
9d0026a0:	1660fff9 	bnez	s3,9d002688 <vfprintf+0x888>
9d0026a4:	02028021 	addu	s0,s0,v0
9d0026a8:	53c0fde7 	beqzl	s8,9d001e48 <vfprintf+0x48>
9d0026ac:	82240000 	lb	a0,0(s1)
9d0026b0:	5ac0fde5 	blezl	s6,9d001e48 <vfprintf+0x48>
9d0026b4:	82240000 	lb	a0,0(s1)
9d0026b8:	24040020 	li	a0,32
9d0026bc:	0f40239b 	jal	9d008e6c <.LFE0>
9d0026c0:	02402821 	move	a1,s2
9d0026c4:	00021027 	nor	v0,zero,v0
9d0026c8:	0002102b 	sltu	v0,zero,v0
9d0026cc:	26d6ffff 	addiu	s6,s6,-1
9d0026d0:	16c0fff9 	bnez	s6,9d0026b8 <vfprintf+0x8b8>
9d0026d4:	02028021 	addu	s0,s0,v0
9d0026d8:	0b400792 	j	9d001e48 <vfprintf+0x48>
9d0026dc:	82240000 	lb	a0,0(s1)
9d0026e0:	24020075 	li	v0,117
9d0026e4:	a3a20016 	sb	v0,22(sp)
9d0026e8:	369400c0 	ori	s4,s4,0xc0
9d0026ec:	32820700 	andi	v0,s4,0x700
9d0026f0:	1440fefb 	bnez	v0,9d0022e0 <vfprintf+0x4e0>
9d0026f4:	32841000 	andi	a0,s4,0x1000
9d0026f8:	328200c0 	andi	v0,s4,0xc0
9d0026fc:	14400208 	bnez	v0,9d002f20 <vfprintf+0x1120>
9d002700:	7c141620 	seh	v0,s4
9d002704:	04400428 	bltz	v0,9d0037a8 <vfprintf+0x19a8>
9d002708:	8fa20060 	lw	v0,96(sp)
9d00270c:	32820010 	andi	v0,s4,0x10
9d002710:	104003f3 	beqz	v0,9d0036e0 <vfprintf+0x18e0>
9d002714:	8fa40060 	lw	a0,96(sp)
9d002718:	8fa30060 	lw	v1,96(sp)
9d00271c:	8c620000 	lw	v0,0(v1)
9d002720:	24630004 	addiu	v1,v1,4
9d002724:	afa30060 	sw	v1,96(sp)
9d002728:	00021fc3 	sra	v1,v0,0x1f
9d00272c:	0040a821 	move	s5,v0
9d002730:	0060b821 	move	s7,v1
9d002734:	00602021 	move	a0,v1
9d002738:	04810006 	bgez	a0,9d002754 <vfprintf+0x954>
9d00273c:	00024823 	negu	t1,v0
9d002740:	0009102b 	sltu	v0,zero,t1
9d002744:	00031823 	negu	v1,v1
9d002748:	36940003 	ori	s4,s4,0x3
9d00274c:	0120a821 	move	s5,t1
9d002750:	0062b823 	subu	s7,v1,v0
9d002754:	16600003 	bnez	s3,9d002764 <vfprintf+0x964>
9d002758:	328400c0 	andi	a0,s4,0xc0
9d00275c:	02b79825 	or	s3,s5,s7
9d002760:	2e730001 	sltiu	s3,s3,1
9d002764:	24020040 	li	v0,64
9d002768:	108203b2 	beq	a0,v0,9d003634 <vfprintf+0x1834>
9d00276c:	afa40018 	sw	a0,24(sp)
9d002770:	2c820041 	sltiu	v0,a0,65
9d002774:	144000bb 	bnez	v0,9d002a64 <vfprintf+0xc64>
9d002778:	24020080 	li	v0,128
9d00277c:	8fa50018 	lw	a1,24(sp)
9d002780:	10a2037e 	beq	a1,v0,9d00357c <vfprintf+0x177c>
9d002784:	24020001 	li	v0,1
9d002788:	240200c0 	li	v0,192
9d00278c:	14a200b8 	bne	a1,v0,9d002a70 <vfprintf+0xc70>
9d002790:	83b60016 	lb	s6,22(sp)
9d002794:	24020001 	li	v0,1
9d002798:	12e0048d 	beqz	s7,9d0039d0 <vfprintf+0x1bd0>
9d00279c:	a3a20016 	sb	v0,22(sp)
9d0027a0:	3c039d01 	lui	v1,0x9d01
9d0027a4:	246395e8 	addiu	v1,v1,-27160
9d0027a8:	24020003 	li	v0,3
9d0027ac:	24160002 	li	s6,2
9d0027b0:	24060015 	li	a2,21
9d0027b4:	8c640004 	lw	a0,4(v1)
9d0027b8:	02e4282b 	sltu	a1,s7,a0
9d0027bc:	54a00009 	bnezl	a1,9d0027e4 <vfprintf+0x9e4>
9d0027c0:	a3b60016 	sb	s6,22(sp)
9d0027c4:	50970403 	beql	a0,s7,9d0037d4 <vfprintf+0x19d4>
9d0027c8:	8c640000 	lw	a0,0(v1)
9d0027cc:	24440001 	addiu	a0,v0,1
9d0027d0:	7c02b420 	seb	s6,v0
9d0027d4:	308200ff 	andi	v0,a0,0xff
9d0027d8:	1446fff6 	bne	v0,a2,9d0027b4 <vfprintf+0x9b4>
9d0027dc:	24630008 	addiu	v1,v1,8
9d0027e0:	a3b60016 	sb	s6,22(sp)
9d0027e4:	02d3102a 	slt	v0,s6,s3
9d0027e8:	544000a5 	bnezl	v0,9d002a80 <vfprintf+0xc80>
9d0027ec:	7c13b420 	seb	s6,s3
9d0027f0:	0276102a 	slt	v0,s3,s6
9d0027f4:	02c2980b 	movn	s3,s6,v0
9d0027f8:	13c00005 	beqz	s8,9d002810 <vfprintf+0xa10>
9d0027fc:	32824000 	andi	v0,s4,0x4000
9d002800:	32820003 	andi	v0,s4,0x3
9d002804:	0002102b 	sltu	v0,zero,v0
9d002808:	03c2f023 	subu	s8,s8,v0
9d00280c:	32824000 	andi	v0,s4,0x4000
9d002810:	1040009e 	beqz	v0,9d002a8c <vfprintf+0xc8c>
9d002814:	328308c4 	andi	v1,s4,0x8c4
9d002818:	027e102a 	slt	v0,s3,s8
9d00281c:	5440009a 	bnezl	v0,9d002a88 <vfprintf+0xc88>
9d002820:	03d3f023 	subu	s8,s8,s3
9d002824:	328308c4 	andi	v1,s4,0x8c4
9d002828:	24020840 	li	v0,2112
9d00282c:	1462009a 	bne	v1,v0,9d002a98 <vfprintf+0xc98>
9d002830:	0000f021 	move	s8,zero
9d002834:	02de102a 	slt	v0,s6,s8
9d002838:	144000a2 	bnez	v0,9d002ac4 <vfprintf+0xcc4>
9d00283c:	32820004 	andi	v0,s4,0x4
9d002840:	1040046d 	beqz	v0,9d0039f8 <vfprintf+0x1bf8>
9d002844:	32820008 	andi	v0,s4,0x8
9d002848:	0b400ab3 	j	9d002acc <vfprintf+0xccc>
9d00284c:	0000b021 	move	s6,zero
9d002850:	24020073 	li	v0,115
9d002854:	a3a20016 	sb	v0,22(sp)
9d002858:	8fa50060 	lw	a1,96(sp)
9d00285c:	8ca40000 	lw	a0,0(a1)
9d002860:	24a50004 	addiu	a1,a1,4
9d002864:	10800445 	beqz	a0,9d00397c <vfprintf+0x1b7c>
9d002868:	0080a821 	move	s5,a0
9d00286c:	80820000 	lb	v0,0(a0)
9d002870:	10400446 	beqz	v0,9d00398c <vfprintf+0x1b8c>
9d002874:	24820001 	addiu	v0,a0,1
9d002878:	0044b823 	subu	s7,v0,a0
9d00287c:	24420001 	addiu	v0,v0,1
9d002880:	8043ffff 	lb	v1,-1(v0)
9d002884:	5460fffd 	bnezl	v1,9d00287c <vfprintf+0xa7c>
9d002888:	0044b823 	subu	s7,v0,a0
9d00288c:	afa50060 	sw	a1,96(sp)
9d002890:	12600003 	beqz	s3,9d0028a0 <vfprintf+0xaa0>
9d002894:	32940008 	andi	s4,s4,0x8
9d002898:	0277102b 	sltu	v0,s3,s7
9d00289c:	0262b80b 	movn	s7,s3,v0
9d0028a0:	02fe102b 	sltu	v0,s7,s8
9d0028a4:	03d74023 	subu	t0,s8,s7
9d0028a8:	3294ffff 	andi	s4,s4,0xffff
9d0028ac:	0000b021 	move	s6,zero
9d0028b0:	0102b00b 	movn	s6,t0,v0
9d0028b4:	1680000c 	bnez	s4,9d0028e8 <vfprintf+0xae8>
9d0028b8:	02c09821 	move	s3,s6
9d0028bc:	5260000a 	beqzl	s3,9d0028e8 <vfprintf+0xae8>
9d0028c0:	2416ffff 	li	s6,-1
9d0028c4:	24040020 	li	a0,32
9d0028c8:	0f40239b 	jal	9d008e6c <.LFE0>
9d0028cc:	02402821 	move	a1,s2
9d0028d0:	00021027 	nor	v0,zero,v0
9d0028d4:	0002102b 	sltu	v0,zero,v0
9d0028d8:	2673ffff 	addiu	s3,s3,-1
9d0028dc:	1660fff9 	bnez	s3,9d0028c4 <vfprintf+0xac4>
9d0028e0:	02028021 	addu	s0,s0,v0
9d0028e4:	2416ffff 	li	s6,-1
9d0028e8:	26f7ffff 	addiu	s7,s7,-1
9d0028ec:	2413ffff 	li	s3,-1
9d0028f0:	12f3000a 	beq	s7,s3,9d00291c <vfprintf+0xb1c>
9d0028f4:	00000000 	nop
9d0028f8:	82a40000 	lb	a0,0(s5)
9d0028fc:	02402821 	move	a1,s2
9d002900:	0f40239b 	jal	9d008e6c <.LFE0>
9d002904:	26b50001 	addiu	s5,s5,1
9d002908:	00021027 	nor	v0,zero,v0
9d00290c:	0002102b 	sltu	v0,zero,v0
9d002910:	26f7ffff 	addiu	s7,s7,-1
9d002914:	16f3fff8 	bne	s7,s3,9d0028f8 <vfprintf+0xaf8>
9d002918:	02028021 	addu	s0,s0,v0
9d00291c:	1280fd49 	beqz	s4,9d001e44 <vfprintf+0x44>
9d002920:	02c0a821 	move	s5,s6
9d002924:	12a0fd47 	beqz	s5,9d001e44 <vfprintf+0x44>
9d002928:	24040020 	li	a0,32
9d00292c:	0f40239b 	jal	9d008e6c <.LFE0>
9d002930:	02402821 	move	a1,s2
9d002934:	00021027 	nor	v0,zero,v0
9d002938:	0002102b 	sltu	v0,zero,v0
9d00293c:	02028021 	addu	s0,s0,v0
9d002940:	0b400a49 	j	9d002924 <vfprintf+0xb24>
9d002944:	26b5ffff 	addiu	s5,s5,-1
9d002948:	2402006f 	li	v0,111
9d00294c:	a3a20016 	sb	v0,22(sp)
9d002950:	0b4008b4 	j	9d0022d0 <vfprintf+0x4d0>
9d002954:	36940040 	ori	s4,s4,0x40
9d002958:	24020065 	li	v0,101
9d00295c:	a3a20016 	sb	v0,22(sp)
9d002960:	0b4008b4 	j	9d0022d0 <vfprintf+0x4d0>
9d002964:	36940100 	ori	s4,s4,0x100
9d002968:	0b4008b4 	j	9d0022d0 <vfprintf+0x4d0>
9d00296c:	a3a20016 	sb	v0,22(sp)
9d002970:	8fa70060 	lw	a3,96(sp)
9d002974:	8ce30000 	lw	v1,0(a3)
9d002978:	32860010 	andi	a2,s4,0x10
9d00297c:	24e50004 	addiu	a1,a3,4
9d002980:	000327c3 	sra	a0,v1,0x1f
9d002984:	00042600 	sll	a0,a0,0x18
9d002988:	00031202 	srl	v0,v1,0x8
9d00298c:	00821025 	or	v0,a0,v0
9d002990:	7c022420 	seb	a0,v0
9d002994:	10c0002e 	beqz	a2,9d002a50 <vfprintf+0xc50>
9d002998:	a3a40016 	sb	a0,22(sp)
9d00299c:	24420001 	addiu	v0,v0,1
9d0029a0:	304200ff 	andi	v0,v0,0xff
9d0029a4:	2c420002 	sltiu	v0,v0,2
9d0029a8:	5440002a 	bnezl	v0,9d002a54 <vfprintf+0xc54>
9d0029ac:	a3a30014 	sb	v1,20(sp)
9d0029b0:	a3a40014 	sb	a0,20(sp)
9d0029b4:	a3a30015 	sb	v1,21(sp)
9d0029b8:	24170002 	li	s7,2
9d0029bc:	27b50014 	addiu	s5,sp,20
9d0029c0:	0b400a24 	j	9d002890 <vfprintf+0xa90>
9d0029c4:	afa50060 	sw	a1,96(sp)
9d0029c8:	a3a20016 	sb	v0,22(sp)
9d0029cc:	0b4008b3 	j	9d0022cc <vfprintf+0x4cc>
9d0029d0:	36940020 	ori	s4,s4,0x20
9d0029d4:	24020067 	li	v0,103
9d0029d8:	a3a20016 	sb	v0,22(sp)
9d0029dc:	0b4008b4 	j	9d0022d0 <vfprintf+0x4d0>
9d0029e0:	36940200 	ori	s4,s4,0x200
9d0029e4:	24020066 	li	v0,102
9d0029e8:	a3a20016 	sb	v0,22(sp)
9d0029ec:	0b4008b4 	j	9d0022d0 <vfprintf+0x4d0>
9d0029f0:	36940400 	ori	s4,s4,0x400
9d0029f4:	32820010 	andi	v0,s4,0x10
9d0029f8:	00c01821 	move	v1,a2
9d0029fc:	00e2180a 	movz	v1,a3,v0
9d002a00:	0074a025 	or	s4,v1,s4
9d002a04:	82220000 	lb	v0,0(s1)
9d002a08:	304300ff 	andi	v1,v0,0xff
9d002a0c:	2c640079 	sltiu	a0,v1,121
9d002a10:	1480fd65 	bnez	a0,9d001fa8 <vfprintf+0x1a8>
9d002a14:	26310001 	addiu	s1,s1,1
9d002a18:	a3a20016 	sb	v0,22(sp)
9d002a1c:	27b50016 	addiu	s5,sp,22
9d002a20:	0b400a24 	j	9d002890 <vfprintf+0xa90>
9d002a24:	24170001 	li	s7,1
9d002a28:	24020047 	li	v0,71
9d002a2c:	a3a20016 	sb	v0,22(sp)
9d002a30:	36940020 	ori	s4,s4,0x20
9d002a34:	0b4008b4 	j	9d0022d0 <vfprintf+0x4d0>
9d002a38:	36940200 	ori	s4,s4,0x200
9d002a3c:	24020045 	li	v0,69
9d002a40:	a3a20016 	sb	v0,22(sp)
9d002a44:	36940020 	ori	s4,s4,0x20
9d002a48:	0b4008b4 	j	9d0022d0 <vfprintf+0x4d0>
9d002a4c:	36940100 	ori	s4,s4,0x100
9d002a50:	a3a30014 	sb	v1,20(sp)
9d002a54:	24170001 	li	s7,1
9d002a58:	27b50014 	addiu	s5,sp,20
9d002a5c:	0b400a24 	j	9d002890 <vfprintf+0xa90>
9d002a60:	afa50060 	sw	a1,96(sp)
9d002a64:	1080ff4c 	beqz	a0,9d002798 <vfprintf+0x998>
9d002a68:	24020001 	li	v0,1
9d002a6c:	83b60016 	lb	s6,22(sp)
9d002a70:	02d3102a 	slt	v0,s6,s3
9d002a74:	1040ff5f 	beqz	v0,9d0027f4 <vfprintf+0x9f4>
9d002a78:	0276102a 	slt	v0,s3,s6
9d002a7c:	7c13b420 	seb	s6,s3
9d002a80:	0b4009fe 	j	9d0027f8 <vfprintf+0x9f8>
9d002a84:	a3b60016 	sb	s6,22(sp)
9d002a88:	328308c4 	andi	v1,s4,0x8c4
9d002a8c:	24020840 	li	v0,2112
9d002a90:	10620274 	beq	v1,v0,9d003464 <vfprintf+0x1664>
9d002a94:	001e102b 	sltu	v0,zero,s8
9d002a98:	328308c0 	andi	v1,s4,0x8c0
9d002a9c:	24020880 	li	v0,2176
9d002aa0:	1462ff65 	bne	v1,v0,9d002838 <vfprintf+0xa38>
9d002aa4:	02de102a 	slt	v0,s6,s8
9d002aa8:	2bc20003 	slti	v0,s8,3
9d002aac:	27c8fffe 	addiu	t0,s8,-2
9d002ab0:	0000f021 	move	s8,zero
9d002ab4:	0102f00a 	movz	s8,t0,v0
9d002ab8:	02de102a 	slt	v0,s6,s8
9d002abc:	1040ff60 	beqz	v0,9d002840 <vfprintf+0xa40>
9d002ac0:	32820004 	andi	v0,s4,0x4
9d002ac4:	10400159 	beqz	v0,9d00302c <vfprintf+0x122c>
9d002ac8:	03d6b023 	subu	s6,s8,s6
9d002acc:	32820002 	andi	v0,s4,0x2
9d002ad0:	104002c0 	beqz	v0,9d0035d4 <vfprintf+0x17d4>
9d002ad4:	32820001 	andi	v0,s4,0x1
9d002ad8:	32840001 	andi	a0,s4,0x1
9d002adc:	2402002d 	li	v0,45
9d002ae0:	2403002b 	li	v1,43
9d002ae4:	0064100a 	movz	v0,v1,a0
9d002ae8:	00402021 	move	a0,v0
9d002aec:	0f40239b 	jal	9d008e6c <.LFE0>
9d002af0:	02402821 	move	a1,s2
9d002af4:	00021027 	nor	v0,zero,v0
9d002af8:	0002102b 	sltu	v0,zero,v0
9d002afc:	02028021 	addu	s0,s0,v0
9d002b00:	12c0000a 	beqz	s6,9d002b2c <vfprintf+0xd2c>
9d002b04:	32820008 	andi	v0,s4,0x8
9d002b08:	24040030 	li	a0,48
9d002b0c:	0f40239b 	jal	9d008e6c <.LFE0>
9d002b10:	02402821 	move	a1,s2
9d002b14:	00021027 	nor	v0,zero,v0
9d002b18:	0002102b 	sltu	v0,zero,v0
9d002b1c:	26d6ffff 	addiu	s6,s6,-1
9d002b20:	16c0fff9 	bnez	s6,9d002b08 <vfprintf+0xd08>
9d002b24:	02028021 	addu	s0,s0,v0
9d002b28:	32820008 	andi	v0,s4,0x8
9d002b2c:	3042ffff 	andi	v0,v0,0xffff
9d002b30:	0b400c24 	j	9d003090 <vfprintf+0x1290>
9d002b34:	afa20024 	sw	v0,36(sp)
9d002b38:	2862fffc 	slti	v0,v1,-4
9d002b3c:	14400003 	bnez	v0,9d002b4c <vfprintf+0xd4c>
9d002b40:	0073102a 	slt	v0,v1,s3
9d002b44:	54400249 	bnezl	v0,9d00346c <vfprintf+0x166c>
9d002b48:	8fa3001c 	lw	v1,28(sp)
9d002b4c:	126001c5 	beqz	s3,9d003264 <vfprintf+0x1464>
9d002b50:	00001021 	move	v0,zero
9d002b54:	7e820240 	ext	v0,s4,0x9,0x1
9d002b58:	02629823 	subu	s3,s3,v0
9d002b5c:	2e620013 	sltiu	v0,s3,19
9d002b60:	144003a2 	bnez	v0,9d0039ec <vfprintf+0x1bec>
9d002b64:	24020012 	li	v0,18
9d002b68:	a3a20016 	sb	v0,22(sp)
9d002b6c:	02a02021 	move	a0,s5
9d002b70:	0f40274d 	jal	9d009d34 <.LFE0>
9d002b74:	00002821 	move	a1,zero
9d002b78:	144001c0 	bnez	v0,9d00327c <vfprintf+0x147c>
9d002b7c:	83b60016 	lb	s6,22(sp)
9d002b80:	0f4027bd 	jal	9d009ef4 <__fixunssfsi>
9d002b84:	02a02021 	move	a0,s5
9d002b88:	afa20018 	sw	v0,24(sp)
9d002b8c:	3c179d01 	lui	s7,0x9d01
9d002b90:	26f795d8 	addiu	s7,s7,-27176
9d002b94:	32830a00 	andi	v1,s4,0xa00
9d002b98:	24020200 	li	v0,512
9d002b9c:	106201f7 	beq	v1,v0,9d00337c <vfprintf+0x157c>
9d002ba0:	2a630015 	slti	v1,s3,21
9d002ba4:	03d34023 	subu	t0,s8,s3
9d002ba8:	166000bb 	bnez	s3,9d002e98 <vfprintf+0x1098>
9d002bac:	2515fffb 	addiu	s5,t0,-5
9d002bb0:	32820800 	andi	v0,s4,0x800
9d002bb4:	544000b9 	bnezl	v0,9d002e9c <vfprintf+0x109c>
9d002bb8:	26b5ffff 	addiu	s5,s5,-1
9d002bbc:	32830003 	andi	v1,s4,0x3
9d002bc0:	0003182b 	sltu	v1,zero,v1
9d002bc4:	32820004 	andi	v0,s4,0x4
9d002bc8:	104000b9 	beqz	v0,9d002eb0 <vfprintf+0x10b0>
9d002bcc:	02a3a823 	subu	s5,s5,v1
9d002bd0:	32820002 	andi	v0,s4,0x2
9d002bd4:	104002cc 	beqz	v0,9d003708 <vfprintf+0x1908>
9d002bd8:	32820001 	andi	v0,s4,0x1
9d002bdc:	32840001 	andi	a0,s4,0x1
9d002be0:	2402002d 	li	v0,45
9d002be4:	2403002b 	li	v1,43
9d002be8:	0064100a 	movz	v0,v1,a0
9d002bec:	00402021 	move	a0,v0
9d002bf0:	0f40239b 	jal	9d008e6c <.LFE0>
9d002bf4:	02402821 	move	a1,s2
9d002bf8:	00021027 	nor	v0,zero,v0
9d002bfc:	0002102b 	sltu	v0,zero,v0
9d002c00:	02028021 	addu	s0,s0,v0
9d002c04:	1aa0000a 	blez	s5,9d002c30 <vfprintf+0xe30>
9d002c08:	32820008 	andi	v0,s4,0x8
9d002c0c:	24040030 	li	a0,48
9d002c10:	0f40239b 	jal	9d008e6c <.LFE0>
9d002c14:	02402821 	move	a1,s2
9d002c18:	00021027 	nor	v0,zero,v0
9d002c1c:	0002102b 	sltu	v0,zero,v0
9d002c20:	26b5ffff 	addiu	s5,s5,-1
9d002c24:	16a0fff9 	bnez	s5,9d002c0c <vfprintf+0xe0c>
9d002c28:	02028021 	addu	s0,s0,v0
9d002c2c:	32820008 	andi	v0,s4,0x8
9d002c30:	3042ffff 	andi	v0,v0,0xffff
9d002c34:	afa2001c 	sw	v0,28(sp)
9d002c38:	83a20016 	lb	v0,22(sp)
9d002c3c:	8fa40018 	lw	a0,24(sp)
9d002c40:	00002821 	move	a1,zero
9d002c44:	000210c0 	sll	v0,v0,0x3
9d002c48:	02e21021 	addu	v0,s7,v0
9d002c4c:	8c460000 	lw	a2,0(v0)
9d002c50:	0f40185b 	jal	9d00616c <__udivdi3>
9d002c54:	8c470004 	lw	a3,4(v0)
9d002c58:	24440030 	addiu	a0,v0,48
9d002c5c:	0f40239b 	jal	9d008e6c <.LFE0>
9d002c60:	02402821 	move	a1,s2
9d002c64:	83a30016 	lb	v1,22(sp)
9d002c68:	00021027 	nor	v0,zero,v0
9d002c6c:	0002102b 	sltu	v0,zero,v0
9d002c70:	000318c0 	sll	v1,v1,0x3
9d002c74:	02e31821 	addu	v1,s7,v1
9d002c78:	8c660000 	lw	a2,0(v1)
9d002c7c:	8c670004 	lw	a3,4(v1)
9d002c80:	8fa40018 	lw	a0,24(sp)
9d002c84:	00002821 	move	a1,zero
9d002c88:	0f401742 	jal	9d005d08 <__umoddi3>
9d002c8c:	02028021 	addu	s0,s0,v0
9d002c90:	0040f021 	move	s8,v0
9d002c94:	16600004 	bnez	s3,9d002ca8 <vfprintf+0xea8>
9d002c98:	0060b021 	move	s6,v1
9d002c9c:	32820800 	andi	v0,s4,0x800
9d002ca0:	5040003f 	beqzl	v0,9d002da0 <vfprintf+0xfa0>
9d002ca4:	32940020 	andi	s4,s4,0x20
9d002ca8:	2404002e 	li	a0,46
9d002cac:	0f40239b 	jal	9d008e6c <.LFE0>
9d002cb0:	02402821 	move	a1,s2
9d002cb4:	83a30016 	lb	v1,22(sp)
9d002cb8:	afa30020 	sw	v1,32(sp)
9d002cbc:	00021027 	nor	v0,zero,v0
9d002cc0:	0002102b 	sltu	v0,zero,v0
9d002cc4:	2464ffff 	addiu	a0,v1,-1
9d002cc8:	7c042420 	seb	a0,a0
9d002ccc:	02028021 	addu	s0,s0,v0
9d002cd0:	10600026 	beqz	v1,9d002d6c <vfprintf+0xf6c>
9d002cd4:	a3a40016 	sb	a0,22(sp)
9d002cd8:	32820200 	andi	v0,s4,0x200
9d002cdc:	3042ffff 	andi	v0,v0,0xffff
9d002ce0:	afa20018 	sw	v0,24(sp)
9d002ce4:	8fa50018 	lw	a1,24(sp)
9d002ce8:	10a00003 	beqz	a1,9d002cf8 <vfprintf+0xef8>
9d002cec:	03d61025 	or	v0,s8,s6
9d002cf0:	5040002a 	beqzl	v0,9d002d9c <vfprintf+0xf9c>
9d002cf4:	a3a00016 	sb	zero,22(sp)
9d002cf8:	000420c0 	sll	a0,a0,0x3
9d002cfc:	02e42021 	addu	a0,s7,a0
9d002d00:	8c860000 	lw	a2,0(a0)
9d002d04:	8c870004 	lw	a3,4(a0)
9d002d08:	03c02021 	move	a0,s8
9d002d0c:	0f40185b 	jal	9d00616c <__udivdi3>
9d002d10:	02c02821 	move	a1,s6
9d002d14:	24440030 	addiu	a0,v0,48
9d002d18:	0f40239b 	jal	9d008e6c <.LFE0>
9d002d1c:	02402821 	move	a1,s2
9d002d20:	83a80016 	lb	t0,22(sp)
9d002d24:	00021027 	nor	v0,zero,v0
9d002d28:	0002102b 	sltu	v0,zero,v0
9d002d2c:	000818c0 	sll	v1,t0,0x3
9d002d30:	02e31821 	addu	v1,s7,v1
9d002d34:	8c660000 	lw	a2,0(v1)
9d002d38:	8c670004 	lw	a3,4(v1)
9d002d3c:	03c02021 	move	a0,s8
9d002d40:	02c02821 	move	a1,s6
9d002d44:	02028021 	addu	s0,s0,v0
9d002d48:	0f401742 	jal	9d005d08 <__umoddi3>
9d002d4c:	afa8002c 	sw	t0,44(sp)
9d002d50:	8fa8002c 	lw	t0,44(sp)
9d002d54:	2504ffff 	addiu	a0,t0,-1
9d002d58:	7c042420 	seb	a0,a0
9d002d5c:	0040f021 	move	s8,v0
9d002d60:	0060b021 	move	s6,v1
9d002d64:	1500ffdf 	bnez	t0,9d002ce4 <vfprintf+0xee4>
9d002d68:	a3a40016 	sb	a0,22(sp)
9d002d6c:	8fa70020 	lw	a3,32(sp)
9d002d70:	02679823 	subu	s3,s3,a3
9d002d74:	5260000a 	beqzl	s3,9d002da0 <vfprintf+0xfa0>
9d002d78:	32940020 	andi	s4,s4,0x20
9d002d7c:	24040030 	li	a0,48
9d002d80:	0f40239b 	jal	9d008e6c <.LFE0>
9d002d84:	02402821 	move	a1,s2
9d002d88:	00021027 	nor	v0,zero,v0
9d002d8c:	0002102b 	sltu	v0,zero,v0
9d002d90:	2673ffff 	addiu	s3,s3,-1
9d002d94:	1660fff9 	bnez	s3,9d002d7c <vfprintf+0xf7c>
9d002d98:	02028021 	addu	s0,s0,v0
9d002d9c:	32940020 	andi	s4,s4,0x20
9d002da0:	16800002 	bnez	s4,9d002dac <vfprintf+0xfac>
9d002da4:	24040045 	li	a0,69
9d002da8:	24040065 	li	a0,101
9d002dac:	0f40239b 	jal	9d008e6c <.LFE0>
9d002db0:	02402821 	move	a1,s2
9d002db4:	00021027 	nor	v0,zero,v0
9d002db8:	0002102b 	sltu	v0,zero,v0
9d002dbc:	02028021 	addu	s0,s0,v0
9d002dc0:	8fa20010 	lw	v0,16(sp)
9d002dc4:	04400239 	bltz	v0,9d0036ac <vfprintf+0x18ac>
9d002dc8:	00021023 	negu	v0,v0
9d002dcc:	2404002b 	li	a0,43
9d002dd0:	0f40239b 	jal	9d008e6c <.LFE0>
9d002dd4:	02402821 	move	a1,s2
9d002dd8:	00021027 	nor	v0,zero,v0
9d002ddc:	0002102b 	sltu	v0,zero,v0
9d002de0:	02028021 	addu	s0,s0,v0
9d002de4:	8fa20010 	lw	v0,16(sp)
9d002de8:	3c136666 	lui	s3,0x6666
9d002dec:	26736667 	addiu	s3,s3,26215
9d002df0:	00530018 	mult	v0,s3
9d002df4:	00002010 	mfhi	a0
9d002df8:	000217c3 	sra	v0,v0,0x1f
9d002dfc:	02402821 	move	a1,s2
9d002e00:	00042083 	sra	a0,a0,0x2
9d002e04:	00822023 	subu	a0,a0,v0
9d002e08:	0f40239b 	jal	9d008e6c <.LFE0>
9d002e0c:	24840030 	addiu	a0,a0,48
9d002e10:	8fa30010 	lw	v1,16(sp)
9d002e14:	00021027 	nor	v0,zero,v0
9d002e18:	0002302b 	sltu	a2,zero,v0
9d002e1c:	00730018 	mult	v1,s3
9d002e20:	00001010 	mfhi	v0
9d002e24:	000327c3 	sra	a0,v1,0x1f
9d002e28:	02402821 	move	a1,s2
9d002e2c:	02068021 	addu	s0,s0,a2
9d002e30:	00021083 	sra	v0,v0,0x2
9d002e34:	00441023 	subu	v0,v0,a0
9d002e38:	00022040 	sll	a0,v0,0x1
9d002e3c:	000210c0 	sll	v0,v0,0x3
9d002e40:	00821021 	addu	v0,a0,v0
9d002e44:	00622023 	subu	a0,v1,v0
9d002e48:	0f40239b 	jal	9d008e6c <.LFE0>
9d002e4c:	24840030 	addiu	a0,a0,48
9d002e50:	00021027 	nor	v0,zero,v0
9d002e54:	0002102b 	sltu	v0,zero,v0
9d002e58:	02028021 	addu	s0,s0,v0
9d002e5c:	8fa2001c 	lw	v0,28(sp)
9d002e60:	5040fbf9 	beqzl	v0,9d001e48 <vfprintf+0x48>
9d002e64:	82240000 	lb	a0,0(s1)
9d002e68:	5aa0fbf7 	blezl	s5,9d001e48 <vfprintf+0x48>
9d002e6c:	82240000 	lb	a0,0(s1)
9d002e70:	24040020 	li	a0,32
9d002e74:	0f40239b 	jal	9d008e6c <.LFE0>
9d002e78:	02402821 	move	a1,s2
9d002e7c:	00021027 	nor	v0,zero,v0
9d002e80:	0002102b 	sltu	v0,zero,v0
9d002e84:	26b5ffff 	addiu	s5,s5,-1
9d002e88:	16a0fff9 	bnez	s5,9d002e70 <vfprintf+0x1070>
9d002e8c:	02028021 	addu	s0,s0,v0
9d002e90:	0b400792 	j	9d001e48 <vfprintf+0x48>
9d002e94:	82240000 	lb	a0,0(s1)
9d002e98:	26b5ffff 	addiu	s5,s5,-1
9d002e9c:	32830003 	andi	v1,s4,0x3
9d002ea0:	0003182b 	sltu	v1,zero,v1
9d002ea4:	32820004 	andi	v0,s4,0x4
9d002ea8:	1440ff49 	bnez	v0,9d002bd0 <vfprintf+0xdd0>
9d002eac:	02a3a823 	subu	s5,s5,v1
9d002eb0:	32820008 	andi	v0,s4,0x8
9d002eb4:	3042ffff 	andi	v0,v0,0xffff
9d002eb8:	1440000b 	bnez	v0,9d002ee8 <vfprintf+0x10e8>
9d002ebc:	afa2001c 	sw	v0,28(sp)
9d002ec0:	1aa0000a 	blez	s5,9d002eec <vfprintf+0x10ec>
9d002ec4:	32820002 	andi	v0,s4,0x2
9d002ec8:	24040020 	li	a0,32
9d002ecc:	0f40239b 	jal	9d008e6c <.LFE0>
9d002ed0:	02402821 	move	a1,s2
9d002ed4:	00021027 	nor	v0,zero,v0
9d002ed8:	0002102b 	sltu	v0,zero,v0
9d002edc:	26b5ffff 	addiu	s5,s5,-1
9d002ee0:	16a0fff9 	bnez	s5,9d002ec8 <vfprintf+0x10c8>
9d002ee4:	02028021 	addu	s0,s0,v0
9d002ee8:	32820002 	andi	v0,s4,0x2
9d002eec:	1040020a 	beqz	v0,9d003718 <vfprintf+0x1918>
9d002ef0:	32820001 	andi	v0,s4,0x1
9d002ef4:	32840001 	andi	a0,s4,0x1
9d002ef8:	2402002d 	li	v0,45
9d002efc:	2403002b 	li	v1,43
9d002f00:	0064100a 	movz	v0,v1,a0
9d002f04:	00402021 	move	a0,v0
9d002f08:	0f40239b 	jal	9d008e6c <.LFE0>
9d002f0c:	02402821 	move	a1,s2
9d002f10:	00021027 	nor	v0,zero,v0
9d002f14:	0002102b 	sltu	v0,zero,v0
9d002f18:	0b400b0e 	j	9d002c38 <vfprintf+0xe38>
9d002f1c:	02028021 	addu	s0,s0,v0
9d002f20:	04400218 	bltz	v0,9d003784 <vfprintf+0x1984>
9d002f24:	32820010 	andi	v0,s4,0x10
9d002f28:	104001e8 	beqz	v0,9d0036cc <vfprintf+0x18cc>
9d002f2c:	8fa30060 	lw	v1,96(sp)
9d002f30:	8fa20060 	lw	v0,96(sp)
9d002f34:	8c550000 	lw	s5,0(v0)
9d002f38:	0000b821 	move	s7,zero
9d002f3c:	24420004 	addiu	v0,v0,4
9d002f40:	0b4009d5 	j	9d002754 <vfprintf+0x954>
9d002f44:	afa20060 	sw	v0,96(sp)
9d002f48:	8fa30060 	lw	v1,96(sp)
9d002f4c:	8c750000 	lw	s5,0(v1)
9d002f50:	24630004 	addiu	v1,v1,4
9d002f54:	afa30060 	sw	v1,96(sp)
9d002f58:	02a02021 	move	a0,s5
9d002f5c:	0f40274d 	jal	9d009d34 <.LFE0>
9d002f60:	00002821 	move	a1,zero
9d002f64:	0441fcf2 	bgez	v0,9d002330 <vfprintf+0x530>
9d002f68:	02a02021 	move	a0,s5
9d002f6c:	3c028000 	lui	v0,0x8000
9d002f70:	0055a826 	xor	s5,v0,s5
9d002f74:	36940003 	ori	s4,s4,0x3
9d002f78:	02a02021 	move	a0,s5
9d002f7c:	00002821 	move	a1,zero
9d002f80:	0f40274d 	jal	9d009d34 <.LFE0>
9d002f84:	afa00010 	sw	zero,16(sp)
9d002f88:	5040fcef 	beqzl	v0,9d002348 <vfprintf+0x548>
9d002f8c:	afa0001c 	sw	zero,28(sp)
9d002f90:	02a02021 	move	a0,s5
9d002f94:	0f40279b 	jal	9d009e6c <.LFE0>
9d002f98:	27a50010 	addiu	a1,sp,16
9d002f9c:	8fa20010 	lw	v0,16(sp)
9d002fa0:	2442ffff 	addiu	v0,v0,-1
9d002fa4:	00021840 	sll	v1,v0,0x1
9d002fa8:	00621021 	addu	v0,v1,v0
9d002fac:	3c166666 	lui	s6,0x6666
9d002fb0:	26d66667 	addiu	s6,s6,26215
9d002fb4:	00560018 	mult	v0,s6
9d002fb8:	0000b010 	mfhi	s6
9d002fbc:	000217c3 	sra	v0,v0,0x1f
9d002fc0:	0016b083 	sra	s6,s6,0x2
9d002fc4:	02c2b023 	subu	s6,s6,v0
9d002fc8:	06c20001 	bltzl	s6,9d002fd0 <vfprintf+0x11d0>
9d002fcc:	26d6ffff 	addiu	s6,s6,-1
9d002fd0:	afb60010 	sw	s6,16(sp)
9d002fd4:	00162023 	negu	a0,s6
9d002fd8:	0f401f62 	jal	9d007d88 <Dnan+0x228>
9d002fdc:	7c042420 	seb	a0,a0
9d002fe0:	00402021 	move	a0,v0
9d002fe4:	0f4020df 	jal	9d00837c <.LFE4>
9d002fe8:	02a02821 	move	a1,s5
9d002fec:	afa20028 	sw	v0,40(sp)
9d002ff0:	3c029d01 	lui	v0,0x9d01
9d002ff4:	8c4596ac 	lw	a1,-26964(v0)
9d002ff8:	0f40274d 	jal	9d009d34 <.LFE0>
9d002ffc:	8fa40028 	lw	a0,40(sp)
9d003000:	0440023d 	bltz	v0,9d0038f8 <vfprintf+0x1af8>
9d003004:	3c029d01 	lui	v0,0x9d01
9d003008:	8c4496b0 	lw	a0,-26960(v0)
9d00300c:	0f40274d 	jal	9d009d34 <.LFE0>
9d003010:	8fa50028 	lw	a1,40(sp)
9d003014:	5c40fccc 	bgtzl	v0,9d002348 <vfprintf+0x548>
9d003018:	afb6001c 	sw	s6,28(sp)
9d00301c:	26d60001 	addiu	s6,s6,1
9d003020:	afb60010 	sw	s6,16(sp)
9d003024:	0b4008d2 	j	9d002348 <vfprintf+0x548>
9d003028:	afb6001c 	sw	s6,28(sp)
9d00302c:	32820008 	andi	v0,s4,0x8
9d003030:	3042ffff 	andi	v0,v0,0xffff
9d003034:	12c00003 	beqz	s6,9d003044 <vfprintf+0x1244>
9d003038:	afa20024 	sw	v0,36(sp)
9d00303c:	1040005a 	beqz	v0,9d0031a8 <vfprintf+0x13a8>
9d003040:	24040020 	li	a0,32
9d003044:	32820002 	andi	v0,s4,0x2
9d003048:	10400176 	beqz	v0,9d003624 <vfprintf+0x1824>
9d00304c:	32820001 	andi	v0,s4,0x1
9d003050:	32840001 	andi	a0,s4,0x1
9d003054:	2402002d 	li	v0,45
9d003058:	2403002b 	li	v1,43
9d00305c:	0064100a 	movz	v0,v1,a0
9d003060:	00402021 	move	a0,v0
9d003064:	0f40239b 	jal	9d008e6c <.LFE0>
9d003068:	02402821 	move	a1,s2
9d00306c:	00021027 	nor	v0,zero,v0
9d003070:	0002102b 	sltu	v0,zero,v0
9d003074:	02028021 	addu	s0,s0,v0
9d003078:	328208c0 	andi	v0,s4,0x8c0
9d00307c:	24030840 	li	v1,2112
9d003080:	10430223 	beq	v0,v1,9d003910 <vfprintf+0x1b10>
9d003084:	24030880 	li	v1,2176
9d003088:	10430228 	beq	v0,v1,9d00392c <vfprintf+0x1b2c>
9d00308c:	24040030 	li	a0,48
9d003090:	2664ffff 	addiu	a0,s3,-1
9d003094:	000418c0 	sll	v1,a0,0x3
9d003098:	00044040 	sll	t0,a0,0x1
9d00309c:	32820020 	andi	v0,s4,0x20
9d0030a0:	3c079d01 	lui	a3,0x9d01
9d0030a4:	24e795d8 	addiu	a3,a3,-27176
9d0030a8:	00e3a021 	addu	s4,a3,v1
9d0030ac:	0104f021 	addu	s8,t0,a0
9d0030b0:	00171840 	sll	v1,s7,0x1
9d0030b4:	afa3001c 	sw	v1,28(sp)
9d0030b8:	3042ffff 	andi	v0,v0,0xffff
9d0030bc:	afa20020 	sw	v0,32(sp)
9d0030c0:	2402fffd 	li	v0,-3
9d0030c4:	13c20018 	beq	s8,v0,9d003128 <vfprintf+0x1328>
9d0030c8:	00049880 	sll	s3,a0,0x2
9d0030cc:	24020040 	li	v0,64
9d0030d0:	8fa40018 	lw	a0,24(sp)
9d0030d4:	10820045 	beq	a0,v0,9d0031ec <vfprintf+0x13ec>
9d0030d8:	2c820041 	sltiu	v0,a0,65
9d0030dc:	14400021 	bnez	v0,9d003164 <vfprintf+0x1364>
9d0030e0:	24020080 	li	v0,128
9d0030e4:	8fa50018 	lw	a1,24(sp)
9d0030e8:	10a2004c 	beq	a1,v0,9d00321c <vfprintf+0x141c>
9d0030ec:	00131827 	nor	v1,zero,s3
9d0030f0:	240200c0 	li	v0,192
9d0030f4:	50a2001e 	beql	a1,v0,9d003170 <vfprintf+0x1370>
9d0030f8:	8e860000 	lw	a2,0(s4)
9d0030fc:	83a40016 	lb	a0,22(sp)
9d003100:	0f40239b 	jal	9d008e6c <.LFE0>
9d003104:	02402821 	move	a1,s2
9d003108:	00021027 	nor	v0,zero,v0
9d00310c:	0002102b 	sltu	v0,zero,v0
9d003110:	02028021 	addu	s0,s0,v0
9d003114:	2694fff8 	addiu	s4,s4,-8
9d003118:	27defffd 	addiu	s8,s8,-3
9d00311c:	2402fffd 	li	v0,-3
9d003120:	17c2ffea 	bne	s8,v0,9d0030cc <vfprintf+0x12cc>
9d003124:	2673fffc 	addiu	s3,s3,-4
9d003128:	8fa20024 	lw	v0,36(sp)
9d00312c:	5040fb46 	beqzl	v0,9d001e48 <vfprintf+0x48>
9d003130:	82240000 	lb	a0,0(s1)
9d003134:	5ac0fb44 	blezl	s6,9d001e48 <vfprintf+0x48>
9d003138:	82240000 	lb	a0,0(s1)
9d00313c:	24040020 	li	a0,32
9d003140:	0f40239b 	jal	9d008e6c <.LFE0>
9d003144:	02402821 	move	a1,s2
9d003148:	00021027 	nor	v0,zero,v0
9d00314c:	0002102b 	sltu	v0,zero,v0
9d003150:	26d6ffff 	addiu	s6,s6,-1
9d003154:	16c0fff9 	bnez	s6,9d00313c <vfprintf+0x133c>
9d003158:	02028021 	addu	s0,s0,v0
9d00315c:	0b400792 	j	9d001e48 <vfprintf+0x48>
9d003160:	82240000 	lb	a0,0(s1)
9d003164:	5480ffe6 	bnezl	a0,9d003100 <vfprintf+0x1300>
9d003168:	83a40016 	lb	a0,22(sp)
9d00316c:	8e860000 	lw	a2,0(s4)
9d003170:	8e870004 	lw	a3,4(s4)
9d003174:	02a02021 	move	a0,s5
9d003178:	0f40185b 	jal	9d00616c <__udivdi3>
9d00317c:	02e02821 	move	a1,s7
9d003180:	00402021 	move	a0,v0
9d003184:	00602821 	move	a1,v1
9d003188:	2406000a 	li	a2,10
9d00318c:	0f401742 	jal	9d005d08 <__umoddi3>
9d003190:	00003821 	move	a3,zero
9d003194:	24420030 	addiu	v0,v0,48
9d003198:	7c022420 	seb	a0,v0
9d00319c:	0b400c40 	j	9d003100 <vfprintf+0x1300>
9d0031a0:	a3a40016 	sb	a0,22(sp)
9d0031a4:	24040020 	li	a0,32
9d0031a8:	0f40239b 	jal	9d008e6c <.LFE0>
9d0031ac:	02402821 	move	a1,s2
9d0031b0:	00021027 	nor	v0,zero,v0
9d0031b4:	0002102b 	sltu	v0,zero,v0
9d0031b8:	26d6ffff 	addiu	s6,s6,-1
9d0031bc:	12c0ffa1 	beqz	s6,9d003044 <vfprintf+0x1244>
9d0031c0:	02028021 	addu	s0,s0,v0
9d0031c4:	24040020 	li	a0,32
9d0031c8:	0f40239b 	jal	9d008e6c <.LFE0>
9d0031cc:	02402821 	move	a1,s2
9d0031d0:	00021027 	nor	v0,zero,v0
9d0031d4:	0002102b 	sltu	v0,zero,v0
9d0031d8:	26d6ffff 	addiu	s6,s6,-1
9d0031dc:	16c0fff1 	bnez	s6,9d0031a4 <vfprintf+0x13a4>
9d0031e0:	02028021 	addu	s0,s0,v0
9d0031e4:	0b400c12 	j	9d003048 <vfprintf+0x1248>
9d0031e8:	32820002 	andi	v0,s4,0x2
9d0031ec:	001e1027 	nor	v0,zero,s8
9d0031f0:	8fa7001c 	lw	a3,28(sp)
9d0031f4:	00471004 	sllv	v0,a3,v0
9d0031f8:	03d52006 	srlv	a0,s5,s8
9d0031fc:	33c30020 	andi	v1,s8,0x20
9d003200:	00442025 	or	a0,v0,a0
9d003204:	03d71006 	srlv	v0,s7,s8
9d003208:	0043200b 	movn	a0,v0,v1
9d00320c:	30840007 	andi	a0,a0,0x7
9d003210:	24840030 	addiu	a0,a0,48
9d003214:	0b400c40 	j	9d003100 <vfprintf+0x1300>
9d003218:	a3a40016 	sb	a0,22(sp)
9d00321c:	8fa7001c 	lw	a3,28(sp)
9d003220:	00671804 	sllv	v1,a3,v1
9d003224:	02751006 	srlv	v0,s5,s3
9d003228:	32660020 	andi	a2,s3,0x20
9d00322c:	00621025 	or	v0,v1,v0
9d003230:	02772806 	srlv	a1,s7,s3
9d003234:	3c049d01 	lui	a0,0x9d01
9d003238:	24839680 	addiu	v1,a0,-27008
9d00323c:	3c079d01 	lui	a3,0x9d01
9d003240:	24e49694 	addiu	a0,a3,-26988
9d003244:	00a6100b 	movn	v0,a1,a2
9d003248:	8fa50020 	lw	a1,32(sp)
9d00324c:	0085180a 	movz	v1,a0,a1
9d003250:	3042000f 	andi	v0,v0,0xf
9d003254:	00621821 	addu	v1,v1,v0
9d003258:	80640000 	lb	a0,0(v1)
9d00325c:	0b400c40 	j	9d003100 <vfprintf+0x1300>
9d003260:	a3a40016 	sb	a0,22(sp)
9d003264:	a3a20016 	sb	v0,22(sp)
9d003268:	02a02021 	move	a0,s5
9d00326c:	0f40274d 	jal	9d009d34 <.LFE0>
9d003270:	00002821 	move	a1,zero
9d003274:	1040fe42 	beqz	v0,9d002b80 <vfprintf+0xd80>
9d003278:	83b60016 	lb	s6,22(sp)
9d00327c:	3c179d01 	lui	s7,0x9d01
9d003280:	8fa5001c 	lw	a1,28(sp)
9d003284:	00b62023 	subu	a0,a1,s6
9d003288:	0f401f62 	jal	9d007d88 <Dnan+0x228>
9d00328c:	7c042420 	seb	a0,a0
9d003290:	02a02021 	move	a0,s5
9d003294:	0f401e4f 	jal	9d00793c <__divsf3>
9d003298:	00402821 	move	a1,v0
9d00329c:	0040a821 	move	s5,v0
9d0032a0:	0f4027bd 	jal	9d009ef4 <__fixunssfsi>
9d0032a4:	00402021 	move	a0,v0
9d0032a8:	00402021 	move	a0,v0
9d0032ac:	0f4028b8 	jal	9d00a2e0 <__floatunsisf>
9d0032b0:	afa2002c 	sw	v0,44(sp)
9d0032b4:	02a02021 	move	a0,s5
9d0032b8:	0f401db1 	jal	9d0076c4 <.LFE4>
9d0032bc:	00402821 	move	a1,v0
9d0032c0:	8ee496a8 	lw	a0,-26968(s7)
9d0032c4:	0f40274d 	jal	9d009d34 <.LFE0>
9d0032c8:	00402821 	move	a1,v0
9d0032cc:	1c40010c 	bgtz	v0,9d003700 <vfprintf+0x1900>
9d0032d0:	8fa3002c 	lw	v1,44(sp)
9d0032d4:	8ee596a8 	lw	a1,-26968(s7)
9d0032d8:	0f401db3 	jal	9d0076cc <__addsf3>
9d0032dc:	02a02021 	move	a0,s5
9d0032e0:	0040a821 	move	s5,v0
9d0032e4:	0f4027bd 	jal	9d009ef4 <__fixunssfsi>
9d0032e8:	00402021 	move	a0,v0
9d0032ec:	26c40001 	addiu	a0,s6,1
9d0032f0:	000420c0 	sll	a0,a0,0x3
9d0032f4:	3c079d01 	lui	a3,0x9d01
9d0032f8:	24e795d8 	addiu	a3,a3,-27176
9d0032fc:	00e42021 	addu	a0,a3,a0
9d003300:	8c850004 	lw	a1,4(a0)
9d003304:	afa20018 	sw	v0,24(sp)
9d003308:	14a00005 	bnez	a1,9d003320 <vfprintf+0x1520>
9d00330c:	00e0b821 	move	s7,a3
9d003310:	8c840000 	lw	a0,0(a0)
9d003314:	0044202b 	sltu	a0,v0,a0
9d003318:	50800047 	beqzl	a0,9d003438 <vfprintf+0x1638>
9d00331c:	3c029d01 	lui	v0,0x9d01
9d003320:	001618c0 	sll	v1,s6,0x3
9d003324:	3c049d01 	lui	a0,0x9d01
9d003328:	248495d8 	addiu	a0,a0,-27176
9d00332c:	00831821 	addu	v1,a0,v1
9d003330:	8c640004 	lw	a0,4(v1)
9d003334:	50800137 	beqzl	a0,9d003814 <vfprintf+0x1a14>
9d003338:	8c630000 	lw	v1,0(v1)
9d00333c:	3c029d01 	lui	v0,0x9d01
9d003340:	8c4596b0 	lw	a1,-26960(v0)
9d003344:	0f4020df 	jal	9d00837c <.LFE4>
9d003348:	02a02021 	move	a0,s5
9d00334c:	0040a821 	move	s5,v0
9d003350:	8fa5001c 	lw	a1,28(sp)
9d003354:	24a2ffff 	addiu	v0,a1,-1
9d003358:	02a02021 	move	a0,s5
9d00335c:	0f4027bd 	jal	9d009ef4 <__fixunssfsi>
9d003360:	afa20010 	sw	v0,16(sp)
9d003364:	afa20018 	sw	v0,24(sp)
9d003368:	32830a00 	andi	v1,s4,0xa00
9d00336c:	24020200 	li	v0,512
9d003370:	1462fe0d 	bne	v1,v0,9d002ba8 <vfprintf+0xda8>
9d003374:	03d34023 	subu	t0,s8,s3
9d003378:	2a630015 	slti	v1,s3,21
9d00337c:	24020014 	li	v0,20
9d003380:	8fa70018 	lw	a3,24(sp)
9d003384:	10e0001d 	beqz	a3,9d0033fc <vfprintf+0x15fc>
9d003388:	0043980a 	movz	s3,v0,v1
9d00338c:	00e02021 	move	a0,a3
9d003390:	00002821 	move	a1,zero
9d003394:	2406000a 	li	a2,10
9d003398:	0f401742 	jal	9d005d08 <__umoddi3>
9d00339c:	00003821 	move	a3,zero
9d0033a0:	00431025 	or	v0,v0,v1
9d0033a4:	14400015 	bnez	v0,9d0033fc <vfprintf+0x15fc>
9d0033a8:	8faa0018 	lw	t2,24(sp)
9d0033ac:	0b400cf5 	j	9d0033d4 <vfprintf+0x15d4>
9d0033b0:	0000b021 	move	s6,zero
9d0033b4:	00402021 	move	a0,v0
9d0033b8:	2406000a 	li	a2,10
9d0033bc:	00003821 	move	a3,zero
9d0033c0:	0f401742 	jal	9d005d08 <__umoddi3>
9d0033c4:	afa2002c 	sw	v0,44(sp)
9d0033c8:	00431025 	or	v0,v0,v1
9d0033cc:	1440000b 	bnez	v0,9d0033fc <vfprintf+0x15fc>
9d0033d0:	8faa002c 	lw	t2,44(sp)
9d0033d4:	01402021 	move	a0,t2
9d0033d8:	02c02821 	move	a1,s6
9d0033dc:	2406000a 	li	a2,10
9d0033e0:	0f40185b 	jal	9d00616c <__udivdi3>
9d0033e4:	00003821 	move	a3,zero
9d0033e8:	00602821 	move	a1,v1
9d0033ec:	00622025 	or	a0,v1,v0
9d0033f0:	2673ffff 	addiu	s3,s3,-1
9d0033f4:	1480ffef 	bnez	a0,9d0033b4 <vfprintf+0x15b4>
9d0033f8:	0060b021 	move	s6,v1
9d0033fc:	83a20016 	lb	v0,22(sp)
9d003400:	0262182a 	slt	v1,s3,v0
9d003404:	1060fde8 	beqz	v1,9d002ba8 <vfprintf+0xda8>
9d003408:	03d34023 	subu	t0,s8,s3
9d00340c:	00532023 	subu	a0,v0,s3
9d003410:	0f401f62 	jal	9d007d88 <Dnan+0x228>
9d003414:	7c042420 	seb	a0,a0
9d003418:	00402821 	move	a1,v0
9d00341c:	02a02021 	move	a0,s5
9d003420:	0f401e4f 	jal	9d00793c <__divsf3>
9d003424:	a3b30016 	sb	s3,22(sp)
9d003428:	0f4027bd 	jal	9d009ef4 <__fixunssfsi>
9d00342c:	00402021 	move	a0,v0
9d003430:	0b400ae9 	j	9d002ba4 <vfprintf+0xda4>
9d003434:	afa20018 	sw	v0,24(sp)
9d003438:	8c4596b4 	lw	a1,-26956(v0)
9d00343c:	0f4020df 	jal	9d00837c <.LFE4>
9d003440:	02a02021 	move	a0,s5
9d003444:	0040a821 	move	s5,v0
9d003448:	8fa3001c 	lw	v1,28(sp)
9d00344c:	24620001 	addiu	v0,v1,1
9d003450:	02a02021 	move	a0,s5
9d003454:	0f4027bd 	jal	9d009ef4 <__fixunssfsi>
9d003458:	afa20010 	sw	v0,16(sp)
9d00345c:	0b400ae5 	j	9d002b94 <vfprintf+0xd94>
9d003460:	afa20018 	sw	v0,24(sp)
9d003464:	0b400a0d 	j	9d002834 <vfprintf+0xa34>
9d003468:	03c2f023 	subu	s8,s8,v0
9d00346c:	0460013e 	bltz	v1,9d003968 <vfprintf+0x1b68>
9d003470:	00031027 	nor	v0,zero,v1
9d003474:	0f4027bd 	jal	9d009ef4 <__fixunssfsi>
9d003478:	02a02021 	move	a0,s5
9d00347c:	0040b021 	move	s6,v0
9d003480:	12c00158 	beqz	s6,9d0039e4 <vfprintf+0x1be4>
9d003484:	3c039d01 	lui	v1,0x9d01
9d003488:	246395e0 	addiu	v1,v1,-27168
9d00348c:	24050001 	li	a1,1
9d003490:	24070014 	li	a3,20
9d003494:	8c660004 	lw	a2,4(v1)
9d003498:	54c0000a 	bnezl	a2,9d0034c4 <vfprintf+0x16c4>
9d00349c:	02659823 	subu	s3,s3,a1
9d0034a0:	8c620000 	lw	v0,0(v1)
9d0034a4:	02c2102b 	sltu	v0,s6,v0
9d0034a8:	54400006 	bnezl	v0,9d0034c4 <vfprintf+0x16c4>
9d0034ac:	02659823 	subu	s3,s3,a1
9d0034b0:	24a50001 	addiu	a1,a1,1
9d0034b4:	14a7fff7 	bne	a1,a3,9d003494 <vfprintf+0x1694>
9d0034b8:	24630008 	addiu	v1,v1,8
9d0034bc:	24050014 	li	a1,20
9d0034c0:	02659823 	subu	s3,s3,a1
9d0034c4:	2a620019 	slti	v0,s3,25
9d0034c8:	104000d7 	beqz	v0,9d003828 <vfprintf+0x1a28>
9d0034cc:	00000000 	nop
9d0034d0:	0f4021b8 	jal	9d0086e0 <.LFE23>
9d0034d4:	326400ff 	andi	a0,s3,0xff
9d0034d8:	02a02021 	move	a0,s5
9d0034dc:	0f401db3 	jal	9d0076cc <__addsf3>
9d0034e0:	00402821 	move	a1,v0
9d0034e4:	0040a821 	move	s5,v0
9d0034e8:	0f401f62 	jal	9d007d88 <Dnan+0x228>
9d0034ec:	7c132420 	seb	a0,s3
9d0034f0:	0040b821 	move	s7,v0
9d0034f4:	0f4028b8 	jal	9d00a2e0 <__floatunsisf>
9d0034f8:	02c02021 	move	a0,s6
9d0034fc:	02a02021 	move	a0,s5
9d003500:	0f401db1 	jal	9d0076c4 <.LFE4>
9d003504:	00402821 	move	a1,v0
9d003508:	00402021 	move	a0,v0
9d00350c:	0f4020df 	jal	9d00837c <.LFE4>
9d003510:	02e02821 	move	a1,s7
9d003514:	0f4027bd 	jal	9d009ef4 <__fixunssfsi>
9d003518:	00402021 	move	a0,v0
9d00351c:	0040b021 	move	s6,v0
9d003520:	1260fb91 	beqz	s3,9d002368 <vfprintf+0x568>
9d003524:	0000b821 	move	s7,zero
9d003528:	02c02021 	move	a0,s6
9d00352c:	0b400d57 	j	9d00355c <vfprintf+0x175c>
9d003530:	00002821 	move	a1,zero
9d003534:	02e02821 	move	a1,s7
9d003538:	2406000a 	li	a2,10
9d00353c:	0f40185b 	jal	9d00616c <__udivdi3>
9d003540:	00003821 	move	a3,zero
9d003544:	00602821 	move	a1,v1
9d003548:	2673ffff 	addiu	s3,s3,-1
9d00354c:	0040b021 	move	s6,v0
9d003550:	1260fb85 	beqz	s3,9d002368 <vfprintf+0x568>
9d003554:	0060b821 	move	s7,v1
9d003558:	00402021 	move	a0,v0
9d00355c:	2406000a 	li	a2,10
9d003560:	0f401742 	jal	9d005d08 <__umoddi3>
9d003564:	00003821 	move	a3,zero
9d003568:	00431025 	or	v0,v0,v1
9d00356c:	5040fff1 	beqzl	v0,9d003534 <vfprintf+0x1734>
9d003570:	02c02021 	move	a0,s6
9d003574:	0b4008db 	j	9d00236c <vfprintf+0x56c>
9d003578:	8fa4001c 	lw	a0,28(sp)
9d00357c:	12e0010f 	beqz	s7,9d0039bc <vfprintf+0x1bbc>
9d003580:	a3a20016 	sb	v0,22(sp)
9d003584:	24030003 	li	v1,3
9d003588:	24160002 	li	s6,2
9d00358c:	24040100 	li	a0,256
9d003590:	00001021 	move	v0,zero
9d003594:	240a0011 	li	t2,17
9d003598:	02e2282b 	sltu	a1,s7,v0
9d00359c:	54a0fc91 	bnezl	a1,9d0027e4 <vfprintf+0x9e4>
9d0035a0:	a3b60016 	sb	s6,22(sp)
9d0035a4:	10570090 	beq	v0,s7,9d0037e8 <vfprintf+0x19e8>
9d0035a8:	02a4282b 	sltu	a1,s5,a0
9d0035ac:	24670001 	addiu	a3,v1,1
9d0035b0:	00043702 	srl	a2,a0,0x1c
9d0035b4:	00022900 	sll	a1,v0,0x4
9d0035b8:	7c03b420 	seb	s6,v1
9d0035bc:	30e300ff 	andi	v1,a3,0xff
9d0035c0:	00c51025 	or	v0,a2,a1
9d0035c4:	146afff4 	bne	v1,t2,9d003598 <vfprintf+0x1798>
9d0035c8:	00042100 	sll	a0,a0,0x4
9d0035cc:	0b4009f9 	j	9d0027e4 <vfprintf+0x9e4>
9d0035d0:	a3b60016 	sb	s6,22(sp)
9d0035d4:	144000cc 	bnez	v0,9d003908 <vfprintf+0x1b08>
9d0035d8:	328308c0 	andi	v1,s4,0x8c0
9d0035dc:	24020880 	li	v0,2176
9d0035e0:	1462fd47 	bne	v1,v0,9d002b00 <vfprintf+0xd00>
9d0035e4:	24040030 	li	a0,48
9d0035e8:	0f40239b 	jal	9d008e6c <.LFE0>
9d0035ec:	02402821 	move	a1,s2
9d0035f0:	00021027 	nor	v0,zero,v0
9d0035f4:	32850020 	andi	a1,s4,0x20
9d0035f8:	0002102b 	sltu	v0,zero,v0
9d0035fc:	24030058 	li	v1,88
9d003600:	24040078 	li	a0,120
9d003604:	0065200b 	movn	a0,v1,a1
9d003608:	02402821 	move	a1,s2
9d00360c:	0f40239b 	jal	9d008e6c <.LFE0>
9d003610:	02028021 	addu	s0,s0,v0
9d003614:	00021027 	nor	v0,zero,v0
9d003618:	0002102b 	sltu	v0,zero,v0
9d00361c:	0b400ac0 	j	9d002b00 <vfprintf+0xd00>
9d003620:	02028021 	addu	s0,s0,v0
9d003624:	1040fe95 	beqz	v0,9d00307c <vfprintf+0x127c>
9d003628:	328208c0 	andi	v0,s4,0x8c0
9d00362c:	0b400c19 	j	9d003064 <vfprintf+0x1264>
9d003630:	24040020 	li	a0,32
9d003634:	24020001 	li	v0,1
9d003638:	12e000db 	beqz	s7,9d0039a8 <vfprintf+0x1ba8>
9d00363c:	a3a20016 	sb	v0,22(sp)
9d003640:	24030003 	li	v1,3
9d003644:	24160002 	li	s6,2
9d003648:	24040040 	li	a0,64
9d00364c:	00001021 	move	v0,zero
9d003650:	240a0016 	li	t2,22
9d003654:	02e2282b 	sltu	a1,s7,v0
9d003658:	54a0fc62 	bnezl	a1,9d0027e4 <vfprintf+0x9e4>
9d00365c:	a3b60016 	sb	s6,22(sp)
9d003660:	10570065 	beq	v0,s7,9d0037f8 <vfprintf+0x19f8>
9d003664:	02a4282b 	sltu	a1,s5,a0
9d003668:	24670001 	addiu	a3,v1,1
9d00366c:	00043742 	srl	a2,a0,0x1d
9d003670:	000228c0 	sll	a1,v0,0x3
9d003674:	7c03b420 	seb	s6,v1
9d003678:	30e300ff 	andi	v1,a3,0xff
9d00367c:	00c51025 	or	v0,a2,a1
9d003680:	146afff4 	bne	v1,t2,9d003654 <vfprintf+0x1854>
9d003684:	000420c0 	sll	a0,a0,0x3
9d003688:	0b4009f9 	j	9d0027e4 <vfprintf+0x9e4>
9d00368c:	a3b60016 	sb	s6,22(sp)
9d003690:	8fa50060 	lw	a1,96(sp)
9d003694:	8cb30000 	lw	s3,0(a1)
9d003698:	82220002 	lb	v0,2(s1)
9d00369c:	24a50004 	addiu	a1,a1,4
9d0036a0:	afa50060 	sw	a1,96(sp)
9d0036a4:	0b4007e2 	j	9d001f88 <vfprintf+0x188>
9d0036a8:	26310002 	addiu	s1,s1,2
9d0036ac:	2404002d 	li	a0,45
9d0036b0:	02402821 	move	a1,s2
9d0036b4:	0f40239b 	jal	9d008e6c <.LFE0>
9d0036b8:	afa20010 	sw	v0,16(sp)
9d0036bc:	00021027 	nor	v0,zero,v0
9d0036c0:	0002102b 	sltu	v0,zero,v0
9d0036c4:	0b400b79 	j	9d002de4 <vfprintf+0xfe4>
9d0036c8:	02028021 	addu	s0,s0,v0
9d0036cc:	8c750000 	lw	s5,0(v1)
9d0036d0:	0000b821 	move	s7,zero
9d0036d4:	24630004 	addiu	v1,v1,4
9d0036d8:	0b4009d5 	j	9d002754 <vfprintf+0x954>
9d0036dc:	afa30060 	sw	v1,96(sp)
9d0036e0:	8c820000 	lw	v0,0(a0)
9d0036e4:	24840004 	addiu	a0,a0,4
9d0036e8:	afa40060 	sw	a0,96(sp)
9d0036ec:	00021fc3 	sra	v1,v0,0x1f
9d0036f0:	0040a821 	move	s5,v0
9d0036f4:	0060b821 	move	s7,v1
9d0036f8:	0b4009ce 	j	9d002738 <vfprintf+0x938>
9d0036fc:	00602021 	move	a0,v1
9d003700:	0b400cbb 	j	9d0032ec <vfprintf+0x14ec>
9d003704:	00601021 	move	v0,v1
9d003708:	1040fd3e 	beqz	v0,9d002c04 <vfprintf+0xe04>
9d00370c:	24040020 	li	a0,32
9d003710:	0b400afc 	j	9d002bf0 <vfprintf+0xdf0>
9d003714:	00000000 	nop
9d003718:	1040fd48 	beqz	v0,9d002c3c <vfprintf+0xe3c>
9d00371c:	83a20016 	lb	v0,22(sp)
9d003720:	0b400bc2 	j	9d002f08 <vfprintf+0x1108>
9d003724:	24040020 	li	a0,32
9d003728:	32820008 	andi	v0,s4,0x8
9d00372c:	305effff 	andi	s8,v0,0xffff
9d003730:	17c0000c 	bnez	s8,9d003764 <vfprintf+0x1964>
9d003734:	32820002 	andi	v0,s4,0x2
9d003738:	1ac0000a 	blez	s6,9d003764 <vfprintf+0x1964>
9d00373c:	00000000 	nop
9d003740:	24040020 	li	a0,32
9d003744:	0f40239b 	jal	9d008e6c <.LFE0>
9d003748:	02402821 	move	a1,s2
9d00374c:	00021027 	nor	v0,zero,v0
9d003750:	0002102b 	sltu	v0,zero,v0
9d003754:	26d6ffff 	addiu	s6,s6,-1
9d003758:	16c0fff9 	bnez	s6,9d003740 <vfprintf+0x1940>
9d00375c:	02028021 	addu	s0,s0,v0
9d003760:	32820002 	andi	v0,s4,0x2
9d003764:	50400058 	beqzl	v0,9d0038c8 <vfprintf+0x1ac8>
9d003768:	32940001 	andi	s4,s4,0x1
9d00376c:	32840001 	andi	a0,s4,0x1
9d003770:	2402002b 	li	v0,43
9d003774:	2403002d 	li	v1,45
9d003778:	0064100b 	movn	v0,v1,a0
9d00377c:	0b40094b 	j	9d00252c <vfprintf+0x72c>
9d003780:	00402021 	move	a0,v0
9d003784:	8fa50060 	lw	a1,96(sp)
9d003788:	24a30007 	addiu	v1,a1,7
9d00378c:	2402fff8 	li	v0,-8
9d003790:	00621024 	and	v0,v1,v0
9d003794:	24470008 	addiu	a3,v0,8
9d003798:	afa70060 	sw	a3,96(sp)
9d00379c:	8c550000 	lw	s5,0(v0)
9d0037a0:	0b4009d5 	j	9d002754 <vfprintf+0x954>
9d0037a4:	8c570004 	lw	s7,4(v0)
9d0037a8:	24430007 	addiu	v1,v0,7
9d0037ac:	2402fff8 	li	v0,-8
9d0037b0:	00621824 	and	v1,v1,v0
9d0037b4:	8c640004 	lw	a0,4(v1)
9d0037b8:	8c620000 	lw	v0,0(v1)
9d0037bc:	24630008 	addiu	v1,v1,8
9d0037c0:	afa30060 	sw	v1,96(sp)
9d0037c4:	00801821 	move	v1,a0
9d0037c8:	0040a821 	move	s5,v0
9d0037cc:	0b4009ce 	j	9d002738 <vfprintf+0x938>
9d0037d0:	0080b821 	move	s7,a0
9d0037d4:	02a4202b 	sltu	a0,s5,a0
9d0037d8:	1080fbfd 	beqz	a0,9d0027d0 <vfprintf+0x9d0>
9d0037dc:	24440001 	addiu	a0,v0,1
9d0037e0:	0b4009f9 	j	9d0027e4 <vfprintf+0x9e4>
9d0037e4:	a3b60016 	sb	s6,22(sp)
9d0037e8:	10a0ff71 	beqz	a1,9d0035b0 <vfprintf+0x17b0>
9d0037ec:	24670001 	addiu	a3,v1,1
9d0037f0:	0b4009f9 	j	9d0027e4 <vfprintf+0x9e4>
9d0037f4:	a3b60016 	sb	s6,22(sp)
9d0037f8:	10a0ff9c 	beqz	a1,9d00366c <vfprintf+0x186c>
9d0037fc:	24670001 	addiu	a3,v1,1
9d003800:	0b4009f9 	j	9d0027e4 <vfprintf+0x9e4>
9d003804:	a3b60016 	sb	s6,22(sp)
9d003808:	2456ffee 	addiu	s6,v0,-18
9d00380c:	0b4008f4 	j	9d0023d0 <vfprintf+0x5d0>
9d003810:	afb60010 	sw	s6,16(sp)
9d003814:	0043102b 	sltu	v0,v0,v1
9d003818:	1040fcdf 	beqz	v0,9d002b98 <vfprintf+0xd98>
9d00381c:	32830a00 	andi	v1,s4,0xa00
9d003820:	0b400cd0 	j	9d003340 <vfprintf+0x1540>
9d003824:	3c029d01 	lui	v0,0x9d01
9d003828:	0f401f62 	jal	9d007d88 <Dnan+0x228>
9d00382c:	7c132420 	seb	a0,s3
9d003830:	0040b821 	move	s7,v0
9d003834:	0f4028b8 	jal	9d00a2e0 <__floatunsisf>
9d003838:	02c02021 	move	a0,s6
9d00383c:	02a02021 	move	a0,s5
9d003840:	0f401db1 	jal	9d0076c4 <.LFE4>
9d003844:	00402821 	move	a1,v0
9d003848:	00402021 	move	a0,v0
9d00384c:	0f4020df 	jal	9d00837c <.LFE4>
9d003850:	02e02821 	move	a1,s7
9d003854:	0f4027bd 	jal	9d009ef4 <__fixunssfsi>
9d003858:	00402021 	move	a0,v0
9d00385c:	0040b021 	move	s6,v0
9d003860:	0b400d4a 	j	9d003528 <vfprintf+0x1728>
9d003864:	0000b821 	move	s7,zero
9d003868:	1040fb14 	beqz	v0,9d0024bc <vfprintf+0x6bc>
9d00386c:	24040020 	li	a0,32
9d003870:	0b40092a 	j	9d0024a8 <vfprintf+0x6a8>
9d003874:	00000000 	nop
9d003878:	0f4027bd 	jal	9d009ef4 <__fixunssfsi>
9d00387c:	00000000 	nop
9d003880:	0040b821 	move	s7,v0
9d003884:	0f4028b8 	jal	9d00a2e0 <__floatunsisf>
9d003888:	00402021 	move	a0,v0
9d00388c:	02a02021 	move	a0,s5
9d003890:	0f401db1 	jal	9d0076c4 <.LFE4>
9d003894:	00402821 	move	a1,v0
9d003898:	afa20018 	sw	v0,24(sp)
9d00389c:	02e0a821 	move	s5,s7
9d0038a0:	afa00010 	sw	zero,16(sp)
9d0038a4:	0b400900 	j	9d002400 <vfprintf+0x600>
9d0038a8:	0000b021 	move	s6,zero
9d0038ac:	0f4021b8 	jal	9d0086e0 <.LFE23>
9d0038b0:	326400ff 	andi	a0,s3,0xff
9d0038b4:	02a02021 	move	a0,s5
9d0038b8:	0f401db3 	jal	9d0076cc <__addsf3>
9d0038bc:	00402821 	move	a1,v0
9d0038c0:	0b4008da 	j	9d002368 <vfprintf+0x568>
9d0038c4:	0040a821 	move	s5,v0
9d0038c8:	1280fb1d 	beqz	s4,9d002540 <vfprintf+0x740>
9d0038cc:	24040020 	li	a0,32
9d0038d0:	0b40094b 	j	9d00252c <vfprintf+0x72c>
9d0038d4:	00000000 	nop
9d0038d8:	a3a20016 	sb	v0,22(sp)
9d0038dc:	1440fb30 	bnez	v0,9d0025a0 <vfprintf+0x7a0>
9d0038e0:	02629823 	subu	s3,s3,v0
9d0038e4:	16e0fb2f 	bnez	s7,9d0025a4 <vfprintf+0x7a4>
9d0038e8:	2404002e 	li	a0,46
9d0038ec:	2402ffff 	li	v0,-1
9d0038f0:	0b4009a0 	j	9d002680 <vfprintf+0x880>
9d0038f4:	a3a20016 	sb	v0,22(sp)
9d0038f8:	26d6ffff 	addiu	s6,s6,-1
9d0038fc:	afb60010 	sw	s6,16(sp)
9d003900:	0b4008d2 	j	9d002348 <vfprintf+0x548>
9d003904:	afb6001c 	sw	s6,28(sp)
9d003908:	0b400abb 	j	9d002aec <vfprintf+0xcec>
9d00390c:	24040020 	li	a0,32
9d003910:	24040030 	li	a0,48
9d003914:	0f40239b 	jal	9d008e6c <.LFE0>
9d003918:	02402821 	move	a1,s2
9d00391c:	00021027 	nor	v0,zero,v0
9d003920:	0002102b 	sltu	v0,zero,v0
9d003924:	0b400c24 	j	9d003090 <vfprintf+0x1290>
9d003928:	02028021 	addu	s0,s0,v0
9d00392c:	0f40239b 	jal	9d008e6c <.LFE0>
9d003930:	02402821 	move	a1,s2
9d003934:	00021027 	nor	v0,zero,v0
9d003938:	32850020 	andi	a1,s4,0x20
9d00393c:	0002102b 	sltu	v0,zero,v0
9d003940:	24030058 	li	v1,88
9d003944:	24040078 	li	a0,120
9d003948:	0065200b 	movn	a0,v1,a1
9d00394c:	02402821 	move	a1,s2
9d003950:	0f40239b 	jal	9d008e6c <.LFE0>
9d003954:	02028021 	addu	s0,s0,v0
9d003958:	00021027 	nor	v0,zero,v0
9d00395c:	0002102b 	sltu	v0,zero,v0
9d003960:	0b400c24 	j	9d003090 <vfprintf+0x1290>
9d003964:	02028021 	addu	s0,s0,v0
9d003968:	02a02021 	move	a0,s5
9d00396c:	0f4027bd 	jal	9d009ef4 <__fixunssfsi>
9d003970:	02629821 	addu	s3,s3,v0
9d003974:	0b400d20 	j	9d003480 <vfprintf+0x1680>
9d003978:	0040b021 	move	s6,v0
9d00397c:	3c099d01 	lui	t1,0x9d01
9d003980:	25359678 	addiu	s5,t1,-27016
9d003984:	0b400a1b 	j	9d00286c <vfprintf+0xa6c>
9d003988:	02a02021 	move	a0,s5
9d00398c:	afa50060 	sw	a1,96(sp)
9d003990:	0b400a24 	j	9d002890 <vfprintf+0xa90>
9d003994:	0000b821 	move	s7,zero
9d003998:	24020001 	li	v0,1
9d00399c:	a3a20016 	sb	v0,22(sp)
9d0039a0:	0b400915 	j	9d002454 <vfprintf+0x654>
9d0039a4:	24050001 	li	a1,1
9d0039a8:	2ea20008 	sltiu	v0,s5,8
9d0039ac:	1040ff25 	beqz	v0,9d003644 <vfprintf+0x1844>
9d0039b0:	24030003 	li	v1,3
9d0039b4:	0b400a9c 	j	9d002a70 <vfprintf+0xc70>
9d0039b8:	24160001 	li	s6,1
9d0039bc:	2ea20010 	sltiu	v0,s5,16
9d0039c0:	1040fef1 	beqz	v0,9d003588 <vfprintf+0x1788>
9d0039c4:	24030003 	li	v1,3
9d0039c8:	0b400a9c 	j	9d002a70 <vfprintf+0xc70>
9d0039cc:	24160001 	li	s6,1
9d0039d0:	2ea2000a 	sltiu	v0,s5,10
9d0039d4:	1040fb73 	beqz	v0,9d0027a4 <vfprintf+0x9a4>
9d0039d8:	3c039d01 	lui	v1,0x9d01
9d0039dc:	0b400a9c 	j	9d002a70 <vfprintf+0xc70>
9d0039e0:	24160001 	li	s6,1
9d0039e4:	0b400d30 	j	9d0034c0 <vfprintf+0x16c0>
9d0039e8:	00002821 	move	a1,zero
9d0039ec:	7c131420 	seb	v0,s3
9d0039f0:	0b400c9a 	j	9d003268 <vfprintf+0x1468>
9d0039f4:	a3a20016 	sb	v0,22(sp)
9d0039f8:	3042ffff 	andi	v0,v0,0xffff
9d0039fc:	afa20024 	sw	v0,36(sp)
9d003a00:	0b400c11 	j	9d003044 <vfprintf+0x1244>
9d003a04:	0000b021 	move	s6,zero

Disassembly of section .text._vfprintf_cdfFnopuxX:

9d003a08 <_vfprintf_cdfFnopuxX>:
9d003a08:	27bdffa0 	addiu	sp,sp,-96
9d003a0c:	afbf005c 	sw	ra,92(sp)
9d003a10:	afbe0058 	sw	s8,88(sp)
9d003a14:	afb70054 	sw	s7,84(sp)
9d003a18:	afb60050 	sw	s6,80(sp)
9d003a1c:	afb5004c 	sw	s5,76(sp)
9d003a20:	afb40048 	sw	s4,72(sp)
9d003a24:	afb30044 	sw	s3,68(sp)
9d003a28:	afb20040 	sw	s2,64(sp)
9d003a2c:	afb1003c 	sw	s1,60(sp)
9d003a30:	afb00038 	sw	s0,56(sp)
9d003a34:	00809021 	move	s2,a0
9d003a38:	00a08821 	move	s1,a1
9d003a3c:	afa60068 	sw	a2,104(sp)
9d003a40:	00001021 	move	v0,zero
9d003a44:	afa20024 	sw	v0,36(sp)
9d003a48:	00008021 	move	s0,zero
9d003a4c:	82240000 	lb	a0,0(s1)
9d003a50:	26330001 	addiu	s3,s1,1
9d003a54:	10800028 	beqz	a0,9d003af8 <_vfprintf_cdfFnopuxX+0xf0>
9d003a58:	a3a40016 	sb	a0,22(sp)
9d003a5c:	24020025 	li	v0,37
9d003a60:	1482001b 	bne	a0,v0,9d003ad0 <_vfprintf_cdfFnopuxX+0xc8>
9d003a64:	26220002 	addiu	v0,s1,2
9d003a68:	0000b021 	move	s6,zero
9d003a6c:	2404002b 	li	a0,43
9d003a70:	2405002d 	li	a1,45
9d003a74:	24070030 	li	a3,48
9d003a78:	24060020 	li	a2,32
9d003a7c:	8057ffff 	lb	s7,-1(v0)
9d003a80:	12e4000c 	beq	s7,a0,9d003ab4 <_vfprintf_cdfFnopuxX+0xac>
9d003a84:	2451ffff 	addiu	s1,v0,-1
9d003a88:	2ae3002c 	slti	v1,s7,44
9d003a8c:	1460000c 	bnez	v1,9d003ac0 <_vfprintf_cdfFnopuxX+0xb8>
9d003a90:	00000000 	nop
9d003a94:	52e501df 	beql	s7,a1,9d004214 <_vfprintf_cdfFnopuxX+0x80c>
9d003a98:	36d60008 	ori	s6,s6,0x8
9d003a9c:	16e70023 	bne	s7,a3,9d003b2c <_vfprintf_cdfFnopuxX+0x124>
9d003aa0:	24420001 	addiu	v0,v0,1
9d003aa4:	36d60004 	ori	s6,s6,0x4
9d003aa8:	8057ffff 	lb	s7,-1(v0)
9d003aac:	16e4fff6 	bne	s7,a0,9d003a88 <_vfprintf_cdfFnopuxX+0x80>
9d003ab0:	2451ffff 	addiu	s1,v0,-1
9d003ab4:	36d60002 	ori	s6,s6,0x2
9d003ab8:	0b400eaa 	j	9d003aa8 <_vfprintf_cdfFnopuxX+0xa0>
9d003abc:	24420001 	addiu	v0,v0,1
9d003ac0:	16e6001a 	bne	s7,a2,9d003b2c <_vfprintf_cdfFnopuxX+0x124>
9d003ac4:	24420001 	addiu	v0,v0,1
9d003ac8:	0b400eaa 	j	9d003aa8 <_vfprintf_cdfFnopuxX+0xa0>
9d003acc:	36d60001 	ori	s6,s6,0x1
9d003ad0:	0f40239b 	jal	9d008e6c <.LFE0>
9d003ad4:	02402821 	move	a1,s2
9d003ad8:	2403ffff 	li	v1,-1
9d003adc:	1043ffdb 	beq	v0,v1,9d003a4c <_vfprintf_cdfFnopuxX+0x44>
9d003ae0:	02608821 	move	s1,s3
9d003ae4:	26100001 	addiu	s0,s0,1
9d003ae8:	82640000 	lb	a0,0(s3)
9d003aec:	26330001 	addiu	s3,s1,1
9d003af0:	1480ffda 	bnez	a0,9d003a5c <_vfprintf_cdfFnopuxX+0x54>
9d003af4:	a3a40016 	sb	a0,22(sp)
9d003af8:	02001021 	move	v0,s0
9d003afc:	8fbf005c 	lw	ra,92(sp)
9d003b00:	8fbe0058 	lw	s8,88(sp)
9d003b04:	8fb70054 	lw	s7,84(sp)
9d003b08:	8fb60050 	lw	s6,80(sp)
9d003b0c:	8fb5004c 	lw	s5,76(sp)
9d003b10:	8fb40048 	lw	s4,72(sp)
9d003b14:	8fb30044 	lw	s3,68(sp)
9d003b18:	8fb20040 	lw	s2,64(sp)
9d003b1c:	8fb1003c 	lw	s1,60(sp)
9d003b20:	8fb00038 	lw	s0,56(sp)
9d003b24:	03e00008 	jr	ra
9d003b28:	27bd0060 	addiu	sp,sp,96
9d003b2c:	3c039d01 	lui	v1,0x9d01
9d003b30:	246391e1 	addiu	v1,v1,-28191
9d003b34:	00771021 	addu	v0,v1,s7
9d003b38:	90420000 	lbu	v0,0(v0)
9d003b3c:	32c40002 	andi	a0,s6,0x2
9d003b40:	32c3fffe 	andi	v1,s6,0xfffe
9d003b44:	0064b00b 	movn	s6,v1,a0
9d003b48:	32c40008 	andi	a0,s6,0x8
9d003b4c:	32c3fffb 	andi	v1,s6,0xfffb
9d003b50:	30420004 	andi	v0,v0,0x4
9d003b54:	02202821 	move	a1,s1
9d003b58:	104001b0 	beqz	v0,9d00421c <_vfprintf_cdfFnopuxX+0x814>
9d003b5c:	0064b00b 	movn	s6,v1,a0
9d003b60:	02e01821 	move	v1,s7
9d003b64:	0b400edc 	j	9d003b70 <_vfprintf_cdfFnopuxX+0x168>
9d003b68:	0000b821 	move	s7,zero
9d003b6c:	00401821 	move	v1,v0
9d003b70:	26310001 	addiu	s1,s1,1
9d003b74:	82220000 	lb	v0,0(s1)
9d003b78:	00172840 	sll	a1,s7,0x1
9d003b7c:	0017b8c0 	sll	s7,s7,0x3
9d003b80:	3c069d01 	lui	a2,0x9d01
9d003b84:	24c691e1 	addiu	a2,a2,-28191
9d003b88:	00c22021 	addu	a0,a2,v0
9d003b8c:	90840000 	lbu	a0,0(a0)
9d003b90:	00b7b821 	addu	s7,a1,s7
9d003b94:	02e3b821 	addu	s7,s7,v1
9d003b98:	30840004 	andi	a0,a0,0x4
9d003b9c:	1480fff3 	bnez	a0,9d003b6c <_vfprintf_cdfFnopuxX+0x164>
9d003ba0:	26f7ffd0 	addiu	s7,s7,-48
9d003ba4:	2403002e 	li	v1,46
9d003ba8:	504301a3 	beql	v0,v1,9d004238 <_vfprintf_cdfFnopuxX+0x830>
9d003bac:	82220001 	lb	v0,1(s1)
9d003bb0:	36d61000 	ori	s6,s6,0x1000
9d003bb4:	00009821 	move	s3,zero
9d003bb8:	24060010 	li	a2,16
9d003bbc:	34058000 	li	a1,0x8000
9d003bc0:	304300ff 	andi	v1,v0,0xff
9d003bc4:	2c640079 	sltiu	a0,v1,121
9d003bc8:	1080016e 	beqz	a0,9d004184 <_vfprintf_cdfFnopuxX+0x77c>
9d003bcc:	26310001 	addiu	s1,s1,1
9d003bd0:	00031880 	sll	v1,v1,0x2
9d003bd4:	3c079d00 	lui	a3,0x9d00
9d003bd8:	24e73bec 	addiu	a3,a3,15340
9d003bdc:	00e31821 	addu	v1,a3,v1
9d003be0:	8c630000 	lw	v1,0(v1)
9d003be4:	00600008 	jr	v1
9d003be8:	00000000 	nop
9d003bec:	9d003af8 	0x9d003af8
9d003bf0:	9d004184 	0x9d004184
9d003bf4:	9d004184 	0x9d004184
9d003bf8:	9d004184 	0x9d004184
9d003bfc:	9d004184 	0x9d004184
9d003c00:	9d004184 	0x9d004184
9d003c04:	9d004184 	0x9d004184
9d003c08:	9d004184 	0x9d004184
9d003c0c:	9d004184 	0x9d004184
9d003c10:	9d004184 	0x9d004184
9d003c14:	9d004184 	0x9d004184
9d003c18:	9d004184 	0x9d004184
9d003c1c:	9d004184 	0x9d004184
9d003c20:	9d004184 	0x9d004184
9d003c24:	9d004184 	0x9d004184
9d003c28:	9d004184 	0x9d004184
9d003c2c:	9d004184 	0x9d004184
9d003c30:	9d004184 	0x9d004184
9d003c34:	9d004184 	0x9d004184
9d003c38:	9d004184 	0x9d004184
9d003c3c:	9d004184 	0x9d004184
9d003c40:	9d004184 	0x9d004184
9d003c44:	9d004184 	0x9d004184
9d003c48:	9d004184 	0x9d004184
9d003c4c:	9d004184 	0x9d004184
9d003c50:	9d004184 	0x9d004184
9d003c54:	9d004184 	0x9d004184
9d003c58:	9d004184 	0x9d004184
9d003c5c:	9d004184 	0x9d004184
9d003c60:	9d004184 	0x9d004184
9d003c64:	9d004184 	0x9d004184
9d003c68:	9d004184 	0x9d004184
9d003c6c:	9d004184 	0x9d004184
9d003c70:	9d004184 	0x9d004184
9d003c74:	9d004184 	0x9d004184
9d003c78:	9d004184 	0x9d004184
9d003c7c:	9d004184 	0x9d004184
9d003c80:	9d004184 	0x9d004184
9d003c84:	9d004184 	0x9d004184
9d003c88:	9d004184 	0x9d004184
9d003c8c:	9d004184 	0x9d004184
9d003c90:	9d004184 	0x9d004184
9d003c94:	9d004184 	0x9d004184
9d003c98:	9d004184 	0x9d004184
9d003c9c:	9d004184 	0x9d004184
9d003ca0:	9d004184 	0x9d004184
9d003ca4:	9d004184 	0x9d004184
9d003ca8:	9d004184 	0x9d004184
9d003cac:	9d004184 	0x9d004184
9d003cb0:	9d004184 	0x9d004184
9d003cb4:	9d004184 	0x9d004184
9d003cb8:	9d004184 	0x9d004184
9d003cbc:	9d004184 	0x9d004184
9d003cc0:	9d004184 	0x9d004184
9d003cc4:	9d004184 	0x9d004184
9d003cc8:	9d004184 	0x9d004184
9d003ccc:	9d004184 	0x9d004184
9d003cd0:	9d004184 	0x9d004184
9d003cd4:	9d004184 	0x9d004184
9d003cd8:	9d004184 	0x9d004184
9d003cdc:	9d004184 	0x9d004184
9d003ce0:	9d004184 	0x9d004184
9d003ce4:	9d004184 	0x9d004184
9d003ce8:	9d004184 	0x9d004184
9d003cec:	9d004184 	0x9d004184
9d003cf0:	9d004184 	0x9d004184
9d003cf4:	9d004184 	0x9d004184
9d003cf8:	9d004184 	0x9d004184
9d003cfc:	9d004184 	0x9d004184
9d003d00:	9d004184 	0x9d004184
9d003d04:	9d004184 	0x9d004184
9d003d08:	9d004184 	0x9d004184
9d003d0c:	9d004184 	0x9d004184
9d003d10:	9d004184 	0x9d004184
9d003d14:	9d004184 	0x9d004184
9d003d18:	9d004184 	0x9d004184
9d003d1c:	9d004184 	0x9d004184
9d003d20:	9d004184 	0x9d004184
9d003d24:	9d004184 	0x9d004184
9d003d28:	9d004184 	0x9d004184
9d003d2c:	9d004184 	0x9d004184
9d003d30:	9d004184 	0x9d004184
9d003d34:	9d004184 	0x9d004184
9d003d38:	9d004184 	0x9d004184
9d003d3c:	9d004184 	0x9d004184
9d003d40:	9d004184 	0x9d004184
9d003d44:	9d004184 	0x9d004184
9d003d48:	9d004184 	0x9d004184
9d003d4c:	9d004208 	0x9d004208
9d003d50:	9d004184 	0x9d004184
9d003d54:	9d004184 	0x9d004184
9d003d58:	9d004184 	0x9d004184
9d003d5c:	9d004184 	0x9d004184
9d003d60:	9d004184 	0x9d004184
9d003d64:	9d004184 	0x9d004184
9d003d68:	9d004184 	0x9d004184
9d003d6c:	9d004184 	0x9d004184
9d003d70:	9d004184 	0x9d004184
9d003d74:	9d004184 	0x9d004184
9d003d78:	9d0041ac 	0x9d0041ac
9d003d7c:	9d0041a4 	0x9d0041a4
9d003d80:	9d004184 	0x9d004184
9d003d84:	9d004194 	0x9d004194
9d003d88:	9d004184 	0x9d004184
9d003d8c:	9d004184 	0x9d004184
9d003d90:	9d0041a4 	0x9d0041a4
9d003d94:	9d004184 	0x9d004184
9d003d98:	9d004184 	0x9d004184
9d003d9c:	9d004160 	0x9d004160
9d003da0:	9d004184 	0x9d004184
9d003da4:	9d004184 	0x9d004184
9d003da8:	9d004150 	0x9d004150
9d003dac:	9d004208 	0x9d004208
9d003db0:	9d004184 	0x9d004184
9d003db4:	9d004184 	0x9d004184
9d003db8:	9d004060 	0x9d004060
9d003dbc:	9d004184 	0x9d004184
9d003dc0:	9d003efc 	0x9d003efc
9d003dc4:	9d004184 	0x9d004184
9d003dc8:	9d004184 	0x9d004184
9d003dcc:	9d003dd0 	0x9d003dd0
9d003dd0:	24020078 	li	v0,120
9d003dd4:	a3a20016 	sb	v0,22(sp)
9d003dd8:	36d60080 	ori	s6,s6,0x80
9d003ddc:	32c20700 	andi	v0,s6,0x700
9d003de0:	1040004d 	beqz	v0,9d003f18 <_vfprintf_cdfFnopuxX+0x510>
9d003de4:	32c200c0 	andi	v0,s6,0xc0
9d003de8:	32c41000 	andi	a0,s6,0x1000
9d003dec:	32c20010 	andi	v0,s6,0x10
9d003df0:	24030006 	li	v1,6
9d003df4:	104001fd 	beqz	v0,9d0045ec <_vfprintf_cdfFnopuxX+0xbe4>
9d003df8:	0064980b 	movn	s3,v1,a0
9d003dfc:	8fa20068 	lw	v0,104(sp)
9d003e00:	24430007 	addiu	v1,v0,7
9d003e04:	2402fff8 	li	v0,-8
9d003e08:	00621024 	and	v0,v1,v0
9d003e0c:	8c440000 	lw	a0,0(v0)
9d003e10:	8c450004 	lw	a1,4(v0)
9d003e14:	24420008 	addiu	v0,v0,8
9d003e18:	0f401fe9 	jal	9d007fa4 <__floatdisf>
9d003e1c:	afa20068 	sw	v0,104(sp)
9d003e20:	0040a021 	move	s4,v0
9d003e24:	02802021 	move	a0,s4
9d003e28:	0f40274d 	jal	9d009d34 <.LFE0>
9d003e2c:	00002821 	move	a1,zero
9d003e30:	044001f8 	bltz	v0,9d004614 <_vfprintf_cdfFnopuxX+0xc0c>
9d003e34:	3c028000 	lui	v0,0x8000
9d003e38:	02802021 	move	a0,s4
9d003e3c:	00002821 	move	a1,zero
9d003e40:	0f40274d 	jal	9d009d34 <.LFE0>
9d003e44:	afa00010 	sw	zero,16(sp)
9d003e48:	144001fa 	bnez	v0,9d004634 <_vfprintf_cdfFnopuxX+0xc2c>
9d003e4c:	0000f021 	move	s8,zero
9d003e50:	2a620019 	slti	v0,s3,25
9d003e54:	10400015 	beqz	v0,9d003eac <_vfprintf_cdfFnopuxX+0x4a4>
9d003e58:	2bc2000a 	slti	v0,s8,10
9d003e5c:	326200ff 	andi	v0,s3,0xff
9d003e60:	305500ff 	andi	s5,v0,0xff
9d003e64:	2ea4006e 	sltiu	a0,s5,110
9d003e68:	1080022a 	beqz	a0,9d004714 <_vfprintf_cdfFnopuxX+0xd0c>
9d003e6c:	3c0751eb 	lui	a3,0x51eb
9d003e70:	2ea4000b 	sltiu	a0,s5,11
9d003e74:	108003ab 	beqz	a0,9d004d24 <_vfprintf_cdfFnopuxX+0x131c>
9d003e78:	00021080 	sll	v0,v0,0x2
9d003e7c:	3c039d01 	lui	v1,0x9d01
9d003e80:	2463a0f8 	addiu	v1,v1,-24328
9d003e84:	00431021 	addu	v0,v0,v1
9d003e88:	8c440000 	lw	a0,0(v0)
9d003e8c:	3c029d01 	lui	v0,0x9d01
9d003e90:	0f4020df 	jal	9d00837c <.LFE4>
9d003e94:	8c459798 	lw	a1,-26728(v0)
9d003e98:	00402821 	move	a1,v0
9d003e9c:	0f401db3 	jal	9d0076cc <__addsf3>
9d003ea0:	02802021 	move	a0,s4
9d003ea4:	0040a021 	move	s4,v0
9d003ea8:	2bc2000a 	slti	v0,s8,10
9d003eac:	50400104 	beqzl	v0,9d0042c0 <_vfprintf_cdfFnopuxX+0x8b8>
9d003eb0:	8fa40024 	lw	a0,36(sp)
9d003eb4:	02802021 	move	a0,s4
9d003eb8:	0f40274d 	jal	9d009d34 <.LFE0>
9d003ebc:	00002821 	move	a1,zero
9d003ec0:	144000f7 	bnez	v0,9d0042a0 <_vfprintf_cdfFnopuxX+0x898>
9d003ec4:	02802021 	move	a0,s4
9d003ec8:	0f4027bd 	jal	9d009ef4 <__fixunssfsi>
9d003ecc:	00000000 	nop
9d003ed0:	0040f021 	move	s8,v0
9d003ed4:	0f4028b8 	jal	9d00a2e0 <__floatunsisf>
9d003ed8:	00402021 	move	a0,v0
9d003edc:	02802021 	move	a0,s4
9d003ee0:	0f401db1 	jal	9d0076c4 <.LFE4>
9d003ee4:	00402821 	move	a1,v0
9d003ee8:	afa2001c 	sw	v0,28(sp)
9d003eec:	03c0a821 	move	s5,s8
9d003ef0:	afa00010 	sw	zero,16(sp)
9d003ef4:	0b4010c6 	j	9d004318 <_vfprintf_cdfFnopuxX+0x910>
9d003ef8:	00005021 	move	t2,zero
9d003efc:	24020075 	li	v0,117
9d003f00:	a3a20016 	sb	v0,22(sp)
9d003f04:	36d600c0 	ori	s6,s6,0xc0
9d003f08:	32c20700 	andi	v0,s6,0x700
9d003f0c:	1440ffb7 	bnez	v0,9d003dec <_vfprintf_cdfFnopuxX+0x3e4>
9d003f10:	32c41000 	andi	a0,s6,0x1000
9d003f14:	32c200c0 	andi	v0,s6,0xc0
9d003f18:	144001eb 	bnez	v0,9d0046c8 <_vfprintf_cdfFnopuxX+0xcc0>
9d003f1c:	7c161620 	seh	v0,s6
9d003f20:	0440036d 	bltz	v0,9d004cd8 <_vfprintf_cdfFnopuxX+0x12d0>
9d003f24:	8fa70068 	lw	a3,104(sp)
9d003f28:	32c20010 	andi	v0,s6,0x10
9d003f2c:	10400233 	beqz	v0,9d0047fc <_vfprintf_cdfFnopuxX+0xdf4>
9d003f30:	8fa40068 	lw	a0,104(sp)
9d003f34:	8fa30068 	lw	v1,104(sp)
9d003f38:	8c620000 	lw	v0,0(v1)
9d003f3c:	24630004 	addiu	v1,v1,4
9d003f40:	afa30068 	sw	v1,104(sp)
9d003f44:	00021fc3 	sra	v1,v0,0x1f
9d003f48:	0040a821 	move	s5,v0
9d003f4c:	0060f021 	move	s8,v1
9d003f50:	00602021 	move	a0,v1
9d003f54:	04810006 	bgez	a0,9d003f70 <_vfprintf_cdfFnopuxX+0x568>
9d003f58:	00024023 	negu	t0,v0
9d003f5c:	0008102b 	sltu	v0,zero,t0
9d003f60:	00031823 	negu	v1,v1
9d003f64:	36d60003 	ori	s6,s6,0x3
9d003f68:	0100a821 	move	s5,t0
9d003f6c:	0062f023 	subu	s8,v1,v0
9d003f70:	16600003 	bnez	s3,9d003f80 <_vfprintf_cdfFnopuxX+0x578>
9d003f74:	32d400c0 	andi	s4,s6,0xc0
9d003f78:	02be9825 	or	s3,s5,s8
9d003f7c:	2e730001 	sltiu	s3,s3,1
9d003f80:	24020040 	li	v0,64
9d003f84:	12820332 	beq	s4,v0,9d004c50 <_vfprintf_cdfFnopuxX+0x1248>
9d003f88:	2e820041 	sltiu	v0,s4,65
9d003f8c:	14400228 	bnez	v0,9d004830 <_vfprintf_cdfFnopuxX+0xe28>
9d003f90:	24020080 	li	v0,128
9d003f94:	12820309 	beq	s4,v0,9d004bbc <_vfprintf_cdfFnopuxX+0x11b4>
9d003f98:	24020001 	li	v0,1
9d003f9c:	240200c0 	li	v0,192
9d003fa0:	16820226 	bne	s4,v0,9d00483c <_vfprintf_cdfFnopuxX+0xe34>
9d003fa4:	83a20016 	lb	v0,22(sp)
9d003fa8:	24020001 	li	v0,1
9d003fac:	13c0038b 	beqz	s8,9d004ddc <_vfprintf_cdfFnopuxX+0x13d4>
9d003fb0:	a3a20016 	sb	v0,22(sp)
9d003fb4:	3c039d01 	lui	v1,0x9d01
9d003fb8:	246396d0 	addiu	v1,v1,-26928
9d003fbc:	24020003 	li	v0,3
9d003fc0:	24060002 	li	a2,2
9d003fc4:	0b400ff4 	j	9d003fd0 <_vfprintf_cdfFnopuxX+0x5c8>
9d003fc8:	24070015 	li	a3,21
9d003fcc:	00803021 	move	a2,a0
9d003fd0:	8c640004 	lw	a0,4(v1)
9d003fd4:	03c4282b 	sltu	a1,s8,a0
9d003fd8:	54a002eb 	bnezl	a1,9d004b88 <_vfprintf_cdfFnopuxX+0x1180>
9d003fdc:	a3a60016 	sb	a2,22(sp)
9d003fe0:	509e0373 	beql	a0,s8,9d004db0 <_vfprintf_cdfFnopuxX+0x13a8>
9d003fe4:	8c640000 	lw	a0,0(v1)
9d003fe8:	24450001 	addiu	a1,v0,1
9d003fec:	7c022420 	seb	a0,v0
9d003ff0:	30a200ff 	andi	v0,a1,0xff
9d003ff4:	1447fff5 	bne	v0,a3,9d003fcc <_vfprintf_cdfFnopuxX+0x5c4>
9d003ff8:	24630008 	addiu	v1,v1,8
9d003ffc:	00801021 	move	v0,a0
9d004000:	0053182a 	slt	v1,v0,s3
9d004004:	14600210 	bnez	v1,9d004848 <_vfprintf_cdfFnopuxX+0xe40>
9d004008:	a3a40016 	sb	a0,22(sp)
9d00400c:	0262182a 	slt	v1,s3,v0
9d004010:	0043980b 	movn	s3,v0,v1
9d004014:	12e00005 	beqz	s7,9d00402c <_vfprintf_cdfFnopuxX+0x624>
9d004018:	32c34000 	andi	v1,s6,0x4000
9d00401c:	32c30003 	andi	v1,s6,0x3
9d004020:	0003182b 	sltu	v1,zero,v1
9d004024:	02e3b823 	subu	s7,s7,v1
9d004028:	32c34000 	andi	v1,s6,0x4000
9d00402c:	10600005 	beqz	v1,9d004044 <_vfprintf_cdfFnopuxX+0x63c>
9d004030:	0057182a 	slt	v1,v0,s7
9d004034:	0277182a 	slt	v1,s3,s7
9d004038:	02f3b823 	subu	s7,s7,s3
9d00403c:	0003b80a 	movz	s7,zero,v1
9d004040:	0057182a 	slt	v1,v0,s7
9d004044:	54600225 	bnezl	v1,9d0048dc <_vfprintf_cdfFnopuxX+0xed4>
9d004048:	32c30004 	andi	v1,s6,0x4
9d00404c:	32c20004 	andi	v0,s6,0x4
9d004050:	10400371 	beqz	v0,9d004e18 <_vfprintf_cdfFnopuxX+0x1410>
9d004054:	32c20008 	andi	v0,s6,0x8
9d004058:	0b401239 	j	9d0048e4 <_vfprintf_cdfFnopuxX+0xedc>
9d00405c:	0000b821 	move	s7,zero
9d004060:	24020073 	li	v0,115
9d004064:	a3a20016 	sb	v0,22(sp)
9d004068:	8fa50068 	lw	a1,104(sp)
9d00406c:	8ca40000 	lw	a0,0(a1)
9d004070:	24a50004 	addiu	a1,a1,4
9d004074:	10800323 	beqz	a0,9d004d04 <_vfprintf_cdfFnopuxX+0x12fc>
9d004078:	0080a821 	move	s5,a0
9d00407c:	80820000 	lb	v0,0(a0)
9d004080:	10400353 	beqz	v0,9d004dd0 <_vfprintf_cdfFnopuxX+0x13c8>
9d004084:	24820001 	addiu	v0,a0,1
9d004088:	0044a023 	subu	s4,v0,a0
9d00408c:	24420001 	addiu	v0,v0,1
9d004090:	8043ffff 	lb	v1,-1(v0)
9d004094:	5460fffd 	bnezl	v1,9d00408c <_vfprintf_cdfFnopuxX+0x684>
9d004098:	0044a023 	subu	s4,v0,a0
9d00409c:	afa50068 	sw	a1,104(sp)
9d0040a0:	12600003 	beqz	s3,9d0040b0 <_vfprintf_cdfFnopuxX+0x6a8>
9d0040a4:	32d60008 	andi	s6,s6,0x8
9d0040a8:	0274102b 	sltu	v0,s3,s4
9d0040ac:	0262a00b 	movn	s4,s3,v0
9d0040b0:	0297102b 	sltu	v0,s4,s7
9d0040b4:	02f4b823 	subu	s7,s7,s4
9d0040b8:	32d6ffff 	andi	s6,s6,0xffff
9d0040bc:	16c0000c 	bnez	s6,9d0040f0 <_vfprintf_cdfFnopuxX+0x6e8>
9d0040c0:	0002b80a 	movz	s7,zero,v0
9d0040c4:	52e0000a 	beqzl	s7,9d0040f0 <_vfprintf_cdfFnopuxX+0x6e8>
9d0040c8:	2417ffff 	li	s7,-1
9d0040cc:	24040020 	li	a0,32
9d0040d0:	0f40239b 	jal	9d008e6c <.LFE0>
9d0040d4:	02402821 	move	a1,s2
9d0040d8:	00021027 	nor	v0,zero,v0
9d0040dc:	0002102b 	sltu	v0,zero,v0
9d0040e0:	26f7ffff 	addiu	s7,s7,-1
9d0040e4:	16e0fff9 	bnez	s7,9d0040cc <_vfprintf_cdfFnopuxX+0x6c4>
9d0040e8:	02028021 	addu	s0,s0,v0
9d0040ec:	2417ffff 	li	s7,-1
9d0040f0:	2694ffff 	addiu	s4,s4,-1
9d0040f4:	2413ffff 	li	s3,-1
9d0040f8:	1293000a 	beq	s4,s3,9d004124 <_vfprintf_cdfFnopuxX+0x71c>
9d0040fc:	00000000 	nop
9d004100:	82a40000 	lb	a0,0(s5)
9d004104:	02402821 	move	a1,s2
9d004108:	0f40239b 	jal	9d008e6c <.LFE0>
9d00410c:	26b50001 	addiu	s5,s5,1
9d004110:	00021027 	nor	v0,zero,v0
9d004114:	0002102b 	sltu	v0,zero,v0
9d004118:	2694ffff 	addiu	s4,s4,-1
9d00411c:	1693fff8 	bne	s4,s3,9d004100 <_vfprintf_cdfFnopuxX+0x6f8>
9d004120:	02028021 	addu	s0,s0,v0
9d004124:	52c0fe4a 	beqzl	s6,9d003a50 <_vfprintf_cdfFnopuxX+0x48>
9d004128:	82240000 	lb	a0,0(s1)
9d00412c:	12e0fe47 	beqz	s7,9d003a4c <_vfprintf_cdfFnopuxX+0x44>
9d004130:	24040020 	li	a0,32
9d004134:	0f40239b 	jal	9d008e6c <.LFE0>
9d004138:	02402821 	move	a1,s2
9d00413c:	00021027 	nor	v0,zero,v0
9d004140:	0002102b 	sltu	v0,zero,v0
9d004144:	02028021 	addu	s0,s0,v0
9d004148:	0b40104b 	j	9d00412c <_vfprintf_cdfFnopuxX+0x724>
9d00414c:	26f7ffff 	addiu	s7,s7,-1
9d004150:	2402006f 	li	v0,111
9d004154:	a3a20016 	sb	v0,22(sp)
9d004158:	0b400f77 	j	9d003ddc <_vfprintf_cdfFnopuxX+0x3d4>
9d00415c:	36d60040 	ori	s6,s6,0x40
9d004160:	32c20010 	andi	v0,s6,0x10
9d004164:	00a01821 	move	v1,a1
9d004168:	00c2180a 	movz	v1,a2,v0
9d00416c:	0076b025 	or	s6,v1,s6
9d004170:	82220000 	lb	v0,0(s1)
9d004174:	304300ff 	andi	v1,v0,0xff
9d004178:	2c640079 	sltiu	a0,v1,121
9d00417c:	1480fe94 	bnez	a0,9d003bd0 <_vfprintf_cdfFnopuxX+0x1c8>
9d004180:	26310001 	addiu	s1,s1,1
9d004184:	a3a20016 	sb	v0,22(sp)
9d004188:	27b50016 	addiu	s5,sp,22
9d00418c:	0b401028 	j	9d0040a0 <_vfprintf_cdfFnopuxX+0x698>
9d004190:	24140001 	li	s4,1
9d004194:	24020066 	li	v0,102
9d004198:	a3a20016 	sb	v0,22(sp)
9d00419c:	0b400f77 	j	9d003ddc <_vfprintf_cdfFnopuxX+0x3d4>
9d0041a0:	36d60400 	ori	s6,s6,0x400
9d0041a4:	0b400f77 	j	9d003ddc <_vfprintf_cdfFnopuxX+0x3d4>
9d0041a8:	a3a20016 	sb	v0,22(sp)
9d0041ac:	8fa60068 	lw	a2,104(sp)
9d0041b0:	8cc30000 	lw	v1,0(a2)
9d0041b4:	32c60010 	andi	a2,s6,0x10
9d0041b8:	8fa70068 	lw	a3,104(sp)
9d0041bc:	24e50004 	addiu	a1,a3,4
9d0041c0:	000327c3 	sra	a0,v1,0x1f
9d0041c4:	00042600 	sll	a0,a0,0x18
9d0041c8:	00031202 	srl	v0,v1,0x8
9d0041cc:	00821025 	or	v0,a0,v0
9d0041d0:	7c022420 	seb	a0,v0
9d0041d4:	10c00191 	beqz	a2,9d00481c <_vfprintf_cdfFnopuxX+0xe14>
9d0041d8:	a3a40016 	sb	a0,22(sp)
9d0041dc:	24420001 	addiu	v0,v0,1
9d0041e0:	304200ff 	andi	v0,v0,0xff
9d0041e4:	2c420002 	sltiu	v0,v0,2
9d0041e8:	5440018d 	bnezl	v0,9d004820 <_vfprintf_cdfFnopuxX+0xe18>
9d0041ec:	a3a30014 	sb	v1,20(sp)
9d0041f0:	a3a40014 	sb	a0,20(sp)
9d0041f4:	a3a30015 	sb	v1,21(sp)
9d0041f8:	24140002 	li	s4,2
9d0041fc:	27b50014 	addiu	s5,sp,20
9d004200:	0b401028 	j	9d0040a0 <_vfprintf_cdfFnopuxX+0x698>
9d004204:	afa50068 	sw	a1,104(sp)
9d004208:	a3a20016 	sb	v0,22(sp)
9d00420c:	0b400f76 	j	9d003dd8 <_vfprintf_cdfFnopuxX+0x3d0>
9d004210:	36d60020 	ori	s6,s6,0x20
9d004214:	0b400eaa 	j	9d003aa8 <_vfprintf_cdfFnopuxX+0xa0>
9d004218:	24420001 	addiu	v0,v0,1
9d00421c:	2402002a 	li	v0,42
9d004220:	12e20133 	beq	s7,v0,9d0046f0 <_vfprintf_cdfFnopuxX+0xce8>
9d004224:	2403002e 	li	v1,46
9d004228:	02e01021 	move	v0,s7
9d00422c:	1443fe60 	bne	v0,v1,9d003bb0 <_vfprintf_cdfFnopuxX+0x1a8>
9d004230:	0000b821 	move	s7,zero
9d004234:	82220001 	lb	v0,1(s1)
9d004238:	2403002a 	li	v1,42
9d00423c:	10430254 	beq	v0,v1,9d004b90 <_vfprintf_cdfFnopuxX+0x1188>
9d004240:	36d64000 	ori	s6,s6,0x4000
9d004244:	3c049d01 	lui	a0,0x9d01
9d004248:	248491e1 	addiu	a0,a0,-28191
9d00424c:	00821821 	addu	v1,a0,v0
9d004250:	90630000 	lbu	v1,0(v1)
9d004254:	26310001 	addiu	s1,s1,1
9d004258:	30630004 	andi	v1,v1,0x4
9d00425c:	1060fe56 	beqz	v1,9d003bb8 <_vfprintf_cdfFnopuxX+0x1b0>
9d004260:	00009821 	move	s3,zero
9d004264:	00131840 	sll	v1,s3,0x1
9d004268:	001398c0 	sll	s3,s3,0x3
9d00426c:	26310001 	addiu	s1,s1,1
9d004270:	00739821 	addu	s3,v1,s3
9d004274:	02629821 	addu	s3,s3,v0
9d004278:	82220000 	lb	v0,0(s1)
9d00427c:	3c069d01 	lui	a2,0x9d01
9d004280:	24c691e1 	addiu	a2,a2,-28191
9d004284:	00c21821 	addu	v1,a2,v0
9d004288:	90630000 	lbu	v1,0(v1)
9d00428c:	30630004 	andi	v1,v1,0x4
9d004290:	1460fff4 	bnez	v1,9d004264 <_vfprintf_cdfFnopuxX+0x85c>
9d004294:	2673ffd0 	addiu	s3,s3,-48
9d004298:	0b400eef 	j	9d003bbc <_vfprintf_cdfFnopuxX+0x1b4>
9d00429c:	24060010 	li	a2,16
9d0042a0:	0f4027bd 	jal	9d009ef4 <__fixunssfsi>
9d0042a4:	00000000 	nop
9d0042a8:	5440ff0a 	bnezl	v0,9d003ed4 <_vfprintf_cdfFnopuxX+0x4cc>
9d0042ac:	0040f021 	move	s8,v0
9d0042b0:	2bc30002 	slti	v1,s8,2
9d0042b4:	5460ff07 	bnezl	v1,9d003ed4 <_vfprintf_cdfFnopuxX+0x4cc>
9d0042b8:	0040f021 	move	s8,v0
9d0042bc:	8fa40024 	lw	a0,36(sp)
9d0042c0:	3c029d01 	lui	v0,0x9d01
9d0042c4:	2442979c 	addiu	v0,v0,-26724
9d0042c8:	0f40274d 	jal	9d009d34 <.LFE0>
9d0042cc:	8c450000 	lw	a1,0(v0)
9d0042d0:	0440010e 	bltz	v0,9d00470c <_vfprintf_cdfFnopuxX+0xd04>
9d0042d4:	27caffed 	addiu	t2,s8,-19
9d0042d8:	27caffee 	addiu	t2,s8,-18
9d0042dc:	afaa0010 	sw	t2,16(sp)
9d0042e0:	7c0a2420 	seb	a0,t2
9d0042e4:	0f401edb 	jal	9d007b6c <Dnan+0xc>
9d0042e8:	afaa002c 	sw	t2,44(sp)
9d0042ec:	afa20024 	sw	v0,36(sp)
9d0042f0:	02802021 	move	a0,s4
9d0042f4:	0f401e4f 	jal	9d00793c <__divsf3>
9d0042f8:	00402821 	move	a1,v0
9d0042fc:	0f4027bd 	jal	9d009ef4 <__fixunssfsi>
9d004300:	00402021 	move	a0,v0
9d004304:	0040f021 	move	s8,v0
9d004308:	0040a821 	move	s5,v0
9d00430c:	00001821 	move	v1,zero
9d004310:	afa3001c 	sw	v1,28(sp)
9d004314:	8faa002c 	lw	t2,44(sp)
9d004318:	2fc2000a 	sltiu	v0,s8,10
9d00431c:	1440027d 	bnez	v0,9d004d14 <_vfprintf_cdfFnopuxX+0x130c>
9d004320:	3c039d01 	lui	v1,0x9d01
9d004324:	246396d0 	addiu	v1,v1,-26928
9d004328:	24050002 	li	a1,2
9d00432c:	24060002 	li	a2,2
9d004330:	24090014 	li	t1,20
9d004334:	8c670004 	lw	a3,4(v1)
9d004338:	54e0000c 	bnezl	a3,9d00436c <_vfprintf_cdfFnopuxX+0x964>
9d00433c:	a3a60016 	sb	a2,22(sp)
9d004340:	8c620000 	lw	v0,0(v1)
9d004344:	03c2102b 	sltu	v0,s8,v0
9d004348:	54400008 	bnezl	v0,9d00436c <_vfprintf_cdfFnopuxX+0x964>
9d00434c:	a3a60016 	sb	a2,22(sp)
9d004350:	24a60001 	addiu	a2,a1,1
9d004354:	00c02821 	move	a1,a2
9d004358:	7c063420 	seb	a2,a2
9d00435c:	14a9fff5 	bne	a1,t1,9d004334 <_vfprintf_cdfFnopuxX+0x92c>
9d004360:	24630008 	addiu	v1,v1,8
9d004364:	a3a60016 	sb	a2,22(sp)
9d004368:	24050014 	li	a1,20
9d00436c:	02652821 	addu	a1,s3,a1
9d004370:	00aa5021 	addu	t2,a1,t2
9d004374:	02eab823 	subu	s7,s7,t2
9d004378:	0013102b 	sltu	v0,zero,s3
9d00437c:	32c30003 	andi	v1,s6,0x3
9d004380:	02e2b823 	subu	s7,s7,v0
9d004384:	0003182b 	sltu	v1,zero,v1
9d004388:	32c20004 	andi	v0,s6,0x4
9d00438c:	10400137 	beqz	v0,9d00486c <_vfprintf_cdfFnopuxX+0xe64>
9d004390:	02e3b823 	subu	s7,s7,v1
9d004394:	32c20002 	andi	v0,s6,0x2
9d004398:	10400221 	beqz	v0,9d004c20 <_vfprintf_cdfFnopuxX+0x1218>
9d00439c:	32c20001 	andi	v0,s6,0x1
9d0043a0:	32c40001 	andi	a0,s6,0x1
9d0043a4:	2402002d 	li	v0,45
9d0043a8:	2403002b 	li	v1,43
9d0043ac:	0064100a 	movz	v0,v1,a0
9d0043b0:	00402021 	move	a0,v0
9d0043b4:	0f40239b 	jal	9d008e6c <.LFE0>
9d0043b8:	02402821 	move	a1,s2
9d0043bc:	00021027 	nor	v0,zero,v0
9d0043c0:	0002102b 	sltu	v0,zero,v0
9d0043c4:	02028021 	addu	s0,s0,v0
9d0043c8:	5ae0000a 	blezl	s7,9d0043f4 <_vfprintf_cdfFnopuxX+0x9ec>
9d0043cc:	32d60008 	andi	s6,s6,0x8
9d0043d0:	24040030 	li	a0,48
9d0043d4:	0f40239b 	jal	9d008e6c <.LFE0>
9d0043d8:	02402821 	move	a1,s2
9d0043dc:	00021027 	nor	v0,zero,v0
9d0043e0:	0002102b 	sltu	v0,zero,v0
9d0043e4:	26f7ffff 	addiu	s7,s7,-1
9d0043e8:	16e0fff9 	bnez	s7,9d0043d0 <_vfprintf_cdfFnopuxX+0x9c8>
9d0043ec:	02028021 	addu	s0,s0,v0
9d0043f0:	32d60008 	andi	s6,s6,0x8
9d0043f4:	32d6ffff 	andi	s6,s6,0xffff
9d0043f8:	afb60018 	sw	s6,24(sp)
9d0043fc:	3c049d01 	lui	a0,0x9d01
9d004400:	0b401114 	j	9d004450 <_vfprintf_cdfFnopuxX+0xa48>
9d004404:	249496c0 	addiu	s4,a0,-26944
9d004408:	000318c0 	sll	v1,v1,0x3
9d00440c:	02831821 	addu	v1,s4,v1
9d004410:	8c660000 	lw	a2,0(v1)
9d004414:	8c670004 	lw	a3,4(v1)
9d004418:	02a02021 	move	a0,s5
9d00441c:	0f40185b 	jal	9d00616c <__udivdi3>
9d004420:	00002821 	move	a1,zero
9d004424:	00402021 	move	a0,v0
9d004428:	00602821 	move	a1,v1
9d00442c:	2406000a 	li	a2,10
9d004430:	0f401742 	jal	9d005d08 <__umoddi3>
9d004434:	00003821 	move	a3,zero
9d004438:	24440030 	addiu	a0,v0,48
9d00443c:	0f40239b 	jal	9d008e6c <.LFE0>
9d004440:	02402821 	move	a1,s2
9d004444:	00021027 	nor	v0,zero,v0
9d004448:	0002102b 	sltu	v0,zero,v0
9d00444c:	02028021 	addu	s0,s0,v0
9d004450:	83a20016 	lb	v0,22(sp)
9d004454:	2443ffff 	addiu	v1,v0,-1
9d004458:	7c031c20 	seb	v1,v1
9d00445c:	1440ffea 	bnez	v0,9d004408 <_vfprintf_cdfFnopuxX+0xa00>
9d004460:	a3a30016 	sb	v1,22(sp)
9d004464:	8fa20010 	lw	v0,16(sp)
9d004468:	1840000c 	blez	v0,9d00449c <_vfprintf_cdfFnopuxX+0xa94>
9d00446c:	2a620013 	slti	v0,s3,19
9d004470:	24040030 	li	a0,48
9d004474:	0f40239b 	jal	9d008e6c <.LFE0>
9d004478:	02402821 	move	a1,s2
9d00447c:	00021027 	nor	v0,zero,v0
9d004480:	0002102b 	sltu	v0,zero,v0
9d004484:	8fa30010 	lw	v1,16(sp)
9d004488:	2463ffff 	addiu	v1,v1,-1
9d00448c:	02028021 	addu	s0,s0,v0
9d004490:	1c60fff7 	bgtz	v1,9d004470 <_vfprintf_cdfFnopuxX+0xa68>
9d004494:	afa30010 	sw	v1,16(sp)
9d004498:	2a620013 	slti	v0,s3,19
9d00449c:	144000ed 	bnez	v0,9d004854 <_vfprintf_cdfFnopuxX+0xe4c>
9d0044a0:	7c131420 	seb	v0,s3
9d0044a4:	24020012 	li	v0,18
9d0044a8:	a3a20016 	sb	v0,22(sp)
9d0044ac:	2674ffee 	addiu	s4,s3,-18
9d0044b0:	2404002e 	li	a0,46
9d0044b4:	0f40239b 	jal	9d008e6c <.LFE0>
9d0044b8:	02402821 	move	a1,s2
9d0044bc:	2403ffff 	li	v1,-1
9d0044c0:	10430002 	beq	v0,v1,9d0044cc <_vfprintf_cdfFnopuxX+0xac4>
9d0044c4:	83b30016 	lb	s3,22(sp)
9d0044c8:	26100001 	addiu	s0,s0,1
9d0044cc:	0f401edb 	jal	9d007b6c <Dnan+0xc>
9d0044d0:	02602021 	move	a0,s3
9d0044d4:	00402021 	move	a0,v0
9d0044d8:	0f4020df 	jal	9d00837c <.LFE4>
9d0044dc:	8fa5001c 	lw	a1,28(sp)
9d0044e0:	0f4027bd 	jal	9d009ef4 <__fixunssfsi>
9d0044e4:	00402021 	move	a0,v0
9d0044e8:	0040a821 	move	s5,v0
9d0044ec:	2666ffff 	addiu	a2,s3,-1
9d0044f0:	7c063420 	seb	a2,a2
9d0044f4:	0000f021 	move	s8,zero
9d0044f8:	12600023 	beqz	s3,9d004588 <_vfprintf_cdfFnopuxX+0xb80>
9d0044fc:	a3a60016 	sb	a2,22(sp)
9d004500:	3c059d01 	lui	a1,0x9d01
9d004504:	24b396c0 	addiu	s3,a1,-26944
9d004508:	000630c0 	sll	a2,a2,0x3
9d00450c:	02663021 	addu	a2,s3,a2
9d004510:	8cc70004 	lw	a3,4(a2)
9d004514:	8cc60000 	lw	a2,0(a2)
9d004518:	02a02021 	move	a0,s5
9d00451c:	0f40185b 	jal	9d00616c <__udivdi3>
9d004520:	03c02821 	move	a1,s8
9d004524:	00402021 	move	a0,v0
9d004528:	00602821 	move	a1,v1
9d00452c:	2406000a 	li	a2,10
9d004530:	0f401742 	jal	9d005d08 <__umoddi3>
9d004534:	00003821 	move	a3,zero
9d004538:	24440030 	addiu	a0,v0,48
9d00453c:	0f40239b 	jal	9d008e6c <.LFE0>
9d004540:	02402821 	move	a1,s2
9d004544:	83b60016 	lb	s6,22(sp)
9d004548:	00021027 	nor	v0,zero,v0
9d00454c:	0002102b 	sltu	v0,zero,v0
9d004550:	001618c0 	sll	v1,s6,0x3
9d004554:	02631821 	addu	v1,s3,v1
9d004558:	8c660000 	lw	a2,0(v1)
9d00455c:	8c670004 	lw	a3,4(v1)
9d004560:	02a02021 	move	a0,s5
9d004564:	03c02821 	move	a1,s8
9d004568:	0f401742 	jal	9d005d08 <__umoddi3>
9d00456c:	02028021 	addu	s0,s0,v0
9d004570:	26c6ffff 	addiu	a2,s6,-1
9d004574:	7c063420 	seb	a2,a2
9d004578:	0040a821 	move	s5,v0
9d00457c:	0060f021 	move	s8,v1
9d004580:	16c0ffe1 	bnez	s6,9d004508 <_vfprintf_cdfFnopuxX+0xb00>
9d004584:	a3a60016 	sb	a2,22(sp)
9d004588:	1280000a 	beqz	s4,9d0045b4 <_vfprintf_cdfFnopuxX+0xbac>
9d00458c:	8fa60018 	lw	a2,24(sp)
9d004590:	24040030 	li	a0,48
9d004594:	0f40239b 	jal	9d008e6c <.LFE0>
9d004598:	02402821 	move	a1,s2
9d00459c:	00021027 	nor	v0,zero,v0
9d0045a0:	0002102b 	sltu	v0,zero,v0
9d0045a4:	2694ffff 	addiu	s4,s4,-1
9d0045a8:	1680fff9 	bnez	s4,9d004590 <_vfprintf_cdfFnopuxX+0xb88>
9d0045ac:	02028021 	addu	s0,s0,v0
9d0045b0:	8fa60018 	lw	a2,24(sp)
9d0045b4:	50c0fd26 	beqzl	a2,9d003a50 <_vfprintf_cdfFnopuxX+0x48>
9d0045b8:	82240000 	lb	a0,0(s1)
9d0045bc:	5ae0fd24 	blezl	s7,9d003a50 <_vfprintf_cdfFnopuxX+0x48>
9d0045c0:	82240000 	lb	a0,0(s1)
9d0045c4:	24040020 	li	a0,32
9d0045c8:	0f40239b 	jal	9d008e6c <.LFE0>
9d0045cc:	02402821 	move	a1,s2
9d0045d0:	00021027 	nor	v0,zero,v0
9d0045d4:	0002102b 	sltu	v0,zero,v0
9d0045d8:	26f7ffff 	addiu	s7,s7,-1
9d0045dc:	16e0fff9 	bnez	s7,9d0045c4 <_vfprintf_cdfFnopuxX+0xbbc>
9d0045e0:	02028021 	addu	s0,s0,v0
9d0045e4:	0b400e94 	j	9d003a50 <_vfprintf_cdfFnopuxX+0x48>
9d0045e8:	82240000 	lb	a0,0(s1)
9d0045ec:	8fa30068 	lw	v1,104(sp)
9d0045f0:	8c740000 	lw	s4,0(v1)
9d0045f4:	24630004 	addiu	v1,v1,4
9d0045f8:	afa30068 	sw	v1,104(sp)
9d0045fc:	02802021 	move	a0,s4
9d004600:	0f40274d 	jal	9d009d34 <.LFE0>
9d004604:	00002821 	move	a1,zero
9d004608:	0441fe0c 	bgez	v0,9d003e3c <_vfprintf_cdfFnopuxX+0x434>
9d00460c:	02802021 	move	a0,s4
9d004610:	3c028000 	lui	v0,0x8000
9d004614:	0054a026 	xor	s4,v0,s4
9d004618:	36d60003 	ori	s6,s6,0x3
9d00461c:	02802021 	move	a0,s4
9d004620:	00002821 	move	a1,zero
9d004624:	0f40274d 	jal	9d009d34 <.LFE0>
9d004628:	afa00010 	sw	zero,16(sp)
9d00462c:	1040fe08 	beqz	v0,9d003e50 <_vfprintf_cdfFnopuxX+0x448>
9d004630:	0000f021 	move	s8,zero
9d004634:	02802021 	move	a0,s4
9d004638:	0f40279b 	jal	9d009e6c <.LFE0>
9d00463c:	27a50010 	addiu	a1,sp,16
9d004640:	8fa20010 	lw	v0,16(sp)
9d004644:	2442ffff 	addiu	v0,v0,-1
9d004648:	00021840 	sll	v1,v0,0x1
9d00464c:	00621021 	addu	v0,v1,v0
9d004650:	3c036666 	lui	v1,0x6666
9d004654:	24636667 	addiu	v1,v1,26215
9d004658:	00430018 	mult	v0,v1
9d00465c:	00001810 	mfhi	v1
9d004660:	000217c3 	sra	v0,v0,0x1f
9d004664:	00031883 	sra	v1,v1,0x2
9d004668:	00621023 	subu	v0,v1,v0
9d00466c:	2443ffff 	addiu	v1,v0,-1
9d004670:	285e0000 	slti	s8,v0,0
9d004674:	007e100b 	movn	v0,v1,s8
9d004678:	0040f021 	move	s8,v0
9d00467c:	00022023 	negu	a0,v0
9d004680:	0f401edb 	jal	9d007b6c <Dnan+0xc>
9d004684:	7c042420 	seb	a0,a0
9d004688:	00402021 	move	a0,v0
9d00468c:	0f4020df 	jal	9d00837c <.LFE4>
9d004690:	02802821 	move	a1,s4
9d004694:	afa20024 	sw	v0,36(sp)
9d004698:	3c029d01 	lui	v0,0x9d01
9d00469c:	8c459790 	lw	a1,-26736(v0)
9d0046a0:	0f40274d 	jal	9d009d34 <.LFE0>
9d0046a4:	8fa40024 	lw	a0,36(sp)
9d0046a8:	044001c7 	bltz	v0,9d004dc8 <_vfprintf_cdfFnopuxX+0x13c0>
9d0046ac:	3c029d01 	lui	v0,0x9d01
9d0046b0:	8c449794 	lw	a0,-26732(v0)
9d0046b4:	0f40274d 	jal	9d009d34 <.LFE0>
9d0046b8:	8fa50024 	lw	a1,36(sp)
9d0046bc:	28420001 	slti	v0,v0,1
9d0046c0:	0b400f94 	j	9d003e50 <_vfprintf_cdfFnopuxX+0x448>
9d0046c4:	03c2f021 	addu	s8,s8,v0
9d0046c8:	0440017a 	bltz	v0,9d004cb4 <_vfprintf_cdfFnopuxX+0x12ac>
9d0046cc:	32c20010 	andi	v0,s6,0x10
9d0046d0:	10400045 	beqz	v0,9d0047e8 <_vfprintf_cdfFnopuxX+0xde0>
9d0046d4:	8fa20068 	lw	v0,104(sp)
9d0046d8:	8fa70068 	lw	a3,104(sp)
9d0046dc:	8cf50000 	lw	s5,0(a3)
9d0046e0:	0000f021 	move	s8,zero
9d0046e4:	24e70004 	addiu	a3,a3,4
9d0046e8:	0b400fdc 	j	9d003f70 <_vfprintf_cdfFnopuxX+0x568>
9d0046ec:	afa70068 	sw	a3,104(sp)
9d0046f0:	8fa70068 	lw	a3,104(sp)
9d0046f4:	8cf70000 	lw	s7,0(a3)
9d0046f8:	26310001 	addiu	s1,s1,1
9d0046fc:	80a20001 	lb	v0,1(a1)
9d004700:	24e70004 	addiu	a3,a3,4
9d004704:	0b400ee9 	j	9d003ba4 <_vfprintf_cdfFnopuxX+0x19c>
9d004708:	afa70068 	sw	a3,104(sp)
9d00470c:	0b4010b8 	j	9d0042e0 <_vfprintf_cdfFnopuxX+0x8d8>
9d004710:	afaa0010 	sw	t2,16(sp)
9d004714:	34e7851f 	ori	a3,a3,0x851f
9d004718:	02a70019 	multu	s5,a3
9d00471c:	00003810 	mfhi	a3
9d004720:	3c069d01 	lui	a2,0x9d01
9d004724:	24c6a0f8 	addiu	a2,a2,-24328
9d004728:	3c029d01 	lui	v0,0x9d01
9d00472c:	8c459798 	lw	a1,-26728(v0)
9d004730:	00073942 	srl	a3,a3,0x5
9d004734:	24e20012 	addiu	v0,a3,18
9d004738:	00021080 	sll	v0,v0,0x2
9d00473c:	00461021 	addu	v0,v0,a2
9d004740:	8c440000 	lw	a0,0(v0)
9d004744:	afa60030 	sw	a2,48(sp)
9d004748:	0f4020df 	jal	9d00837c <.LFE4>
9d00474c:	afa7002c 	sw	a3,44(sp)
9d004750:	8fa7002c 	lw	a3,44(sp)
9d004754:	00072080 	sll	a0,a3,0x2
9d004758:	00073900 	sll	a3,a3,0x4
9d00475c:	00872021 	addu	a0,a0,a3
9d004760:	00042880 	sll	a1,a0,0x2
9d004764:	00852021 	addu	a0,a0,a1
9d004768:	02a42823 	subu	a1,s5,a0
9d00476c:	3c07cccc 	lui	a3,0xcccc
9d004770:	34e7cccd 	ori	a3,a3,0xcccd
9d004774:	30a500ff 	andi	a1,a1,0xff
9d004778:	00a70019 	multu	a1,a3
9d00477c:	00002810 	mfhi	a1
9d004780:	00402021 	move	a0,v0
9d004784:	000510c2 	srl	v0,a1,0x3
9d004788:	24420009 	addiu	v0,v0,9
9d00478c:	00021080 	sll	v0,v0,0x2
9d004790:	8fa60030 	lw	a2,48(sp)
9d004794:	00461021 	addu	v0,v0,a2
9d004798:	8c450000 	lw	a1,0(v0)
9d00479c:	0f4020df 	jal	9d00837c <.LFE4>
9d0047a0:	afa7002c 	sw	a3,44(sp)
9d0047a4:	8fa7002c 	lw	a3,44(sp)
9d0047a8:	02a70019 	multu	s5,a3
9d0047ac:	00003810 	mfhi	a3
9d0047b0:	00402021 	move	a0,v0
9d0047b4:	000710c2 	srl	v0,a3,0x3
9d0047b8:	00022840 	sll	a1,v0,0x1
9d0047bc:	000210c0 	sll	v0,v0,0x3
9d0047c0:	00a21021 	addu	v0,a1,v0
9d0047c4:	02a21023 	subu	v0,s5,v0
9d0047c8:	304200ff 	andi	v0,v0,0xff
9d0047cc:	00021080 	sll	v0,v0,0x2
9d0047d0:	8fa60030 	lw	a2,48(sp)
9d0047d4:	00463021 	addu	a2,v0,a2
9d0047d8:	0f4020df 	jal	9d00837c <.LFE4>
9d0047dc:	8cc50000 	lw	a1,0(a2)
9d0047e0:	0b400fa7 	j	9d003e9c <_vfprintf_cdfFnopuxX+0x494>
9d0047e4:	00402821 	move	a1,v0
9d0047e8:	8c550000 	lw	s5,0(v0)
9d0047ec:	0000f021 	move	s8,zero
9d0047f0:	24420004 	addiu	v0,v0,4
9d0047f4:	0b400fdc 	j	9d003f70 <_vfprintf_cdfFnopuxX+0x568>
9d0047f8:	afa20068 	sw	v0,104(sp)
9d0047fc:	8c820000 	lw	v0,0(a0)
9d004800:	24840004 	addiu	a0,a0,4
9d004804:	afa40068 	sw	a0,104(sp)
9d004808:	00021fc3 	sra	v1,v0,0x1f
9d00480c:	0040a821 	move	s5,v0
9d004810:	0060f021 	move	s8,v1
9d004814:	0b400fd5 	j	9d003f54 <_vfprintf_cdfFnopuxX+0x54c>
9d004818:	00602021 	move	a0,v1
9d00481c:	a3a30014 	sb	v1,20(sp)
9d004820:	24140001 	li	s4,1
9d004824:	27b50014 	addiu	s5,sp,20
9d004828:	0b401028 	j	9d0040a0 <_vfprintf_cdfFnopuxX+0x698>
9d00482c:	afa50068 	sw	a1,104(sp)
9d004830:	1280fdde 	beqz	s4,9d003fac <_vfprintf_cdfFnopuxX+0x5a4>
9d004834:	24020001 	li	v0,1
9d004838:	83a20016 	lb	v0,22(sp)
9d00483c:	0053182a 	slt	v1,v0,s3
9d004840:	1060fdf3 	beqz	v1,9d004010 <_vfprintf_cdfFnopuxX+0x608>
9d004844:	0262182a 	slt	v1,s3,v0
9d004848:	7c131420 	seb	v0,s3
9d00484c:	0b401005 	j	9d004014 <_vfprintf_cdfFnopuxX+0x60c>
9d004850:	a3a20016 	sb	v0,22(sp)
9d004854:	a3a20016 	sb	v0,22(sp)
9d004858:	1440ff15 	bnez	v0,9d0044b0 <_vfprintf_cdfFnopuxX+0xaa8>
9d00485c:	0262a023 	subu	s4,s3,v0
9d004860:	2402ffff 	li	v0,-1
9d004864:	0b401162 	j	9d004588 <_vfprintf_cdfFnopuxX+0xb80>
9d004868:	a3a20016 	sb	v0,22(sp)
9d00486c:	32de0008 	andi	s8,s6,0x8
9d004870:	33deffff 	andi	s8,s8,0xffff
9d004874:	17c0000b 	bnez	s8,9d0048a4 <_vfprintf_cdfFnopuxX+0xe9c>
9d004878:	afbe0018 	sw	s8,24(sp)
9d00487c:	1ae0000a 	blez	s7,9d0048a8 <_vfprintf_cdfFnopuxX+0xea0>
9d004880:	32c20002 	andi	v0,s6,0x2
9d004884:	24040020 	li	a0,32
9d004888:	0f40239b 	jal	9d008e6c <.LFE0>
9d00488c:	02402821 	move	a1,s2
9d004890:	00021027 	nor	v0,zero,v0
9d004894:	0002102b 	sltu	v0,zero,v0
9d004898:	26f7ffff 	addiu	s7,s7,-1
9d00489c:	16e0fff9 	bnez	s7,9d004884 <_vfprintf_cdfFnopuxX+0xe7c>
9d0048a0:	02028021 	addu	s0,s0,v0
9d0048a4:	32c20002 	andi	v0,s6,0x2
9d0048a8:	504000c0 	beqzl	v0,9d004bac <_vfprintf_cdfFnopuxX+0x11a4>
9d0048ac:	32d60001 	andi	s6,s6,0x1
9d0048b0:	32c40001 	andi	a0,s6,0x1
9d0048b4:	2402002b 	li	v0,43
9d0048b8:	2403002d 	li	v1,45
9d0048bc:	0064100b 	movn	v0,v1,a0
9d0048c0:	00402021 	move	a0,v0
9d0048c4:	0f40239b 	jal	9d008e6c <.LFE0>
9d0048c8:	02402821 	move	a1,s2
9d0048cc:	00021027 	nor	v0,zero,v0
9d0048d0:	0002102b 	sltu	v0,zero,v0
9d0048d4:	0b4010ff 	j	9d0043fc <_vfprintf_cdfFnopuxX+0x9f4>
9d0048d8:	02028021 	addu	s0,s0,v0
9d0048dc:	1060001c 	beqz	v1,9d004950 <_vfprintf_cdfFnopuxX+0xf48>
9d0048e0:	02e2b823 	subu	s7,s7,v0
9d0048e4:	32c20002 	andi	v0,s6,0x2
9d0048e8:	104000d5 	beqz	v0,9d004c40 <_vfprintf_cdfFnopuxX+0x1238>
9d0048ec:	32c20001 	andi	v0,s6,0x1
9d0048f0:	32c40001 	andi	a0,s6,0x1
9d0048f4:	2402002d 	li	v0,45
9d0048f8:	2403002b 	li	v1,43
9d0048fc:	0064100a 	movz	v0,v1,a0
9d004900:	00402021 	move	a0,v0
9d004904:	0f40239b 	jal	9d008e6c <.LFE0>
9d004908:	02402821 	move	a1,s2
9d00490c:	00021027 	nor	v0,zero,v0
9d004910:	0002102b 	sltu	v0,zero,v0
9d004914:	02028021 	addu	s0,s0,v0
9d004918:	12e0000a 	beqz	s7,9d004944 <_vfprintf_cdfFnopuxX+0xf3c>
9d00491c:	32c20008 	andi	v0,s6,0x8
9d004920:	24040030 	li	a0,48
9d004924:	0f40239b 	jal	9d008e6c <.LFE0>
9d004928:	02402821 	move	a1,s2
9d00492c:	00021027 	nor	v0,zero,v0
9d004930:	0002102b 	sltu	v0,zero,v0
9d004934:	26f7ffff 	addiu	s7,s7,-1
9d004938:	16e0fff9 	bnez	s7,9d004920 <_vfprintf_cdfFnopuxX+0xf18>
9d00493c:	02028021 	addu	s0,s0,v0
9d004940:	32c20008 	andi	v0,s6,0x8
9d004944:	3042ffff 	andi	v0,v0,0xffff
9d004948:	0b401267 	j	9d00499c <_vfprintf_cdfFnopuxX+0xf94>
9d00494c:	afa20028 	sw	v0,40(sp)
9d004950:	32c20008 	andi	v0,s6,0x8
9d004954:	3042ffff 	andi	v0,v0,0xffff
9d004958:	12e00003 	beqz	s7,9d004968 <_vfprintf_cdfFnopuxX+0xf60>
9d00495c:	afa20028 	sw	v0,40(sp)
9d004960:	10400045 	beqz	v0,9d004a78 <_vfprintf_cdfFnopuxX+0x1070>
9d004964:	24040020 	li	a0,32
9d004968:	32c20002 	andi	v0,s6,0x2
9d00496c:	104000b0 	beqz	v0,9d004c30 <_vfprintf_cdfFnopuxX+0x1228>
9d004970:	32c20001 	andi	v0,s6,0x1
9d004974:	32c40001 	andi	a0,s6,0x1
9d004978:	2402002d 	li	v0,45
9d00497c:	2403002b 	li	v1,43
9d004980:	0064100a 	movz	v0,v1,a0
9d004984:	00402021 	move	a0,v0
9d004988:	0f40239b 	jal	9d008e6c <.LFE0>
9d00498c:	02402821 	move	a1,s2
9d004990:	00021027 	nor	v0,zero,v0
9d004994:	0002102b 	sltu	v0,zero,v0
9d004998:	02028021 	addu	s0,s0,v0
9d00499c:	2662ffff 	addiu	v0,s3,-1
9d0049a0:	000220c0 	sll	a0,v0,0x3
9d0049a4:	3c039d01 	lui	v1,0x9d01
9d0049a8:	247396c0 	addiu	s3,v1,-26944
9d0049ac:	00024840 	sll	t1,v0,0x1
9d0049b0:	32c30020 	andi	v1,s6,0x20
9d0049b4:	02649821 	addu	s3,s3,a0
9d0049b8:	afb30018 	sw	s3,24(sp)
9d0049bc:	00029880 	sll	s3,v0,0x2
9d0049c0:	0122b021 	addu	s6,t1,v0
9d0049c4:	001e2040 	sll	a0,s8,0x1
9d0049c8:	afa4001c 	sw	a0,28(sp)
9d0049cc:	3063ffff 	andi	v1,v1,0xffff
9d0049d0:	2402fffd 	li	v0,-3
9d0049d4:	12c20018 	beq	s6,v0,9d004a38 <_vfprintf_cdfFnopuxX+0x1030>
9d0049d8:	afa30020 	sw	v1,32(sp)
9d0049dc:	24020040 	li	v0,64
9d0049e0:	12820059 	beq	s4,v0,9d004b48 <_vfprintf_cdfFnopuxX+0x1140>
9d0049e4:	2e820041 	sltiu	v0,s4,65
9d0049e8:	14400034 	bnez	v0,9d004abc <_vfprintf_cdfFnopuxX+0x10b4>
9d0049ec:	24020080 	li	v0,128
9d0049f0:	12820043 	beq	s4,v0,9d004b00 <_vfprintf_cdfFnopuxX+0x10f8>
9d0049f4:	00131827 	nor	v1,zero,s3
9d0049f8:	240200c0 	li	v0,192
9d0049fc:	12820032 	beq	s4,v0,9d004ac8 <_vfprintf_cdfFnopuxX+0x10c0>
9d004a00:	8fa50018 	lw	a1,24(sp)
9d004a04:	83a40016 	lb	a0,22(sp)
9d004a08:	0f40239b 	jal	9d008e6c <.LFE0>
9d004a0c:	02402821 	move	a1,s2
9d004a10:	00021027 	nor	v0,zero,v0
9d004a14:	0002102b 	sltu	v0,zero,v0
9d004a18:	02028021 	addu	s0,s0,v0
9d004a1c:	8fa70018 	lw	a3,24(sp)
9d004a20:	24e7fff8 	addiu	a3,a3,-8
9d004a24:	afa70018 	sw	a3,24(sp)
9d004a28:	26d6fffd 	addiu	s6,s6,-3
9d004a2c:	2402fffd 	li	v0,-3
9d004a30:	16c2ffea 	bne	s6,v0,9d0049dc <_vfprintf_cdfFnopuxX+0xfd4>
9d004a34:	2673fffc 	addiu	s3,s3,-4
9d004a38:	8fa20028 	lw	v0,40(sp)
9d004a3c:	5040fc04 	beqzl	v0,9d003a50 <_vfprintf_cdfFnopuxX+0x48>
9d004a40:	82240000 	lb	a0,0(s1)
9d004a44:	5ae0fc02 	blezl	s7,9d003a50 <_vfprintf_cdfFnopuxX+0x48>
9d004a48:	82240000 	lb	a0,0(s1)
9d004a4c:	24040020 	li	a0,32
9d004a50:	0f40239b 	jal	9d008e6c <.LFE0>
9d004a54:	02402821 	move	a1,s2
9d004a58:	00021027 	nor	v0,zero,v0
9d004a5c:	0002102b 	sltu	v0,zero,v0
9d004a60:	26f7ffff 	addiu	s7,s7,-1
9d004a64:	16e0fff9 	bnez	s7,9d004a4c <_vfprintf_cdfFnopuxX+0x1044>
9d004a68:	02028021 	addu	s0,s0,v0
9d004a6c:	0b400e94 	j	9d003a50 <_vfprintf_cdfFnopuxX+0x48>
9d004a70:	82240000 	lb	a0,0(s1)
9d004a74:	24040020 	li	a0,32
9d004a78:	0f40239b 	jal	9d008e6c <.LFE0>
9d004a7c:	02402821 	move	a1,s2
9d004a80:	00021027 	nor	v0,zero,v0
9d004a84:	0002102b 	sltu	v0,zero,v0
9d004a88:	26f7ffff 	addiu	s7,s7,-1
9d004a8c:	12e0ffb6 	beqz	s7,9d004968 <_vfprintf_cdfFnopuxX+0xf60>
9d004a90:	02028021 	addu	s0,s0,v0
9d004a94:	24040020 	li	a0,32
9d004a98:	0f40239b 	jal	9d008e6c <.LFE0>
9d004a9c:	02402821 	move	a1,s2
9d004aa0:	00021027 	nor	v0,zero,v0
9d004aa4:	0002102b 	sltu	v0,zero,v0
9d004aa8:	26f7ffff 	addiu	s7,s7,-1
9d004aac:	16e0fff1 	bnez	s7,9d004a74 <_vfprintf_cdfFnopuxX+0x106c>
9d004ab0:	02028021 	addu	s0,s0,v0
9d004ab4:	0b40125b 	j	9d00496c <_vfprintf_cdfFnopuxX+0xf64>
9d004ab8:	32c20002 	andi	v0,s6,0x2
9d004abc:	5680ffd2 	bnezl	s4,9d004a08 <_vfprintf_cdfFnopuxX+0x1000>
9d004ac0:	83a40016 	lb	a0,22(sp)
9d004ac4:	8fa50018 	lw	a1,24(sp)
9d004ac8:	8ca60000 	lw	a2,0(a1)
9d004acc:	8ca70004 	lw	a3,4(a1)
9d004ad0:	02a02021 	move	a0,s5
9d004ad4:	0f40185b 	jal	9d00616c <__udivdi3>
9d004ad8:	03c02821 	move	a1,s8
9d004adc:	00402021 	move	a0,v0
9d004ae0:	00602821 	move	a1,v1
9d004ae4:	2406000a 	li	a2,10
9d004ae8:	0f401742 	jal	9d005d08 <__umoddi3>
9d004aec:	00003821 	move	a3,zero
9d004af0:	24420030 	addiu	v0,v0,48
9d004af4:	7c022420 	seb	a0,v0
9d004af8:	0b401282 	j	9d004a08 <_vfprintf_cdfFnopuxX+0x1000>
9d004afc:	a3a40016 	sb	a0,22(sp)
9d004b00:	8fa6001c 	lw	a2,28(sp)
9d004b04:	00661804 	sllv	v1,a2,v1
9d004b08:	02751006 	srlv	v0,s5,s3
9d004b0c:	32660020 	andi	a2,s3,0x20
9d004b10:	00621025 	or	v0,v1,v0
9d004b14:	027e2806 	srlv	a1,s8,s3
9d004b18:	3c079d01 	lui	a3,0x9d01
9d004b1c:	24e39768 	addiu	v1,a3,-26776
9d004b20:	3c079d01 	lui	a3,0x9d01
9d004b24:	24e4977c 	addiu	a0,a3,-26756
9d004b28:	00a6100b 	movn	v0,a1,a2
9d004b2c:	8fa50020 	lw	a1,32(sp)
9d004b30:	0085180a 	movz	v1,a0,a1
9d004b34:	3042000f 	andi	v0,v0,0xf
9d004b38:	00621821 	addu	v1,v1,v0
9d004b3c:	80640000 	lb	a0,0(v1)
9d004b40:	0b401282 	j	9d004a08 <_vfprintf_cdfFnopuxX+0x1000>
9d004b44:	a3a40016 	sb	a0,22(sp)
9d004b48:	00161027 	nor	v0,zero,s6
9d004b4c:	8fa6001c 	lw	a2,28(sp)
9d004b50:	00461004 	sllv	v0,a2,v0
9d004b54:	02d52006 	srlv	a0,s5,s6
9d004b58:	32c30020 	andi	v1,s6,0x20
9d004b5c:	00442025 	or	a0,v0,a0
9d004b60:	02de1006 	srlv	v0,s8,s6
9d004b64:	0043200b 	movn	a0,v0,v1
9d004b68:	30840007 	andi	a0,a0,0x7
9d004b6c:	24840030 	addiu	a0,a0,48
9d004b70:	0b401282 	j	9d004a08 <_vfprintf_cdfFnopuxX+0x1000>
9d004b74:	a3a40016 	sb	a0,22(sp)
9d004b78:	02a4282b 	sltu	a1,s5,a0
9d004b7c:	10a00044 	beqz	a1,9d004c90 <_vfprintf_cdfFnopuxX+0x1288>
9d004b80:	00043f42 	srl	a3,a0,0x1d
9d004b84:	a3a60016 	sb	a2,22(sp)
9d004b88:	0b40120f 	j	9d00483c <_vfprintf_cdfFnopuxX+0xe34>
9d004b8c:	00c01021 	move	v0,a2
9d004b90:	8fa50068 	lw	a1,104(sp)
9d004b94:	8cb30000 	lw	s3,0(a1)
9d004b98:	82220002 	lb	v0,2(s1)
9d004b9c:	24a50004 	addiu	a1,a1,4
9d004ba0:	afa50068 	sw	a1,104(sp)
9d004ba4:	0b400eee 	j	9d003bb8 <_vfprintf_cdfFnopuxX+0x1b0>
9d004ba8:	26310002 	addiu	s1,s1,2
9d004bac:	52c0fe14 	beqzl	s6,9d004400 <_vfprintf_cdfFnopuxX+0x9f8>
9d004bb0:	3c049d01 	lui	a0,0x9d01
9d004bb4:	0b401231 	j	9d0048c4 <_vfprintf_cdfFnopuxX+0xebc>
9d004bb8:	24040020 	li	a0,32
9d004bbc:	13c00091 	beqz	s8,9d004e04 <_vfprintf_cdfFnopuxX+0x13fc>
9d004bc0:	a3a20016 	sb	v0,22(sp)
9d004bc4:	24030003 	li	v1,3
9d004bc8:	24060002 	li	a2,2
9d004bcc:	24040100 	li	a0,256
9d004bd0:	00001021 	move	v0,zero
9d004bd4:	0b4012f8 	j	9d004be0 <_vfprintf_cdfFnopuxX+0x11d8>
9d004bd8:	240a0011 	li	t2,17
9d004bdc:	00a03021 	move	a2,a1
9d004be0:	03c2282b 	sltu	a1,s8,v0
9d004be4:	54a0ffe8 	bnezl	a1,9d004b88 <_vfprintf_cdfFnopuxX+0x1180>
9d004be8:	a3a60016 	sb	a2,22(sp)
9d004bec:	105e006b 	beq	v0,s8,9d004d9c <_vfprintf_cdfFnopuxX+0x1394>
9d004bf0:	02a4282b 	sltu	a1,s5,a0
9d004bf4:	24690001 	addiu	t1,v1,1
9d004bf8:	00043f02 	srl	a3,a0,0x1c
9d004bfc:	00023100 	sll	a2,v0,0x4
9d004c00:	7c032c20 	seb	a1,v1
9d004c04:	312300ff 	andi	v1,t1,0xff
9d004c08:	00e61025 	or	v0,a3,a2
9d004c0c:	146afff3 	bne	v1,t2,9d004bdc <_vfprintf_cdfFnopuxX+0x11d4>
9d004c10:	00042100 	sll	a0,a0,0x4
9d004c14:	a3a50016 	sb	a1,22(sp)
9d004c18:	0b40120f 	j	9d00483c <_vfprintf_cdfFnopuxX+0xe34>
9d004c1c:	00a01021 	move	v0,a1
9d004c20:	1040fde9 	beqz	v0,9d0043c8 <_vfprintf_cdfFnopuxX+0x9c0>
9d004c24:	24040020 	li	a0,32
9d004c28:	0b4010ed 	j	9d0043b4 <_vfprintf_cdfFnopuxX+0x9ac>
9d004c2c:	00000000 	nop
9d004c30:	1040ff5b 	beqz	v0,9d0049a0 <_vfprintf_cdfFnopuxX+0xf98>
9d004c34:	2662ffff 	addiu	v0,s3,-1
9d004c38:	0b401262 	j	9d004988 <_vfprintf_cdfFnopuxX+0xf80>
9d004c3c:	24040020 	li	a0,32
9d004c40:	1040ff35 	beqz	v0,9d004918 <_vfprintf_cdfFnopuxX+0xf10>
9d004c44:	24040020 	li	a0,32
9d004c48:	0b401241 	j	9d004904 <_vfprintf_cdfFnopuxX+0xefc>
9d004c4c:	00000000 	nop
9d004c50:	24020001 	li	v0,1
9d004c54:	13c00066 	beqz	s8,9d004df0 <_vfprintf_cdfFnopuxX+0x13e8>
9d004c58:	a3a20016 	sb	v0,22(sp)
9d004c5c:	24030003 	li	v1,3
9d004c60:	24060002 	li	a2,2
9d004c64:	24040040 	li	a0,64
9d004c68:	00001021 	move	v0,zero
9d004c6c:	0b40131e 	j	9d004c78 <_vfprintf_cdfFnopuxX+0x1270>
9d004c70:	240a0016 	li	t2,22
9d004c74:	00a03021 	move	a2,a1
9d004c78:	03c2282b 	sltu	a1,s8,v0
9d004c7c:	54a0ffc2 	bnezl	a1,9d004b88 <_vfprintf_cdfFnopuxX+0x1180>
9d004c80:	a3a60016 	sb	a2,22(sp)
9d004c84:	105effbc 	beq	v0,s8,9d004b78 <_vfprintf_cdfFnopuxX+0x1170>
9d004c88:	24690001 	addiu	t1,v1,1
9d004c8c:	00043f42 	srl	a3,a0,0x1d
9d004c90:	000230c0 	sll	a2,v0,0x3
9d004c94:	7c032c20 	seb	a1,v1
9d004c98:	312300ff 	andi	v1,t1,0xff
9d004c9c:	00e61025 	or	v0,a3,a2
9d004ca0:	146afff4 	bne	v1,t2,9d004c74 <_vfprintf_cdfFnopuxX+0x126c>
9d004ca4:	000420c0 	sll	a0,a0,0x3
9d004ca8:	a3a50016 	sb	a1,22(sp)
9d004cac:	0b40120f 	j	9d00483c <_vfprintf_cdfFnopuxX+0xe34>
9d004cb0:	00a01021 	move	v0,a1
9d004cb4:	8fa50068 	lw	a1,104(sp)
9d004cb8:	24a30007 	addiu	v1,a1,7
9d004cbc:	2402fff8 	li	v0,-8
9d004cc0:	00621024 	and	v0,v1,v0
9d004cc4:	24460008 	addiu	a2,v0,8
9d004cc8:	afa60068 	sw	a2,104(sp)
9d004ccc:	8c550000 	lw	s5,0(v0)
9d004cd0:	0b400fdc 	j	9d003f70 <_vfprintf_cdfFnopuxX+0x568>
9d004cd4:	8c5e0004 	lw	s8,4(v0)
9d004cd8:	24e30007 	addiu	v1,a3,7
9d004cdc:	2402fff8 	li	v0,-8
9d004ce0:	00621824 	and	v1,v1,v0
9d004ce4:	8c640004 	lw	a0,4(v1)
9d004ce8:	8c620000 	lw	v0,0(v1)
9d004cec:	24630008 	addiu	v1,v1,8
9d004cf0:	afa30068 	sw	v1,104(sp)
9d004cf4:	00801821 	move	v1,a0
9d004cf8:	0040a821 	move	s5,v0
9d004cfc:	0b400fd5 	j	9d003f54 <_vfprintf_cdfFnopuxX+0x54c>
9d004d00:	0080f021 	move	s8,a0
9d004d04:	3c089d01 	lui	t0,0x9d01
9d004d08:	25159760 	addiu	s5,t0,-26784
9d004d0c:	0b40101f 	j	9d00407c <_vfprintf_cdfFnopuxX+0x674>
9d004d10:	02a02021 	move	a0,s5
9d004d14:	24020001 	li	v0,1
9d004d18:	a3a20016 	sb	v0,22(sp)
9d004d1c:	0b4010db 	j	9d00436c <_vfprintf_cdfFnopuxX+0x964>
9d004d20:	24050001 	li	a1,1
9d004d24:	3c06cccc 	lui	a2,0xcccc
9d004d28:	34c6cccd 	ori	a2,a2,0xcccd
9d004d2c:	02a60019 	multu	s5,a2
9d004d30:	00003010 	mfhi	a2
9d004d34:	3c079d01 	lui	a3,0x9d01
9d004d38:	24e7a0f8 	addiu	a3,a3,-24328
9d004d3c:	3c029d01 	lui	v0,0x9d01
9d004d40:	8c459798 	lw	a1,-26728(v0)
9d004d44:	000630c2 	srl	a2,a2,0x3
9d004d48:	24c20009 	addiu	v0,a2,9
9d004d4c:	00021080 	sll	v0,v0,0x2
9d004d50:	00471021 	addu	v0,v0,a3
9d004d54:	8c440000 	lw	a0,0(v0)
9d004d58:	afa60030 	sw	a2,48(sp)
9d004d5c:	0f4020df 	jal	9d00837c <.LFE4>
9d004d60:	afa7002c 	sw	a3,44(sp)
9d004d64:	8fa60030 	lw	a2,48(sp)
9d004d68:	00062040 	sll	a0,a2,0x1
9d004d6c:	000630c0 	sll	a2,a2,0x3
9d004d70:	00862021 	addu	a0,a0,a2
9d004d74:	02a41823 	subu	v1,s5,a0
9d004d78:	306300ff 	andi	v1,v1,0xff
9d004d7c:	00031880 	sll	v1,v1,0x2
9d004d80:	8fa7002c 	lw	a3,44(sp)
9d004d84:	00673821 	addu	a3,v1,a3
9d004d88:	8ce50000 	lw	a1,0(a3)
9d004d8c:	0f4020df 	jal	9d00837c <.LFE4>
9d004d90:	00402021 	move	a0,v0
9d004d94:	0b400fa7 	j	9d003e9c <_vfprintf_cdfFnopuxX+0x494>
9d004d98:	00402821 	move	a1,v0
9d004d9c:	10a0ff96 	beqz	a1,9d004bf8 <_vfprintf_cdfFnopuxX+0x11f0>
9d004da0:	24690001 	addiu	t1,v1,1
9d004da4:	a3a60016 	sb	a2,22(sp)
9d004da8:	0b40120f 	j	9d00483c <_vfprintf_cdfFnopuxX+0xe34>
9d004dac:	00c01021 	move	v0,a2
9d004db0:	02a4202b 	sltu	a0,s5,a0
9d004db4:	1080fc8d 	beqz	a0,9d003fec <_vfprintf_cdfFnopuxX+0x5e4>
9d004db8:	24450001 	addiu	a1,v0,1
9d004dbc:	a3a60016 	sb	a2,22(sp)
9d004dc0:	0b40120f 	j	9d00483c <_vfprintf_cdfFnopuxX+0xe34>
9d004dc4:	00c01021 	move	v0,a2
9d004dc8:	0b400f94 	j	9d003e50 <_vfprintf_cdfFnopuxX+0x448>
9d004dcc:	27deffff 	addiu	s8,s8,-1
9d004dd0:	afa50068 	sw	a1,104(sp)
9d004dd4:	0b401028 	j	9d0040a0 <_vfprintf_cdfFnopuxX+0x698>
9d004dd8:	0000a021 	move	s4,zero
9d004ddc:	2ea2000a 	sltiu	v0,s5,10
9d004de0:	1040fc75 	beqz	v0,9d003fb8 <_vfprintf_cdfFnopuxX+0x5b0>
9d004de4:	3c039d01 	lui	v1,0x9d01
9d004de8:	0b40120f 	j	9d00483c <_vfprintf_cdfFnopuxX+0xe34>
9d004dec:	24020001 	li	v0,1
9d004df0:	2ea20008 	sltiu	v0,s5,8
9d004df4:	1040ff9a 	beqz	v0,9d004c60 <_vfprintf_cdfFnopuxX+0x1258>
9d004df8:	24030003 	li	v1,3
9d004dfc:	0b40120f 	j	9d00483c <_vfprintf_cdfFnopuxX+0xe34>
9d004e00:	24020001 	li	v0,1
9d004e04:	2ea20010 	sltiu	v0,s5,16
9d004e08:	1040ff6f 	beqz	v0,9d004bc8 <_vfprintf_cdfFnopuxX+0x11c0>
9d004e0c:	24030003 	li	v1,3
9d004e10:	0b40120f 	j	9d00483c <_vfprintf_cdfFnopuxX+0xe34>
9d004e14:	24020001 	li	v0,1
9d004e18:	3042ffff 	andi	v0,v0,0xffff
9d004e1c:	afa20028 	sw	v0,40(sp)
9d004e20:	0b40125a 	j	9d004968 <_vfprintf_cdfFnopuxX+0xf60>
9d004e24:	0000b821 	move	s7,zero

Disassembly of section .text._vfscanf_cdfFnopuxX:

9d004e28 <_vfscanf_cdfFnopuxX>:
9d004e28:	27bdff78 	addiu	sp,sp,-136
9d004e2c:	afbf0084 	sw	ra,132(sp)
9d004e30:	afbe0080 	sw	s8,128(sp)
9d004e34:	afb7007c 	sw	s7,124(sp)
9d004e38:	afb60078 	sw	s6,120(sp)
9d004e3c:	afb50074 	sw	s5,116(sp)
9d004e40:	afb40070 	sw	s4,112(sp)
9d004e44:	afb3006c 	sw	s3,108(sp)
9d004e48:	afb20068 	sw	s2,104(sp)
9d004e4c:	afb10064 	sw	s1,100(sp)
9d004e50:	afb00060 	sw	s0,96(sp)
9d004e54:	3c13a000 	lui	s3,0xa000
9d004e58:	3c169d01 	lui	s6,0x9d01
9d004e5c:	26d691e1 	addiu	s6,s6,-28191
9d004e60:	afa60090 	sw	a2,144(sp)
9d004e64:	ae6400ec 	sw	a0,236(s3)
9d004e68:	0000a021 	move	s4,zero
9d004e6c:	afa00058 	sw	zero,88(sp)
9d004e70:	90b00000 	lbu	s0,0(a1)
9d004e74:	1200009a 	beqz	s0,9d0050e0 <_vfscanf_cdfFnopuxX+0x2b8>
9d004e78:	24b50001 	addiu	s5,a1,1
9d004e7c:	02d01021 	addu	v0,s6,s0
9d004e80:	80420000 	lb	v0,0(v0)
9d004e84:	30420088 	andi	v0,v0,0x88
9d004e88:	144000a2 	bnez	v0,9d005114 <_vfscanf_cdfFnopuxX+0x2ec>
9d004e8c:	24020025 	li	v0,37
9d004e90:	1602008b 	bne	s0,v0,9d0050c0 <_vfscanf_cdfFnopuxX+0x298>
9d004e94:	02a08821 	move	s1,s5
9d004e98:	80b20001 	lb	s2,1(a1)
9d004e9c:	00008021 	move	s0,zero
9d004ea0:	24030004 	li	v1,4
9d004ea4:	afa30054 	sw	v1,84(sp)
9d004ea8:	afa00050 	sw	zero,80(sp)
9d004eac:	241e0004 	li	s8,4
9d004eb0:	325200ff 	andi	s2,s2,0xff
9d004eb4:	2e420079 	sltiu	v0,s2,121
9d004eb8:	10400163 	beqz	v0,9d005448 <_vfscanf_cdfFnopuxX+0x620>
9d004ebc:	26350001 	addiu	s5,s1,1
9d004ec0:	00121080 	sll	v0,s2,0x2
9d004ec4:	3c049d00 	lui	a0,0x9d00
9d004ec8:	24844edc 	addiu	a0,a0,20188
9d004ecc:	00821021 	addu	v0,a0,v0
9d004ed0:	8c420000 	lw	v0,0(v0)
9d004ed4:	00400008 	jr	v0
9d004ed8:	00000000 	nop
9d004edc:	9d005124 	0x9d005124
9d004ee0:	9d005448 	0x9d005448
9d004ee4:	9d005448 	0x9d005448
9d004ee8:	9d005448 	0x9d005448
9d004eec:	9d005448 	0x9d005448
9d004ef0:	9d005448 	0x9d005448
9d004ef4:	9d005448 	0x9d005448
9d004ef8:	9d005448 	0x9d005448
9d004efc:	9d005448 	0x9d005448
9d004f00:	9d005448 	0x9d005448
9d004f04:	9d005448 	0x9d005448
9d004f08:	9d005448 	0x9d005448
9d004f0c:	9d005448 	0x9d005448
9d004f10:	9d005448 	0x9d005448
9d004f14:	9d005448 	0x9d005448
9d004f18:	9d005448 	0x9d005448
9d004f1c:	9d005448 	0x9d005448
9d004f20:	9d005448 	0x9d005448
9d004f24:	9d005448 	0x9d005448
9d004f28:	9d005448 	0x9d005448
9d004f2c:	9d005448 	0x9d005448
9d004f30:	9d005448 	0x9d005448
9d004f34:	9d005448 	0x9d005448
9d004f38:	9d005448 	0x9d005448
9d004f3c:	9d005448 	0x9d005448
9d004f40:	9d005448 	0x9d005448
9d004f44:	9d005448 	0x9d005448
9d004f48:	9d005448 	0x9d005448
9d004f4c:	9d005448 	0x9d005448
9d004f50:	9d005448 	0x9d005448
9d004f54:	9d005448 	0x9d005448
9d004f58:	9d005448 	0x9d005448
9d004f5c:	9d005448 	0x9d005448
9d004f60:	9d005448 	0x9d005448
9d004f64:	9d005448 	0x9d005448
9d004f68:	9d005448 	0x9d005448
9d004f6c:	9d005448 	0x9d005448
9d004f70:	9d005448 	0x9d005448
9d004f74:	9d005448 	0x9d005448
9d004f78:	9d005448 	0x9d005448
9d004f7c:	9d005448 	0x9d005448
9d004f80:	9d005448 	0x9d005448
9d004f84:	9d005540 	0x9d005540
9d004f88:	9d005448 	0x9d005448
9d004f8c:	9d005448 	0x9d005448
9d004f90:	9d005448 	0x9d005448
9d004f94:	9d005448 	0x9d005448
9d004f98:	9d005448 	0x9d005448
9d004f9c:	9d005448 	0x9d005448
9d004fa0:	9d005448 	0x9d005448
9d004fa4:	9d005448 	0x9d005448
9d004fa8:	9d005448 	0x9d005448
9d004fac:	9d005448 	0x9d005448
9d004fb0:	9d005448 	0x9d005448
9d004fb4:	9d005448 	0x9d005448
9d004fb8:	9d005448 	0x9d005448
9d004fbc:	9d005448 	0x9d005448
9d004fc0:	9d005448 	0x9d005448
9d004fc4:	9d005448 	0x9d005448
9d004fc8:	9d005448 	0x9d005448
9d004fcc:	9d005448 	0x9d005448
9d004fd0:	9d005448 	0x9d005448
9d004fd4:	9d005448 	0x9d005448
9d004fd8:	9d005448 	0x9d005448
9d004fdc:	9d005448 	0x9d005448
9d004fe0:	9d005448 	0x9d005448
9d004fe4:	9d005448 	0x9d005448
9d004fe8:	9d005448 	0x9d005448
9d004fec:	9d005448 	0x9d005448
9d004ff0:	9d0054ac 	0x9d0054ac
9d004ff4:	9d005448 	0x9d005448
9d004ff8:	9d0054ac 	0x9d0054ac
9d004ffc:	9d005448 	0x9d005448
9d005000:	9d005448 	0x9d005448
9d005004:	9d005448 	0x9d005448
9d005008:	9d005448 	0x9d005448
9d00500c:	9d00555c 	0x9d00555c
9d005010:	9d005448 	0x9d005448
9d005014:	9d005448 	0x9d005448
9d005018:	9d005448 	0x9d005448
9d00501c:	9d005448 	0x9d005448
9d005020:	9d005448 	0x9d005448
9d005024:	9d005448 	0x9d005448
9d005028:	9d005448 	0x9d005448
9d00502c:	9d005448 	0x9d005448
9d005030:	9d005448 	0x9d005448
9d005034:	9d005448 	0x9d005448
9d005038:	9d005448 	0x9d005448
9d00503c:	9d0053d0 	0x9d0053d0
9d005040:	9d005448 	0x9d005448
9d005044:	9d005448 	0x9d005448
9d005048:	9d005448 	0x9d005448
9d00504c:	9d005448 	0x9d005448
9d005050:	9d005448 	0x9d005448
9d005054:	9d005448 	0x9d005448
9d005058:	9d005448 	0x9d005448
9d00505c:	9d005448 	0x9d005448
9d005060:	9d005448 	0x9d005448
9d005064:	9d005448 	0x9d005448
9d005068:	9d0053e4 	0x9d0053e4
9d00506c:	9d0053dc 	0x9d0053dc
9d005070:	9d0054ac 	0x9d0054ac
9d005074:	9d0054ac 	0x9d0054ac
9d005078:	9d0054ac 	0x9d0054ac
9d00507c:	9d005428 	0x9d005428
9d005080:	9d0053dc 	0x9d0053dc
9d005084:	9d005448 	0x9d005448
9d005088:	9d005448 	0x9d005448
9d00508c:	9d00555c 	0x9d00555c
9d005090:	9d005448 	0x9d005448
9d005094:	9d005448 	0x9d005448
9d005098:	9d005170 	0x9d005170
9d00509c:	9d005448 	0x9d005448
9d0050a0:	9d005448 	0x9d005448
9d0050a4:	9d005448 	0x9d005448
9d0050a8:	9d00531c 	0x9d00531c
9d0050ac:	9d005448 	0x9d005448
9d0050b0:	9d0053dc 	0x9d0053dc
9d0050b4:	9d005448 	0x9d005448
9d0050b8:	9d005448 	0x9d005448
9d0050bc:	9d005290 	0x9d005290
9d0050c0:	0f402437 	jal	9d0090dc <.LFE0>
9d0050c4:	8e6400ec 	lw	a0,236(s3)
9d0050c8:	16020152 	bne	s0,v0,9d005614 <_vfscanf_cdfFnopuxX+0x7ec>
9d0050cc:	2403ffff 	li	v1,-1
9d0050d0:	02a02821 	move	a1,s5
9d0050d4:	90b00000 	lbu	s0,0(a1)
9d0050d8:	1600ff68 	bnez	s0,9d004e7c <_vfscanf_cdfFnopuxX+0x54>
9d0050dc:	24b50001 	addiu	s5,a1,1
9d0050e0:	8fa20058 	lw	v0,88(sp)
9d0050e4:	8fbf0084 	lw	ra,132(sp)
9d0050e8:	8fbe0080 	lw	s8,128(sp)
9d0050ec:	8fb7007c 	lw	s7,124(sp)
9d0050f0:	8fb60078 	lw	s6,120(sp)
9d0050f4:	8fb50074 	lw	s5,116(sp)
9d0050f8:	8fb40070 	lw	s4,112(sp)
9d0050fc:	8fb3006c 	lw	s3,108(sp)
9d005100:	8fb20068 	lw	s2,104(sp)
9d005104:	8fb10064 	lw	s1,100(sp)
9d005108:	8fb00060 	lw	s0,96(sp)
9d00510c:	03e00008 	jr	ra
9d005110:	27bd0088 	addiu	sp,sp,136
9d005114:	0f40284b 	jal	9d00a12c <wspace>
9d005118:	00000000 	nop
9d00511c:	0b401435 	j	9d0050d4 <_vfscanf_cdfFnopuxX+0x2ac>
9d005120:	02a02821 	move	a1,s5
9d005124:	8fa40058 	lw	a0,88(sp)
9d005128:	14800140 	bnez	a0,9d00562c <_vfscanf_cdfFnopuxX+0x804>
9d00512c:	00801021 	move	v0,a0
9d005130:	8e6200ec 	lw	v0,236(s3)
9d005134:	9442000c 	lhu	v0,12(v0)
9d005138:	7c420100 	ext	v0,v0,0x4,0x1
9d00513c:	00021023 	negu	v0,v0
9d005140:	8fbf0084 	lw	ra,132(sp)
9d005144:	8fbe0080 	lw	s8,128(sp)
9d005148:	8fb7007c 	lw	s7,124(sp)
9d00514c:	8fb60078 	lw	s6,120(sp)
9d005150:	8fb50074 	lw	s5,116(sp)
9d005154:	8fb40070 	lw	s4,112(sp)
9d005158:	8fb3006c 	lw	s3,108(sp)
9d00515c:	8fb20068 	lw	s2,104(sp)
9d005160:	8fb10064 	lw	s1,100(sp)
9d005164:	8fb00060 	lw	s0,96(sp)
9d005168:	03e00008 	jr	ra
9d00516c:	27bd0088 	addiu	sp,sp,136
9d005170:	24120008 	li	s2,8
9d005174:	0f40284b 	jal	9d00a12c <wspace>
9d005178:	00000000 	nop
9d00517c:	8e6400ec 	lw	a0,236(s3)
9d005180:	0f402437 	jal	9d0090dc <.LFE0>
9d005184:	afa0005c 	sw	zero,92(sp)
9d005188:	00408821 	move	s1,v0
9d00518c:	2402002d 	li	v0,45
9d005190:	1222004a 	beq	s1,v0,9d0052bc <_vfscanf_cdfFnopuxX+0x494>
9d005194:	3c03a000 	lui	v1,0xa000
9d005198:	02202021 	move	a0,s1
9d00519c:	02402821 	move	a1,s2
9d0051a0:	0f4026a9 	jal	9d009aa4 <range>
9d0051a4:	02803021 	move	a2,s4
9d0051a8:	240300ff 	li	v1,255
9d0051ac:	10430050 	beq	v0,v1,9d0052f0 <_vfscanf_cdfFnopuxX+0x4c8>
9d0051b0:	8e6500ec 	lw	a1,236(s3)
9d0051b4:	24020030 	li	v0,48
9d0051b8:	1222013d 	beq	s1,v0,9d0056b0 <_vfscanf_cdfFnopuxX+0x888>
9d0051bc:	00000000 	nop
9d0051c0:	0b40147c 	j	9d0051f0 <_vfscanf_cdfFnopuxX+0x3c8>
9d0051c4:	0000f021 	move	s8,zero
9d0051c8:	0f402437 	jal	9d0090dc <.LFE0>
9d0051cc:	8e6400ec 	lw	a0,236(s3)
9d0051d0:	00408821 	move	s1,v0
9d0051d4:	00402021 	move	a0,v0
9d0051d8:	02402821 	move	a1,s2
9d0051dc:	0f4026a9 	jal	9d009aa4 <range>
9d0051e0:	02803021 	move	a2,s4
9d0051e4:	240300ff 	li	v1,255
9d0051e8:	1043000b 	beq	v0,v1,9d005218 <_vfscanf_cdfFnopuxX+0x3f0>
9d0051ec:	02202021 	move	a0,s1
9d0051f0:	73d2f002 	mul	s8,s8,s2
9d0051f4:	02202021 	move	a0,s1
9d0051f8:	02402821 	move	a1,s2
9d0051fc:	0f4026a9 	jal	9d009aa4 <range>
9d005200:	02803021 	move	a2,s4
9d005204:	2610ffff 	addiu	s0,s0,-1
9d005208:	7c108420 	seb	s0,s0
9d00520c:	1600ffee 	bnez	s0,9d0051c8 <_vfscanf_cdfFnopuxX+0x3a0>
9d005210:	03c2f021 	addu	s8,s8,v0
9d005214:	02202021 	move	a0,s1
9d005218:	02402821 	move	a1,s2
9d00521c:	0f4026a9 	jal	9d009aa4 <range>
9d005220:	02803021 	move	a2,s4
9d005224:	240400ff 	li	a0,255
9d005228:	10440155 	beq	v0,a0,9d005780 <_vfscanf_cdfFnopuxX+0x958>
9d00522c:	8e6500ec 	lw	a1,236(s3)
9d005230:	001e1023 	negu	v0,s8
9d005234:	8fa3005c 	lw	v1,92(sp)
9d005238:	0043f00b 	movn	s8,v0,v1
9d00523c:	8fa30050 	lw	v1,80(sp)
9d005240:	1460ffa4 	bnez	v1,9d0050d4 <_vfscanf_cdfFnopuxX+0x2ac>
9d005244:	02a02821 	move	a1,s5
9d005248:	8fa40058 	lw	a0,88(sp)
9d00524c:	24820001 	addiu	v0,a0,1
9d005250:	304200ff 	andi	v0,v0,0xff
9d005254:	afa20058 	sw	v0,88(sp)
9d005258:	24020004 	li	v0,4
9d00525c:	8fa30054 	lw	v1,84(sp)
9d005260:	10620004 	beq	v1,v0,9d005274 <_vfscanf_cdfFnopuxX+0x44c>
9d005264:	24020002 	li	v0,2
9d005268:	8fa30054 	lw	v1,84(sp)
9d00526c:	10620148 	beq	v1,v0,9d005790 <_vfscanf_cdfFnopuxX+0x968>
9d005270:	8fa30090 	lw	v1,144(sp)
9d005274:	8fa30090 	lw	v1,144(sp)
9d005278:	8c620000 	lw	v0,0(v1)
9d00527c:	24630004 	addiu	v1,v1,4
9d005280:	afa30090 	sw	v1,144(sp)
9d005284:	ac5e0000 	sw	s8,0(v0)
9d005288:	0b401435 	j	9d0050d4 <_vfscanf_cdfFnopuxX+0x2ac>
9d00528c:	02a02821 	move	a1,s5
9d005290:	24120010 	li	s2,16
9d005294:	0f40284b 	jal	9d00a12c <wspace>
9d005298:	0000a021 	move	s4,zero
9d00529c:	8e6400ec 	lw	a0,236(s3)
9d0052a0:	0f402437 	jal	9d0090dc <.LFE0>
9d0052a4:	afa0005c 	sw	zero,92(sp)
9d0052a8:	00408821 	move	s1,v0
9d0052ac:	2402002d 	li	v0,45
9d0052b0:	1622ffba 	bne	s1,v0,9d00519c <_vfscanf_cdfFnopuxX+0x374>
9d0052b4:	02202021 	move	a0,s1
9d0052b8:	3c03a000 	lui	v1,0xa000
9d0052bc:	8c6400ec 	lw	a0,236(v1)
9d0052c0:	24030001 	li	v1,1
9d0052c4:	0f402437 	jal	9d0090dc <.LFE0>
9d0052c8:	afa3005c 	sw	v1,92(sp)
9d0052cc:	00408821 	move	s1,v0
9d0052d0:	02202021 	move	a0,s1
9d0052d4:	02402821 	move	a1,s2
9d0052d8:	0f4026a9 	jal	9d009aa4 <range>
9d0052dc:	02803021 	move	a2,s4
9d0052e0:	240300ff 	li	v1,255
9d0052e4:	1443ffb4 	bne	v0,v1,9d0051b8 <_vfscanf_cdfFnopuxX+0x390>
9d0052e8:	24020030 	li	v0,48
9d0052ec:	8e6500ec 	lw	a1,236(s3)
9d0052f0:	0f4027fa 	jal	9d009fe8 <ungetc>
9d0052f4:	02202021 	move	a0,s1
9d0052f8:	8fa40058 	lw	a0,88(sp)
9d0052fc:	548000cb 	bnezl	a0,9d00562c <_vfscanf_cdfFnopuxX+0x804>
9d005300:	00801021 	move	v0,a0
9d005304:	3c02a000 	lui	v0,0xa000
9d005308:	8c4200ec 	lw	v0,236(v0)
9d00530c:	9442000c 	lhu	v0,12(v0)
9d005310:	7c420100 	ext	v0,v0,0x4,0x1
9d005314:	0b401450 	j	9d005140 <_vfscanf_cdfFnopuxX+0x318>
9d005318:	00021023 	negu	v0,v0
9d00531c:	0f40284b 	jal	9d00a12c <wspace>
9d005320:	00000000 	nop
9d005324:	8fa30050 	lw	v1,80(sp)
9d005328:	106000d4 	beqz	v1,9d00567c <_vfscanf_cdfFnopuxX+0x854>
9d00532c:	8fa30090 	lw	v1,144(sp)
9d005330:	0f402437 	jal	9d0090dc <.LFE0>
9d005334:	8e6400ec 	lw	a0,236(s3)
9d005338:	2403ffff 	li	v1,-1
9d00533c:	504300d8 	beql	v0,v1,9d0056a0 <_vfscanf_cdfFnopuxX+0x878>
9d005340:	8fa20058 	lw	v0,88(sp)
9d005344:	14400012 	bnez	v0,9d005390 <_vfscanf_cdfFnopuxX+0x568>
9d005348:	24430001 	addiu	v1,v0,1
9d00534c:	0b4014ec 	j	9d0053b0 <_vfscanf_cdfFnopuxX+0x588>
9d005350:	8fa30050 	lw	v1,80(sp)
9d005354:	1062011d 	beq	v1,v0,9d0057cc <_vfscanf_cdfFnopuxX+0x9a4>
9d005358:	8fa30050 	lw	v1,80(sp)
9d00535c:	14600003 	bnez	v1,9d00536c <_vfscanf_cdfFnopuxX+0x544>
9d005360:	2610ffff 	addiu	s0,s0,-1
9d005364:	a2e20000 	sb	v0,0(s7)
9d005368:	26f70001 	addiu	s7,s7,1
9d00536c:	7c108420 	seb	s0,s0
9d005370:	1200000f 	beqz	s0,9d0053b0 <_vfscanf_cdfFnopuxX+0x588>
9d005374:	8fa30050 	lw	v1,80(sp)
9d005378:	0f402437 	jal	9d0090dc <.LFE0>
9d00537c:	8e6400ec 	lw	a0,236(s3)
9d005380:	24430001 	addiu	v1,v0,1
9d005384:	2c640002 	sltiu	a0,v1,2
9d005388:	54800009 	bnezl	a0,9d0053b0 <_vfscanf_cdfFnopuxX+0x588>
9d00538c:	8fa30050 	lw	v1,80(sp)
9d005390:	3c049d01 	lui	a0,0x9d01
9d005394:	248491e0 	addiu	a0,a0,-28192
9d005398:	00831821 	addu	v1,a0,v1
9d00539c:	80630000 	lb	v1,0(v1)
9d0053a0:	30630088 	andi	v1,v1,0x88
9d0053a4:	5060ffeb 	beqzl	v1,9d005354 <_vfscanf_cdfFnopuxX+0x52c>
9d0053a8:	82230001 	lb	v1,1(s1)
9d0053ac:	8fa30050 	lw	v1,80(sp)
9d0053b0:	1460ff48 	bnez	v1,9d0050d4 <_vfscanf_cdfFnopuxX+0x2ac>
9d0053b4:	02a02821 	move	a1,s5
9d0053b8:	8fa40058 	lw	a0,88(sp)
9d0053bc:	24820001 	addiu	v0,a0,1
9d0053c0:	304200ff 	andi	v0,v0,0xff
9d0053c4:	afa20058 	sw	v0,88(sp)
9d0053c8:	0b401435 	j	9d0050d4 <_vfscanf_cdfFnopuxX+0x2ac>
9d0053cc:	a2e00000 	sb	zero,0(s7)
9d0053d0:	24120010 	li	s2,16
9d0053d4:	0b40145d 	j	9d005174 <_vfscanf_cdfFnopuxX+0x34c>
9d0053d8:	24140001 	li	s4,1
9d0053dc:	0b40145d 	j	9d005174 <_vfscanf_cdfFnopuxX+0x34c>
9d0053e0:	2412000a 	li	s2,10
9d0053e4:	8fa30050 	lw	v1,80(sp)
9d0053e8:	1060009c 	beqz	v1,9d00565c <_vfscanf_cdfFnopuxX+0x834>
9d0053ec:	8fa40058 	lw	a0,88(sp)
9d0053f0:	2411ffff 	li	s1,-1
9d0053f4:	0f402437 	jal	9d0090dc <.LFE0>
9d0053f8:	8e6400ec 	lw	a0,236(s3)
9d0053fc:	10510087 	beq	v0,s1,9d00561c <_vfscanf_cdfFnopuxX+0x7f4>
9d005400:	8fa30050 	lw	v1,80(sp)
9d005404:	14600003 	bnez	v1,9d005414 <_vfscanf_cdfFnopuxX+0x5ec>
9d005408:	2610ffff 	addiu	s0,s0,-1
9d00540c:	a2e20000 	sb	v0,0(s7)
9d005410:	26f70001 	addiu	s7,s7,1
9d005414:	7c108420 	seb	s0,s0
9d005418:	1e00fff6 	bgtz	s0,9d0053f4 <_vfscanf_cdfFnopuxX+0x5cc>
9d00541c:	02a02821 	move	a1,s5
9d005420:	0b401436 	j	9d0050d8 <_vfscanf_cdfFnopuxX+0x2b0>
9d005424:	90b00000 	lbu	s0,0(a1)
9d005428:	82320001 	lb	s2,1(s1)
9d00542c:	24030002 	li	v1,2
9d005430:	afa30054 	sw	v1,84(sp)
9d005434:	02a08821 	move	s1,s5
9d005438:	325200ff 	andi	s2,s2,0xff
9d00543c:	2e420079 	sltiu	v0,s2,121
9d005440:	1440fe9f 	bnez	v0,9d004ec0 <_vfscanf_cdfFnopuxX+0x98>
9d005444:	26350001 	addiu	s5,s1,1
9d005448:	02d21021 	addu	v0,s6,s2
9d00544c:	90420000 	lbu	v0,0(v0)
9d005450:	30420004 	andi	v0,v0,0x4
9d005454:	104000e8 	beqz	v0,9d0057f8 <_vfscanf_cdfFnopuxX+0x9d0>
9d005458:	00000000 	nop
9d00545c:	0f4026d3 	jal	9d009b4c <.LFE0>
9d005460:	02202021 	move	a0,s1
9d005464:	82320001 	lb	s2,1(s1)
9d005468:	7c028420 	seb	s0,v0
9d00546c:	3c049d01 	lui	a0,0x9d01
9d005470:	248491e1 	addiu	a0,a0,-28191
9d005474:	02441021 	addu	v0,s2,a0
9d005478:	90420000 	lbu	v0,0(v0)
9d00547c:	30420004 	andi	v0,v0,0x4
9d005480:	1040fe8b 	beqz	v0,9d004eb0 <_vfscanf_cdfFnopuxX+0x88>
9d005484:	02a08821 	move	s1,s5
9d005488:	26310001 	addiu	s1,s1,1
9d00548c:	82320000 	lb	s2,0(s1)
9d005490:	02d21021 	addu	v0,s6,s2
9d005494:	90420000 	lbu	v0,0(v0)
9d005498:	30420004 	andi	v0,v0,0x4
9d00549c:	5440fffb 	bnezl	v0,9d00548c <_vfscanf_cdfFnopuxX+0x664>
9d0054a0:	26310001 	addiu	s1,s1,1
9d0054a4:	0b4013ad 	j	9d004eb4 <_vfscanf_cdfFnopuxX+0x8c>
9d0054a8:	325200ff 	andi	s2,s2,0xff
9d0054ac:	0f40284b 	jal	9d00a12c <wspace>
9d0054b0:	00000000 	nop
9d0054b4:	8e6400ec 	lw	a0,236(s3)
9d0054b8:	2402003b 	li	v0,59
9d0054bc:	0f402437 	jal	9d0090dc <.LFE0>
9d0054c0:	0050800a 	movz	s0,v0,s0
9d0054c4:	2403002d 	li	v1,45
9d0054c8:	104300c2 	beq	v0,v1,9d0057d4 <_vfscanf_cdfFnopuxX+0x9ac>
9d0054cc:	3c03a000 	lui	v1,0xa000
9d0054d0:	27a30010 	addiu	v1,sp,16
9d0054d4:	afa3005c 	sw	v1,92(sp)
9d0054d8:	247e0001 	addiu	s8,v1,1
9d0054dc:	00009021 	move	s2,zero
9d0054e0:	2411002e 	li	s1,46
9d0054e4:	12000006 	beqz	s0,9d005500 <_vfscanf_cdfFnopuxX+0x6d8>
9d0054e8:	27d7ffff 	addiu	s7,s8,-1
9d0054ec:	02c22021 	addu	a0,s6,v0
9d0054f0:	90840000 	lbu	a0,0(a0)
9d0054f4:	30840004 	andi	a0,a0,0x4
9d0054f8:	14800009 	bnez	a0,9d005520 <_vfscanf_cdfFnopuxX+0x6f8>
9d0054fc:	00000000 	nop
9d005500:	1640001d 	bnez	s2,9d005578 <_vfscanf_cdfFnopuxX+0x750>
9d005504:	00000000 	nop
9d005508:	1451001b 	bne	v0,s1,9d005578 <_vfscanf_cdfFnopuxX+0x750>
9d00550c:	00000000 	nop
9d005510:	a3d1ffff 	sb	s1,-1(s8)
9d005514:	26520001 	addiu	s2,s2,1
9d005518:	0b40154a 	j	9d005528 <_vfscanf_cdfFnopuxX+0x700>
9d00551c:	325200ff 	andi	s2,s2,0xff
9d005520:	1051fffc 	beq	v0,s1,9d005514 <_vfscanf_cdfFnopuxX+0x6ec>
9d005524:	a3c2ffff 	sb	v0,-1(s8)
9d005528:	8e6400ec 	lw	a0,236(s3)
9d00552c:	0f402437 	jal	9d0090dc <.LFE0>
9d005530:	27de0001 	addiu	s8,s8,1
9d005534:	2610ffff 	addiu	s0,s0,-1
9d005538:	0b401539 	j	9d0054e4 <_vfscanf_cdfFnopuxX+0x6bc>
9d00553c:	7c108420 	seb	s0,s0
9d005540:	8fa30050 	lw	v1,80(sp)
9d005544:	24620001 	addiu	v0,v1,1
9d005548:	82320001 	lb	s2,1(s1)
9d00554c:	304200ff 	andi	v0,v0,0xff
9d005550:	afa20050 	sw	v0,80(sp)
9d005554:	0b4013ac 	j	9d004eb0 <_vfscanf_cdfFnopuxX+0x88>
9d005558:	02a08821 	move	s1,s5
9d00555c:	8fa30054 	lw	v1,84(sp)
9d005560:	107effb4 	beq	v1,s8,9d005434 <_vfscanf_cdfFnopuxX+0x60c>
9d005564:	82320001 	lb	s2,1(s1)
9d005568:	24030008 	li	v1,8
9d00556c:	afa30054 	sw	v1,84(sp)
9d005570:	0b4013ac 	j	9d004eb0 <_vfscanf_cdfFnopuxX+0x88>
9d005574:	02a08821 	move	s1,s5
9d005578:	12000006 	beqz	s0,9d005594 <_vfscanf_cdfFnopuxX+0x76c>
9d00557c:	02e08821 	move	s1,s7
9d005580:	2404ffdf 	li	a0,-33
9d005584:	00442024 	and	a0,v0,a0
9d005588:	24030045 	li	v1,69
9d00558c:	10830055 	beq	a0,v1,9d0056e4 <_vfscanf_cdfFnopuxX+0x8bc>
9d005590:	8e6400ec 	lw	a0,236(s3)
9d005594:	2403ffff 	li	v1,-1
9d005598:	10430004 	beq	v0,v1,9d0055ac <_vfscanf_cdfFnopuxX+0x784>
9d00559c:	a2e00000 	sb	zero,0(s7)
9d0055a0:	8e6500ec 	lw	a1,236(s3)
9d0055a4:	0f4027fa 	jal	9d009fe8 <ungetc>
9d0055a8:	00402021 	move	a0,v0
9d0055ac:	8fa3005c 	lw	v1,92(sp)
9d0055b0:	1077fedc 	beq	v1,s7,9d005124 <_vfscanf_cdfFnopuxX+0x2fc>
9d0055b4:	8fa30050 	lw	v1,80(sp)
9d0055b8:	1460fec6 	bnez	v1,9d0050d4 <_vfscanf_cdfFnopuxX+0x2ac>
9d0055bc:	02a02821 	move	a1,s5
9d0055c0:	8fa40058 	lw	a0,88(sp)
9d0055c4:	24830001 	addiu	v1,a0,1
9d0055c8:	8fa40054 	lw	a0,84(sp)
9d0055cc:	2c820005 	sltiu	v0,a0,5
9d0055d0:	306300ff 	andi	v1,v1,0xff
9d0055d4:	afa30058 	sw	v1,88(sp)
9d0055d8:	14400073 	bnez	v0,9d0057a8 <_vfscanf_cdfFnopuxX+0x980>
9d0055dc:	8fa30090 	lw	v1,144(sp)
9d0055e0:	8c700000 	lw	s0,0(v1)
9d0055e4:	00002821 	move	a1,zero
9d0055e8:	0f402954 	jal	9d00a550 <strtod>
9d0055ec:	8fa4005c 	lw	a0,92(sp)
9d0055f0:	00402021 	move	a0,v0
9d0055f4:	8fa30090 	lw	v1,144(sp)
9d0055f8:	0f402654 	jal	9d009950 <.LFE0>
9d0055fc:	24710004 	addiu	s1,v1,4
9d005600:	ae020000 	sw	v0,0(s0)
9d005604:	ae030004 	sw	v1,4(s0)
9d005608:	afb10090 	sw	s1,144(sp)
9d00560c:	0b401435 	j	9d0050d4 <_vfscanf_cdfFnopuxX+0x2ac>
9d005610:	02a02821 	move	a1,s5
9d005614:	1443007f 	bne	v0,v1,9d005814 <_vfscanf_cdfFnopuxX+0x9ec>
9d005618:	3c03a000 	lui	v1,0xa000
9d00561c:	8fa40058 	lw	a0,88(sp)
9d005620:	1080fec7 	beqz	a0,9d005140 <_vfscanf_cdfFnopuxX+0x318>
9d005624:	2402ffff 	li	v0,-1
9d005628:	00801021 	move	v0,a0
9d00562c:	8fbf0084 	lw	ra,132(sp)
9d005630:	8fbe0080 	lw	s8,128(sp)
9d005634:	8fb7007c 	lw	s7,124(sp)
9d005638:	8fb60078 	lw	s6,120(sp)
9d00563c:	8fb50074 	lw	s5,116(sp)
9d005640:	8fb40070 	lw	s4,112(sp)
9d005644:	8fb3006c 	lw	s3,108(sp)
9d005648:	8fb20068 	lw	s2,104(sp)
9d00564c:	8fb10064 	lw	s1,100(sp)
9d005650:	8fb00060 	lw	s0,96(sp)
9d005654:	03e00008 	jr	ra
9d005658:	27bd0088 	addiu	sp,sp,136
9d00565c:	24820001 	addiu	v0,a0,1
9d005660:	8fa30090 	lw	v1,144(sp)
9d005664:	8c770000 	lw	s7,0(v1)
9d005668:	304200ff 	andi	v0,v0,0xff
9d00566c:	afa20058 	sw	v0,88(sp)
9d005670:	24630004 	addiu	v1,v1,4
9d005674:	0b4014fc 	j	9d0053f0 <_vfscanf_cdfFnopuxX+0x5c8>
9d005678:	afa30090 	sw	v1,144(sp)
9d00567c:	8c770000 	lw	s7,0(v1)
9d005680:	24630004 	addiu	v1,v1,4
9d005684:	afa30090 	sw	v1,144(sp)
9d005688:	0f402437 	jal	9d0090dc <.LFE0>
9d00568c:	8e6400ec 	lw	a0,236(s3)
9d005690:	2403ffff 	li	v1,-1
9d005694:	1443ff2b 	bne	v0,v1,9d005344 <_vfscanf_cdfFnopuxX+0x51c>
9d005698:	00000000 	nop
9d00569c:	8fa20058 	lw	v0,88(sp)
9d0056a0:	1440fea8 	bnez	v0,9d005144 <_vfscanf_cdfFnopuxX+0x31c>
9d0056a4:	8fbf0084 	lw	ra,132(sp)
9d0056a8:	0b401450 	j	9d005140 <_vfscanf_cdfFnopuxX+0x318>
9d0056ac:	2402ffff 	li	v0,-1
9d0056b0:	0f402437 	jal	9d0090dc <.LFE0>
9d0056b4:	8e6400ec 	lw	a0,236(s3)
9d0056b8:	24030078 	li	v1,120
9d0056bc:	1043002a 	beq	v0,v1,9d005768 <_vfscanf_cdfFnopuxX+0x940>
9d0056c0:	24030058 	li	v1,88
9d0056c4:	1443002a 	bne	v0,v1,9d005770 <_vfscanf_cdfFnopuxX+0x948>
9d0056c8:	8e6500ec 	lw	a1,236(s3)
9d0056cc:	12800028 	beqz	s4,9d005770 <_vfscanf_cdfFnopuxX+0x948>
9d0056d0:	00000000 	nop
9d0056d4:	0f402437 	jal	9d0090dc <.LFE0>
9d0056d8:	8e6400ec 	lw	a0,236(s3)
9d0056dc:	0b401470 	j	9d0051c0 <_vfscanf_cdfFnopuxX+0x398>
9d0056e0:	00408821 	move	s1,v0
9d0056e4:	a2e20000 	sb	v0,0(s7)
9d0056e8:	0f402437 	jal	9d0090dc <.LFE0>
9d0056ec:	321000ff 	andi	s0,s0,0xff
9d0056f0:	2603ffff 	addiu	v1,s0,-1
9d0056f4:	7c031c20 	seb	v1,v1
9d0056f8:	1060ffa6 	beqz	v1,9d005594 <_vfscanf_cdfFnopuxX+0x76c>
9d0056fc:	26f70001 	addiu	s7,s7,1
9d005700:	2404002d 	li	a0,45
9d005704:	10440048 	beq	v0,a0,9d005828 <_vfscanf_cdfFnopuxX+0xa00>
9d005708:	2404002b 	li	a0,43
9d00570c:	10440047 	beq	v0,a0,9d00582c <_vfscanf_cdfFnopuxX+0xa04>
9d005710:	8e6400ec 	lw	a0,236(s3)
9d005714:	02c22021 	addu	a0,s6,v0
9d005718:	90840000 	lbu	a0,0(a0)
9d00571c:	30840004 	andi	a0,a0,0x4
9d005720:	1080ff9c 	beqz	a0,9d005594 <_vfscanf_cdfFnopuxX+0x76c>
9d005724:	2463ffff 	addiu	v1,v1,-1
9d005728:	307000ff 	andi	s0,v1,0xff
9d00572c:	26100001 	addiu	s0,s0,1
9d005730:	0b4015d2 	j	9d005748 <_vfscanf_cdfFnopuxX+0x920>
9d005734:	02f08021 	addu	s0,s7,s0
9d005738:	90630000 	lbu	v1,0(v1)
9d00573c:	30630004 	andi	v1,v1,0x4
9d005740:	1060ff95 	beqz	v1,9d005598 <_vfscanf_cdfFnopuxX+0x770>
9d005744:	2403ffff 	li	v1,-1
9d005748:	8e6400ec 	lw	a0,236(s3)
9d00574c:	26f70001 	addiu	s7,s7,1
9d005750:	0f402437 	jal	9d0090dc <.LFE0>
9d005754:	a2e2ffff 	sb	v0,-1(s7)
9d005758:	56f0fff7 	bnel	s7,s0,9d005738 <_vfscanf_cdfFnopuxX+0x910>
9d00575c:	02c21821 	addu	v1,s6,v0
9d005760:	0b401566 	j	9d005598 <_vfscanf_cdfFnopuxX+0x770>
9d005764:	2403ffff 	li	v1,-1
9d005768:	1280ffda 	beqz	s4,9d0056d4 <_vfscanf_cdfFnopuxX+0x8ac>
9d00576c:	8e6500ec 	lw	a1,236(s3)
9d005770:	0f4027fa 	jal	9d009fe8 <ungetc>
9d005774:	00402021 	move	a0,v0
9d005778:	0b40147c 	j	9d0051f0 <_vfscanf_cdfFnopuxX+0x3c8>
9d00577c:	0000f021 	move	s8,zero
9d005780:	0f4027fa 	jal	9d009fe8 <ungetc>
9d005784:	02202021 	move	a0,s1
9d005788:	0b40148d 	j	9d005234 <_vfscanf_cdfFnopuxX+0x40c>
9d00578c:	001e1023 	negu	v0,s8
9d005790:	8c620000 	lw	v0,0(v1)
9d005794:	24630004 	addiu	v1,v1,4
9d005798:	afa30090 	sw	v1,144(sp)
9d00579c:	a45e0000 	sh	s8,0(v0)
9d0057a0:	0b401435 	j	9d0050d4 <_vfscanf_cdfFnopuxX+0x2ac>
9d0057a4:	02a02821 	move	a1,s5
9d0057a8:	8c710000 	lw	s1,0(v1)
9d0057ac:	8fa4005c 	lw	a0,92(sp)
9d0057b0:	00002821 	move	a1,zero
9d0057b4:	0f402977 	jal	9d00a5dc <.LFE1>
9d0057b8:	24700004 	addiu	s0,v1,4
9d0057bc:	ae220000 	sw	v0,0(s1)
9d0057c0:	afb00090 	sw	s0,144(sp)
9d0057c4:	0b401435 	j	9d0050d4 <_vfscanf_cdfFnopuxX+0x2ac>
9d0057c8:	02a02821 	move	a1,s5
9d0057cc:	0b4014eb 	j	9d0053ac <_vfscanf_cdfFnopuxX+0x584>
9d0057d0:	26350002 	addiu	s5,s1,2
9d0057d4:	8c6400ec 	lw	a0,236(v1)
9d0057d8:	a3a20010 	sb	v0,16(sp)
9d0057dc:	27a30010 	addiu	v1,sp,16
9d0057e0:	0f402437 	jal	9d0090dc <.LFE0>
9d0057e4:	afa3005c 	sw	v1,92(sp)
9d0057e8:	2610ffff 	addiu	s0,s0,-1
9d0057ec:	7c108420 	seb	s0,s0
9d0057f0:	0b401536 	j	9d0054d8 <_vfscanf_cdfFnopuxX+0x6b0>
9d0057f4:	27a30011 	addiu	v1,sp,17
9d0057f8:	0f402437 	jal	9d0090dc <.LFE0>
9d0057fc:	8e6400ec 	lw	a0,236(s3)
9d005800:	1242fe33 	beq	s2,v0,9d0050d0 <_vfscanf_cdfFnopuxX+0x2a8>
9d005804:	2403ffff 	li	v1,-1
9d005808:	5043ffa5 	beql	v0,v1,9d0056a0 <_vfscanf_cdfFnopuxX+0x878>
9d00580c:	8fa20058 	lw	v0,88(sp)
9d005810:	3c03a000 	lui	v1,0xa000
9d005814:	8c6500ec 	lw	a1,236(v1)
9d005818:	0f4027fa 	jal	9d009fe8 <ungetc>
9d00581c:	00402021 	move	a0,v0
9d005820:	0b401450 	j	9d005140 <_vfscanf_cdfFnopuxX+0x318>
9d005824:	8fa20058 	lw	v0,88(sp)
9d005828:	8e6400ec 	lw	a0,236(s3)
9d00582c:	a2220001 	sb	v0,1(s1)
9d005830:	0f402437 	jal	9d0090dc <.LFE0>
9d005834:	26370002 	addiu	s7,s1,2
9d005838:	2603fffe 	addiu	v1,s0,-2
9d00583c:	7c031c20 	seb	v1,v1
9d005840:	1460ffb5 	bnez	v1,9d005718 <_vfscanf_cdfFnopuxX+0x8f0>
9d005844:	02c22021 	addu	a0,s6,v0
9d005848:	0b401566 	j	9d005598 <_vfscanf_cdfFnopuxX+0x770>
9d00584c:	2403ffff 	li	v1,-1

Disassembly of section .text.dp32mul:

9d005850 <__divdf3>:
9d005850:	00055040 000a5542 00054ac0 00047d42     @P..BU...J..B}..
9d005860:	012f4825 000442c0 3c0e8000 012e4825     %H/..B.....<%H..
9d005870:	00076840 000d6d42 000762c0 00067d42     @h..Bm...b..B}..
9d005880:	018f6025 00065ac0 018e6025 00a72826     %`...Z..%`..&(..
9d005890:	00ae2824 254fffff 2de107fe 102000cb     $(....O%...-.. .
9d0058a0:	00000000                                ....

9d0058a4 <Dlab1>:
9d0058a4:	25afffff 	addiu	t7,t5,-1
9d0058a8:	2de107fe 	sltiu	at,t7,2046
9d0058ac:	102000f4 	beqz	at,9d005c80 <DspecB>
9d0058b0:	00000000 	nop

9d0058b4 <Dlab2>:
9d0058b4:	014d5023 	subu	t2,t2,t5
9d0058b8:	254a03ff 	addiu	t2,t2,1023
9d0058bc:	00084042 	srl	t0,t0,0x1
9d0058c0:	00097fc0 	sll	t7,t1,0x1f
9d0058c4:	010f4025 	or	t0,t0,t7
9d0058c8:	00094842 	srl	t1,t1,0x1
9d0058cc:	000c3c02 	srl	a3,t4,0x10
9d0058d0:	00e001f4 	teq	a3,zero,0x7
9d0058d4:	0127001b 	divu	zero,t1,a3
9d0058d8:	00007012 	mflo	t6
9d0058dc:	00004810 	mfhi	t1
9d0058e0:	3186ffff 	andi	a2,t4,0xffff
9d0058e4:	00ce0019 	multu	a2,t6
9d0058e8:	00002012 	mflo	a0
9d0058ec:	00094c00 	sll	t1,t1,0x10
9d0058f0:	00087c02 	srl	t7,t0,0x10
9d0058f4:	012f4825 	or	t1,t1,t7
9d0058f8:	0124782b 	sltu	t7,t1,a0
9d0058fc:	11e00006 	beqz	t7,9d005918 <i20>
9d005900:	01244823 	subu	t1,t1,a0

9d005904 <b21>:
9d005904:	25ceffff 	addiu	t6,t6,-1
9d005908:	012c4821 	addu	t1,t1,t4
9d00590c:	012c082b 	sltu	at,t1,t4
9d005910:	1020fffc 	beqz	at,9d005904 <b21>
9d005914:	00000000 	nop

9d005918 <i20>:
9d005918:	00e001f4 	teq	a3,zero,0x7
9d00591c:	0127001b 	divu	zero,t1,a3
9d005920:	00003812 	mflo	a3
9d005924:	00004810 	mfhi	t1
9d005928:	00c70019 	multu	a2,a3
9d00592c:	00002012 	mflo	a0
9d005930:	00094c00 	sll	t1,t1,0x10
9d005934:	310fffff 	andi	t7,t0,0xffff
9d005938:	012f4825 	or	t1,t1,t7
9d00593c:	0124782b 	sltu	t7,t1,a0
9d005940:	11e00006 	beqz	t7,9d00595c <i22>
9d005944:	01244823 	subu	t1,t1,a0

9d005948 <b23>:
9d005948:	24e7ffff 	addiu	a3,a3,-1
9d00594c:	012c4821 	addu	t1,t1,t4
9d005950:	012c082b 	sltu	at,t1,t4
9d005954:	1020fffc 	beqz	at,9d005948 <b23>
9d005958:	00000000 	nop

9d00595c <i22>:
9d00595c:	000e7400 	sll	t6,t6,0x10
9d005960:	01c77021 	addu	t6,t6,a3
9d005964:	01cb0019 	multu	t6,t3
9d005968:	00003812 	mflo	a3
9d00596c:	00002010 	mfhi	a0
9d005970:	24080000 	li	t0,0
9d005974:	0107782b 	sltu	t7,t0,a3
9d005978:	01074023 	subu	t0,t0,a3
9d00597c:	012f102b 	sltu	v0,t1,t7
9d005980:	012f4823 	subu	t1,t1,t7
9d005984:	0124782b 	sltu	t7,t1,a0
9d005988:	01e27825 	or	t7,t7,v0
9d00598c:	11e0000b 	beqz	t7,9d0059bc <i24>
9d005990:	01244823 	subu	t1,t1,a0

9d005994 <Dlab3>:
9d005994:	25ceffff 	addiu	t6,t6,-1
9d005998:	010b4021 	addu	t0,t0,t3
9d00599c:	010b782b 	sltu	t7,t0,t3
9d0059a0:	012c4821 	addu	t1,t1,t4
9d0059a4:	012f4821 	addu	t1,t1,t7
9d0059a8:	112c0002 	beq	t1,t4,9d0059b4 <L31>
9d0059ac:	00000000 	nop
9d0059b0:	012c782b 	sltu	t7,t1,t4

9d0059b4 <L31>:
9d0059b4:	11e0fff7 	beqz	t7,9d005994 <Dlab3>
9d0059b8:	00000000 	nop

9d0059bc <i24>:
9d0059bc:	152c0006 	bne	t1,t4,9d0059d8 <i25>
9d0059c0:	00000000 	nop
9d0059c4:	000b2025 	or	a0,zero,t3
9d0059c8:	00084825 	or	t1,zero,t0
9d0059cc:	240d0000 	li	t5,0
9d0059d0:	1000002a 	b	9d005a7c <e25>
9d0059d4:	000d3825 	or	a3,zero,t5

9d0059d8 <i25>:
9d0059d8:	000c3c02 	srl	a3,t4,0x10
9d0059dc:	00e001f4 	teq	a3,zero,0x7
9d0059e0:	0127001b 	divu	zero,t1,a3
9d0059e4:	00006812 	mflo	t5
9d0059e8:	00004810 	mfhi	t1
9d0059ec:	3186ffff 	andi	a2,t4,0xffff
9d0059f0:	00cd0019 	multu	a2,t5
9d0059f4:	00002012 	mflo	a0
9d0059f8:	00094c00 	sll	t1,t1,0x10
9d0059fc:	00087c02 	srl	t7,t0,0x10
9d005a00:	012f4825 	or	t1,t1,t7
9d005a04:	0124782b 	sltu	t7,t1,a0
9d005a08:	11e00006 	beqz	t7,9d005a24 <i26>
9d005a0c:	01244823 	subu	t1,t1,a0

9d005a10 <b27>:
9d005a10:	25adffff 	addiu	t5,t5,-1
9d005a14:	012c4821 	addu	t1,t1,t4
9d005a18:	012c082b 	sltu	at,t1,t4
9d005a1c:	1020fffc 	beqz	at,9d005a10 <b27>
9d005a20:	00000000 	nop

9d005a24 <i26>:
9d005a24:	00e001f4 	teq	a3,zero,0x7
9d005a28:	0127001b 	divu	zero,t1,a3
9d005a2c:	00003812 	mflo	a3
9d005a30:	00004810 	mfhi	t1
9d005a34:	00c70019 	multu	a2,a3
9d005a38:	00002012 	mflo	a0
9d005a3c:	00094c00 	sll	t1,t1,0x10
9d005a40:	310fffff 	andi	t7,t0,0xffff
9d005a44:	012f4825 	or	t1,t1,t7
9d005a48:	0124782b 	sltu	t7,t1,a0
9d005a4c:	11e00006 	beqz	t7,9d005a68 <i28>
9d005a50:	01244823 	subu	t1,t1,a0

9d005a54 <b29>:
9d005a54:	24e7ffff 	addiu	a3,a3,-1
9d005a58:	012c4821 	addu	t1,t1,t4
9d005a5c:	012c082b 	sltu	at,t1,t4
9d005a60:	1020fffc 	beqz	at,9d005a54 <b29>
9d005a64:	00000000 	nop

9d005a68 <i28>:
9d005a68:	000d6c00 	sll	t5,t5,0x10
9d005a6c:	01a76821 	addu	t5,t5,a3
9d005a70:	01ab0019 	multu	t5,t3
9d005a74:	00003812 	mflo	a3
9d005a78:	00002010 	mfhi	a0

9d005a7c <e25>:
9d005a7c:	24080000 	li	t0,0
9d005a80:	0107782b 	sltu	t7,t0,a3
9d005a84:	01074023 	subu	t0,t0,a3
9d005a88:	012f102b 	sltu	v0,t1,t7
9d005a8c:	012f4823 	subu	t1,t1,t7
9d005a90:	0124782b 	sltu	t7,t1,a0
9d005a94:	01e27825 	or	t7,t7,v0
9d005a98:	11e0000b 	beqz	t7,9d005ac8 <i30>
9d005a9c:	01244823 	subu	t1,t1,a0

9d005aa0 <Dlab4>:
9d005aa0:	25adffff 	addiu	t5,t5,-1
9d005aa4:	010b4021 	addu	t0,t0,t3
9d005aa8:	010b782b 	sltu	t7,t0,t3
9d005aac:	012c4821 	addu	t1,t1,t4
9d005ab0:	012f4821 	addu	t1,t1,t7
9d005ab4:	112c0002 	beq	t1,t4,9d005ac0 <L32>
9d005ab8:	00000000 	nop
9d005abc:	012c782b 	sltu	t7,t1,t4

9d005ac0 <L32>:
9d005ac0:	11e0fff7 	beqz	t7,9d005aa0 <Dlab4>
9d005ac4:	00000000 	nop

9d005ac8 <i30>:
9d005ac8:	05c00006 	bltz	t6,9d005ae4 <i31>
9d005acc:	00000000 	nop
9d005ad0:	01a0782a 	slt	t7,t5,zero
9d005ad4:	01ad6821 	addu	t5,t5,t5
9d005ad8:	01ce7021 	addu	t6,t6,t6
9d005adc:	01cf7021 	addu	t6,t6,t7
9d005ae0:	254affff 	addiu	t2,t2,-1

9d005ae4 <i31>:
9d005ae4:	01287825 	or	t7,t1,t0
9d005ae8:	11e00002 	beqz	t7,9d005af4 <i32>
9d005aec:	00000000 	nop
9d005af0:	35ad0001 	ori	t5,t5,0x1

9d005af4 <i32>:
9d005af4:	000e4825 	or	t1,zero,t6
9d005af8:	000d4025 	or	t0,zero,t5
9d005afc:	254fffff 	addiu	t7,t2,-1
9d005b00:	2de107fe 	sltiu	at,t7,2046
9d005b04:	10200015 	beqz	at,9d005b5c <Doveund>
9d005b08:	00000000 	nop
9d005b0c:	25080400 	addiu	t0,t0,1024
9d005b10:	2d0f0400 	sltiu	t7,t0,1024
9d005b14:	012f4821 	addu	t1,t1,t7
9d005b18:	012f782b 	sltu	t7,t1,t7
9d005b1c:	014f5021 	addu	t2,t2,t7

9d005b20 <Dlab8>:
9d005b20:	00087ac2 	srl	t7,t0,0xb
9d005b24:	31ef0001 	andi	t7,t7,0x1
9d005b28:	010f4023 	subu	t0,t0,t7
9d005b2c:	000822c2 	srl	a0,t0,0xb
9d005b30:	00097d40 	sll	t7,t1,0x15
9d005b34:	008f2025 	or	a0,a0,t7
9d005b38:	00097840 	sll	t7,t1,0x1
9d005b3c:	000f7b02 	srl	t7,t7,0xc
9d005b40:	00af2825 	or	a1,a1,t7
9d005b44:	000a7d00 	sll	t7,t2,0x14
9d005b48:	00af2825 	or	a1,a1,t7

9d005b4c <Dret>:
9d005b4c:	00041025 	or	v0,zero,a0
9d005b50:	00051825 	or	v1,zero,a1

9d005b54 <D999>:
9d005b54:	03e00008 	jr	ra
9d005b58:	00000000 	nop

9d005b5c <Doveund>:
9d005b5c:	1d400044 	bgtz	t2,9d005c70 <Dinf>
9d005b60:	00000000 	nop
9d005b64:	240e0001 	li	t6,1
9d005b68:	01ca7023 	subu	t6,t6,t2

9d005b6c <L33>:
9d005b6c:	2dc10020 	sltiu	at,t6,32
9d005b70:	14200007 	bnez	at,9d005b90 <L34>
9d005b74:	00000000 	nop
9d005b78:	21ceffe0 	addi	t6,t6,-32
9d005b7c:	0008202b 	sltu	a0,zero,t0
9d005b80:	1009000d 	beq	zero,t1,9d005bb8 <L35>
9d005b84:	01244025 	or	t0,t1,a0
9d005b88:	1000fff8 	b	9d005b6c <L33>
9d005b8c:	34090000 	li	t1,0x0

9d005b90 <L34>:
9d005b90:	11c00009 	beqz	t6,9d005bb8 <L35>
9d005b94:	00000000 	nop
9d005b98:	000e3022 	neg	a2,t6
9d005b9c:	00c82004 	sllv	a0,t0,a2
9d005ba0:	00c93004 	sllv	a2,t1,a2
9d005ba4:	01c84006 	srlv	t0,t0,t6
9d005ba8:	01c94806 	srlv	t1,t1,t6
9d005bac:	10800002 	beqz	a0,9d005bb8 <L35>
9d005bb0:	00c84025 	or	t0,a2,t0
9d005bb4:	35080002 	ori	t0,t0,0x2

9d005bb8 <L35>:
9d005bb8:	25080400 	addiu	t0,t0,1024
9d005bbc:	2d0f0400 	sltiu	t7,t0,1024
9d005bc0:	012f4821 	addu	t1,t1,t7
9d005bc4:	1000ffd6 	b	9d005b20 <Dlab8>
9d005bc8:	000957c2 	srl	t2,t1,0x1f

9d005bcc <DspecA>:
9d005bcc:	0100782a 	slt	t7,t0,zero
9d005bd0:	01084021 	addu	t0,t0,t0
9d005bd4:	01294821 	addu	t1,t1,t1
9d005bd8:	15400017 	bnez	t2,9d005c38 <i33>
9d005bdc:	012f4821 	addu	t1,t1,t7
9d005be0:	01287825 	or	t7,t1,t0
9d005be4:	11e00014 	beqz	t7,9d005c38 <i33>
9d005be8:	00000000 	nop
9d005bec:	15200008 	bnez	t1,9d005c10 <L36>
9d005bf0:	00000000 	nop
9d005bf4:	15000003 	bnez	t0,9d005c04 <L37>
9d005bf8:	00000000 	nop
9d005bfc:	1000ff29 	b	9d0058a4 <Dlab1>
9d005c00:	240a0000 	li	t2,0

9d005c04 <L37>:
9d005c04:	01004825 	move	t1,t0
9d005c08:	24080000 	li	t0,0
9d005c0c:	254affe0 	addiu	t2,t2,-32

9d005c10 <L36>:
9d005c10:	712e7020 	clz	t6,t1
9d005c14:	11c0ff23 	beqz	t6,9d0058a4 <Dlab1>
9d005c18:	00000000 	nop
9d005c1c:	014e5023 	subu	t2,t2,t6
9d005c20:	000e3022 	neg	a2,t6
9d005c24:	00c83006 	srlv	a2,t0,a2
9d005c28:	01c84004 	sllv	t0,t0,t6
9d005c2c:	01c94804 	sllv	t1,t1,t6
9d005c30:	1000ff1c 	b	9d0058a4 <Dlab1>
9d005c34:	01264825 	or	t1,t1,a2

9d005c38 <i33>:
9d005c38:	154d0005 	bne	t2,t5,9d005c50 <i35>
9d005c3c:	00000000 	nop
9d005c40:	000c7840 	sll	t7,t4,0x1
9d005c44:	01eb7825 	or	t7,t7,t3
9d005c48:	11e0002b 	beqz	t7,9d005cf8 <Dnan>
9d005c4c:	00000000 	nop

9d005c50 <i35>:
9d005c50:	240107ff 	li	at,2047
9d005c54:	11a1000a 	beq	t5,at,9d005c80 <DspecB>
9d005c58:	00000000 	nop
9d005c5c:	1140ffbb 	beqz	t2,9d005b4c <Dret>
9d005c60:	00000000 	nop
9d005c64:	01287825 	or	t7,t1,t0
9d005c68:	15e00023 	bnez	t7,9d005cf8 <Dnan>
9d005c6c:	00000000 	nop

9d005c70 <Dinf>:
9d005c70:	3c017ff0 	lui	at,0x7ff0
9d005c74:	00a12825 	or	a1,a1,at
9d005c78:	1000ffb4 	b	9d005b4c <Dret>
9d005c7c:	24040000 	li	a0,0

9d005c80 <DspecB>:
9d005c80:	0160782a 	slt	t7,t3,zero
9d005c84:	016b5821 	addu	t3,t3,t3
9d005c88:	018c6021 	addu	t4,t4,t4
9d005c8c:	15a00017 	bnez	t5,9d005cec <i36>
9d005c90:	018f6021 	addu	t4,t4,t7
9d005c94:	018b7825 	or	t7,t4,t3
9d005c98:	11e0fff5 	beqz	t7,9d005c70 <Dinf>
9d005c9c:	00000000 	nop
9d005ca0:	15800008 	bnez	t4,9d005cc4 <L39>
9d005ca4:	00000000 	nop
9d005ca8:	15600003 	bnez	t3,9d005cb8 <L40>
9d005cac:	00000000 	nop
9d005cb0:	1000ff00 	b	9d0058b4 <Dlab2>
9d005cb4:	240d0000 	li	t5,0

9d005cb8 <L40>:
9d005cb8:	01606025 	move	t4,t3
9d005cbc:	240b0000 	li	t3,0
9d005cc0:	25adffe0 	addiu	t5,t5,-32

9d005cc4 <L39>:
9d005cc4:	718e7020 	clz	t6,t4
9d005cc8:	11c0fefa 	beqz	t6,9d0058b4 <Dlab2>
9d005ccc:	00000000 	nop
9d005cd0:	01ae6823 	subu	t5,t5,t6
9d005cd4:	000e3022 	neg	a2,t6
9d005cd8:	00cb3006 	srlv	a2,t3,a2
9d005cdc:	01cb5804 	sllv	t3,t3,t6
9d005ce0:	01cc6004 	sllv	t4,t4,t6
9d005ce4:	1000fef3 	b	9d0058b4 <Dlab2>
9d005ce8:	01866025 	or	t4,t4,a2

9d005cec <i36>:
9d005cec:	018b7825 	or	t7,t4,t3
9d005cf0:	11e00002 	beqz	t7,9d005cfc <i38>
9d005cf4:	00000000 	nop

9d005cf8 <Dnan>:
9d005cf8:	3c05fff8 	lui	a1,0xfff8

9d005cfc <i38>:
9d005cfc:	1000ff93 	b	9d005b4c <Dret>
9d005d00:	24040000 	li	a0,0
9d005d04:	00000000 	nop

Disassembly of section .text:

9d005d08 <__umoddi3>:
9d005d08:	00c04021 	move	t0,a2
9d005d0c:	00804821 	move	t1,a0
9d005d10:	14e0003b 	bnez	a3,9d005e00 <__umoddi3+0xf8>
9d005d14:	00a01821 	move	v1,a1
9d005d18:	00a6102b 	sltu	v0,a1,a2
9d005d1c:	10400048 	beqz	v0,9d005e40 <__umoddi3+0x138>
9d005d20:	70c21020 	clz	v0,a2
9d005d24:	50400008 	beqzl	v0,9d005d48 <__umoddi3+0x40>
9d005d28:	00083402 	srl	a2,t0,0x10
9d005d2c:	00021823 	negu	v1,v0
9d005d30:	00452804 	sllv	a1,a1,v0
9d005d34:	00641806 	srlv	v1,a0,v1
9d005d38:	00464004 	sllv	t0,a2,v0
9d005d3c:	00651825 	or	v1,v1,a1
9d005d40:	00444804 	sllv	t1,a0,v0
9d005d44:	00083402 	srl	a2,t0,0x10
9d005d48:	0066001b 	divu	zero,v1,a2
9d005d4c:	00c001f4 	teq	a2,zero,0x7
9d005d50:	00002010 	mfhi	a0
9d005d54:	00005812 	mflo	t3
9d005d58:	310cffff 	andi	t4,t0,0xffff
9d005d5c:	00095402 	srl	t2,t1,0x10
9d005d60:	716c5802 	mul	t3,t3,t4
9d005d64:	00042400 	sll	a0,a0,0x10
9d005d68:	008a5025 	or	t2,a0,t2
9d005d6c:	014b682b 	sltu	t5,t2,t3
9d005d70:	0066001b 	divu	zero,v1,a2
9d005d74:	00c001f4 	teq	a2,zero,0x7
9d005d78:	51a00009 	beqzl	t5,9d005da0 <__umoddi3+0x98>
9d005d7c:	014b5023 	subu	t2,t2,t3
9d005d80:	01485021 	addu	t2,t2,t0
9d005d84:	0148182b 	sltu	v1,t2,t0
9d005d88:	54600005 	bnezl	v1,9d005da0 <__umoddi3+0x98>
9d005d8c:	014b5023 	subu	t2,t2,t3
9d005d90:	014b202b 	sltu	a0,t2,t3
9d005d94:	01481821 	addu	v1,t2,t0
9d005d98:	0064500b 	movn	t2,v1,a0
9d005d9c:	014b5023 	subu	t2,t2,t3
9d005da0:	3123ffff 	andi	v1,t1,0xffff
9d005da4:	0146001b 	divu	zero,t2,a2
9d005da8:	00c001f4 	teq	a2,zero,0x7
9d005dac:	00004810 	mfhi	t1
9d005db0:	00002012 	mflo	a0
9d005db4:	708c2002 	mul	a0,a0,t4
9d005db8:	00094c00 	sll	t1,t1,0x10
9d005dbc:	01234825 	or	t1,t1,v1
9d005dc0:	0124182b 	sltu	v1,t1,a0
9d005dc4:	0146001b 	divu	zero,t2,a2
9d005dc8:	00c001f4 	teq	a2,zero,0x7
9d005dcc:	50600009 	beqzl	v1,9d005df4 <__umoddi3+0xec>
9d005dd0:	01244823 	subu	t1,t1,a0
9d005dd4:	01284821 	addu	t1,t1,t0
9d005dd8:	0128182b 	sltu	v1,t1,t0
9d005ddc:	54600005 	bnezl	v1,9d005df4 <__umoddi3+0xec>
9d005de0:	01244823 	subu	t1,t1,a0
9d005de4:	0124182b 	sltu	v1,t1,a0
9d005de8:	01284021 	addu	t0,t1,t0
9d005dec:	0103480b 	movn	t1,t0,v1
9d005df0:	01244823 	subu	t1,t1,a0
9d005df4:	00491006 	srlv	v0,t1,v0
9d005df8:	03e00008 	jr	ra
9d005dfc:	00001821 	move	v1,zero
9d005e00:	00a7102b 	sltu	v0,a1,a3
9d005e04:	14400047 	bnez	v0,9d005f24 <__umoddi3+0x21c>
9d005e08:	70ea5020 	clz	t2,a3
9d005e0c:	15400048 	bnez	t2,9d005f30 <__umoddi3+0x228>
9d005e10:	240b0020 	li	t3,32
9d005e14:	00e5102b 	sltu	v0,a3,a1
9d005e18:	14400005 	bnez	v0,9d005e30 <__umoddi3+0x128>
9d005e1c:	00861023 	subu	v0,a0,a2
9d005e20:	0086402b 	sltu	t0,a0,a2
9d005e24:	15000089 	bnez	t0,9d00604c <__umoddi3+0x344>
9d005e28:	00801021 	move	v0,a0
9d005e2c:	00861023 	subu	v0,a0,a2
9d005e30:	00a72823 	subu	a1,a1,a3
9d005e34:	0082202b 	sltu	a0,a0,v0
9d005e38:	03e00008 	jr	ra
9d005e3c:	00a41823 	subu	v1,a1,a0
9d005e40:	14c00006 	bnez	a2,9d005e5c <__umoddi3+0x154>
9d005e44:	71021020 	clz	v0,t0
9d005e48:	24020001 	li	v0,1
9d005e4c:	0046001b 	divu	zero,v0,a2
9d005e50:	00c001f4 	teq	a2,zero,0x7
9d005e54:	00004012 	mflo	t0
9d005e58:	71021020 	clz	v0,t0
9d005e5c:	5440007d 	bnezl	v0,9d006054 <__umoddi3+0x34c>
9d005e60:	00484004 	sllv	t0,t0,v0
9d005e64:	00a82823 	subu	a1,a1,t0
9d005e68:	00081c02 	srl	v1,t0,0x10
9d005e6c:	3107ffff 	andi	a3,t0,0xffff
9d005e70:	00092402 	srl	a0,t1,0x10
9d005e74:	00a3001b 	divu	zero,a1,v1
9d005e78:	006001f4 	teq	v1,zero,0x7
9d005e7c:	00005010 	mfhi	t2
9d005e80:	00003012 	mflo	a2
9d005e84:	70c73002 	mul	a2,a2,a3
9d005e88:	000a5400 	sll	t2,t2,0x10
9d005e8c:	01442025 	or	a0,t2,a0
9d005e90:	0086502b 	sltu	t2,a0,a2
9d005e94:	00a3001b 	divu	zero,a1,v1
9d005e98:	006001f4 	teq	v1,zero,0x7
9d005e9c:	51400009 	beqzl	t2,9d005ec4 <__umoddi3+0x1bc>
9d005ea0:	00862023 	subu	a0,a0,a2
9d005ea4:	00882021 	addu	a0,a0,t0
9d005ea8:	0088282b 	sltu	a1,a0,t0
9d005eac:	54a00005 	bnezl	a1,9d005ec4 <__umoddi3+0x1bc>
9d005eb0:	00862023 	subu	a0,a0,a2
9d005eb4:	0086502b 	sltu	t2,a0,a2
9d005eb8:	00882821 	addu	a1,a0,t0
9d005ebc:	00aa200b 	movn	a0,a1,t2
9d005ec0:	00862023 	subu	a0,a0,a2
9d005ec4:	3126ffff 	andi	a2,t1,0xffff
9d005ec8:	0083001b 	divu	zero,a0,v1
9d005ecc:	006001f4 	teq	v1,zero,0x7
9d005ed0:	00004810 	mfhi	t1
9d005ed4:	00002812 	mflo	a1
9d005ed8:	70a72802 	mul	a1,a1,a3
9d005edc:	00094c00 	sll	t1,t1,0x10
9d005ee0:	01264825 	or	t1,t1,a2
9d005ee4:	0125302b 	sltu	a2,t1,a1
9d005ee8:	0083001b 	divu	zero,a0,v1
9d005eec:	006001f4 	teq	v1,zero,0x7
9d005ef0:	50c00009 	beqzl	a2,9d005f18 <__umoddi3+0x210>
9d005ef4:	01254823 	subu	t1,t1,a1
9d005ef8:	01284821 	addu	t1,t1,t0
9d005efc:	0128182b 	sltu	v1,t1,t0
9d005f00:	54600005 	bnezl	v1,9d005f18 <__umoddi3+0x210>
9d005f04:	01254823 	subu	t1,t1,a1
9d005f08:	0125182b 	sltu	v1,t1,a1
9d005f0c:	01284021 	addu	t0,t1,t0
9d005f10:	0103480b 	movn	t1,t0,v1
9d005f14:	01254823 	subu	t1,t1,a1
9d005f18:	00491006 	srlv	v0,t1,v0
9d005f1c:	03e00008 	jr	ra
9d005f20:	00001821 	move	v1,zero
9d005f24:	00801021 	move	v0,a0
9d005f28:	03e00008 	jr	ra
9d005f2c:	00a01821 	move	v1,a1
9d005f30:	016a5823 	subu	t3,t3,t2
9d005f34:	01473804 	sllv	a3,a3,t2
9d005f38:	01661006 	srlv	v0,a2,t3
9d005f3c:	00473825 	or	a3,v0,a3
9d005f40:	01656806 	srlv	t5,a1,t3
9d005f44:	00074c02 	srl	t1,a3,0x10
9d005f48:	01a9001b 	divu	zero,t5,t1
9d005f4c:	012001f4 	teq	t1,zero,0x7
9d005f50:	00006010 	mfhi	t4
9d005f54:	00001812 	mflo	v1
9d005f58:	30eeffff 	andi	t6,a3,0xffff
9d005f5c:	01452804 	sllv	a1,a1,t2
9d005f60:	01641006 	srlv	v0,a0,t3
9d005f64:	00451025 	or	v0,v0,a1
9d005f68:	00022c02 	srl	a1,v0,0x10
9d005f6c:	01463004 	sllv	a2,a2,t2
9d005f70:	00004012 	mflo	t0
9d005f74:	706e7802 	mul	t7,v1,t6
9d005f78:	000c6400 	sll	t4,t4,0x10
9d005f7c:	01856025 	or	t4,t4,a1
9d005f80:	018f282b 	sltu	a1,t4,t7
9d005f84:	01a9001b 	divu	zero,t5,t1
9d005f88:	012001f4 	teq	t1,zero,0x7
9d005f8c:	10a0000a 	beqz	a1,9d005fb8 <__umoddi3+0x2b0>
9d005f90:	01442004 	sllv	a0,a0,t2
9d005f94:	01876021 	addu	t4,t4,a3
9d005f98:	0187282b 	sltu	a1,t4,a3
9d005f9c:	14a00006 	bnez	a1,9d005fb8 <__umoddi3+0x2b0>
9d005fa0:	2468ffff 	addiu	t0,v1,-1
9d005fa4:	018f282b 	sltu	a1,t4,t7
9d005fa8:	50a00004 	beqzl	a1,9d005fbc <__umoddi3+0x2b4>
9d005fac:	018f6023 	subu	t4,t4,t7
9d005fb0:	2468fffe 	addiu	t0,v1,-2
9d005fb4:	01876021 	addu	t4,t4,a3
9d005fb8:	018f6023 	subu	t4,t4,t7
9d005fbc:	3042ffff 	andi	v0,v0,0xffff
9d005fc0:	0189001b 	divu	zero,t4,t1
9d005fc4:	012001f4 	teq	t1,zero,0x7
9d005fc8:	00002810 	mfhi	a1
9d005fcc:	00001812 	mflo	v1
9d005fd0:	00006812 	mflo	t5
9d005fd4:	706e7002 	mul	t6,v1,t6
9d005fd8:	00052c00 	sll	a1,a1,0x10
9d005fdc:	00a21025 	or	v0,a1,v0
9d005fe0:	004e282b 	sltu	a1,v0,t6
9d005fe4:	0189001b 	divu	zero,t4,t1
9d005fe8:	012001f4 	teq	t1,zero,0x7
9d005fec:	50a00006 	beqzl	a1,9d006008 <__umoddi3+0x300>
9d005ff0:	00084400 	sll	t0,t0,0x10
9d005ff4:	00471021 	addu	v0,v0,a3
9d005ff8:	0047282b 	sltu	a1,v0,a3
9d005ffc:	10a0004c 	beqz	a1,9d006130 <__umoddi3+0x428>
9d006000:	246dffff 	addiu	t5,v1,-1
9d006004:	00084400 	sll	t0,t0,0x10
9d006008:	01a84025 	or	t0,t5,t0
9d00600c:	004e1023 	subu	v0,v0,t6
9d006010:	01060019 	multu	t0,a2
9d006014:	00004810 	mfhi	t1
9d006018:	0049182b 	sltu	v1,v0,t1
9d00601c:	1460003e 	bnez	v1,9d006118 <__umoddi3+0x410>
9d006020:	00004012 	mflo	t0
9d006024:	1049004b 	beq	v0,t1,9d006154 <__umoddi3+0x44c>
9d006028:	00491823 	subu	v1,v0,t1
9d00602c:	00003012 	mflo	a2
9d006030:	00863023 	subu	a2,a0,a2
9d006034:	0086202b 	sltu	a0,a0,a2
9d006038:	00641823 	subu	v1,v1,a0
9d00603c:	01631004 	sllv	v0,v1,t3
9d006040:	01463006 	srlv	a2,a2,t2
9d006044:	00461025 	or	v0,v0,a2
9d006048:	01431806 	srlv	v1,v1,t2
9d00604c:	03e00008 	jr	ra
9d006050:	00000000 	nop
9d006054:	24090020 	li	t1,32
9d006058:	01224823 	subu	t1,t1,v0
9d00605c:	01255006 	srlv	t2,a1,t1
9d006060:	00081c02 	srl	v1,t0,0x10
9d006064:	0143001b 	divu	zero,t2,v1
9d006068:	006001f4 	teq	v1,zero,0x7
9d00606c:	00003010 	mfhi	a2
9d006070:	00005812 	mflo	t3
9d006074:	3107ffff 	andi	a3,t0,0xffff
9d006078:	00452804 	sllv	a1,a1,v0
9d00607c:	01244806 	srlv	t1,a0,t1
9d006080:	01252825 	or	a1,t1,a1
9d006084:	00056402 	srl	t4,a1,0x10
9d006088:	00444804 	sllv	t1,a0,v0
9d00608c:	71675802 	mul	t3,t3,a3
9d006090:	00063400 	sll	a2,a2,0x10
9d006094:	01863025 	or	a2,t4,a2
9d006098:	00cb202b 	sltu	a0,a2,t3
9d00609c:	0143001b 	divu	zero,t2,v1
9d0060a0:	006001f4 	teq	v1,zero,0x7
9d0060a4:	50800006 	beqzl	a0,9d0060c0 <__umoddi3+0x3b8>
9d0060a8:	00cb3023 	subu	a2,a2,t3
9d0060ac:	00c83021 	addu	a2,a2,t0
9d0060b0:	00c8202b 	sltu	a0,a2,t0
9d0060b4:	10800024 	beqz	a0,9d006148 <__umoddi3+0x440>
9d0060b8:	00cb502b 	sltu	t2,a2,t3
9d0060bc:	00cb3023 	subu	a2,a2,t3
9d0060c0:	30aaffff 	andi	t2,a1,0xffff
9d0060c4:	00c3001b 	divu	zero,a2,v1
9d0060c8:	006001f4 	teq	v1,zero,0x7
9d0060cc:	00002010 	mfhi	a0
9d0060d0:	00002812 	mflo	a1
9d0060d4:	70a72802 	mul	a1,a1,a3
9d0060d8:	00042400 	sll	a0,a0,0x10
9d0060dc:	008a2025 	or	a0,a0,t2
9d0060e0:	0085502b 	sltu	t2,a0,a1
9d0060e4:	00c3001b 	divu	zero,a2,v1
9d0060e8:	006001f4 	teq	v1,zero,0x7
9d0060ec:	5140ff60 	beqzl	t2,9d005e70 <__umoddi3+0x168>
9d0060f0:	00852823 	subu	a1,a0,a1
9d0060f4:	00882021 	addu	a0,a0,t0
9d0060f8:	0088302b 	sltu	a2,a0,t0
9d0060fc:	54c0ff5c 	bnezl	a2,9d005e70 <__umoddi3+0x168>
9d006100:	00852823 	subu	a1,a0,a1
9d006104:	0085502b 	sltu	t2,a0,a1
9d006108:	00883021 	addu	a2,a0,t0
9d00610c:	00ca200b 	movn	a0,a2,t2
9d006110:	0b40179c 	j	9d005e70 <__umoddi3+0x168>
9d006114:	00852823 	subu	a1,a0,a1
9d006118:	01063023 	subu	a2,t0,a2
9d00611c:	01271823 	subu	v1,t1,a3
9d006120:	0106402b 	sltu	t0,t0,a2
9d006124:	00681823 	subu	v1,v1,t0
9d006128:	0b40180c 	j	9d006030 <__umoddi3+0x328>
9d00612c:	00431823 	subu	v1,v0,v1
9d006130:	004e282b 	sltu	a1,v0,t6
9d006134:	50a0ffb4 	beqzl	a1,9d006008 <__umoddi3+0x300>
9d006138:	00084400 	sll	t0,t0,0x10
9d00613c:	246dfffe 	addiu	t5,v1,-2
9d006140:	0b401801 	j	9d006004 <__umoddi3+0x2fc>
9d006144:	00471021 	addu	v0,v0,a3
9d006148:	00c82021 	addu	a0,a2,t0
9d00614c:	0b40182f 	j	9d0060bc <__umoddi3+0x3b4>
9d006150:	008a300b 	movn	a2,a0,t2
9d006154:	0088182b 	sltu	v1,a0,t0
9d006158:	5460fff0 	bnezl	v1,9d00611c <__umoddi3+0x414>
9d00615c:	01063023 	subu	a2,t0,a2
9d006160:	00003012 	mflo	a2
9d006164:	0b40180c 	j	9d006030 <__umoddi3+0x328>
9d006168:	00001821 	move	v1,zero

9d00616c <__udivdi3>:
9d00616c:	00c04021 	move	t0,a2
9d006170:	00801021 	move	v0,a0
9d006174:	14e0003f 	bnez	a3,9d006274 <__udivdi3+0x108>
9d006178:	00a04821 	move	t1,a1
9d00617c:	00a6182b 	sltu	v1,a1,a2
9d006180:	10600047 	beqz	v1,9d0062a0 <__udivdi3+0x134>
9d006184:	70c31820 	clz	v1,a2
9d006188:	50600008 	beqzl	v1,9d0061ac <__udivdi3+0x40>
9d00618c:	00081c02 	srl	v1,t0,0x10
9d006190:	00034823 	negu	t1,v1
9d006194:	00652804 	sllv	a1,a1,v1
9d006198:	01244806 	srlv	t1,a0,t1
9d00619c:	00664004 	sllv	t0,a2,v1
9d0061a0:	01254825 	or	t1,t1,a1
9d0061a4:	00641004 	sllv	v0,a0,v1
9d0061a8:	00081c02 	srl	v1,t0,0x10
9d0061ac:	0123001b 	divu	zero,t1,v1
9d0061b0:	006001f4 	teq	v1,zero,0x7
9d0061b4:	00006010 	mfhi	t4
9d0061b8:	00005812 	mflo	t3
9d0061bc:	310affff 	andi	t2,t0,0xffff
9d0061c0:	00022402 	srl	a0,v0,0x10
9d0061c4:	00003012 	mflo	a2
9d0061c8:	716a3802 	mul	a3,t3,t2
9d0061cc:	000c6400 	sll	t4,t4,0x10
9d0061d0:	01842025 	or	a0,t4,a0
9d0061d4:	0087602b 	sltu	t4,a0,a3
9d0061d8:	0123001b 	divu	zero,t1,v1
9d0061dc:	006001f4 	teq	v1,zero,0x7
9d0061e0:	1180000b 	beqz	t4,9d006210 <__udivdi3+0xa4>
9d0061e4:	00872823 	subu	a1,a0,a3
9d0061e8:	00882021 	addu	a0,a0,t0
9d0061ec:	0088282b 	sltu	a1,a0,t0
9d0061f0:	14a00006 	bnez	a1,9d00620c <__udivdi3+0xa0>
9d0061f4:	2566ffff 	addiu	a2,t3,-1
9d0061f8:	0087282b 	sltu	a1,a0,a3
9d0061fc:	10a00004 	beqz	a1,9d006210 <__udivdi3+0xa4>
9d006200:	00872823 	subu	a1,a0,a3
9d006204:	2566fffe 	addiu	a2,t3,-2
9d006208:	00882021 	addu	a0,a0,t0
9d00620c:	00872823 	subu	a1,a0,a3
9d006210:	3042ffff 	andi	v0,v0,0xffff
9d006214:	00a3001b 	divu	zero,a1,v1
9d006218:	006001f4 	teq	v1,zero,0x7
9d00621c:	00004810 	mfhi	t1
9d006220:	00003812 	mflo	a3
9d006224:	00002012 	mflo	a0
9d006228:	70ea5002 	mul	t2,a3,t2
9d00622c:	00094c00 	sll	t1,t1,0x10
9d006230:	01221025 	or	v0,t1,v0
9d006234:	004a482b 	sltu	t1,v0,t2
9d006238:	00a3001b 	divu	zero,a1,v1
9d00623c:	006001f4 	teq	v1,zero,0x7
9d006240:	51200009 	beqzl	t1,9d006268 <__udivdi3+0xfc>
9d006244:	00061400 	sll	v0,a2,0x10
9d006248:	00481021 	addu	v0,v0,t0
9d00624c:	0048402b 	sltu	t0,v0,t0
9d006250:	15000004 	bnez	t0,9d006264 <__udivdi3+0xf8>
9d006254:	24e4ffff 	addiu	a0,a3,-1
9d006258:	004a502b 	sltu	t2,v0,t2
9d00625c:	24e7fffe 	addiu	a3,a3,-2
9d006260:	00ea200b 	movn	a0,a3,t2
9d006264:	00061400 	sll	v0,a2,0x10
9d006268:	00821025 	or	v0,a0,v0
9d00626c:	03e00008 	jr	ra
9d006270:	00001821 	move	v1,zero
9d006274:	00a7102b 	sltu	v0,a1,a3
9d006278:	14400044 	bnez	v0,9d00638c <__udivdi3+0x220>
9d00627c:	70e84020 	clz	t0,a3
9d006280:	55000045 	bnezl	t0,9d006398 <__udivdi3+0x22c>
9d006284:	24020020 	li	v0,32
9d006288:	00e5282b 	sltu	a1,a3,a1
9d00628c:	14a000c8 	bnez	a1,9d0065b0 <__udivdi3+0x444>
9d006290:	0086302b 	sltu	a2,a0,a2
9d006294:	38c20001 	xori	v0,a2,0x1
9d006298:	03e00008 	jr	ra
9d00629c:	00001821 	move	v1,zero
9d0062a0:	14c00006 	bnez	a2,9d0062bc <__udivdi3+0x150>
9d0062a4:	71031820 	clz	v1,t0
9d0062a8:	24030001 	li	v1,1
9d0062ac:	0066001b 	divu	zero,v1,a2
9d0062b0:	00c001f4 	teq	a2,zero,0x7
9d0062b4:	00004012 	mflo	t0
9d0062b8:	71031820 	clz	v1,t0
9d0062bc:	5460007b 	bnezl	v1,9d0064ac <__udivdi3+0x340>
9d0062c0:	00684004 	sllv	t0,t0,v1
9d0062c4:	00a82023 	subu	a0,a1,t0
9d0062c8:	00083c02 	srl	a3,t0,0x10
9d0062cc:	310bffff 	andi	t3,t0,0xffff
9d0062d0:	24030001 	li	v1,1
9d0062d4:	00023402 	srl	a2,v0,0x10
9d0062d8:	0087001b 	divu	zero,a0,a3
9d0062dc:	00e001f4 	teq	a3,zero,0x7
9d0062e0:	00006810 	mfhi	t5
9d0062e4:	00006012 	mflo	t4
9d0062e8:	00004812 	mflo	t1
9d0062ec:	718b5002 	mul	t2,t4,t3
9d0062f0:	000d6c00 	sll	t5,t5,0x10
9d0062f4:	01a63025 	or	a2,t5,a2
9d0062f8:	00ca682b 	sltu	t5,a2,t2
9d0062fc:	0087001b 	divu	zero,a0,a3
9d006300:	00e001f4 	teq	a3,zero,0x7
9d006304:	11a00009 	beqz	t5,9d00632c <__udivdi3+0x1c0>
9d006308:	00ca2823 	subu	a1,a2,t2
9d00630c:	00c83021 	addu	a2,a2,t0
9d006310:	00c8202b 	sltu	a0,a2,t0
9d006314:	14800004 	bnez	a0,9d006328 <__udivdi3+0x1bc>
9d006318:	2589ffff 	addiu	t1,t4,-1
9d00631c:	00ca202b 	sltu	a0,a2,t2
9d006320:	548000a6 	bnezl	a0,9d0065bc <__udivdi3+0x450>
9d006324:	2589fffe 	addiu	t1,t4,-2
9d006328:	00ca2823 	subu	a1,a2,t2
9d00632c:	3042ffff 	andi	v0,v0,0xffff
9d006330:	00a7001b 	divu	zero,a1,a3
9d006334:	00e001f4 	teq	a3,zero,0x7
9d006338:	00005010 	mfhi	t2
9d00633c:	00003012 	mflo	a2
9d006340:	00002012 	mflo	a0
9d006344:	70cb5802 	mul	t3,a2,t3
9d006348:	000a5400 	sll	t2,t2,0x10
9d00634c:	01421025 	or	v0,t2,v0
9d006350:	004b502b 	sltu	t2,v0,t3
9d006354:	00a7001b 	divu	zero,a1,a3
9d006358:	00e001f4 	teq	a3,zero,0x7
9d00635c:	51400009 	beqzl	t2,9d006384 <__udivdi3+0x218>
9d006360:	00091400 	sll	v0,t1,0x10
9d006364:	00481021 	addu	v0,v0,t0
9d006368:	0048402b 	sltu	t0,v0,t0
9d00636c:	15000004 	bnez	t0,9d006380 <__udivdi3+0x214>
9d006370:	24c4ffff 	addiu	a0,a2,-1
9d006374:	004b582b 	sltu	t3,v0,t3
9d006378:	24c6fffe 	addiu	a2,a2,-2
9d00637c:	00cb200b 	movn	a0,a2,t3
9d006380:	00091400 	sll	v0,t1,0x10
9d006384:	03e00008 	jr	ra
9d006388:	00821025 	or	v0,a0,v0
9d00638c:	00001821 	move	v1,zero
9d006390:	03e00008 	jr	ra
9d006394:	00001021 	move	v0,zero
9d006398:	00481023 	subu	v0,v0,t0
9d00639c:	01073804 	sllv	a3,a3,t0
9d0063a0:	00461806 	srlv	v1,a2,v0
9d0063a4:	00673825 	or	a3,v1,a3
9d0063a8:	00455006 	srlv	t2,a1,v0
9d0063ac:	00071c02 	srl	v1,a3,0x10
9d0063b0:	0143001b 	divu	zero,t2,v1
9d0063b4:	006001f4 	teq	v1,zero,0x7
9d0063b8:	00004810 	mfhi	t1
9d0063bc:	00006812 	mflo	t5
9d0063c0:	30ebffff 	andi	t3,a3,0xffff
9d0063c4:	01052804 	sllv	a1,a1,t0
9d0063c8:	00441006 	srlv	v0,a0,v0
9d0063cc:	00452825 	or	a1,v0,a1
9d0063d0:	00057402 	srl	t6,a1,0x10
9d0063d4:	00001012 	mflo	v0
9d0063d8:	71ab6002 	mul	t4,t5,t3
9d0063dc:	00094c00 	sll	t1,t1,0x10
9d0063e0:	012e4825 	or	t1,t1,t6
9d0063e4:	012c702b 	sltu	t6,t1,t4
9d0063e8:	0143001b 	divu	zero,t2,v1
9d0063ec:	006001f4 	teq	v1,zero,0x7
9d0063f0:	11c0000a 	beqz	t6,9d00641c <__udivdi3+0x2b0>
9d0063f4:	01063004 	sllv	a2,a2,t0
9d0063f8:	01274821 	addu	t1,t1,a3
9d0063fc:	0127502b 	sltu	t2,t1,a3
9d006400:	15400006 	bnez	t2,9d00641c <__udivdi3+0x2b0>
9d006404:	25a2ffff 	addiu	v0,t5,-1
9d006408:	012c502b 	sltu	t2,t1,t4
9d00640c:	51400004 	beqzl	t2,9d006420 <__udivdi3+0x2b4>
9d006410:	012c4823 	subu	t1,t1,t4
9d006414:	25a2fffe 	addiu	v0,t5,-2
9d006418:	01274821 	addu	t1,t1,a3
9d00641c:	012c4823 	subu	t1,t1,t4
9d006420:	30a5ffff 	andi	a1,a1,0xffff
9d006424:	0123001b 	divu	zero,t1,v1
9d006428:	006001f4 	teq	v1,zero,0x7
9d00642c:	00006810 	mfhi	t5
9d006430:	00006012 	mflo	t4
9d006434:	00005012 	mflo	t2
9d006438:	718b5802 	mul	t3,t4,t3
9d00643c:	000d6c00 	sll	t5,t5,0x10
9d006440:	01a52825 	or	a1,t5,a1
9d006444:	00ab682b 	sltu	t5,a1,t3
9d006448:	0123001b 	divu	zero,t1,v1
9d00644c:	006001f4 	teq	v1,zero,0x7
9d006450:	51a0000b 	beqzl	t5,9d006480 <__udivdi3+0x314>
9d006454:	00021400 	sll	v0,v0,0x10
9d006458:	00a72821 	addu	a1,a1,a3
9d00645c:	00a7182b 	sltu	v1,a1,a3
9d006460:	14600006 	bnez	v1,9d00647c <__udivdi3+0x310>
9d006464:	258affff 	addiu	t2,t4,-1
9d006468:	00ab182b 	sltu	v1,a1,t3
9d00646c:	50600004 	beqzl	v1,9d006480 <__udivdi3+0x314>
9d006470:	00021400 	sll	v0,v0,0x10
9d006474:	258afffe 	addiu	t2,t4,-2
9d006478:	00a72821 	addu	a1,a1,a3
9d00647c:	00021400 	sll	v0,v0,0x10
9d006480:	01421025 	or	v0,t2,v0
9d006484:	00ab2823 	subu	a1,a1,t3
9d006488:	00460019 	multu	v0,a2
9d00648c:	00003810 	mfhi	a3
9d006490:	00a7182b 	sltu	v1,a1,a3
9d006494:	14600044 	bnez	v1,9d0065a8 <__udivdi3+0x43c>
9d006498:	00003012 	mflo	a2
9d00649c:	10a7003f 	beq	a1,a3,9d00659c <__udivdi3+0x430>
9d0064a0:	01042004 	sllv	a0,a0,t0
9d0064a4:	03e00008 	jr	ra
9d0064a8:	00001821 	move	v1,zero
9d0064ac:	24020020 	li	v0,32
9d0064b0:	00431023 	subu	v0,v0,v1
9d0064b4:	00454806 	srlv	t1,a1,v0
9d0064b8:	00083c02 	srl	a3,t0,0x10
9d0064bc:	0127001b 	divu	zero,t1,a3
9d0064c0:	00e001f4 	teq	a3,zero,0x7
9d0064c4:	00003010 	mfhi	a2
9d0064c8:	00006012 	mflo	t4
9d0064cc:	310bffff 	andi	t3,t0,0xffff
9d0064d0:	00652804 	sllv	a1,a1,v1
9d0064d4:	00441006 	srlv	v0,a0,v0
9d0064d8:	00452825 	or	a1,v0,a1
9d0064dc:	00056c02 	srl	t5,a1,0x10
9d0064e0:	00641004 	sllv	v0,a0,v1
9d0064e4:	00001812 	mflo	v1
9d0064e8:	718b5002 	mul	t2,t4,t3
9d0064ec:	00063400 	sll	a2,a2,0x10
9d0064f0:	01a63025 	or	a2,t5,a2
9d0064f4:	00ca202b 	sltu	a0,a2,t2
9d0064f8:	0127001b 	divu	zero,t1,a3
9d0064fc:	00e001f4 	teq	a3,zero,0x7
9d006500:	5080000b 	beqzl	a0,9d006530 <__udivdi3+0x3c4>
9d006504:	00ca3023 	subu	a2,a2,t2
9d006508:	00c83021 	addu	a2,a2,t0
9d00650c:	00c8202b 	sltu	a0,a2,t0
9d006510:	14800006 	bnez	a0,9d00652c <__udivdi3+0x3c0>
9d006514:	2583ffff 	addiu	v1,t4,-1
9d006518:	00ca202b 	sltu	a0,a2,t2
9d00651c:	50800004 	beqzl	a0,9d006530 <__udivdi3+0x3c4>
9d006520:	00ca3023 	subu	a2,a2,t2
9d006524:	2583fffe 	addiu	v1,t4,-2
9d006528:	00c83021 	addu	a2,a2,t0
9d00652c:	00ca3023 	subu	a2,a2,t2
9d006530:	30acffff 	andi	t4,a1,0xffff
9d006534:	00c7001b 	divu	zero,a2,a3
9d006538:	00e001f4 	teq	a3,zero,0x7
9d00653c:	00002010 	mfhi	a0
9d006540:	00005012 	mflo	t2
9d006544:	00004812 	mflo	t1
9d006548:	714b2802 	mul	a1,t2,t3
9d00654c:	00042400 	sll	a0,a0,0x10
9d006550:	008c2025 	or	a0,a0,t4
9d006554:	0085602b 	sltu	t4,a0,a1
9d006558:	00c7001b 	divu	zero,a2,a3
9d00655c:	00e001f4 	teq	a3,zero,0x7
9d006560:	5180000b 	beqzl	t4,9d006590 <__udivdi3+0x424>
9d006564:	00031c00 	sll	v1,v1,0x10
9d006568:	00882021 	addu	a0,a0,t0
9d00656c:	0088302b 	sltu	a2,a0,t0
9d006570:	14c00006 	bnez	a2,9d00658c <__udivdi3+0x420>
9d006574:	2549ffff 	addiu	t1,t2,-1
9d006578:	0085302b 	sltu	a2,a0,a1
9d00657c:	50c00004 	beqzl	a2,9d006590 <__udivdi3+0x424>
9d006580:	00031c00 	sll	v1,v1,0x10
9d006584:	2549fffe 	addiu	t1,t2,-2
9d006588:	00882021 	addu	a0,a0,t0
9d00658c:	00031c00 	sll	v1,v1,0x10
9d006590:	00852023 	subu	a0,a0,a1
9d006594:	0b4018b5 	j	9d0062d4 <__udivdi3+0x168>
9d006598:	01231825 	or	v1,t1,v1
9d00659c:	0086302b 	sltu	a2,a0,a2
9d0065a0:	10c0ffc0 	beqz	a2,9d0064a4 <__udivdi3+0x338>
9d0065a4:	00000000 	nop
9d0065a8:	0b401929 	j	9d0064a4 <__udivdi3+0x338>
9d0065ac:	2442ffff 	addiu	v0,v0,-1
9d0065b0:	00001821 	move	v1,zero
9d0065b4:	03e00008 	jr	ra
9d0065b8:	24020001 	li	v0,1
9d0065bc:	0b4018ca 	j	9d006328 <__udivdi3+0x1bc>
9d0065c0:	00c83021 	addu	a2,a2,t0

Disassembly of section .text.dp32subadd:

9d0065c4 <__subdf3>:
9d0065c4:	3c018000 00e13826                       ...<&8..

9d0065cc <__adddf3>:
9d0065cc:	00055840 000b5d42 000552c0 00047d42     @X..B]...R..B}..
9d0065dc:	014f5025 00044ac0 3c088000 01485025     %PO..J.....<%PH.
9d0065ec:	00077040 000e7542 00076ac0 00067d42     @p..Bu...j..B}..
9d0065fc:	01af6825 000662c0 01a86825 256fffff     %h...b..%h....o%
9d00660c:	2de107fe 1020008d 00000000              ...-.. .....

9d006618 <Blab1>:
9d006618:	25cfffff 	addiu	t7,t6,-1
9d00661c:	2de107fe 	sltiu	at,t7,2046
9d006620:	102000bb 	beqz	at,9d006910 <BspecB>
9d006624:	00000000 	nop

9d006628 <Blab2>:
9d006628:	3c018000 	lui	at,0x8000
9d00662c:	00a12824 	and	a1,a1,at
9d006630:	016e4023 	subu	t0,t3,t6
9d006634:	1100002c 	beqz	t0,9d0066e8 <Badd3>
9d006638:	00000000 	nop
9d00663c:	19000015 	blez	t0,9d006694 <i1>
9d006640:	00000000 	nop

9d006644 <L1>:
9d006644:	2d010020 	sltiu	at,t0,32
9d006648:	14200007 	bnez	at,9d006668 <L2>
9d00664c:	00000000 	nop
9d006650:	2108ffe0 	addi	t0,t0,-32
9d006654:	000c302b 	sltu	a2,zero,t4
9d006658:	100d0023 	beq	zero,t5,9d0066e8 <Badd3>
9d00665c:	01a66025 	or	t4,t5,a2
9d006660:	1000fff8 	b	9d006644 <L1>
9d006664:	340d0000 	li	t5,0x0

9d006668 <L2>:
9d006668:	1100001f 	beqz	t0,9d0066e8 <Badd3>
9d00666c:	00000000 	nop
9d006670:	00082022 	neg	a0,t0
9d006674:	008c3004 	sllv	a2,t4,a0
9d006678:	008d2004 	sllv	a0,t5,a0
9d00667c:	010c6006 	srlv	t4,t4,t0
9d006680:	010d6806 	srlv	t5,t5,t0
9d006684:	10c00018 	beqz	a2,9d0066e8 <Badd3>
9d006688:	008c6025 	or	t4,a0,t4
9d00668c:	10000016 	b	9d0066e8 <Badd3>
9d006690:	358c0002 	ori	t4,t4,0x2

9d006694 <i1>:
9d006694:	000e5825 	or	t3,zero,t6
9d006698:	00084023 	negu	t0,t0

9d00669c <L4>:
9d00669c:	2d010020 	sltiu	at,t0,32
9d0066a0:	14200007 	bnez	at,9d0066c0 <L5>
9d0066a4:	00000000 	nop
9d0066a8:	2108ffe0 	addi	t0,t0,-32
9d0066ac:	0009302b 	sltu	a2,zero,t1
9d0066b0:	100a000d 	beq	zero,t2,9d0066e8 <Badd3>
9d0066b4:	01464825 	or	t1,t2,a2
9d0066b8:	1000fff8 	b	9d00669c <L4>
9d0066bc:	340a0000 	li	t2,0x0

9d0066c0 <L5>:
9d0066c0:	11000009 	beqz	t0,9d0066e8 <Badd3>
9d0066c4:	00000000 	nop
9d0066c8:	00082022 	neg	a0,t0
9d0066cc:	00893004 	sllv	a2,t1,a0
9d0066d0:	008a2004 	sllv	a0,t2,a0
9d0066d4:	01094806 	srlv	t1,t1,t0
9d0066d8:	010a5006 	srlv	t2,t2,t0
9d0066dc:	10c00002 	beqz	a2,9d0066e8 <Badd3>
9d0066e0:	00894825 	or	t1,a0,t1
9d0066e4:	35290002 	ori	t1,t1,0x2

9d0066e8 <Badd3>:
9d0066e8:	00a77826 	xor	t7,a1,a3
9d0066ec:	05e0001c 	bltz	t7,9d006760 <Bsub1>
9d0066f0:	00000000 	nop
9d0066f4:	012c4821 	addu	t1,t1,t4
9d0066f8:	012c782b 	sltu	t7,t1,t4
9d0066fc:	014d5021 	addu	t2,t2,t5
9d006700:	014f5021 	addu	t2,t2,t7
9d006704:	114d0002 	beq	t2,t5,9d006710 <L7>
9d006708:	00000000 	nop
9d00670c:	014d782b 	sltu	t7,t2,t5

9d006710 <L7>:
9d006710:	11e00037 	beqz	t7,9d0067f0 <Bres>
9d006714:	00000000 	nop
9d006718:	312f0001 	andi	t7,t1,0x1
9d00671c:	11e00002 	beqz	t7,9d006728 <i3>
9d006720:	00000000 	nop
9d006724:	35290002 	ori	t1,t1,0x2

9d006728 <i3>:
9d006728:	00094842 	srl	t1,t1,0x1
9d00672c:	000a7fc0 	sll	t7,t2,0x1f
9d006730:	012f4825 	or	t1,t1,t7
9d006734:	000a5042 	srl	t2,t2,0x1
9d006738:	3c018000 	lui	at,0x8000
9d00673c:	01415025 	or	t2,t2,at
9d006740:	256b0001 	addiu	t3,t3,1
9d006744:	240107ff 	li	at,2047
9d006748:	15610029 	bne	t3,at,9d0067f0 <Bres>
9d00674c:	00000000 	nop
9d006750:	3c017ff0 	lui	at,0x7ff0
9d006754:	00a12825 	or	a1,a1,at
9d006758:	10000037 	b	9d006838 <BretA>
9d00675c:	24040000 	li	a0,0

9d006760 <Bsub1>:
9d006760:	012c782b 	sltu	t7,t1,t4
9d006764:	012c4823 	subu	t1,t1,t4
9d006768:	014f102b 	sltu	v0,t2,t7
9d00676c:	014f5023 	subu	t2,t2,t7
9d006770:	014d782b 	sltu	t7,t2,t5
9d006774:	01e27825 	or	t7,t7,v0
9d006778:	11e00007 	beqz	t7,9d006798 <i5>
9d00677c:	014d5023 	subu	t2,t2,t5
9d006780:	3c018000 	lui	at,0x8000
9d006784:	00a12826 	xor	a1,a1,at
9d006788:	0009782b 	sltu	t7,zero,t1
9d00678c:	00094823 	negu	t1,t1
9d006790:	000a5023 	negu	t2,t2
9d006794:	014f5023 	subu	t2,t2,t7

9d006798 <i5>:
9d006798:	15400008 	bnez	t2,9d0067bc <L8>
9d00679c:	00000000 	nop
9d0067a0:	15200003 	bnez	t1,9d0067b0 <L9>
9d0067a4:	00000000 	nop
9d0067a8:	1000000d 	b	9d0067e0 <L10>
9d0067ac:	240b0000 	li	t3,0

9d0067b0 <L9>:
9d0067b0:	01205025 	move	t2,t1
9d0067b4:	24090000 	li	t1,0
9d0067b8:	256bffe0 	addiu	t3,t3,-32

9d0067bc <L8>:
9d0067bc:	71484020 	clz	t0,t2
9d0067c0:	11000007 	beqz	t0,9d0067e0 <L10>
9d0067c4:	00000000 	nop
9d0067c8:	01685823 	subu	t3,t3,t0
9d0067cc:	00082022 	neg	a0,t0
9d0067d0:	00892006 	srlv	a0,t1,a0
9d0067d4:	01094804 	sllv	t1,t1,t0
9d0067d8:	010a5004 	sllv	t2,t2,t0
9d0067dc:	01445025 	or	t2,t2,a0

9d0067e0 <L10>:
9d0067e0:	01497825 	or	t7,t2,t1
9d0067e4:	15e00002 	bnez	t7,9d0067f0 <Bres>
9d0067e8:	00000000 	nop
9d0067ec:	24050000 	li	a1,0

9d0067f0 <Bres>:
9d0067f0:	19600068 	blez	t3,9d006994 <Bund>
9d0067f4:	00000000 	nop

9d0067f8 <Blab8>:
9d0067f8:	25290400 	addiu	t1,t1,1024
9d0067fc:	2d2f0400 	sltiu	t7,t1,1024
9d006800:	014f5021 	addu	t2,t2,t7
9d006804:	014f782b 	sltu	t7,t2,t7
9d006808:	016f5821 	addu	t3,t3,t7
9d00680c:	00097ac2 	srl	t7,t1,0xb
9d006810:	31ef0001 	andi	t7,t7,0x1
9d006814:	012f4823 	subu	t1,t1,t7
9d006818:	000922c2 	srl	a0,t1,0xb
9d00681c:	000a7d40 	sll	t7,t2,0x15
9d006820:	008f2025 	or	a0,a0,t7
9d006824:	000a7840 	sll	t7,t2,0x1
9d006828:	000f7b02 	srl	t7,t7,0xc
9d00682c:	00af2825 	or	a1,a1,t7
9d006830:	000b7d00 	sll	t7,t3,0x14
9d006834:	00af2825 	or	a1,a1,t7

9d006838 <BretA>:
9d006838:	00041025 	or	v0,zero,a0
9d00683c:	00051825 	or	v1,zero,a1

9d006840 <B999>:
9d006840:	03e00008 	jr	ra
9d006844:	00000000 	nop

9d006848 <BspecA>:
9d006848:	0120782a 	slt	t7,t1,zero
9d00684c:	01294821 	addu	t1,t1,t1
9d006850:	014a5021 	addu	t2,t2,t2
9d006854:	15600023 	bnez	t3,9d0068e4 <i7>
9d006858:	014f5021 	addu	t2,t2,t7
9d00685c:	01497825 	or	t7,t2,t1
9d006860:	11e00014 	beqz	t7,9d0068b4 <i8>
9d006864:	00000000 	nop
9d006868:	15400008 	bnez	t2,9d00688c <L11>
9d00686c:	00000000 	nop
9d006870:	15200003 	bnez	t1,9d006880 <L12>
9d006874:	00000000 	nop
9d006878:	1000ff67 	b	9d006618 <Blab1>
9d00687c:	240b0000 	li	t3,0

9d006880 <L12>:
9d006880:	01205025 	move	t2,t1
9d006884:	24090000 	li	t1,0
9d006888:	256bffe0 	addiu	t3,t3,-32

9d00688c <L11>:
9d00688c:	71484020 	clz	t0,t2
9d006890:	1100ff61 	beqz	t0,9d006618 <Blab1>
9d006894:	00000000 	nop
9d006898:	01685823 	subu	t3,t3,t0
9d00689c:	00082022 	neg	a0,t0
9d0068a0:	00892006 	srlv	a0,t1,a0
9d0068a4:	01094804 	sllv	t1,t1,t0
9d0068a8:	010a5004 	sllv	t2,t2,t0
9d0068ac:	1000ff5a 	b	9d006618 <Blab1>
9d0068b0:	01445025 	or	t2,t2,a0

9d0068b4 <i8>:
9d0068b4:	240107ff 	li	at,2047
9d0068b8:	11c10015 	beq	t6,at,9d006910 <BspecB>
9d0068bc:	00000000 	nop
9d0068c0:	00e74021 	addu	t0,a3,a3
9d0068c4:	01067825 	or	t7,t0,a2
9d0068c8:	15e00003 	bnez	t7,9d0068d8 <BretB>
9d0068cc:	00000000 	nop
9d0068d0:	04e0ffd9 	bltz	a3,9d006838 <BretA>
9d0068d4:	00000000 	nop

9d0068d8 <BretB>:
9d0068d8:	00061025 	or	v0,zero,a2
9d0068dc:	1000ffd8 	b	9d006840 <B999>
9d0068e0:	00071825 	or	v1,zero,a3

9d0068e4 <i7>:
9d0068e4:	01497825 	or	t7,t2,t1
9d0068e8:	15e00027 	bnez	t7,9d006988 <Bnan>
9d0068ec:	00000000 	nop
9d0068f0:	240107ff 	li	at,2047
9d0068f4:	15c1ffd0 	bne	t6,at,9d006838 <BretA>
9d0068f8:	00000000 	nop
9d0068fc:	00a77826 	xor	t7,a1,a3
9d006900:	05e00021 	bltz	t7,9d006988 <Bnan>
9d006904:	00000000 	nop
9d006908:	1000fff3 	b	9d0068d8 <BretB>
9d00690c:	00000000 	nop

9d006910 <BspecB>:
9d006910:	0180782a 	slt	t7,t4,zero
9d006914:	018c6021 	addu	t4,t4,t4
9d006918:	01ad6821 	addu	t5,t5,t5
9d00691c:	15c00017 	bnez	t6,9d00697c <i11>
9d006920:	01af6821 	addu	t5,t5,t7
9d006924:	01ac7825 	or	t7,t5,t4
9d006928:	11e0ffc3 	beqz	t7,9d006838 <BretA>
9d00692c:	00000000 	nop
9d006930:	15a00008 	bnez	t5,9d006954 <L14>
9d006934:	00000000 	nop
9d006938:	15800003 	bnez	t4,9d006948 <L15>
9d00693c:	00000000 	nop
9d006940:	1000ff39 	b	9d006628 <Blab2>
9d006944:	240e0000 	li	t6,0

9d006948 <L15>:
9d006948:	01806825 	move	t5,t4
9d00694c:	240c0000 	li	t4,0
9d006950:	25ceffe0 	addiu	t6,t6,-32

9d006954 <L14>:
9d006954:	71a84020 	clz	t0,t5
9d006958:	1100ff33 	beqz	t0,9d006628 <Blab2>
9d00695c:	00000000 	nop
9d006960:	01c87023 	subu	t6,t6,t0
9d006964:	00082022 	neg	a0,t0
9d006968:	008c2006 	srlv	a0,t4,a0
9d00696c:	010c6004 	sllv	t4,t4,t0
9d006970:	010d6804 	sllv	t5,t5,t0
9d006974:	1000ff2c 	b	9d006628 <Blab2>
9d006978:	01a46825 	or	t5,t5,a0

9d00697c <i11>:
9d00697c:	01ac7825 	or	t7,t5,t4
9d006980:	11e0ffd5 	beqz	t7,9d0068d8 <BretB>
9d006984:	00000000 	nop

9d006988 <Bnan>:
9d006988:	3c05fff8 	lui	a1,0xfff8
9d00698c:	1000ffaa 	b	9d006838 <BretA>
9d006990:	24040000 	li	a0,0

9d006994 <Bund>:
9d006994:	24080001 	li	t0,1
9d006998:	010b4023 	subu	t0,t0,t3

9d00699c <L17>:
9d00699c:	2d010020 	sltiu	at,t0,32
9d0069a0:	14200007 	bnez	at,9d0069c0 <L18>
9d0069a4:	00000000 	nop
9d0069a8:	2108ffe0 	addi	t0,t0,-32
9d0069ac:	0009302b 	sltu	a2,zero,t1
9d0069b0:	100a000d 	beq	zero,t2,9d0069e8 <L19>
9d0069b4:	01464825 	or	t1,t2,a2
9d0069b8:	1000fff8 	b	9d00699c <L17>
9d0069bc:	340a0000 	li	t2,0x0

9d0069c0 <L18>:
9d0069c0:	11000009 	beqz	t0,9d0069e8 <L19>
9d0069c4:	00000000 	nop
9d0069c8:	00082022 	neg	a0,t0
9d0069cc:	00893004 	sllv	a2,t1,a0
9d0069d0:	008a2004 	sllv	a0,t2,a0
9d0069d4:	01094806 	srlv	t1,t1,t0
9d0069d8:	010a5006 	srlv	t2,t2,t0
9d0069dc:	10c00002 	beqz	a2,9d0069e8 <L19>
9d0069e0:	00894825 	or	t1,a0,t1
9d0069e4:	35290002 	ori	t1,t1,0x2

9d0069e8 <L19>:
9d0069e8:	1000ff83 	b	9d0067f8 <Blab8>
9d0069ec:	240b0000 	li	t3,0
9d0069f0:	00000000 	nop

Disassembly of section .text.__strtod:

9d0069f4 <__strtod>:
9d0069f4:	27bdffc8 	addiu	sp,sp,-56
9d0069f8:	afbf0034 	sw	ra,52(sp)
9d0069fc:	afbe0030 	sw	s8,48(sp)
9d006a00:	afb7002c 	sw	s7,44(sp)
9d006a04:	afb60028 	sw	s6,40(sp)
9d006a08:	afb50024 	sw	s5,36(sp)
9d006a0c:	afb40020 	sw	s4,32(sp)
9d006a10:	afb3001c 	sw	s3,28(sp)
9d006a14:	afb20018 	sw	s2,24(sp)
9d006a18:	afb10014 	sw	s1,20(sp)
9d006a1c:	afb00010 	sw	s0,16(sp)
9d006a20:	0080b821 	move	s7,a0
9d006a24:	80820000 	lb	v0,0(a0)
9d006a28:	3c1e9d01 	lui	s8,0x9d01
9d006a2c:	27de91e1 	addiu	s8,s8,-28191
9d006a30:	03c21821 	addu	v1,s8,v0
9d006a34:	80630000 	lb	v1,0(v1)
9d006a38:	00a0a821 	move	s5,a1
9d006a3c:	30630088 	andi	v1,v1,0x88
9d006a40:	10600008 	beqz	v1,9d006a64 <__strtod+0x70>
9d006a44:	0080a021 	move	s4,a0
9d006a48:	26940001 	addiu	s4,s4,1
9d006a4c:	82820000 	lb	v0,0(s4)
9d006a50:	03c21821 	addu	v1,s8,v0
9d006a54:	80630000 	lb	v1,0(v1)
9d006a58:	30630088 	andi	v1,v1,0x88
9d006a5c:	5460fffb 	bnezl	v1,9d006a4c <__strtod+0x58>
9d006a60:	26940001 	addiu	s4,s4,1
9d006a64:	2403002d 	li	v1,45
9d006a68:	10430098 	beq	v0,v1,9d006ccc <__strtod+0x2d8>
9d006a6c:	3842002b 	xori	v0,v0,0x2b
9d006a70:	2c420001 	sltiu	v0,v0,1
9d006a74:	00009821 	move	s3,zero
9d006a78:	0282a021 	addu	s4,s4,v0
9d006a7c:	82860000 	lb	a2,0(s4)
9d006a80:	03c61021 	addu	v0,s8,a2
9d006a84:	90420000 	lbu	v0,0(v0)
9d006a88:	30420004 	andi	v0,v0,0x4
9d006a8c:	00008821 	move	s1,zero
9d006a90:	104000bc 	beqz	v0,9d006d84 <__strtod+0x390>
9d006a94:	00008021 	move	s0,zero
9d006a98:	00009021 	move	s2,zero
9d006a9c:	24d6ffd0 	addiu	s6,a2,-48
9d006aa0:	02002821 	move	a1,s0
9d006aa4:	02202021 	move	a0,s1
9d006aa8:	00003021 	move	a2,zero
9d006aac:	0f401c47 	jal	9d00711c <.LFE23>
9d006ab0:	3c074024 	lui	a3,0x4024
9d006ab4:	00408021 	move	s0,v0
9d006ab8:	00608821 	move	s1,v1
9d006abc:	0f4027dc 	jal	9d009f70 <__floatsidf>
9d006ac0:	02c02021 	move	a0,s6
9d006ac4:	02002021 	move	a0,s0
9d006ac8:	02202821 	move	a1,s1
9d006acc:	00403021 	move	a2,v0
9d006ad0:	00603821 	move	a3,v1
9d006ad4:	0f401973 	jal	9d0065cc <__adddf3>
9d006ad8:	26940001 	addiu	s4,s4,1
9d006adc:	00408821 	move	s1,v0
9d006ae0:	00608021 	move	s0,v1
9d006ae4:	82860000 	lb	a2,0(s4)
9d006ae8:	03c61021 	addu	v0,s8,a2
9d006aec:	90420000 	lbu	v0,0(v0)
9d006af0:	30420004 	andi	v0,v0,0x4
9d006af4:	1440ffe9 	bnez	v0,9d006a9c <__strtod+0xa8>
9d006af8:	02569025 	or	s2,s2,s6
9d006afc:	24030001 	li	v1,1
9d006b00:	2402002e 	li	v0,46
9d006b04:	50c20048 	beql	a2,v0,9d006c28 <__strtod+0x234>
9d006b08:	82820001 	lb	v0,1(s4)
9d006b0c:	54600072 	bnezl	v1,9d006cd8 <__strtod+0x2e4>
9d006b10:	82820000 	lb	v0,0(s4)
9d006b14:	12a0002a 	beqz	s5,9d006bc0 <__strtod+0x1cc>
9d006b18:	00000000 	nop
9d006b1c:	02e0a021 	move	s4,s7
9d006b20:	0000b821 	move	s7,zero
9d006b24:	aeb40000 	sw	s4,0(s5)
9d006b28:	12e00025 	beqz	s7,9d006bc0 <__strtod+0x1cc>
9d006b2c:	00004021 	move	t0,zero
9d006b30:	001717c3 	sra	v0,s7,0x1f
9d006b34:	0057b026 	xor	s6,v0,s7
9d006b38:	02c2b023 	subu	s6,s6,v0
9d006b3c:	3c159d01 	lui	s5,0x9d01
9d006b40:	26b5a444 	addiu	s5,s5,-23484
9d006b44:	3c093ff0 	lui	t1,0x3ff0
9d006b48:	0b401ad6 	j	9d006b58 <__strtod+0x164>
9d006b4c:	24140009 	li	s4,9
9d006b50:	1280000e 	beqz	s4,9d006b8c <__strtod+0x198>
9d006b54:	26b5fff8 	addiu	s5,s5,-8
9d006b58:	2694ffff 	addiu	s4,s4,-1
9d006b5c:	02961007 	srav	v0,s6,s4
9d006b60:	30420001 	andi	v0,v0,0x1
9d006b64:	1040fffa 	beqz	v0,9d006b50 <__strtod+0x15c>
9d006b68:	01002021 	move	a0,t0
9d006b6c:	8ea60000 	lw	a2,0(s5)
9d006b70:	8ea70004 	lw	a3,4(s5)
9d006b74:	0f401c47 	jal	9d00711c <.LFE23>
9d006b78:	01202821 	move	a1,t1
9d006b7c:	00404021 	move	t0,v0
9d006b80:	00604821 	move	t1,v1
9d006b84:	1680fff4 	bnez	s4,9d006b58 <__strtod+0x164>
9d006b88:	26b5fff8 	addiu	s5,s5,-8
9d006b8c:	02202021 	move	a0,s1
9d006b90:	02002821 	move	a1,s0
9d006b94:	01003021 	move	a2,t0
9d006b98:	06e00075 	bltz	s7,9d006d70 <__strtod+0x37c>
9d006b9c:	01203821 	move	a3,t1
9d006ba0:	0f401c47 	jal	9d00711c <.LFE23>
9d006ba4:	00000000 	nop
9d006ba8:	00402021 	move	a0,v0
9d006bac:	00602821 	move	a1,v1
9d006bb0:	0f40214e 	jal	9d008538 <__ldexp>
9d006bb4:	02e03021 	move	a2,s7
9d006bb8:	00408821 	move	s1,v0
9d006bbc:	00608021 	move	s0,v1
9d006bc0:	1220007b 	beqz	s1,9d006db0 <__strtod+0x3bc>
9d006bc4:	7e02f000 	ext	v0,s0,0x0,0x1f
9d006bc8:	02301025 	or	v0,s1,s0
9d006bcc:	10400073 	beqz	v0,9d006d9c <__strtod+0x3a8>
9d006bd0:	00000000 	nop
9d006bd4:	12600007 	beqz	s3,9d006bf4 <__strtod+0x200>
9d006bd8:	02201021 	move	v0,s1
9d006bdc:	02202021 	move	a0,s1
9d006be0:	0f402985 	jal	9d00a614 <.LFE1>
9d006be4:	02002821 	move	a1,s0
9d006be8:	00408821 	move	s1,v0
9d006bec:	00608021 	move	s0,v1
9d006bf0:	02201021 	move	v0,s1
9d006bf4:	02001821 	move	v1,s0
9d006bf8:	8fbf0034 	lw	ra,52(sp)
9d006bfc:	8fbe0030 	lw	s8,48(sp)
9d006c00:	8fb7002c 	lw	s7,44(sp)
9d006c04:	8fb60028 	lw	s6,40(sp)
9d006c08:	8fb50024 	lw	s5,36(sp)
9d006c0c:	8fb40020 	lw	s4,32(sp)
9d006c10:	8fb3001c 	lw	s3,28(sp)
9d006c14:	8fb20018 	lw	s2,24(sp)
9d006c18:	8fb10014 	lw	s1,20(sp)
9d006c1c:	8fb00010 	lw	s0,16(sp)
9d006c20:	03e00008 	jr	ra
9d006c24:	27bd0038 	addiu	sp,sp,56
9d006c28:	03c22021 	addu	a0,s8,v0
9d006c2c:	90840000 	lbu	a0,0(a0)
9d006c30:	30840004 	andi	a0,a0,0x4
9d006c34:	1080ffb5 	beqz	a0,9d006b0c <__strtod+0x118>
9d006c38:	26940001 	addiu	s4,s4,1
9d006c3c:	0000b821 	move	s7,zero
9d006c40:	2456ffd0 	addiu	s6,v0,-48
9d006c44:	02002821 	move	a1,s0
9d006c48:	02202021 	move	a0,s1
9d006c4c:	00003021 	move	a2,zero
9d006c50:	0f401c47 	jal	9d00711c <.LFE23>
9d006c54:	3c074024 	lui	a3,0x4024
9d006c58:	00408021 	move	s0,v0
9d006c5c:	00608821 	move	s1,v1
9d006c60:	0f4027dc 	jal	9d009f70 <__floatsidf>
9d006c64:	02c02021 	move	a0,s6
9d006c68:	02002021 	move	a0,s0
9d006c6c:	02202821 	move	a1,s1
9d006c70:	00403021 	move	a2,v0
9d006c74:	00603821 	move	a3,v1
9d006c78:	0f401973 	jal	9d0065cc <__adddf3>
9d006c7c:	26940001 	addiu	s4,s4,1
9d006c80:	00408821 	move	s1,v0
9d006c84:	00608021 	move	s0,v1
9d006c88:	82820000 	lb	v0,0(s4)
9d006c8c:	02569025 	or	s2,s2,s6
9d006c90:	03c21821 	addu	v1,s8,v0
9d006c94:	90630000 	lbu	v1,0(v1)
9d006c98:	30630004 	andi	v1,v1,0x4
9d006c9c:	1460ffe8 	bnez	v1,9d006c40 <__strtod+0x24c>
9d006ca0:	26f7ffff 	addiu	s7,s7,-1
9d006ca4:	2403ffdf 	li	v1,-33
9d006ca8:	00431824 	and	v1,v0,v1
9d006cac:	7c031c20 	seb	v1,v1
9d006cb0:	24020045 	li	v0,69
9d006cb4:	5062000f 	beql	v1,v0,9d006cf4 <__strtod+0x300>
9d006cb8:	82830001 	lb	v1,1(s4)
9d006cbc:	56a0ff9a 	bnezl	s5,9d006b28 <__strtod+0x134>
9d006cc0:	aeb40000 	sw	s4,0(s5)
9d006cc4:	0b401aca 	j	9d006b28 <__strtod+0x134>
9d006cc8:	00000000 	nop
9d006ccc:	26940001 	addiu	s4,s4,1
9d006cd0:	0b401a9f 	j	9d006a7c <__strtod+0x88>
9d006cd4:	24130001 	li	s3,1
9d006cd8:	2403ffdf 	li	v1,-33
9d006cdc:	00431824 	and	v1,v0,v1
9d006ce0:	7c031c20 	seb	v1,v1
9d006ce4:	24020045 	li	v0,69
9d006ce8:	1462fff4 	bne	v1,v0,9d006cbc <__strtod+0x2c8>
9d006cec:	0000b821 	move	s7,zero
9d006cf0:	82830001 	lb	v1,1(s4)
9d006cf4:	2402002d 	li	v0,45
9d006cf8:	10620019 	beq	v1,v0,9d006d60 <__strtod+0x36c>
9d006cfc:	2402002b 	li	v0,43
9d006d00:	50620023 	beql	v1,v0,9d006d90 <__strtod+0x39c>
9d006d04:	82830002 	lb	v1,2(s4)
9d006d08:	26940001 	addiu	s4,s4,1
9d006d0c:	00003821 	move	a3,zero
9d006d10:	03c31021 	addu	v0,s8,v1
9d006d14:	90420000 	lbu	v0,0(v0)
9d006d18:	30420004 	andi	v0,v0,0x4
9d006d1c:	1040000c 	beqz	v0,9d006d50 <__strtod+0x35c>
9d006d20:	00001021 	move	v0,zero
9d006d24:	26940001 	addiu	s4,s4,1
9d006d28:	2465ffd0 	addiu	a1,v1,-48
9d006d2c:	82830000 	lb	v1,0(s4)
9d006d30:	00023040 	sll	a2,v0,0x1
9d006d34:	000210c0 	sll	v0,v0,0x3
9d006d38:	03c32021 	addu	a0,s8,v1
9d006d3c:	90840000 	lbu	a0,0(a0)
9d006d40:	00c21021 	addu	v0,a2,v0
9d006d44:	30840004 	andi	a0,a0,0x4
9d006d48:	1480fff6 	bnez	a0,9d006d24 <__strtod+0x330>
9d006d4c:	00451021 	addu	v0,v0,a1
9d006d50:	00021823 	negu	v1,v0
9d006d54:	0067100b 	movn	v0,v1,a3
9d006d58:	0b401b2f 	j	9d006cbc <__strtod+0x2c8>
9d006d5c:	02e2b821 	addu	s7,s7,v0
9d006d60:	82830002 	lb	v1,2(s4)
9d006d64:	24070001 	li	a3,1
9d006d68:	0b401b44 	j	9d006d10 <__strtod+0x31c>
9d006d6c:	26940002 	addiu	s4,s4,2
9d006d70:	0f401614 	jal	9d005850 <.LFE2>
9d006d74:	00000000 	nop
9d006d78:	00402021 	move	a0,v0
9d006d7c:	0b401aec 	j	9d006bb0 <__strtod+0x1bc>
9d006d80:	00602821 	move	a1,v1
9d006d84:	00001821 	move	v1,zero
9d006d88:	0b401ac0 	j	9d006b00 <__strtod+0x10c>
9d006d8c:	00009021 	move	s2,zero
9d006d90:	00003821 	move	a3,zero
9d006d94:	0b401b44 	j	9d006d10 <__strtod+0x31c>
9d006d98:	26940002 	addiu	s4,s4,2
9d006d9c:	1240ff8d 	beqz	s2,9d006bd4 <__strtod+0x1e0>
9d006da0:	24030022 	li	v1,34
9d006da4:	3c02a000 	lui	v0,0xa000
9d006da8:	0b401af5 	j	9d006bd4 <__strtod+0x1e0>
9d006dac:	ac4300f0 	sw	v1,240(v0)
9d006db0:	3c037ff0 	lui	v1,0x7ff0
9d006db4:	1443ff85 	bne	v0,v1,9d006bcc <__strtod+0x1d8>
9d006db8:	02301025 	or	v0,s1,s0
9d006dbc:	0b401b69 	j	9d006da4 <__strtod+0x3b0>
9d006dc0:	24030022 	li	v1,34

Disassembly of section .text.__strtof:

9d006dc4 <__strtof>:
9d006dc4:	27bdffc8 	addiu	sp,sp,-56
9d006dc8:	afbf0034 	sw	ra,52(sp)
9d006dcc:	afb70030 	sw	s7,48(sp)
9d006dd0:	afb6002c 	sw	s6,44(sp)
9d006dd4:	afb50028 	sw	s5,40(sp)
9d006dd8:	afb40024 	sw	s4,36(sp)
9d006ddc:	afb30020 	sw	s3,32(sp)
9d006de0:	afb2001c 	sw	s2,28(sp)
9d006de4:	afb10018 	sw	s1,24(sp)
9d006de8:	afb00014 	sw	s0,20(sp)
9d006dec:	0080a821 	move	s5,a0
9d006df0:	80820000 	lb	v0,0(a0)
9d006df4:	3c139d01 	lui	s3,0x9d01
9d006df8:	267391e1 	addiu	s3,s3,-28191
9d006dfc:	02621821 	addu	v1,s3,v0
9d006e00:	80630000 	lb	v1,0(v1)
9d006e04:	00a0b021 	move	s6,a1
9d006e08:	30630088 	andi	v1,v1,0x88
9d006e0c:	10600008 	beqz	v1,9d006e30 <__strtof+0x6c>
9d006e10:	00808021 	move	s0,a0
9d006e14:	26100001 	addiu	s0,s0,1
9d006e18:	82020000 	lb	v0,0(s0)
9d006e1c:	02621821 	addu	v1,s3,v0
9d006e20:	80630000 	lb	v1,0(v1)
9d006e24:	30630088 	andi	v1,v1,0x88
9d006e28:	5460fffb 	bnezl	v1,9d006e18 <__strtof+0x54>
9d006e2c:	26100001 	addiu	s0,s0,1
9d006e30:	2403002d 	li	v1,45
9d006e34:	10430081 	beq	v0,v1,9d00703c <__strtof+0x278>
9d006e38:	3842002b 	xori	v0,v0,0x2b
9d006e3c:	2c420001 	sltiu	v0,v0,1
9d006e40:	0000b821 	move	s7,zero
9d006e44:	02028021 	addu	s0,s0,v0
9d006e48:	82030000 	lb	v1,0(s0)
9d006e4c:	02631021 	addu	v0,s3,v1
9d006e50:	90420000 	lbu	v0,0(v0)
9d006e54:	30420004 	andi	v0,v0,0x4
9d006e58:	104000a5 	beqz	v0,9d0070f0 <__strtof+0x32c>
9d006e5c:	00008821 	move	s1,zero
9d006e60:	0000a021 	move	s4,zero
9d006e64:	2472ffd0 	addiu	s2,v1,-48
9d006e68:	02202021 	move	a0,s1
9d006e6c:	0f4020df 	jal	9d00837c <.LFE4>
9d006e70:	3c054120 	lui	a1,0x4120
9d006e74:	00408821 	move	s1,v0
9d006e78:	0f402863 	jal	9d00a18c <.LFE1>
9d006e7c:	02402021 	move	a0,s2
9d006e80:	02202021 	move	a0,s1
9d006e84:	00402821 	move	a1,v0
9d006e88:	0f401db3 	jal	9d0076cc <__addsf3>
9d006e8c:	26100001 	addiu	s0,s0,1
9d006e90:	00408821 	move	s1,v0
9d006e94:	82030000 	lb	v1,0(s0)
9d006e98:	02631021 	addu	v0,s3,v1
9d006e9c:	90420000 	lbu	v0,0(v0)
9d006ea0:	30420004 	andi	v0,v0,0x4
9d006ea4:	1440ffef 	bnez	v0,9d006e64 <__strtof+0xa0>
9d006ea8:	0292a025 	or	s4,s4,s2
9d006eac:	24040001 	li	a0,1
9d006eb0:	2402002e 	li	v0,46
9d006eb4:	5062003e 	beql	v1,v0,9d006fb0 <__strtof+0x1ec>
9d006eb8:	82020001 	lb	v0,1(s0)
9d006ebc:	54800062 	bnezl	a0,9d007048 <__strtof+0x284>
9d006ec0:	82020000 	lb	v0,0(s0)
9d006ec4:	12c00024 	beqz	s6,9d006f58 <__strtof+0x194>
9d006ec8:	00111840 	sll	v1,s1,0x1
9d006ecc:	02a08021 	move	s0,s5
9d006ed0:	00009021 	move	s2,zero
9d006ed4:	aed00000 	sw	s0,0(s6)
9d006ed8:	1240001f 	beqz	s2,9d006f58 <__strtof+0x194>
9d006edc:	00111840 	sll	v1,s1,0x1
9d006ee0:	001217c3 	sra	v0,s2,0x1f
9d006ee4:	0052a826 	xor	s5,v0,s2
9d006ee8:	02a2a823 	subu	s5,s5,v0
9d006eec:	3c139d01 	lui	s3,0x9d01
9d006ef0:	2673a764 	addiu	s3,s3,-22684
9d006ef4:	24100006 	li	s0,6
9d006ef8:	0b401bc2 	j	9d006f08 <__strtof+0x144>
9d006efc:	3c023f80 	lui	v0,0x3f80
9d006f00:	1200000b 	beqz	s0,9d006f30 <__strtof+0x16c>
9d006f04:	2673fffc 	addiu	s3,s3,-4
9d006f08:	2610ffff 	addiu	s0,s0,-1
9d006f0c:	02151807 	srav	v1,s5,s0
9d006f10:	30630001 	andi	v1,v1,0x1
9d006f14:	1060fffa 	beqz	v1,9d006f00 <__strtof+0x13c>
9d006f18:	00000000 	nop
9d006f1c:	8e650000 	lw	a1,0(s3)
9d006f20:	0f4020df 	jal	9d00837c <.LFE4>
9d006f24:	00402021 	move	a0,v0
9d006f28:	1600fff7 	bnez	s0,9d006f08 <__strtof+0x144>
9d006f2c:	2673fffc 	addiu	s3,s3,-4
9d006f30:	02202021 	move	a0,s1
9d006f34:	0640006a 	bltz	s2,9d0070e0 <__strtof+0x31c>
9d006f38:	00402821 	move	a1,v0
9d006f3c:	0f4020df 	jal	9d00837c <.LFE4>
9d006f40:	00000000 	nop
9d006f44:	00402021 	move	a0,v0
9d006f48:	0f4024b9 	jal	9d0092e4 <__ldexpf>
9d006f4c:	02402821 	move	a1,s2
9d006f50:	00408821 	move	s1,v0
9d006f54:	00111840 	sll	v1,s1,0x1
9d006f58:	3c02ff00 	lui	v0,0xff00
9d006f5c:	5062006c 	beql	v1,v0,9d007110 <__strtof+0x34c>
9d006f60:	24030022 	li	v1,34
9d006f64:	12200068 	beqz	s1,9d007108 <__strtof+0x344>
9d006f68:	00000000 	nop
9d006f6c:	12e00005 	beqz	s7,9d006f84 <__strtof+0x1c0>
9d006f70:	02201021 	move	v0,s1
9d006f74:	0f4029da 	jal	9d00a768 <__negsf2>
9d006f78:	02202021 	move	a0,s1
9d006f7c:	00408821 	move	s1,v0
9d006f80:	02201021 	move	v0,s1
9d006f84:	8fbf0034 	lw	ra,52(sp)
9d006f88:	8fb70030 	lw	s7,48(sp)
9d006f8c:	8fb6002c 	lw	s6,44(sp)
9d006f90:	8fb50028 	lw	s5,40(sp)
9d006f94:	8fb40024 	lw	s4,36(sp)
9d006f98:	8fb30020 	lw	s3,32(sp)
9d006f9c:	8fb2001c 	lw	s2,28(sp)
9d006fa0:	8fb10018 	lw	s1,24(sp)
9d006fa4:	8fb00014 	lw	s0,20(sp)
9d006fa8:	03e00008 	jr	ra
9d006fac:	27bd0038 	addiu	sp,sp,56
9d006fb0:	02621821 	addu	v1,s3,v0
9d006fb4:	90630000 	lbu	v1,0(v1)
9d006fb8:	30630004 	andi	v1,v1,0x4
9d006fbc:	1060ffbf 	beqz	v1,9d006ebc <__strtof+0xf8>
9d006fc0:	26100001 	addiu	s0,s0,1
9d006fc4:	00009021 	move	s2,zero
9d006fc8:	2455ffd0 	addiu	s5,v0,-48
9d006fcc:	02202021 	move	a0,s1
9d006fd0:	0f4020df 	jal	9d00837c <.LFE4>
9d006fd4:	3c054120 	lui	a1,0x4120
9d006fd8:	00408821 	move	s1,v0
9d006fdc:	0f402863 	jal	9d00a18c <.LFE1>
9d006fe0:	02a02021 	move	a0,s5
9d006fe4:	02202021 	move	a0,s1
9d006fe8:	00402821 	move	a1,v0
9d006fec:	0f401db3 	jal	9d0076cc <__addsf3>
9d006ff0:	26100001 	addiu	s0,s0,1
9d006ff4:	00408821 	move	s1,v0
9d006ff8:	82020000 	lb	v0,0(s0)
9d006ffc:	0295a025 	or	s4,s4,s5
9d007000:	02621821 	addu	v1,s3,v0
9d007004:	90630000 	lbu	v1,0(v1)
9d007008:	30630004 	andi	v1,v1,0x4
9d00700c:	1460ffee 	bnez	v1,9d006fc8 <__strtof+0x204>
9d007010:	2652ffff 	addiu	s2,s2,-1
9d007014:	2403ffdf 	li	v1,-33
9d007018:	00431824 	and	v1,v0,v1
9d00701c:	7c031c20 	seb	v1,v1
9d007020:	24020045 	li	v0,69
9d007024:	5062000f 	beql	v1,v0,9d007064 <__strtof+0x2a0>
9d007028:	82030001 	lb	v1,1(s0)
9d00702c:	56c0ffaa 	bnezl	s6,9d006ed8 <__strtof+0x114>
9d007030:	aed00000 	sw	s0,0(s6)
9d007034:	0b401bb6 	j	9d006ed8 <__strtof+0x114>
9d007038:	00000000 	nop
9d00703c:	26100001 	addiu	s0,s0,1
9d007040:	0b401b92 	j	9d006e48 <__strtof+0x84>
9d007044:	24170001 	li	s7,1
9d007048:	2403ffdf 	li	v1,-33
9d00704c:	00431824 	and	v1,v0,v1
9d007050:	7c031c20 	seb	v1,v1
9d007054:	24020045 	li	v0,69
9d007058:	1462fff4 	bne	v1,v0,9d00702c <__strtof+0x268>
9d00705c:	00009021 	move	s2,zero
9d007060:	82030001 	lb	v1,1(s0)
9d007064:	2402002d 	li	v0,45
9d007068:	10620019 	beq	v1,v0,9d0070d0 <__strtof+0x30c>
9d00706c:	2402002b 	li	v0,43
9d007070:	50620022 	beql	v1,v0,9d0070fc <__strtof+0x338>
9d007074:	82030002 	lb	v1,2(s0)
9d007078:	26100001 	addiu	s0,s0,1
9d00707c:	00003821 	move	a3,zero
9d007080:	02631021 	addu	v0,s3,v1
9d007084:	90420000 	lbu	v0,0(v0)
9d007088:	30420004 	andi	v0,v0,0x4
9d00708c:	1040000c 	beqz	v0,9d0070c0 <__strtof+0x2fc>
9d007090:	00001021 	move	v0,zero
9d007094:	26100001 	addiu	s0,s0,1
9d007098:	2465ffd0 	addiu	a1,v1,-48
9d00709c:	82030000 	lb	v1,0(s0)
9d0070a0:	00023040 	sll	a2,v0,0x1
9d0070a4:	000210c0 	sll	v0,v0,0x3
9d0070a8:	02632021 	addu	a0,s3,v1
9d0070ac:	90840000 	lbu	a0,0(a0)
9d0070b0:	00c21021 	addu	v0,a2,v0
9d0070b4:	30840004 	andi	a0,a0,0x4
9d0070b8:	1480fff6 	bnez	a0,9d007094 <__strtof+0x2d0>
9d0070bc:	00451021 	addu	v0,v0,a1
9d0070c0:	00021823 	negu	v1,v0
9d0070c4:	0067100b 	movn	v0,v1,a3
9d0070c8:	0b401c0b 	j	9d00702c <__strtof+0x268>
9d0070cc:	02429021 	addu	s2,s2,v0
9d0070d0:	82030002 	lb	v1,2(s0)
9d0070d4:	24070001 	li	a3,1
9d0070d8:	0b401c20 	j	9d007080 <__strtof+0x2bc>
9d0070dc:	26100002 	addiu	s0,s0,2
9d0070e0:	0f401e4f 	jal	9d00793c <__divsf3>
9d0070e4:	00000000 	nop
9d0070e8:	0b401bd2 	j	9d006f48 <__strtof+0x184>
9d0070ec:	00402021 	move	a0,v0
9d0070f0:	00002021 	move	a0,zero
9d0070f4:	0b401bac 	j	9d006eb0 <__strtof+0xec>
9d0070f8:	0000a021 	move	s4,zero
9d0070fc:	00003821 	move	a3,zero
9d007100:	0b401c20 	j	9d007080 <__strtof+0x2bc>
9d007104:	26100002 	addiu	s0,s0,2
9d007108:	1280ff98 	beqz	s4,9d006f6c <__strtof+0x1a8>
9d00710c:	24030022 	li	v1,34
9d007110:	3c02a000 	lui	v0,0xa000
9d007114:	0b401bdb 	j	9d006f6c <__strtof+0x1a8>
9d007118:	ac4300f0 	sw	v1,240(v0)

Disassembly of section .text.dp32mul:

9d00711c <__muldf3>:
9d00711c:	00055040 000a5542 00054ac0 00047d42     @P..BU...J..B}..
9d00712c:	012f4825 000442c0 3c0e8000 012e4825     %H/..B.....<%H..
9d00713c:	00076840 000d6d42 000762c0 00067d42     @h..Bm...b..B}..
9d00714c:	018f6025 00065ac0 018e6025 00a72826     %`...Z..%`..&(..
9d00715c:	00ae2824 254fffff 2de107fe 10200047     $(....O%...-G. .
9d00716c:	00000000                                ....

9d007170 <Clab1>:
9d007170:	25afffff 	addiu	t7,t5,-1
9d007174:	2de107fe 	sltiu	at,t7,2046
9d007178:	1020006f 	beqz	at,9d007338 <CspecB>
9d00717c:	00000000 	nop

9d007180 <Clab2>:
9d007180:	25affc02 	addiu	t7,t5,-1022
9d007184:	014f5021 	addu	t2,t2,t7
9d007188:	012c0019 	multu	t1,t4
9d00718c:	00003812 	mflo	a3
9d007190:	00007010 	mfhi	t6
9d007194:	010b0019 	multu	t0,t3
9d007198:	00002012 	mflo	a0
9d00719c:	00003010 	mfhi	a2
9d0071a0:	012b0019 	multu	t1,t3
9d0071a4:	00005812 	mflo	t3
9d0071a8:	00006810 	mfhi	t5
9d0071ac:	00cb3021 	addu	a2,a2,t3
9d0071b0:	00cb782b 	sltu	t7,a2,t3
9d0071b4:	00ed3821 	addu	a3,a3,t5
9d0071b8:	00ef3821 	addu	a3,a3,t7
9d0071bc:	10ed0002 	beq	a3,t5,9d0071c8 <L20>
9d0071c0:	00000000 	nop
9d0071c4:	00ed782b 	sltu	t7,a3,t5

9d0071c8 <L20>:
9d0071c8:	01cf7021 	addu	t6,t6,t7
9d0071cc:	010c0019 	multu	t0,t4
9d0071d0:	00004012 	mflo	t0
9d0071d4:	00004810 	mfhi	t1
9d0071d8:	00c83021 	addu	a2,a2,t0
9d0071dc:	00c8782b 	sltu	t7,a2,t0
9d0071e0:	00e93821 	addu	a3,a3,t1
9d0071e4:	00ef3821 	addu	a3,a3,t7
9d0071e8:	10e90002 	beq	a3,t1,9d0071f4 <L21>
9d0071ec:	00000000 	nop
9d0071f0:	00e9782b 	sltu	t7,a3,t1

9d0071f4 <L21>:
9d0071f4:	01cf7021 	addu	t6,t6,t7
9d0071f8:	00867825 	or	t7,a0,a2
9d0071fc:	11e00002 	beqz	t7,9d007208 <i13>
9d007200:	00000000 	nop
9d007204:	34e70001 	ori	a3,a3,0x1

9d007208 <i13>:
9d007208:	000e4825 	or	t1,zero,t6
9d00720c:	05200006 	bltz	t1,9d007228 <i14>
9d007210:	00074025 	or	t0,zero,a3
9d007214:	0100782a 	slt	t7,t0,zero
9d007218:	01084021 	addu	t0,t0,t0
9d00721c:	01294821 	addu	t1,t1,t1
9d007220:	012f4821 	addu	t1,t1,t7
9d007224:	254affff 	addiu	t2,t2,-1

9d007228 <i14>:
9d007228:	254fffff 	addiu	t7,t2,-1
9d00722c:	2de107fe 	sltiu	at,t7,2046
9d007230:	10200068 	beqz	at,9d0073d4 <Coveund>
9d007234:	00000000 	nop
9d007238:	25080400 	addiu	t0,t0,1024
9d00723c:	2d0f0400 	sltiu	t7,t0,1024
9d007240:	012f4821 	addu	t1,t1,t7
9d007244:	012f782b 	sltu	t7,t1,t7
9d007248:	014f5021 	addu	t2,t2,t7

9d00724c <Clab8>:
9d00724c:	00087ac2 	srl	t7,t0,0xb
9d007250:	31ef0001 	andi	t7,t7,0x1
9d007254:	010f4023 	subu	t0,t0,t7
9d007258:	000822c2 	srl	a0,t0,0xb
9d00725c:	00097d40 	sll	t7,t1,0x15
9d007260:	008f2025 	or	a0,a0,t7
9d007264:	00097840 	sll	t7,t1,0x1
9d007268:	000f7b02 	srl	t7,t7,0xc
9d00726c:	00af2825 	or	a1,a1,t7
9d007270:	000a7d00 	sll	t7,t2,0x14
9d007274:	00af2825 	or	a1,a1,t7

9d007278 <Cret>:
9d007278:	00041025 	or	v0,zero,a0
9d00727c:	00051825 	or	v1,zero,a1

9d007280 <C999>:
9d007280:	03e00008 	jr	ra
9d007284:	00000000 	nop

9d007288 <CspecA>:
9d007288:	0100782a 	slt	t7,t0,zero
9d00728c:	01084021 	addu	t0,t0,t0
9d007290:	01294821 	addu	t1,t1,t1
9d007294:	1540001c 	bnez	t2,9d007308 <i15>
9d007298:	012f4821 	addu	t1,t1,t7
9d00729c:	01287825 	or	t7,t1,t0
9d0072a0:	11e00014 	beqz	t7,9d0072f4 <i16>
9d0072a4:	00000000 	nop
9d0072a8:	15200008 	bnez	t1,9d0072cc <L22>
9d0072ac:	00000000 	nop
9d0072b0:	15000003 	bnez	t0,9d0072c0 <L23>
9d0072b4:	00000000 	nop
9d0072b8:	1000ffad 	b	9d007170 <Clab1>
9d0072bc:	240a0000 	li	t2,0

9d0072c0 <L23>:
9d0072c0:	01004825 	move	t1,t0
9d0072c4:	24080000 	li	t0,0
9d0072c8:	254affe0 	addiu	t2,t2,-32

9d0072cc <L22>:
9d0072cc:	712e7020 	clz	t6,t1
9d0072d0:	11c0ffa7 	beqz	t6,9d007170 <Clab1>
9d0072d4:	00000000 	nop
9d0072d8:	014e5023 	subu	t2,t2,t6
9d0072dc:	000e3822 	neg	a3,t6
9d0072e0:	00e83806 	srlv	a3,t0,a3
9d0072e4:	01c84004 	sllv	t0,t0,t6
9d0072e8:	01c94804 	sllv	t1,t1,t6
9d0072ec:	1000ffa0 	b	9d007170 <Clab1>
9d0072f0:	01274825 	or	t1,t1,a3

9d0072f4 <i16>:
9d0072f4:	240107ff 	li	at,2047
9d0072f8:	11a10033 	beq	t5,at,9d0073c8 <Cnan>
9d0072fc:	00000000 	nop
9d007300:	1000ffdd 	b	9d007278 <Cret>
9d007304:	00000000 	nop

9d007308 <i15>:
9d007308:	01287825 	or	t7,t1,t0
9d00730c:	15e0002e 	bnez	t7,9d0073c8 <Cnan>
9d007310:	00000000 	nop
9d007314:	15a00005 	bnez	t5,9d00732c <i17>
9d007318:	00000000 	nop
9d00731c:	000c7840 	sll	t7,t4,0x1
9d007320:	01eb7825 	or	t7,t7,t3
9d007324:	11e00028 	beqz	t7,9d0073c8 <Cnan>
9d007328:	00000000 	nop

9d00732c <i17>:
9d00732c:	240107ff 	li	at,2047
9d007330:	15a10021 	bne	t5,at,9d0073b8 <Cinf>
9d007334:	00000000 	nop

9d007338 <CspecB>:
9d007338:	0160782a 	slt	t7,t3,zero
9d00733c:	016b5821 	addu	t3,t3,t3
9d007340:	018c6021 	addu	t4,t4,t4
9d007344:	15a00019 	bnez	t5,9d0073ac <i18>
9d007348:	018f6021 	addu	t4,t4,t7
9d00734c:	018b7825 	or	t7,t4,t3
9d007350:	11e00014 	beqz	t7,9d0073a4 <i19>
9d007354:	00000000 	nop
9d007358:	15800008 	bnez	t4,9d00737c <L25>
9d00735c:	00000000 	nop
9d007360:	15600003 	bnez	t3,9d007370 <L26>
9d007364:	00000000 	nop
9d007368:	1000ff85 	b	9d007180 <Clab2>
9d00736c:	240d0000 	li	t5,0

9d007370 <L26>:
9d007370:	01606025 	move	t4,t3
9d007374:	240b0000 	li	t3,0
9d007378:	25adffe0 	addiu	t5,t5,-32

9d00737c <L25>:
9d00737c:	71863020 	clz	a2,t4
9d007380:	10c0ff7f 	beqz	a2,9d007180 <Clab2>
9d007384:	00000000 	nop
9d007388:	01a66823 	subu	t5,t5,a2
9d00738c:	00067022 	neg	t6,a2
9d007390:	01cb7006 	srlv	t6,t3,t6
9d007394:	00cb5804 	sllv	t3,t3,a2
9d007398:	00cc6004 	sllv	t4,t4,a2
9d00739c:	1000ff78 	b	9d007180 <Clab2>
9d0073a0:	018e6025 	or	t4,t4,t6

9d0073a4 <i19>:
9d0073a4:	1000ffb4 	b	9d007278 <Cret>
9d0073a8:	24040000 	li	a0,0

9d0073ac <i18>:
9d0073ac:	018b7825 	or	t7,t4,t3
9d0073b0:	15e00005 	bnez	t7,9d0073c8 <Cnan>
9d0073b4:	00000000 	nop

9d0073b8 <Cinf>:
9d0073b8:	3c017ff0 	lui	at,0x7ff0
9d0073bc:	00a12825 	or	a1,a1,at
9d0073c0:	1000ffad 	b	9d007278 <Cret>
9d0073c4:	24040000 	li	a0,0

9d0073c8 <Cnan>:
9d0073c8:	3c05fff8 	lui	a1,0xfff8
9d0073cc:	1000ffaa 	b	9d007278 <Cret>
9d0073d0:	24040000 	li	a0,0

9d0073d4 <Coveund>:
9d0073d4:	1d40fff8 	bgtz	t2,9d0073b8 <Cinf>
9d0073d8:	00000000 	nop
9d0073dc:	240e0001 	li	t6,1
9d0073e0:	01ca7023 	subu	t6,t6,t2

9d0073e4 <L28>:
9d0073e4:	2dc10020 	sltiu	at,t6,32
9d0073e8:	14200007 	bnez	at,9d007408 <L29>
9d0073ec:	00000000 	nop
9d0073f0:	21ceffe0 	addi	t6,t6,-32
9d0073f4:	0008302b 	sltu	a2,zero,t0
9d0073f8:	1009000d 	beq	zero,t1,9d007430 <L30>
9d0073fc:	01264025 	or	t0,t1,a2
9d007400:	1000fff8 	b	9d0073e4 <L28>
9d007404:	34090000 	li	t1,0x0

9d007408 <L29>:
9d007408:	11c00009 	beqz	t6,9d007430 <L30>
9d00740c:	00000000 	nop
9d007410:	000e3822 	neg	a3,t6
9d007414:	00e83004 	sllv	a2,t0,a3
9d007418:	00e93804 	sllv	a3,t1,a3
9d00741c:	01c84006 	srlv	t0,t0,t6
9d007420:	01c94806 	srlv	t1,t1,t6
9d007424:	10c00002 	beqz	a2,9d007430 <L30>
9d007428:	00e84025 	or	t0,a3,t0
9d00742c:	35080002 	ori	t0,t0,0x2

9d007430 <L30>:
9d007430:	25080400 	addiu	t0,t0,1024
9d007434:	2d0f0400 	sltiu	t7,t0,1024
9d007438:	012f4821 	addu	t1,t1,t7
9d00743c:	1000ff83 	b	9d00724c <Clab8>
9d007440:	000957c2 	srl	t2,t1,0x1f
9d007444:	00000000 	nop

Disassembly of section .text:

9d007448 <calculateGrowth>:
#include <stdio.h>
#include "NU32.h"
#include "helper.h"

void calculateGrowth(Investment *invp) {
9d007448:	27bdffd8 	addiu	sp,sp,-40
9d00744c:	afbf0024 	sw	ra,36(sp)
9d007450:	afb30020 	sw	s3,32(sp)
9d007454:	afb2001c 	sw	s2,28(sp)
9d007458:	afb10018 	sw	s1,24(sp)
9d00745c:	afb00014 	sw	s0,20(sp)

  int i;

  for (i = 1; i <= invp->years; i= i + 1) {
9d007460:	8c920008 	lw	s2,8(a0)
9d007464:	1a40000b 	blez	s2,9d007494 <calculateGrowth+0x4c>
9d007468:	2490000c 	addiu	s0,a0,12
    invp->invarray[i] = invp->growth * invp->invarray[i-1];
9d00746c:	8c930004 	lw	s3,4(a0)

void calculateGrowth(Investment *invp) {

  int i;

  for (i = 1; i <= invp->years; i= i + 1) {
9d007470:	24110001 	li	s1,1
    invp->invarray[i] = invp->growth * invp->invarray[i-1];
9d007474:	02602021 	move	a0,s3
9d007478:	0f4020df 	jal	9d00837c <.LFE4>
9d00747c:	8e050000 	lw	a1,0(s0)
9d007480:	ae020004 	sw	v0,4(s0)

void calculateGrowth(Investment *invp) {

  int i;

  for (i = 1; i <= invp->years; i= i + 1) {
9d007484:	26310001 	addiu	s1,s1,1
9d007488:	0251102a 	slt	v0,s2,s1
9d00748c:	1040fff9 	beqz	v0,9d007474 <calculateGrowth+0x2c>
9d007490:	26100004 	addiu	s0,s0,4
    invp->invarray[i] = invp->growth * invp->invarray[i-1];
  }
}
9d007494:	8fbf0024 	lw	ra,36(sp)
9d007498:	8fb30020 	lw	s3,32(sp)
9d00749c:	8fb2001c 	lw	s2,28(sp)
9d0074a0:	8fb10018 	lw	s1,24(sp)
9d0074a4:	8fb00014 	lw	s0,20(sp)
9d0074a8:	03e00008 	jr	ra
9d0074ac:	27bd0028 	addiu	sp,sp,40

9d0074b0 <getUserInput>:

int getUserInput(Investment *invp) {
9d0074b0:	27bdff78 	addiu	sp,sp,-136
9d0074b4:	afbf0084 	sw	ra,132(sp)
9d0074b8:	afb00080 	sw	s0,128(sp)
9d0074bc:	00808021 	move	s0,a0
  char msg[100]={}; //msg will store all the transiting messages
9d0074c0:	27a40018 	addiu	a0,sp,24
9d0074c4:	00002821 	move	a1,zero
9d0074c8:	0f40267f 	jal	9d0099fc <memset>
9d0074cc:	24060064 	li	a2,100

9d0074d0 <.LVL8>:
  int valid;
  sprintf(msg,"Enter investment, growth rate, number of yrs (up to %d):\n\r",MAX_YEARS);
9d0074d0:	27a40018 	addiu	a0,sp,24
9d0074d4:	3c059d01 	lui	a1,0x9d01
9d0074d8:	24a59bf4 	addiu	a1,a1,-25612
9d0074dc:	0f402817 	jal	9d00a05c <.LFE0>
9d0074e0:	24060064 	li	a2,100

9d0074e4 <.LVL9>:
  NU32_WriteUART3(msg); // The initial message is sent to the PIC
9d0074e4:	0f4020d0 	jal	9d008340 <NU32_WriteUART3>
9d0074e8:	27a40018 	addiu	a0,sp,24

9d0074ec <.LVL10>:
  NU32_ReadUART3(msg,100); // The input is read
9d0074ec:	27a40018 	addiu	a0,sp,24
9d0074f0:	0f4020b3 	jal	9d0082cc <NU32_ReadUART3>
9d0074f4:	24050064 	li	a1,100

9d0074f8 <.LVL11>:
  sscanf(msg,"%lf %lf %d", &(invp->inv0), &(invp->growth), &(invp->years));
9d0074f8:	26020008 	addiu	v0,s0,8
9d0074fc:	afa20010 	sw	v0,16(sp)
9d007500:	27a40018 	addiu	a0,sp,24
9d007504:	3c059d01 	lui	a1,0x9d01
9d007508:	24a59c30 	addiu	a1,a1,-25552
9d00750c:	02003021 	move	a2,s0
9d007510:	0f402890 	jal	9d00a240 <_sscanf_cdfFnopuxX>
9d007514:	26070004 	addiu	a3,s0,4

9d007518 <.LVL12>:
  // the informtion stored in msg is broken down to be used
  valid = (invp->inv0 > 0) && (invp->growth > 0) &&
    (invp->years > 0) && (invp->years <= MAX_YEARS);
9d007518:	00002021 	move	a0,zero
9d00751c:	0f40274d 	jal	9d009d34 <.LFE0>
9d007520:	8e050000 	lw	a1,0(s0)
9d007524:	0441000c 	bgez	v0,9d007558 <.LVL12+0x40>
9d007528:	27a40018 	addiu	a0,sp,24
  sprintf(msg,"Enter investment, growth rate, number of yrs (up to %d):\n\r",MAX_YEARS);
  NU32_WriteUART3(msg); // The initial message is sent to the PIC
  NU32_ReadUART3(msg,100); // The input is read
  sscanf(msg,"%lf %lf %d", &(invp->inv0), &(invp->growth), &(invp->years));
  // the informtion stored in msg is broken down to be used
  valid = (invp->inv0 > 0) && (invp->growth > 0) &&
9d00752c:	00002021 	move	a0,zero
9d007530:	0f40274d 	jal	9d009d34 <.LFE0>
9d007534:	8e050004 	lw	a1,4(s0)
9d007538:	04410007 	bgez	v0,9d007558 <.LVL12+0x40>
9d00753c:	27a40018 	addiu	a0,sp,24
9d007540:	8e020008 	lw	v0,8(s0)
9d007544:	2442ffff 	addiu	v0,v0,-1
9d007548:	2c420064 	sltiu	v0,v0,100
9d00754c:	1440001c 	bnez	v0,9d0075c0 <.LVL18+0x8>
9d007550:	3c059d01 	lui	a1,0x9d01
    (invp->years > 0) && (invp->years <= MAX_YEARS);
  sprintf(msg,"Valid input?  %d\n\r",valid);
9d007554:	27a40018 	addiu	a0,sp,24
9d007558:	3c059d01 	lui	a1,0x9d01
9d00755c:	24a59c3c 	addiu	a1,a1,-25540
9d007560:	0f402817 	jal	9d00a05c <.LFE0>
9d007564:	00003021 	move	a2,zero

9d007568 <.LVL16>:
  NU32_WriteUART3(msg);//the message is sent to the pic
9d007568:	0f4020d0 	jal	9d008340 <NU32_WriteUART3>
9d00756c:	27a40018 	addiu	a0,sp,24

9d007570 <.LVL17>:

  if (!valid) {
    sprintf(msg,"Invalid input; exiting.\n\r");
9d007570:	3c029d01 	lui	v0,0x9d01
9d007574:	8c489c50 	lw	t0,-25520(v0)
9d007578:	24429c50 	addiu	v0,v0,-25520
9d00757c:	8c470004 	lw	a3,4(v0)
9d007580:	8c460008 	lw	a2,8(v0)
9d007584:	8c45000c 	lw	a1,12(v0)
9d007588:	8c440010 	lw	a0,16(v0)
9d00758c:	8c430014 	lw	v1,20(v0)
9d007590:	afa80018 	sw	t0,24(sp)
9d007594:	afa7001c 	sw	a3,28(sp)
9d007598:	afa60020 	sw	a2,32(sp)
9d00759c:	afa50024 	sw	a1,36(sp)
9d0075a0:	afa40028 	sw	a0,40(sp)
9d0075a4:	afa3002c 	sw	v1,44(sp)
9d0075a8:	94420018 	lhu	v0,24(v0)
9d0075ac:	a7a20030 	sh	v0,48(sp)
    NU32_WriteUART3(msg);
9d0075b0:	0f4020d0 	jal	9d008340 <NU32_WriteUART3>
9d0075b4:	27a40018 	addiu	a0,sp,24

9d0075b8 <.LVL18>:
9d0075b8:	0b401d76 	j	9d0075d8 <.LVL21+0x4>
9d0075bc:	00001021 	move	v0,zero
  NU32_ReadUART3(msg,100); // The input is read
  sscanf(msg,"%lf %lf %d", &(invp->inv0), &(invp->growth), &(invp->years));
  // the informtion stored in msg is broken down to be used
  valid = (invp->inv0 > 0) && (invp->growth > 0) &&
    (invp->years > 0) && (invp->years <= MAX_YEARS);
  sprintf(msg,"Valid input?  %d\n\r",valid);
9d0075c0:	24a59c3c 	addiu	a1,a1,-25540
9d0075c4:	0f402817 	jal	9d00a05c <.LFE0>
9d0075c8:	24060001 	li	a2,1

9d0075cc <.LVL20>:
  NU32_WriteUART3(msg);//the message is sent to the pic
9d0075cc:	0f4020d0 	jal	9d008340 <NU32_WriteUART3>
9d0075d0:	27a40018 	addiu	a0,sp,24

9d0075d4 <.LVL21>:
  NU32_WriteUART3(msg); // The initial message is sent to the PIC
  NU32_ReadUART3(msg,100); // The input is read
  sscanf(msg,"%lf %lf %d", &(invp->inv0), &(invp->growth), &(invp->years));
  // the informtion stored in msg is broken down to be used
  valid = (invp->inv0 > 0) && (invp->growth > 0) &&
    (invp->years > 0) && (invp->years <= MAX_YEARS);
9d0075d4:	24020001 	li	v0,1
  if (!valid) {
    sprintf(msg,"Invalid input; exiting.\n\r");
    NU32_WriteUART3(msg);
  }
  return(valid);
}
9d0075d8:	8fbf0084 	lw	ra,132(sp)
9d0075dc:	8fb00080 	lw	s0,128(sp)
9d0075e0:	03e00008 	jr	ra
9d0075e4:	27bd0088 	addiu	sp,sp,136

9d0075e8 <sendOutput>:

void sendOutput(double *arr, int yrs) {
9d0075e8:	27bdff10 	addiu	sp,sp,-240
9d0075ec:	afbf00ec 	sw	ra,236(sp)
9d0075f0:	afb300e8 	sw	s3,232(sp)
9d0075f4:	afb200e4 	sw	s2,228(sp)
9d0075f8:	afb100e0 	sw	s1,224(sp)
9d0075fc:	afb000dc 	sw	s0,220(sp)
9d007600:	00808821 	move	s1,a0
9d007604:	00a09021 	move	s2,a1
  char msg[100]={};
9d007608:	27a40010 	addiu	a0,sp,16
9d00760c:	00002821 	move	a1,zero
9d007610:	0f40267f 	jal	9d0099fc <memset>
9d007614:	24060064 	li	a2,100

9d007618 <.LVL27>:
  int i;
  char outstring[100];

  sprintf(msg,"\nRESULTS:\n\n\r");
9d007618:	3c029d01 	lui	v0,0x9d01
9d00761c:	8c469c6c 	lw	a2,-25492(v0)
9d007620:	24429c6c 	addiu	v0,v0,-25492
9d007624:	8c450004 	lw	a1,4(v0)
9d007628:	8c430008 	lw	v1,8(v0)
9d00762c:	afa60010 	sw	a2,16(sp)
9d007630:	afa50014 	sw	a1,20(sp)
9d007634:	afa30018 	sw	v1,24(sp)
9d007638:	9042000c 	lbu	v0,12(v0)
9d00763c:	a3a2001c 	sb	v0,28(sp)
  NU32_WriteUART3(msg);
9d007640:	0f4020d0 	jal	9d008340 <NU32_WriteUART3>
9d007644:	27a40010 	addiu	a0,sp,16

9d007648 <.LVL28>:
  for (i=0; i<=yrs; i++) {
9d007648:	06400011 	bltz	s2,9d007690 <.LVL32+0x10>
9d00764c:	00008021 	move	s0,zero
    sprintf(outstring,"Year %3d:  %10.2f\n\r",i,arr[i]);
9d007650:	3c139d01 	lui	s3,0x9d01
9d007654:	26739c7c 	addiu	s3,s3,-25476
9d007658:	27a40074 	addiu	a0,sp,116
9d00765c:	02602821 	move	a1,s3
9d007660:	02003021 	move	a2,s0
9d007664:	0f402817 	jal	9d00a05c <.LFE0>
9d007668:	8e270000 	lw	a3,0(s1)

9d00766c <.LVL30>:
    sprintf(msg,"%s",outstring);
9d00766c:	27a40010 	addiu	a0,sp,16
9d007670:	0f402221 	jal	9d008884 <.LFE0>
9d007674:	27a50074 	addiu	a1,sp,116

9d007678 <.LVL31>:
    NU32_WriteUART3(msg);
9d007678:	0f4020d0 	jal	9d008340 <NU32_WriteUART3>
9d00767c:	27a40010 	addiu	a0,sp,16

9d007680 <.LVL32>:
  int i;
  char outstring[100];

  sprintf(msg,"\nRESULTS:\n\n\r");
  NU32_WriteUART3(msg);
  for (i=0; i<=yrs; i++) {
9d007680:	26100001 	addiu	s0,s0,1
9d007684:	0250102a 	slt	v0,s2,s0
9d007688:	1040fff3 	beqz	v0,9d007658 <.LVL28+0x10>
9d00768c:	26310004 	addiu	s1,s1,4
    sprintf(outstring,"Year %3d:  %10.2f\n\r",i,arr[i]);
    sprintf(msg,"%s",outstring);
    NU32_WriteUART3(msg);
  }
    printf(msg,"\n\r");
9d007690:	27a40010 	addiu	a0,sp,16
9d007694:	3c059d01 	lui	a1,0x9d01
9d007698:	0f402924 	jal	9d00a490 <printf>
9d00769c:	24a59c90 	addiu	a1,a1,-25456

9d0076a0 <.LVL35>:
    NU32_WriteUART3(msg);
9d0076a0:	0f4020d0 	jal	9d008340 <NU32_WriteUART3>
9d0076a4:	27a40010 	addiu	a0,sp,16

9d0076a8 <.LVL36>:
}
9d0076a8:	8fbf00ec 	lw	ra,236(sp)
9d0076ac:	8fb300e8 	lw	s3,232(sp)
9d0076b0:	8fb200e4 	lw	s2,228(sp)
9d0076b4:	8fb100e0 	lw	s1,224(sp)
9d0076b8:	8fb000dc 	lw	s0,220(sp)
9d0076bc:	03e00008 	jr	ra
9d0076c0:	27bd00f0 	addiu	sp,sp,240

Disassembly of section .text.fpsubadd:

9d0076c4 <__subsf3>:
9d0076c4:	3c018000 00a12826                       ...<&(..

9d0076cc <__addsf3>:
9d0076cc:	00044dc2 312900ff 00055dc2 316b00ff     .M....)1.]....k1
9d0076dc:	3c078000 00044200 01074025 00055200     ...<.B..%@...R..
9d0076ec:	01475025 252dffff 2da100fe 10200061     %PG...-%...-a. .
9d0076fc:	00000000                                ....

9d007700 <Blab1>:
9d007700:	256dffff 	addiu	t5,t3,-1
9d007704:	2da100fe 	sltiu	at,t5,254
9d007708:	10200077 	beqz	at,9d0078e8 <BspecB>
9d00770c:	00000000 	nop

9d007710 <Blab2>:
9d007710:	012b6023 	subu	t4,t1,t3
9d007714:	0580000d 	bltz	t4,9d00774c <i1>
9d007718:	00000000 	nop
9d00771c:	29810020 	slti	at,t4,32
9d007720:	14200003 	bnez	at,9d007730 <i2>
9d007724:	00000000 	nop
9d007728:	10000015 	b	9d007780 <e1>
9d00772c:	240a0002 	li	t2,2

9d007730 <i2>:
9d007730:	000a3025 	or	a2,zero,t2
9d007734:	018a5006 	srlv	t2,t2,t4
9d007738:	018a6804 	sllv	t5,t2,t4
9d00773c:	11a60010 	beq	t5,a2,9d007780 <e1>
9d007740:	00000000 	nop
9d007744:	1000000e 	b	9d007780 <e1>
9d007748:	354a0002 	ori	t2,t2,0x2

9d00774c <i1>:
9d00774c:	000b4825 	or	t1,zero,t3
9d007750:	000c6023 	negu	t4,t4
9d007754:	29810020 	slti	at,t4,32
9d007758:	14200003 	bnez	at,9d007768 <i4>
9d00775c:	00000000 	nop
9d007760:	10000007 	b	9d007780 <e1>
9d007764:	24080002 	li	t0,2

9d007768 <i4>:
9d007768:	00083025 	or	a2,zero,t0
9d00776c:	01884006 	srlv	t0,t0,t4
9d007770:	01886804 	sllv	t5,t0,t4
9d007774:	11a60002 	beq	t5,a2,9d007780 <e1>
9d007778:	00000000 	nop
9d00777c:	35080002 	ori	t0,t0,0x2

9d007780 <e1>:
9d007780:	00876024 	and	t4,a0,a3
9d007784:	01856826 	xor	t5,t4,a1
9d007788:	05a00010 	bltz	t5,9d0077cc <Bsub1>
9d00778c:	00000000 	nop
9d007790:	010a4021 	addu	t0,t0,t2
9d007794:	010a682b 	sltu	t5,t0,t2
9d007798:	11a00017 	beqz	t5,9d0077f8 <Bres>
9d00779c:	00000000 	nop
9d0077a0:	310d0001 	andi	t5,t0,0x1
9d0077a4:	11a00002 	beqz	t5,9d0077b0 <i7>
9d0077a8:	00000000 	nop
9d0077ac:	35080002 	ori	t0,t0,0x2

9d0077b0 <i7>:
9d0077b0:	00084042 	srl	t0,t0,0x1
9d0077b4:	25290001 	addiu	t1,t1,1
9d0077b8:	240100ff 	li	at,255
9d0077bc:	1521000e 	bne	t1,at,9d0077f8 <Bres>
9d0077c0:	00000000 	nop
9d0077c4:	1000000c 	b	9d0077f8 <Bres>
9d0077c8:	24080000 	li	t0,0

9d0077cc <Bsub1>:
9d0077cc:	010a682b 	sltu	t5,t0,t2
9d0077d0:	11a00004 	beqz	t5,9d0077e4 <i9>
9d0077d4:	010a4023 	subu	t0,t0,t2
9d0077d8:	00084023 	negu	t0,t0
9d0077dc:	10000003 	b	9d0077ec <e9>
9d0077e0:	01876026 	xor	t4,t4,a3

9d0077e4 <i9>:
9d0077e4:	11000050 	beqz	t0,9d007928 <Bzer>
9d0077e8:	00000000 	nop

9d0077ec <e9>:
9d0077ec:	71063020 	clz	a2,t0
9d0077f0:	01264823 	subu	t1,t1,a2
9d0077f4:	00c84004 	sllv	t0,t0,a2

9d0077f8 <Bres>:
9d0077f8:	1920000e 	blez	t1,9d007834 <Bund>
9d0077fc:	00000000 	nop

9d007800 <Blab12>:
9d007800:	25080080 	addiu	t0,t0,128
9d007804:	2d0d0080 	sltiu	t5,t0,128
9d007808:	012d4821 	addu	t1,t1,t5
9d00780c:	00086a02 	srl	t5,t0,0x8
9d007810:	31ad0001 	andi	t5,t5,0x1
9d007814:	010d4023 	subu	t0,t0,t5
9d007818:	00084040 	sll	t0,t0,0x1
9d00781c:	00084242 	srl	t0,t0,0x9
9d007820:	00096dc0 	sll	t5,t1,0x17
9d007824:	010d4025 	or	t0,t0,t5
9d007828:	010c1025 	or	v0,t0,t4

9d00782c <B999>:
9d00782c:	03e00008 	jr	ra
9d007830:	00000000 	nop

9d007834 <Bund>:
9d007834:	24060001 	li	a2,1
9d007838:	00c93023 	subu	a2,a2,t1
9d00783c:	2cc10020 	sltiu	at,a2,32
9d007840:	10200039 	beqz	at,9d007928 <Bzer>
9d007844:	00000000 	nop
9d007848:	3c018000 	lui	at,0x8000
9d00784c:	01014025 	or	t0,t0,at
9d007850:	240d0020 	li	t5,32
9d007854:	01a66823 	subu	t5,t5,a2
9d007858:	01a84804 	sllv	t1,t0,t5
9d00785c:	11200002 	beqz	t1,9d007868 <i10>
9d007860:	00c84006 	srlv	t0,t0,a2
9d007864:	35080001 	ori	t0,t0,0x1

9d007868 <i10>:
9d007868:	24090000 	li	t1,0
9d00786c:	250d0080 	addiu	t5,t0,128
9d007870:	05a1ffe3 	bgez	t5,9d007800 <Blab12>
9d007874:	00000000 	nop
9d007878:	1000ffe1 	b	9d007800 <Blab12>
9d00787c:	24090001 	li	t1,1

9d007880 <BspecA>:
9d007880:	1520000e 	bnez	t1,9d0078bc <i12>
9d007884:	00000000 	nop
9d007888:	01084021 	addu	t0,t0,t0
9d00788c:	11000005 	beqz	t0,9d0078a4 <i13>
9d007890:	00000000 	nop
9d007894:	710c6020 	clz	t4,t0
9d007898:	012c4823 	subu	t1,t1,t4
9d00789c:	1000ff98 	b	9d007700 <Blab1>
9d0078a0:	01884004 	sllv	t0,t0,t4

9d0078a4 <i13>:
9d0078a4:	240100ff 	li	at,255
9d0078a8:	1161000f 	beq	t3,at,9d0078e8 <BspecB>
9d0078ac:	00000000 	nop
9d0078b0:	3c018000 	lui	at,0x8000
9d0078b4:	14a10018 	bne	a1,at,9d007918 <BretB>
9d0078b8:	00000000 	nop

9d0078bc <i12>:
9d0078bc:	01086821 	addu	t5,t0,t0
9d0078c0:	15a0001b 	bnez	t5,9d007930 <Bnan>
9d0078c4:	00000000 	nop
9d0078c8:	240100ff 	li	at,255
9d0078cc:	15610014 	bne	t3,at,9d007920 <BretA>
9d0078d0:	00000000 	nop
9d0078d4:	00856826 	xor	t5,a0,a1
9d0078d8:	05a00015 	bltz	t5,9d007930 <Bnan>
9d0078dc:	00000000 	nop
9d0078e0:	1000000d 	b	9d007918 <BretB>
9d0078e4:	00000000 	nop

9d0078e8 <BspecB>:
9d0078e8:	15600008 	bnez	t3,9d00790c <i15>
9d0078ec:	00000000 	nop
9d0078f0:	014a5021 	addu	t2,t2,t2
9d0078f4:	1140000a 	beqz	t2,9d007920 <BretA>
9d0078f8:	00000000 	nop
9d0078fc:	714c6020 	clz	t4,t2
9d007900:	016c5823 	subu	t3,t3,t4
9d007904:	1000ff82 	b	9d007710 <Blab2>
9d007908:	018a5004 	sllv	t2,t2,t4

9d00790c <i15>:
9d00790c:	014a6821 	addu	t5,t2,t2
9d007910:	15a00007 	bnez	t5,9d007930 <Bnan>
9d007914:	00000000 	nop

9d007918 <BretB>:
9d007918:	1000ffc4 	b	9d00782c <B999>
9d00791c:	00051025 	or	v0,zero,a1

9d007920 <BretA>:
9d007920:	1000ffc2 	b	9d00782c <B999>
9d007924:	00041025 	or	v0,zero,a0

9d007928 <Bzer>:
9d007928:	1000ffc0 	b	9d00782c <B999>
9d00792c:	24020000 	li	v0,0

9d007930 <Bnan>:
9d007930:	1000ffbe 	b	9d00782c <B999>
9d007934:	3c02ffc0 	lui	v0,0xffc0
9d007938:	00000000 	nop

Disassembly of section .text.fp32div:

9d00793c <__divsf3>:
9d00793c:	3c0b8000 000445c2 310800ff 000555c2     ...<.E.....1.U..
9d00794c:	314a00ff 00043a00 00eb3825 00054a00     ..J1.:..%8...J..
9d00795c:	012b4825 00857026 016e5824 250effff     %H+.&p..$Xn....%
9d00796c:	2dc100fe 1020003f 00000000              ...-?. .....

9d007978 <Dlab1>:
9d007978:	254effff 	addiu	t6,t2,-1
9d00797c:	2dc100fe 	sltiu	at,t6,254
9d007980:	10200053 	beqz	at,9d007ad0 <DspecB>
9d007984:	00000000 	nop

9d007988 <Dlab2>:
9d007988:	00e9082b 	sltu	at,a3,t1
9d00798c:	14200003 	bnez	at,9d00799c <i27>
9d007990:	00000000 	nop
9d007994:	00073842 	srl	a3,a3,0x1
9d007998:	25080001 	addiu	t0,t0,1

9d00799c <i27>:
9d00799c:	00096382 	srl	t4,t1,0xe
9d0079a0:	018001f4 	teq	t4,zero,0x7
9d0079a4:	00ec001b 	divu	zero,a3,t4
9d0079a8:	00002012 	mflo	a0
9d0079ac:	00003010 	mfhi	a2
9d0079b0:	312d3fff 	andi	t5,t1,0x3fff
9d0079b4:	01a40019 	multu	t5,a0
9d0079b8:	00002812 	mflo	a1
9d0079bc:	00063380 	sll	a2,a2,0xe
9d0079c0:	00c5702b 	sltu	t6,a2,a1
9d0079c4:	11c00004 	beqz	t6,9d0079d8 <i28>
9d0079c8:	00c53023 	subu	a2,a2,a1
9d0079cc:	2484ffff 	addiu	a0,a0,-1
9d0079d0:	00c93021 	addu	a2,a2,t1
9d0079d4:	00c9702b 	sltu	t6,a2,t1

9d0079d8 <i28>:
9d0079d8:	018001f4 	teq	t4,zero,0x7
9d0079dc:	00cc001b 	divu	zero,a2,t4
9d0079e0:	00003812 	mflo	a3
9d0079e4:	00003010 	mfhi	a2
9d0079e8:	01a70019 	multu	t5,a3
9d0079ec:	00002812 	mflo	a1
9d0079f0:	00063380 	sll	a2,a2,0xe
9d0079f4:	00c5702b 	sltu	t6,a2,a1
9d0079f8:	11c00004 	beqz	t6,9d007a0c <i29>
9d0079fc:	00c53023 	subu	a2,a2,a1
9d007a00:	24e7ffff 	addiu	a3,a3,-1
9d007a04:	00c93021 	addu	a2,a2,t1
9d007a08:	00c9702b 	sltu	t6,a2,t1

9d007a0c <i29>:
9d007a0c:	00047380 	sll	t6,a0,0xe
9d007a10:	00ee3821 	addu	a3,a3,t6
9d007a14:	10c00002 	beqz	a2,9d007a20 <i30>
9d007a18:	00073900 	sll	a3,a3,0x4
9d007a1c:	34e70001 	ori	a3,a3,0x1

9d007a20 <i30>:
9d007a20:	240e007e 	li	t6,126
9d007a24:	01ca7023 	subu	t6,t6,t2
9d007a28:	010e4021 	addu	t0,t0,t6
9d007a2c:	250effff 	addiu	t6,t0,-1
9d007a30:	2dc100fe 	sltiu	at,t6,254
9d007a34:	10200034 	beqz	at,9d007b08 <Doveund>
9d007a38:	00000000 	nop

9d007a3c <Dlab8>:
9d007a3c:	24e70080 	addiu	a3,a3,128
9d007a40:	2cee0080 	sltiu	t6,a3,128
9d007a44:	010e4021 	addu	t0,t0,t6
9d007a48:	00077202 	srl	t6,a3,0x8
9d007a4c:	31ce0001 	andi	t6,t6,0x1
9d007a50:	00ee3823 	subu	a3,a3,t6
9d007a54:	00073840 	sll	a3,a3,0x1
9d007a58:	00073a42 	srl	a3,a3,0x9
9d007a5c:	000875c0 	sll	t6,t0,0x17
9d007a60:	00ee3825 	or	a3,a3,t6
9d007a64:	00eb1025 	or	v0,a3,t3

9d007a68 <D999>:
9d007a68:	03e00008 	jr	ra
9d007a6c:	00000000 	nop

9d007a70 <DspecA>:
9d007a70:	15000008 	bnez	t0,9d007a94 <i31>
9d007a74:	00000000 	nop
9d007a78:	00e73821 	addu	a3,a3,a3
9d007a7c:	10e00005 	beqz	a3,9d007a94 <i31>
9d007a80:	00000000 	nop
9d007a84:	70ec6020 	clz	t4,a3
9d007a88:	010c4023 	subu	t0,t0,t4
9d007a8c:	1000ffba 	b	9d007978 <Dlab1>
9d007a90:	01873804 	sllv	a3,a3,t4

9d007a94 <i31>:
9d007a94:	15480004 	bne	t2,t0,9d007aa8 <i33>
9d007a98:	00000000 	nop
9d007a9c:	01297021 	addu	t6,t1,t1
9d007aa0:	11c0002f 	beqz	t6,9d007b60 <Dnan>
9d007aa4:	00000000 	nop

9d007aa8 <i33>:
9d007aa8:	240100ff 	li	at,255
9d007aac:	11410008 	beq	t2,at,9d007ad0 <DspecB>
9d007ab0:	00000000 	nop
9d007ab4:	11000012 	beqz	t0,9d007b00 <Dzer>
9d007ab8:	00000000 	nop
9d007abc:	00e77021 	addu	t6,a3,a3
9d007ac0:	15c00027 	bnez	t6,9d007b60 <Dnan>
9d007ac4:	00000000 	nop
9d007ac8:	10000022 	b	9d007b54 <Dinf>
9d007acc:	00000000 	nop

9d007ad0 <DspecB>:
9d007ad0:	15400008 	bnez	t2,9d007af4 <i34>
9d007ad4:	00000000 	nop
9d007ad8:	01294821 	addu	t1,t1,t1
9d007adc:	1120001d 	beqz	t1,9d007b54 <Dinf>
9d007ae0:	00000000 	nop
9d007ae4:	712c6020 	clz	t4,t1
9d007ae8:	014c5023 	subu	t2,t2,t4
9d007aec:	1000ffa6 	b	9d007988 <Dlab2>
9d007af0:	01894804 	sllv	t1,t1,t4

9d007af4 <i34>:
9d007af4:	01297021 	addu	t6,t1,t1
9d007af8:	15c00019 	bnez	t6,9d007b60 <Dnan>
9d007afc:	00000000 	nop

9d007b00 <Dzer>:
9d007b00:	1000ffd9 	b	9d007a68 <D999>
9d007b04:	000b1025 	or	v0,zero,t3

9d007b08 <Doveund>:
9d007b08:	1d000012 	bgtz	t0,9d007b54 <Dinf>
9d007b0c:	00000000 	nop
9d007b10:	240c0001 	li	t4,1
9d007b14:	01886023 	subu	t4,t4,t0
9d007b18:	2d810020 	sltiu	at,t4,32
9d007b1c:	1020fff8 	beqz	at,9d007b00 <Dzer>
9d007b20:	00000000 	nop
9d007b24:	240e0020 	li	t6,32
9d007b28:	01cc7023 	subu	t6,t6,t4
9d007b2c:	01c74004 	sllv	t0,a3,t6
9d007b30:	11000002 	beqz	t0,9d007b3c <i37>
9d007b34:	01873806 	srlv	a3,a3,t4
9d007b38:	34e70002 	ori	a3,a3,0x2

9d007b3c <i37>:
9d007b3c:	24080000 	li	t0,0
9d007b40:	24ee0080 	addiu	t6,a3,128
9d007b44:	05c1ffbd 	bgez	t6,9d007a3c <Dlab8>
9d007b48:	00000000 	nop
9d007b4c:	1000ffbb 	b	9d007a3c <Dlab8>
9d007b50:	24080001 	li	t0,1

9d007b54 <Dinf>:
9d007b54:	3c017f80 	lui	at,0x7f80
9d007b58:	1000ffc3 	b	9d007a68 <D999>
9d007b5c:	01611025 	or	v0,t3,at

9d007b60 <Dnan>:
9d007b60:	1000ffc1 	b	9d007a68 <D999>
9d007b64:	3c02ffc0 	lui	v0,0xffc0
9d007b68:	00000000 	nop

Disassembly of section .text.scale:

9d007b6c <.text.scale>:
9d007b6c:	27bdffd8 	addiu	sp,sp,-40
9d007b70:	afbf0024 	sw	ra,36(sp)
9d007b74:	afb30020 	sw	s3,32(sp)
9d007b78:	afb2001c 	sw	s2,28(sp)
9d007b7c:	afb10018 	sw	s1,24(sp)
9d007b80:	afb00014 	sw	s0,20(sp)
9d007b84:	04800045 	bltz	a0,9d007c9c <Dnan+0x13c>
9d007b88:	00808021 	move	s0,a0
9d007b8c:	2882006e 	slti	v0,a0,110
9d007b90:	1040000f 	beqz	v0,9d007bd0 <Dnan+0x70>
9d007b94:	2882000b 	slti	v0,a0,11
9d007b98:	1040006f 	beqz	v0,9d007d58 <Dnan+0x1f8>
9d007b9c:	3c026666 	lui	v0,0x6666
9d007ba0:	00048080 	sll	s0,a0,0x2
9d007ba4:	3c029d01 	lui	v0,0x9d01
9d007ba8:	2442a0c4 	addiu	v0,v0,-24380
9d007bac:	02028021 	addu	s0,s0,v0
9d007bb0:	8e020000 	lw	v0,0(s0)
9d007bb4:	8fbf0024 	lw	ra,36(sp)
9d007bb8:	8fb30020 	lw	s3,32(sp)
9d007bbc:	8fb2001c 	lw	s2,28(sp)
9d007bc0:	8fb10018 	lw	s1,24(sp)
9d007bc4:	8fb00014 	lw	s0,20(sp)
9d007bc8:	03e00008 	jr	ra
9d007bcc:	27bd0028 	addiu	sp,sp,40
9d007bd0:	3c0351eb 	lui	v1,0x51eb
9d007bd4:	3463851f 	ori	v1,v1,0x851f
9d007bd8:	00830018 	mult	a0,v1
9d007bdc:	00001810 	mfhi	v1
9d007be0:	000497c3 	sra	s2,a0,0x1f
9d007be4:	3c136666 	lui	s3,0x6666
9d007be8:	26736667 	addiu	s3,s3,26215
9d007bec:	3c119d01 	lui	s1,0x9d01
9d007bf0:	2631a0c4 	addiu	s1,s1,-24380
9d007bf4:	8e24004c 	lw	a0,76(s1)
9d007bf8:	00031943 	sra	v1,v1,0x5
9d007bfc:	00721823 	subu	v1,v1,s2
9d007c00:	00031080 	sll	v0,v1,0x2
9d007c04:	00031900 	sll	v1,v1,0x4
9d007c08:	00431021 	addu	v0,v0,v1
9d007c0c:	00021880 	sll	v1,v0,0x2
9d007c10:	00431021 	addu	v0,v0,v1
9d007c14:	02021023 	subu	v0,s0,v0
9d007c18:	7c021420 	seb	v0,v0
9d007c1c:	00530018 	mult	v0,s3
9d007c20:	00001810 	mfhi	v1
9d007c24:	000217c3 	sra	v0,v0,0x1f
9d007c28:	00031883 	sra	v1,v1,0x2
9d007c2c:	00621023 	subu	v0,v1,v0
9d007c30:	7c021420 	seb	v0,v0
9d007c34:	24420009 	addiu	v0,v0,9
9d007c38:	00021080 	sll	v0,v0,0x2
9d007c3c:	00511021 	addu	v0,v0,s1
9d007c40:	0f4020df 	jal	9d00837c <.LFE4>
9d007c44:	8c450000 	lw	a1,0(v0)
9d007c48:	02130018 	mult	s0,s3
9d007c4c:	00009810 	mfhi	s3
9d007c50:	00402021 	move	a0,v0
9d007c54:	00139883 	sra	s3,s3,0x2
9d007c58:	02729023 	subu	s2,s3,s2
9d007c5c:	00121040 	sll	v0,s2,0x1
9d007c60:	001290c0 	sll	s2,s2,0x3
9d007c64:	00529021 	addu	s2,v0,s2
9d007c68:	02128023 	subu	s0,s0,s2
9d007c6c:	7c108420 	seb	s0,s0
9d007c70:	00108080 	sll	s0,s0,0x2
9d007c74:	02118821 	addu	s1,s0,s1
9d007c78:	0f4020df 	jal	9d00837c <.LFE4>
9d007c7c:	8e250000 	lw	a1,0(s1)
9d007c80:	8fbf0024 	lw	ra,36(sp)
9d007c84:	8fb30020 	lw	s3,32(sp)
9d007c88:	8fb2001c 	lw	s2,28(sp)
9d007c8c:	8fb10018 	lw	s1,24(sp)
9d007c90:	8fb00014 	lw	s0,20(sp)
9d007c94:	03e00008 	jr	ra
9d007c98:	27bd0028 	addiu	sp,sp,40
9d007c9c:	00048023 	negu	s0,a0
9d007ca0:	7c108420 	seb	s0,s0
9d007ca4:	2a02006e 	slti	v0,s0,110
9d007ca8:	10400021 	beqz	v0,9d007d30 <Dnan+0x1d0>
9d007cac:	2a02000b 	slti	v0,s0,11
9d007cb0:	54400030 	bnezl	v0,9d007d74 <Dnan+0x214>
9d007cb4:	00108080 	sll	s0,s0,0x2
9d007cb8:	3c026666 	lui	v0,0x6666
9d007cbc:	24426667 	addiu	v0,v0,26215
9d007cc0:	02020018 	mult	s0,v0
9d007cc4:	00001010 	mfhi	v0
9d007cc8:	001027c3 	sra	a0,s0,0x1f
9d007ccc:	3c039d01 	lui	v1,0x9d01
9d007cd0:	2463a0f8 	addiu	v1,v1,-24328
9d007cd4:	00021083 	sra	v0,v0,0x2
9d007cd8:	00441023 	subu	v0,v0,a0
9d007cdc:	00022840 	sll	a1,v0,0x1
9d007ce0:	000220c0 	sll	a0,v0,0x3
9d007ce4:	00a42021 	addu	a0,a1,a0
9d007ce8:	7c021420 	seb	v0,v0
9d007cec:	02048023 	subu	s0,s0,a0
9d007cf0:	24420009 	addiu	v0,v0,9
9d007cf4:	7c108420 	seb	s0,s0
9d007cf8:	00021080 	sll	v0,v0,0x2
9d007cfc:	00108080 	sll	s0,s0,0x2
9d007d00:	00431021 	addu	v0,v0,v1
9d007d04:	02031821 	addu	v1,s0,v1
9d007d08:	8c440000 	lw	a0,0(v0)
9d007d0c:	0f4020df 	jal	9d00837c <.LFE4>
9d007d10:	8c650000 	lw	a1,0(v1)
9d007d14:	8fbf0024 	lw	ra,36(sp)
9d007d18:	8fb30020 	lw	s3,32(sp)
9d007d1c:	8fb2001c 	lw	s2,28(sp)
9d007d20:	8fb10018 	lw	s1,24(sp)
9d007d24:	8fb00014 	lw	s0,20(sp)
9d007d28:	03e00008 	jr	ra
9d007d2c:	27bd0028 	addiu	sp,sp,40
9d007d30:	3c0351eb 	lui	v1,0x51eb
9d007d34:	3463851f 	ori	v1,v1,0x851f
9d007d38:	02030018 	mult	s0,v1
9d007d3c:	00001810 	mfhi	v1
9d007d40:	001097c3 	sra	s2,s0,0x1f
9d007d44:	3c136666 	lui	s3,0x6666
9d007d48:	26736667 	addiu	s3,s3,26215
9d007d4c:	3c119d01 	lui	s1,0x9d01
9d007d50:	0b401efd 	j	9d007bf4 <Dnan+0x94>
9d007d54:	2631a0f8 	addiu	s1,s1,-24328
9d007d58:	24426667 	addiu	v0,v0,26215
9d007d5c:	00820018 	mult	a0,v0
9d007d60:	00001010 	mfhi	v0
9d007d64:	000427c3 	sra	a0,a0,0x1f
9d007d68:	3c039d01 	lui	v1,0x9d01
9d007d6c:	0b401f35 	j	9d007cd4 <Dnan+0x174>
9d007d70:	2463a0c4 	addiu	v1,v1,-24380
9d007d74:	3c029d01 	lui	v0,0x9d01
9d007d78:	2442a0f8 	addiu	v0,v0,-24328
9d007d7c:	02028021 	addu	s0,s0,v0
9d007d80:	0b401eed 	j	9d007bb4 <Dnan+0x54>
9d007d84:	8e020000 	lw	v0,0(s0)
9d007d88:	27bdffd8 	addiu	sp,sp,-40
9d007d8c:	afbf0024 	sw	ra,36(sp)
9d007d90:	afb30020 	sw	s3,32(sp)
9d007d94:	afb2001c 	sw	s2,28(sp)
9d007d98:	afb10018 	sw	s1,24(sp)
9d007d9c:	afb00014 	sw	s0,20(sp)
9d007da0:	04800045 	bltz	a0,9d007eb8 <Dnan+0x358>
9d007da4:	00808021 	move	s0,a0
9d007da8:	2882006e 	slti	v0,a0,110
9d007dac:	1040000f 	beqz	v0,9d007dec <Dnan+0x28c>
9d007db0:	2882000b 	slti	v0,a0,11
9d007db4:	1040006f 	beqz	v0,9d007f74 <Dnan+0x414>
9d007db8:	3c026666 	lui	v0,0x6666
9d007dbc:	00048080 	sll	s0,a0,0x2
9d007dc0:	3c029d01 	lui	v0,0x9d01
9d007dc4:	2442a0c4 	addiu	v0,v0,-24380
9d007dc8:	02028021 	addu	s0,s0,v0
9d007dcc:	8e020000 	lw	v0,0(s0)
9d007dd0:	8fbf0024 	lw	ra,36(sp)
9d007dd4:	8fb30020 	lw	s3,32(sp)
9d007dd8:	8fb2001c 	lw	s2,28(sp)
9d007ddc:	8fb10018 	lw	s1,24(sp)
9d007de0:	8fb00014 	lw	s0,20(sp)
9d007de4:	03e00008 	jr	ra
9d007de8:	27bd0028 	addiu	sp,sp,40
9d007dec:	3c0351eb 	lui	v1,0x51eb
9d007df0:	3463851f 	ori	v1,v1,0x851f
9d007df4:	00830018 	mult	a0,v1
9d007df8:	00001810 	mfhi	v1
9d007dfc:	000497c3 	sra	s2,a0,0x1f
9d007e00:	3c136666 	lui	s3,0x6666
9d007e04:	26736667 	addiu	s3,s3,26215
9d007e08:	3c119d01 	lui	s1,0x9d01
9d007e0c:	2631a0c4 	addiu	s1,s1,-24380
9d007e10:	8e24004c 	lw	a0,76(s1)
9d007e14:	00031943 	sra	v1,v1,0x5
9d007e18:	00721823 	subu	v1,v1,s2
9d007e1c:	00031080 	sll	v0,v1,0x2
9d007e20:	00031900 	sll	v1,v1,0x4
9d007e24:	00431021 	addu	v0,v0,v1
9d007e28:	00021880 	sll	v1,v0,0x2
9d007e2c:	00431021 	addu	v0,v0,v1
9d007e30:	02021023 	subu	v0,s0,v0
9d007e34:	7c021420 	seb	v0,v0
9d007e38:	00530018 	mult	v0,s3
9d007e3c:	00001810 	mfhi	v1
9d007e40:	000217c3 	sra	v0,v0,0x1f
9d007e44:	00031883 	sra	v1,v1,0x2
9d007e48:	00621023 	subu	v0,v1,v0
9d007e4c:	7c021420 	seb	v0,v0
9d007e50:	24420009 	addiu	v0,v0,9
9d007e54:	00021080 	sll	v0,v0,0x2
9d007e58:	00511021 	addu	v0,v0,s1
9d007e5c:	0f4020df 	jal	9d00837c <.LFE4>
9d007e60:	8c450000 	lw	a1,0(v0)
9d007e64:	02130018 	mult	s0,s3
9d007e68:	00009810 	mfhi	s3
9d007e6c:	00402021 	move	a0,v0
9d007e70:	00139883 	sra	s3,s3,0x2
9d007e74:	02729023 	subu	s2,s3,s2
9d007e78:	00121040 	sll	v0,s2,0x1
9d007e7c:	001290c0 	sll	s2,s2,0x3
9d007e80:	00529021 	addu	s2,v0,s2
9d007e84:	02128023 	subu	s0,s0,s2
9d007e88:	7c108420 	seb	s0,s0
9d007e8c:	00108080 	sll	s0,s0,0x2
9d007e90:	02118821 	addu	s1,s0,s1
9d007e94:	0f4020df 	jal	9d00837c <.LFE4>
9d007e98:	8e250000 	lw	a1,0(s1)
9d007e9c:	8fbf0024 	lw	ra,36(sp)
9d007ea0:	8fb30020 	lw	s3,32(sp)
9d007ea4:	8fb2001c 	lw	s2,28(sp)
9d007ea8:	8fb10018 	lw	s1,24(sp)
9d007eac:	8fb00014 	lw	s0,20(sp)
9d007eb0:	03e00008 	jr	ra
9d007eb4:	27bd0028 	addiu	sp,sp,40
9d007eb8:	00048023 	negu	s0,a0
9d007ebc:	7c108420 	seb	s0,s0
9d007ec0:	2a02006e 	slti	v0,s0,110
9d007ec4:	10400021 	beqz	v0,9d007f4c <Dnan+0x3ec>
9d007ec8:	2a02000b 	slti	v0,s0,11
9d007ecc:	54400030 	bnezl	v0,9d007f90 <Dnan+0x430>
9d007ed0:	00108080 	sll	s0,s0,0x2
9d007ed4:	3c026666 	lui	v0,0x6666
9d007ed8:	24426667 	addiu	v0,v0,26215
9d007edc:	02020018 	mult	s0,v0
9d007ee0:	00001010 	mfhi	v0
9d007ee4:	001027c3 	sra	a0,s0,0x1f
9d007ee8:	3c039d01 	lui	v1,0x9d01
9d007eec:	2463a0f8 	addiu	v1,v1,-24328
9d007ef0:	00021083 	sra	v0,v0,0x2
9d007ef4:	00441023 	subu	v0,v0,a0
9d007ef8:	00022840 	sll	a1,v0,0x1
9d007efc:	000220c0 	sll	a0,v0,0x3
9d007f00:	00a42021 	addu	a0,a1,a0
9d007f04:	7c021420 	seb	v0,v0
9d007f08:	02048023 	subu	s0,s0,a0
9d007f0c:	24420009 	addiu	v0,v0,9
9d007f10:	7c108420 	seb	s0,s0
9d007f14:	00021080 	sll	v0,v0,0x2
9d007f18:	00108080 	sll	s0,s0,0x2
9d007f1c:	00431021 	addu	v0,v0,v1
9d007f20:	02031821 	addu	v1,s0,v1
9d007f24:	8c440000 	lw	a0,0(v0)
9d007f28:	0f4020df 	jal	9d00837c <.LFE4>
9d007f2c:	8c650000 	lw	a1,0(v1)
9d007f30:	8fbf0024 	lw	ra,36(sp)
9d007f34:	8fb30020 	lw	s3,32(sp)
9d007f38:	8fb2001c 	lw	s2,28(sp)
9d007f3c:	8fb10018 	lw	s1,24(sp)
9d007f40:	8fb00014 	lw	s0,20(sp)
9d007f44:	03e00008 	jr	ra
9d007f48:	27bd0028 	addiu	sp,sp,40
9d007f4c:	3c0351eb 	lui	v1,0x51eb
9d007f50:	3463851f 	ori	v1,v1,0x851f
9d007f54:	02030018 	mult	s0,v1
9d007f58:	00001810 	mfhi	v1
9d007f5c:	001097c3 	sra	s2,s0,0x1f
9d007f60:	3c136666 	lui	s3,0x6666
9d007f64:	26736667 	addiu	s3,s3,26215
9d007f68:	3c119d01 	lui	s1,0x9d01
9d007f6c:	0b401f84 	j	9d007e10 <Dnan+0x2b0>
9d007f70:	2631a0f8 	addiu	s1,s1,-24328
9d007f74:	24426667 	addiu	v0,v0,26215
9d007f78:	00820018 	mult	a0,v0
9d007f7c:	00001010 	mfhi	v0
9d007f80:	000427c3 	sra	a0,a0,0x1f
9d007f84:	3c039d01 	lui	v1,0x9d01
9d007f88:	0b401fbc 	j	9d007ef0 <Dnan+0x390>
9d007f8c:	2463a0c4 	addiu	v1,v1,-24380
9d007f90:	3c029d01 	lui	v0,0x9d01
9d007f94:	2442a0f8 	addiu	v0,v0,-24328
9d007f98:	02028021 	addu	s0,s0,v0
9d007f9c:	0b401f74 	j	9d007dd0 <Dnan+0x270>
9d007fa0:	8e020000 	lw	v0,0(s0)

Disassembly of section .text.__floatdisf:

9d007fa4 <__floatdisf>:
9d007fa4:	00851825 	or	v1,a0,a1
9d007fa8:	10600045 	beqz	v1,9d0080c0 <__floatdisf+0x11c>
9d007fac:	00001021 	move	v0,zero
9d007fb0:	24020001 	li	v0,1
9d007fb4:	10820044 	beq	a0,v0,9d0080c8 <__floatdisf+0x124>
9d007fb8:	00053fc2 	srl	a3,a1,0x1f
9d007fbc:	2402ffff 	li	v0,-1
9d007fc0:	10820062 	beq	a0,v0,9d00814c <__floatdisf+0x1a8>
9d007fc4:	2402000a 	li	v0,10
9d007fc8:	10820064 	beq	a0,v0,9d00815c <__floatdisf+0x1b8>
9d007fcc:	2402fff6 	li	v0,-10
9d007fd0:	10820057 	beq	a0,v0,9d008130 <__floatdisf+0x18c>
9d007fd4:	2402ffff 	li	v0,-1
9d007fd8:	10e00008 	beqz	a3,9d007ffc <__floatdisf+0x58>
9d007fdc:	00051940 	sll	v1,a1,0x5
9d007fe0:	1080003f 	beqz	a0,9d0080e0 <__floatdisf+0x13c>
9d007fe4:	3c028000 	lui	v0,0x8000
9d007fe8:	00042023 	negu	a0,a0
9d007fec:	0004102b 	sltu	v0,zero,a0
9d007ff0:	00052823 	negu	a1,a1
9d007ff4:	00a22823 	subu	a1,a1,v0
9d007ff8:	00051940 	sll	v1,a1,0x5
9d007ffc:	000416c2 	srl	v0,a0,0x1b
9d008000:	00621025 	or	v0,v1,v0
9d008004:	00051ec2 	srl	v1,a1,0x1b
9d008008:	00431025 	or	v0,v0,v1
9d00800c:	14400038 	bnez	v0,9d0080f0 <__floatdisf+0x14c>
9d008010:	00051980 	sll	v1,a1,0x6
9d008014:	00041682 	srl	v0,a0,0x1a
9d008018:	00621025 	or	v0,v1,v0
9d00801c:	00051e82 	srl	v1,a1,0x1a
9d008020:	00431825 	or	v1,v0,v1
9d008024:	14600051 	bnez	v1,9d00816c <__floatdisf+0x1c8>
9d008028:	2402001a 	li	v0,26
9d00802c:	00041fc2 	srl	v1,a0,0x1f
9d008030:	00052840 	sll	a1,a1,0x1
9d008034:	00652825 	or	a1,v1,a1
9d008038:	00042040 	sll	a0,a0,0x1
9d00803c:	00053180 	sll	a2,a1,0x6
9d008040:	00041e82 	srl	v1,a0,0x1a
9d008044:	00c31825 	or	v1,a2,v1
9d008048:	00053682 	srl	a2,a1,0x1a
9d00804c:	00661825 	or	v1,v1,a2
9d008050:	1060fff6 	beqz	v1,9d00802c <__floatdisf+0x88>
9d008054:	2442ffff 	addiu	v0,v0,-1
9d008058:	2443007f 	addiu	v1,v0,127
9d00805c:	58600049 	blezl	v1,9d008184 <__floatdisf+0x1e0>
9d008060:	2403ff82 	li	v1,-126
9d008064:	30820007 	andi	v0,a0,0x7
9d008068:	1040000a 	beqz	v0,9d008094 <__floatdisf+0xf0>
9d00806c:	286200ff 	slti	v0,v1,255
9d008070:	7c8500c0 	ext	a1,a0,0x3,0x1
9d008074:	24840003 	addiu	a0,a0,3
9d008078:	00852021 	addu	a0,a0,a1
9d00807c:	000416c2 	srl	v0,a0,0x1b
9d008080:	10400004 	beqz	v0,9d008094 <__floatdisf+0xf0>
9d008084:	286200ff 	slti	v0,v1,255
9d008088:	00042042 	srl	a0,a0,0x1
9d00808c:	24630001 	addiu	v1,v1,1
9d008090:	286200ff 	slti	v0,v1,255
9d008094:	10400037 	beqz	v0,9d008174 <__floatdisf+0x1d0>
9d008098:	000420c2 	srl	a0,a0,0x3
9d00809c:	7c8205c0 	ext	v0,a0,0x17,0x1
9d0080a0:	50400002 	beqzl	v0,9d0080ac <__floatdisf+0x108>
9d0080a4:	00001821 	move	v1,zero
9d0080a8:	7c84b000 	ext	a0,a0,0x0,0x17
9d0080ac:	00071200 	sll	v0,a3,0x8
9d0080b0:	00621025 	or	v0,v1,v0
9d0080b4:	000215c0 	sll	v0,v0,0x17
9d0080b8:	03e00008 	jr	ra
9d0080bc:	00441025 	or	v0,v0,a0
9d0080c0:	03e00008 	jr	ra
9d0080c4:	00000000 	nop
9d0080c8:	54a0ffbd 	bnezl	a1,9d007fc0 <__floatdisf+0x1c>
9d0080cc:	2402ffff 	li	v0,-1
9d0080d0:	00071200 	sll	v0,a3,0x8
9d0080d4:	3442007f 	ori	v0,v0,0x7f
9d0080d8:	03e00008 	jr	ra
9d0080dc:	000215c0 	sll	v0,v0,0x17
9d0080e0:	14a2ffc2 	bne	a1,v0,9d007fec <__floatdisf+0x48>
9d0080e4:	00042023 	negu	a0,a0
9d0080e8:	00002021 	move	a0,zero
9d0080ec:	3c058000 	lui	a1,0x8000
9d0080f0:	2402001a 	li	v0,26
9d0080f4:	000537c0 	sll	a2,a1,0x1f
9d0080f8:	00041842 	srl	v1,a0,0x1
9d0080fc:	00c31825 	or	v1,a2,v1
9d008100:	30840001 	andi	a0,a0,0x1
9d008104:	00052842 	srl	a1,a1,0x1
9d008108:	00832025 	or	a0,a0,v1
9d00810c:	00053140 	sll	a2,a1,0x5
9d008110:	00041ec2 	srl	v1,a0,0x1b
9d008114:	00c31825 	or	v1,a2,v1
9d008118:	000536c2 	srl	a2,a1,0x1b
9d00811c:	00661825 	or	v1,v1,a2
9d008120:	1460fff4 	bnez	v1,9d0080f4 <__floatdisf+0x150>
9d008124:	24420001 	addiu	v0,v0,1
9d008128:	0b402017 	j	9d00805c <__floatdisf+0xb8>
9d00812c:	2443007f 	addiu	v1,v0,127
9d008130:	14a2ffa9 	bne	a1,v0,9d007fd8 <__floatdisf+0x34>
9d008134:	00071200 	sll	v0,a3,0x8
9d008138:	34420082 	ori	v0,v0,0x82
9d00813c:	000215c0 	sll	v0,v0,0x17
9d008140:	3c030020 	lui	v1,0x20
9d008144:	03e00008 	jr	ra
9d008148:	00431025 	or	v0,v0,v1
9d00814c:	54a4ff9e 	bnel	a1,a0,9d007fc8 <__floatdisf+0x24>
9d008150:	2402000a 	li	v0,10
9d008154:	0b402035 	j	9d0080d4 <__floatdisf+0x130>
9d008158:	00071200 	sll	v0,a3,0x8
9d00815c:	54a0ff9c 	bnezl	a1,9d007fd0 <__floatdisf+0x2c>
9d008160:	2402fff6 	li	v0,-10
9d008164:	0b40204e 	j	9d008138 <__floatdisf+0x194>
9d008168:	00071200 	sll	v0,a3,0x8
9d00816c:	0b402019 	j	9d008064 <__floatdisf+0xc0>
9d008170:	24030099 	li	v1,153
9d008174:	00071200 	sll	v0,a3,0x8
9d008178:	344200ff 	ori	v0,v0,0xff
9d00817c:	03e00008 	jr	ra
9d008180:	000215c0 	sll	v0,v0,0x17
9d008184:	00621823 	subu	v1,v1,v0
9d008188:	2865001b 	slti	a1,v1,27
9d00818c:	50a00008 	beqzl	a1,9d0081b0 <__floatdisf+0x20c>
9d008190:	00002021 	move	a0,zero
9d008194:	2442009e 	addiu	v0,v0,158
9d008198:	00441004 	sllv	v0,a0,v0
9d00819c:	00642006 	srlv	a0,a0,v1
9d0081a0:	0002102b 	sltu	v0,zero,v0
9d0081a4:	00442025 	or	a0,v0,a0
9d0081a8:	0b402019 	j	9d008064 <__floatdisf+0xc0>
9d0081ac:	24030001 	li	v1,1
9d0081b0:	0b40202b 	j	9d0080ac <__floatdisf+0x108>
9d0081b4:	00001821 	move	v1,zero

Disassembly of section .text:

9d0081b8 <NU32_Startup>:

// Perform startup routines:
//  Make NU32_LED1 and NU32_LED2 pins outputs (NU32_USER is by default an input)
//  Initialize the serial port - UART3 (no interrupt) 
//  Enable interrupts
void NU32_Startup() {
9d0081b8:	27bdfff8 	addiu	sp,sp,-8
9d0081bc:	afbf0004 	sw	ra,4(sp)
  // disable interrupts
  __builtin_disable_interrupts();
9d0081c0:	41626000 	di	v0
9d0081c4:	000000c0 	ehb
  // see Chapter 2 "CPU for Devices with M4K Core" of the PIC32 reference manual
  // most of the other bits have prescribed values
  // microchip does not provide a _CP0_SET_CONFIG macro, so we directly use
  // the compiler built-in command _mtc0
  // to disable cache, use 0xa4210582 
  __builtin_mtc0(_CP0_CONFIG, _CP0_CONFIG_SELECT, 0xa4210583); 
9d0081c8:	3c02a421 	lui	v0,0xa421
9d0081cc:	24420583 	addiu	v0,v0,1411
9d0081d0:	40828000 	mtc0	v0,c0_config
9d0081d4:	000000c0 	ehb
  
  // set the prefectch cache wait state to 2, as per the
  // electrical characteristics data sheet
  CHECONbits.PFMWS = 0x2;   
9d0081d8:	3c02bf88 	lui	v0,0xbf88
9d0081dc:	8c434000 	lw	v1,16384(v0)
9d0081e0:	24050002 	li	a1,2
9d0081e4:	7ca31004 	ins	v1,a1,0x0,0x3
9d0081e8:	ac434000 	sw	v1,16384(v0)

  //enable prefetch for cacheable and noncacheable memory
  CHECONbits.PREFEN = 0x3; 
9d0081ec:	8c434000 	lw	v1,16384(v0)
9d0081f0:	24040003 	li	a0,3
9d0081f4:	7c832904 	ins	v1,a0,0x4,0x2
9d0081f8:	ac434000 	sw	v1,16384(v0)

  // 0 data RAM access wait states
  BMXCONbits.BMXWSDRM = 0x0;
9d0081fc:	3c02bf88 	lui	v0,0xbf88
9d008200:	8c432000 	lw	v1,8192(v0)
9d008204:	7c033184 	ins	v1,zero,0x6,0x1
9d008208:	ac432000 	sw	v1,8192(v0)
  
  // enable multi vector interrupts
  INTCONbits.MVEC = 0x1;
9d00820c:	3c02bf88 	lui	v0,0xbf88
9d008210:	8c461000 	lw	a2,4096(v0)
9d008214:	24030001 	li	v1,1
9d008218:	7c666304 	ins	a2,v1,0xc,0x1
9d00821c:	ac461000 	sw	a2,4096(v0)

  // disable JTAG to get B10, B11, B12 and B13 back
  DDPCONbits.JTAGEN = 0;
9d008220:	3c02bf81 	lui	v0,0xbf81
9d008224:	9046f200 	lbu	a2,-3584(v0)
9d008228:	7c0618c4 	ins	a2,zero,0x3,0x1
9d00822c:	a046f200 	sb	a2,-3584(v0)

  TRISFCLR = 0x0003;  // Make F0 and F1 outputs (LED1 and LED2)
9d008230:	3c02bf88 	lui	v0,0xbf88
9d008234:	ac446144 	sw	a0,24900(v0)
  NU32_LED1 = 1;      // LED1 is off
9d008238:	3c02bf88 	lui	v0,0xbf88
9d00823c:	90446160 	lbu	a0,24928(v0)
9d008240:	7c640004 	ins	a0,v1,0x0,0x1
9d008244:	a0446160 	sb	a0,24928(v0)
  NU32_LED2 = 0;      // LED2 is on
9d008248:	90446160 	lbu	a0,24928(v0)
9d00824c:	7c040844 	ins	a0,zero,0x1,0x1
9d008250:	a0446160 	sb	a0,24928(v0)

  // turn on UART3 without an interrupt
  U3MODEbits.BRGH = 0; // set baud to NU32_DESIRED_BAUD
9d008254:	3c02bf80 	lui	v0,0xbf80
9d008258:	94446400 	lhu	a0,25600(v0)
9d00825c:	7c0418c4 	ins	a0,zero,0x3,0x1
9d008260:	a4446400 	sh	a0,25600(v0)
  U3BRG = ((NU32_SYS_FREQ / NU32_DESIRED_BAUD) / 16) - 1;
9d008264:	24060014 	li	a2,20
9d008268:	3c04bf80 	lui	a0,0xbf80
9d00826c:	ac866440 	sw	a2,25664(a0)

  // 8 bit, no parity bit, and 1 stop bit (8N1 setup)
  U3MODEbits.PDSEL = 0;
9d008270:	94446400 	lhu	a0,25600(v0)
9d008274:	7c041044 	ins	a0,zero,0x1,0x2
9d008278:	a4446400 	sh	a0,25600(v0)
  U3MODEbits.STSEL = 0;
9d00827c:	94446400 	lhu	a0,25600(v0)
9d008280:	7c040004 	ins	a0,zero,0x0,0x1
9d008284:	a4446400 	sh	a0,25600(v0)

  // configure TX & RX pins as output & input pins
  U3STAbits.UTXEN = 1;
9d008288:	3c04bf80 	lui	a0,0xbf80
9d00828c:	8c866410 	lw	a2,25616(a0)
9d008290:	7c665284 	ins	a2,v1,0xa,0x1
9d008294:	ac866410 	sw	a2,25616(a0)
  U3STAbits.URXEN = 1;
9d008298:	8c866410 	lw	a2,25616(a0)
9d00829c:	7c666304 	ins	a2,v1,0xc,0x1
9d0082a0:	ac866410 	sw	a2,25616(a0)
  // configure hardware flow control using RTS and CTS
  U3MODEbits.UEN = 2;
9d0082a4:	94446400 	lhu	a0,25600(v0)
9d0082a8:	7ca44a04 	ins	a0,a1,0x8,0x2
9d0082ac:	a4446400 	sh	a0,25600(v0)

  // enable the uart
  U3MODEbits.ON = 1;
9d0082b0:	94446400 	lhu	a0,25600(v0)
9d0082b4:	7c647bc4 	ins	a0,v1,0xf,0x1
9d0082b8:	a4446400 	sh	a0,25600(v0)

  __builtin_enable_interrupts();
9d0082bc:	41626020 	ei	v0
}
9d0082c0:	8fbf0004 	lw	ra,4(sp)
9d0082c4:	03e00008 	jr	ra
9d0082c8:	27bd0008 	addiu	sp,sp,8

9d0082cc <NU32_ReadUART3>:
// Read from UART3
// block other functions until you get a '\r' or '\n'
// send the pointer to your char array and the number of elements in the array
void NU32_ReadUART3(char * message, int maxLength) {
  char data = 0;
  int complete = 0, num_bytes = 0;
9d0082cc:	00003021 	move	a2,zero
  // loop until you get a '\r' or '\n'
  while (!complete) {
    if (U3STAbits.URXDA) { // if data is available
9d0082d0:	3c03bf80 	lui	v1,0xbf80
      data = U3RXREG;      // read the data
9d0082d4:	3c08bf80 	lui	t0,0xbf80
      if ((data == '\n') || (data == '\r')) {
9d0082d8:	2407000a 	li	a3,10
9d0082dc:	0b4020c7 	j	9d00831c <NU32_ReadUART3+0x50>
9d0082e0:	2409000d 	li	t1,13
void NU32_ReadUART3(char * message, int maxLength) {
  char data = 0;
  int complete = 0, num_bytes = 0;
  // loop until you get a '\r' or '\n'
  while (!complete) {
    if (U3STAbits.URXDA) { // if data is available
9d0082e4:	8c626410 	lw	v0,25616(v1)
9d0082e8:	30420001 	andi	v0,v0,0x1
9d0082ec:	1040fffd 	beqz	v0,9d0082e4 <NU32_ReadUART3+0x18>
9d0082f0:	00000000 	nop
      data = U3RXREG;      // read the data
9d0082f4:	8d026430 	lw	v0,25648(t0)
9d0082f8:	7c021420 	seb	v0,v0
      if ((data == '\n') || (data == '\r')) {
9d0082fc:	5047000e 	beql	v0,a3,9d008338 <NU32_ReadUART3+0x6c>
9d008300:	00862021 	addu	a0,a0,a2
9d008304:	1049000b 	beq	v0,t1,9d008334 <NU32_ReadUART3+0x68>
9d008308:	00865021 	addu	t2,a0,a2
        complete = 1;
      } else {
        message[num_bytes] = data;
9d00830c:	a1420000 	sb	v0,0(t2)
        ++num_bytes;
9d008310:	24c60001 	addiu	a2,a2,1
        // roll over if the array is too small
        if (num_bytes >= maxLength) {
9d008314:	00c5102a 	slt	v0,a2,a1
          num_bytes = 0;
9d008318:	0002300a 	movz	a2,zero,v0
void NU32_ReadUART3(char * message, int maxLength) {
  char data = 0;
  int complete = 0, num_bytes = 0;
  // loop until you get a '\r' or '\n'
  while (!complete) {
    if (U3STAbits.URXDA) { // if data is available
9d00831c:	8c626410 	lw	v0,25616(v1)
9d008320:	30420001 	andi	v0,v0,0x1
9d008324:	1040ffef 	beqz	v0,9d0082e4 <NU32_ReadUART3+0x18>
9d008328:	00000000 	nop
9d00832c:	0b4020bd 	j	9d0082f4 <NU32_ReadUART3+0x28>
9d008330:	00000000 	nop
        }
      }
    }
  }
  // end the string
  message[num_bytes] = '\0';
9d008334:	00862021 	addu	a0,a0,a2
9d008338:	03e00008 	jr	ra
9d00833c:	a0800000 	sb	zero,0(a0)

9d008340 <NU32_WriteUART3>:
}

// Write a character array using UART3
void NU32_WriteUART3(const char * string) {
  while (*string != '\0') {
9d008340:	80850000 	lb	a1,0(a0)
9d008344:	10a0000b 	beqz	a1,9d008374 <NU32_WriteUART3+0x34>
9d008348:	3c03bf80 	lui	v1,0xbf80
    while (U3STAbits.UTXBF) {
      ; // wait until tx buffer isn't full
    }
    U3TXREG = *string;
9d00834c:	3c06bf80 	lui	a2,0xbf80
}

// Write a character array using UART3
void NU32_WriteUART3(const char * string) {
  while (*string != '\0') {
    while (U3STAbits.UTXBF) {
9d008350:	8c626410 	lw	v0,25616(v1)
9d008354:	30420200 	andi	v0,v0,0x200
9d008358:	1440fffd 	bnez	v0,9d008350 <NU32_WriteUART3+0x10>
9d00835c:	00000000 	nop
      ; // wait until tx buffer isn't full
    }
    U3TXREG = *string;
9d008360:	acc56420 	sw	a1,25632(a2)
    ++string;
9d008364:	24840001 	addiu	a0,a0,1
  message[num_bytes] = '\0';
}

// Write a character array using UART3
void NU32_WriteUART3(const char * string) {
  while (*string != '\0') {
9d008368:	80850000 	lb	a1,0(a0)
9d00836c:	14a0fff8 	bnez	a1,9d008350 <NU32_WriteUART3+0x10>
9d008370:	00000000 	nop
9d008374:	03e00008 	jr	ra
9d008378:	00000000 	nop

Disassembly of section .text.fp32mul:

9d00837c <__mulsf3>:
9d00837c:	00043dc2 30e700ff 00054dc2 312900ff     .=.....0.M....)1
9d00838c:	3c0a8000 00043200 00ca3025 00054200     ...<.2..%0...B..
9d00839c:	010a4025 00856026 014c5024 24ecffff     %@..&`..$PL....$
9d0083ac:	2d8100fe 10200021 00000000              ...-!. .....

9d0083b8 <Clab1>:
9d0083b8:	252cffff 	addiu	t4,t1,-1
9d0083bc:	2d8100fe 	sltiu	at,t4,254
9d0083c0:	10200036 	beqz	at,9d00849c <CspecB>
9d0083c4:	00000000 	nop

9d0083c8 <Clab2>:
9d0083c8:	00c80019 	multu	a2,t0
9d0083cc:	00005812 	mflo	t3
9d0083d0:	11600002 	beqz	t3,9d0083dc <i17>
9d0083d4:	00003010 	mfhi	a2
9d0083d8:	34c60001 	ori	a2,a2,0x1

9d0083dc <i17>:
9d0083dc:	04c00003 	bltz	a2,9d0083ec <i18>
9d0083e0:	00000000 	nop
9d0083e4:	00063040 	sll	a2,a2,0x1
9d0083e8:	24e7ffff 	addiu	a3,a3,-1

9d0083ec <i18>:
9d0083ec:	252cff82 	addiu	t4,t1,-126
9d0083f0:	00ec3821 	addu	a3,a3,t4
9d0083f4:	24ecffff 	addiu	t4,a3,-1
9d0083f8:	2d8100fe 	sltiu	at,t4,254
9d0083fc:	1020003a 	beqz	at,9d0084e8 <Coveund>
9d008400:	00000000 	nop

9d008404 <Clab8>:
9d008404:	24c60080 	addiu	a2,a2,128
9d008408:	2ccc0080 	sltiu	t4,a2,128
9d00840c:	00ec3821 	addu	a3,a3,t4
9d008410:	00066202 	srl	t4,a2,0x8
9d008414:	318c0001 	andi	t4,t4,0x1
9d008418:	00cc3023 	subu	a2,a2,t4
9d00841c:	00063040 	sll	a2,a2,0x1
9d008420:	00063242 	srl	a2,a2,0x9
9d008424:	000765c0 	sll	t4,a3,0x17
9d008428:	00cc3025 	or	a2,a2,t4
9d00842c:	00ca1025 	or	v0,a2,t2

9d008430 <C999>:
9d008430:	03e00008 	jr	ra
9d008434:	00000000 	nop

9d008438 <CspecA>:
9d008438:	14e0000d 	bnez	a3,9d008470 <i19>
9d00843c:	00000000 	nop
9d008440:	00c63021 	addu	a2,a2,a2
9d008444:	10c00005 	beqz	a2,9d00845c <i20>
9d008448:	00000000 	nop
9d00844c:	70cb5820 	clz	t3,a2
9d008450:	00eb3823 	subu	a3,a3,t3
9d008454:	1000ffd8 	b	9d0083b8 <Clab1>
9d008458:	01663004 	sllv	a2,a2,t3

9d00845c <i20>:
9d00845c:	240100ff 	li	at,255
9d008460:	1121001f 	beq	t1,at,9d0084e0 <Cnan>
9d008464:	00000000 	nop
9d008468:	10000015 	b	9d0084c0 <Czer>
9d00846c:	00000000 	nop

9d008470 <i19>:
9d008470:	00c66021 	addu	t4,a2,a2
9d008474:	1580001a 	bnez	t4,9d0084e0 <Cnan>
9d008478:	00000000 	nop
9d00847c:	15200004 	bnez	t1,9d008490 <i21>
9d008480:	00000000 	nop
9d008484:	01086021 	addu	t4,t0,t0
9d008488:	11800015 	beqz	t4,9d0084e0 <Cnan>
9d00848c:	00000000 	nop

9d008490 <i21>:
9d008490:	240100ff 	li	at,255
9d008494:	1521000f 	bne	t1,at,9d0084d4 <Cinf>
9d008498:	00000000 	nop

9d00849c <CspecB>:
9d00849c:	1520000a 	bnez	t1,9d0084c8 <i22>
9d0084a0:	00000000 	nop
9d0084a4:	01084021 	addu	t0,t0,t0
9d0084a8:	11000005 	beqz	t0,9d0084c0 <Czer>
9d0084ac:	00000000 	nop
9d0084b0:	710b5820 	clz	t3,t0
9d0084b4:	012b4823 	subu	t1,t1,t3
9d0084b8:	1000ffc3 	b	9d0083c8 <Clab2>
9d0084bc:	01684004 	sllv	t0,t0,t3

9d0084c0 <Czer>:
9d0084c0:	1000ffdb 	b	9d008430 <C999>
9d0084c4:	000a1025 	or	v0,zero,t2

9d0084c8 <i22>:
9d0084c8:	01086021 	addu	t4,t0,t0
9d0084cc:	15800004 	bnez	t4,9d0084e0 <Cnan>
9d0084d0:	00000000 	nop

9d0084d4 <Cinf>:
9d0084d4:	3c017f80 	lui	at,0x7f80
9d0084d8:	1000ffd5 	b	9d008430 <C999>
9d0084dc:	01411025 	or	v0,t2,at

9d0084e0 <Cnan>:
9d0084e0:	1000ffd3 	b	9d008430 <C999>
9d0084e4:	3c02ffc0 	lui	v0,0xffc0

9d0084e8 <Coveund>:
9d0084e8:	1ce0fffa 	bgtz	a3,9d0084d4 <Cinf>
9d0084ec:	00000000 	nop
9d0084f0:	240b0001 	li	t3,1
9d0084f4:	01675823 	subu	t3,t3,a3
9d0084f8:	2d610020 	sltiu	at,t3,32
9d0084fc:	1020fff0 	beqz	at,9d0084c0 <Czer>
9d008500:	00000000 	nop
9d008504:	240c0020 	li	t4,32
9d008508:	018b6023 	subu	t4,t4,t3
9d00850c:	01863804 	sllv	a3,a2,t4
9d008510:	10e00002 	beqz	a3,9d00851c <i25>
9d008514:	01663006 	srlv	a2,a2,t3
9d008518:	34c60002 	ori	a2,a2,0x2

9d00851c <i25>:
9d00851c:	24070000 	li	a3,0
9d008520:	24cc0080 	addiu	t4,a2,128
9d008524:	0581ffb7 	bgez	t4,9d008404 <Clab8>
9d008528:	00000000 	nop
9d00852c:	1000ffb5 	b	9d008404 <Clab8>
9d008530:	24070001 	li	a3,1
9d008534:	00000000 	nop

Disassembly of section .text.__ldexp:

9d008538 <__ldexp>:
9d008538:	27bdffe0 	addiu	sp,sp,-32
9d00853c:	afbf001c 	sw	ra,28(sp)
9d008540:	afb20018 	sw	s2,24(sp)
9d008544:	afb10014 	sw	s1,20(sp)
9d008548:	afb00010 	sw	s0,16(sp)
9d00854c:	7ca75500 	ext	a3,a1,0x14,0xb
9d008550:	24e2ffff 	addiu	v0,a3,-1
9d008554:	7ca89800 	ext	t0,a1,0x0,0x14
9d008558:	2c4907fe 	sltiu	t1,v0,2046
9d00855c:	00c08821 	move	s1,a2
9d008560:	000587c2 	srl	s0,a1,0x1f
9d008564:	00801021 	move	v0,a0
9d008568:	11200041 	beqz	t1,9d008670 <__ldexp+0x138>
9d00856c:	01001821 	move	v1,t0
9d008570:	24e7fc01 	addiu	a3,a3,-1023
9d008574:	3c040010 	lui	a0,0x10
9d008578:	01041825 	or	v1,t0,a0
9d00857c:	00f13821 	addu	a3,a3,s1
9d008580:	00022f42 	srl	a1,v0,0x1d
9d008584:	000318c0 	sll	v1,v1,0x3
9d008588:	24e403ff 	addiu	a0,a3,1023
9d00858c:	00a31825 	or	v1,a1,v1
9d008590:	18800025 	blez	a0,9d008628 <__ldexp+0xf0>
9d008594:	000210c0 	sll	v0,v0,0x3
9d008598:	30450007 	andi	a1,v0,0x7
9d00859c:	14a00015 	bnez	a1,9d0085f4 <__ldexp+0xbc>
9d0085a0:	7c4500c0 	ext	a1,v0,0x3,0x1
9d0085a4:	00033740 	sll	a2,v1,0x1d
9d0085a8:	000210c2 	srl	v0,v0,0x3
9d0085ac:	288507ff 	slti	a1,a0,2047
9d0085b0:	00c21025 	or	v0,a2,v0
9d0085b4:	10a00036 	beqz	a1,9d008690 <__ldexp+0x158>
9d0085b8:	000318c2 	srl	v1,v1,0x3
9d0085bc:	7c650500 	ext	a1,v1,0x14,0x1
9d0085c0:	50a00002 	beqzl	a1,9d0085cc <__ldexp+0x94>
9d0085c4:	00002021 	move	a0,zero
9d0085c8:	7c639800 	ext	v1,v1,0x0,0x14
9d0085cc:	001082c0 	sll	s0,s0,0xb
9d0085d0:	00902025 	or	a0,a0,s0
9d0085d4:	00042500 	sll	a0,a0,0x14
9d0085d8:	00831825 	or	v1,a0,v1
9d0085dc:	8fbf001c 	lw	ra,28(sp)
9d0085e0:	8fb20018 	lw	s2,24(sp)
9d0085e4:	8fb10014 	lw	s1,20(sp)
9d0085e8:	8fb00010 	lw	s0,16(sp)
9d0085ec:	03e00008 	jr	ra
9d0085f0:	27bd0020 	addiu	sp,sp,32
9d0085f4:	24a50003 	addiu	a1,a1,3
9d0085f8:	00452821 	addu	a1,v0,a1
9d0085fc:	00a2102b 	sltu	v0,a1,v0
9d008600:	00431821 	addu	v1,v0,v1
9d008604:	7c660600 	ext	a2,v1,0x18,0x1
9d008608:	10c0ffe6 	beqz	a2,9d0085a4 <__ldexp+0x6c>
9d00860c:	00a01021 	move	v0,a1
9d008610:	00032fc0 	sll	a1,v1,0x1f
9d008614:	00021042 	srl	v0,v0,0x1
9d008618:	00a21025 	or	v0,a1,v0
9d00861c:	00031842 	srl	v1,v1,0x1
9d008620:	0b402169 	j	9d0085a4 <__ldexp+0x6c>
9d008624:	24840001 	addiu	a0,a0,1
9d008628:	2406fc02 	li	a2,-1022
9d00862c:	00c73023 	subu	a2,a2,a3
9d008630:	28c40038 	slti	a0,a2,56
9d008634:	5080001b 	beqzl	a0,9d0086a4 <__ldexp+0x16c>
9d008638:	00001021 	move	v0,zero
9d00863c:	00062023 	negu	a0,a2
9d008640:	30850020 	andi	a1,a0,0x20
9d008644:	14a00003 	bnez	a1,9d008654 <__ldexp+0x11c>
9d008648:	00828804 	sllv	s1,v0,a0
9d00864c:	00832004 	sllv	a0,v1,a0
9d008650:	00828825 	or	s1,a0,v0
9d008654:	00402021 	move	a0,v0
9d008658:	0f402934 	jal	9d00a4d0 <.LFE0>
9d00865c:	00602821 	move	a1,v1
9d008660:	0011882b 	sltu	s1,zero,s1
9d008664:	02221025 	or	v0,s1,v0
9d008668:	0b402166 	j	9d008598 <__ldexp+0x60>
9d00866c:	24040001 	li	a0,1
9d008670:	54e00005 	bnezl	a3,9d008688 <__ldexp+0x150>
9d008674:	00801021 	move	v0,a0
9d008678:	01043025 	or	a2,t0,a0
9d00867c:	14c0000c 	bnez	a2,9d0086b0 <__ldexp+0x178>
9d008680:	00000000 	nop
9d008684:	00801021 	move	v0,a0
9d008688:	0b402177 	j	9d0085dc <__ldexp+0xa4>
9d00868c:	00a01821 	move	v1,a1
9d008690:	00101ac0 	sll	v1,s0,0xb
9d008694:	346307ff 	ori	v1,v1,0x7ff
9d008698:	00031d00 	sll	v1,v1,0x14
9d00869c:	0b402177 	j	9d0085dc <__ldexp+0xa4>
9d0086a0:	00001021 	move	v0,zero
9d0086a4:	00001821 	move	v1,zero
9d0086a8:	0b402173 	j	9d0085cc <__ldexp+0x94>
9d0086ac:	00002021 	move	a0,zero
9d0086b0:	15000003 	bnez	t0,9d0086c0 <__ldexp+0x188>
9d0086b4:	71129020 	clz	s2,t0
9d0086b8:	70929020 	clz	s2,a0
9d0086bc:	26520020 	addiu	s2,s2,32
9d0086c0:	2646fff5 	addiu	a2,s2,-11
9d0086c4:	10c0ffad 	beqz	a2,9d00857c <__ldexp+0x44>
9d0086c8:	2407fc02 	li	a3,-1022
9d0086cc:	0f402944 	jal	9d00a510 <__ashldi3>
9d0086d0:	01002821 	move	a1,t0
9d0086d4:	2407fc0d 	li	a3,-1011
9d0086d8:	0b40215f 	j	9d00857c <__ldexp+0x44>
9d0086dc:	00f23823 	subu	a3,a3,s2

Disassembly of section .text.fround:

9d0086e0 <fround>:
9d0086e0:	27bdffe0 	addiu	sp,sp,-32
9d0086e4:	afbf001c 	sw	ra,28(sp)
9d0086e8:	afb20018 	sw	s2,24(sp)
9d0086ec:	afb10014 	sw	s1,20(sp)
9d0086f0:	afb00010 	sw	s0,16(sp)
9d0086f4:	2c82006e 	sltiu	v0,a0,110
9d0086f8:	1040002f 	beqz	v0,9d0087b8 <fround+0xd8>
9d0086fc:	00808021 	move	s0,a0
9d008700:	2c82000b 	sltiu	v0,a0,11
9d008704:	1040000e 	beqz	v0,9d008740 <fround+0x60>
9d008708:	3c029d01 	lui	v0,0x9d01
9d00870c:	00048080 	sll	s0,a0,0x2
9d008710:	2442a0f8 	addiu	v0,v0,-24328
9d008714:	02028021 	addu	s0,s0,v0
9d008718:	8e040000 	lw	a0,0(s0)
9d00871c:	3c029d01 	lui	v0,0x9d01
9d008720:	0f4020df 	jal	9d00837c <.LFE4>
9d008724:	8c4596a8 	lw	a1,-26968(v0)
9d008728:	8fbf001c 	lw	ra,28(sp)
9d00872c:	8fb20018 	lw	s2,24(sp)
9d008730:	8fb10014 	lw	s1,20(sp)
9d008734:	8fb00010 	lw	s0,16(sp)
9d008738:	03e00008 	jr	ra
9d00873c:	27bd0020 	addiu	sp,sp,32
9d008740:	3c11cccc 	lui	s1,0xcccc
9d008744:	3631cccd 	ori	s1,s1,0xcccd
9d008748:	00910019 	multu	a0,s1
9d00874c:	00008810 	mfhi	s1
9d008750:	3c129d01 	lui	s2,0x9d01
9d008754:	2652a0f8 	addiu	s2,s2,-24328
9d008758:	3c029d01 	lui	v0,0x9d01
9d00875c:	8c4596a8 	lw	a1,-26968(v0)
9d008760:	001188c2 	srl	s1,s1,0x3
9d008764:	26220009 	addiu	v0,s1,9
9d008768:	00021080 	sll	v0,v0,0x2
9d00876c:	00521021 	addu	v0,v0,s2
9d008770:	0f4020df 	jal	9d00837c <.LFE4>
9d008774:	8c440000 	lw	a0,0(v0)
9d008778:	00111840 	sll	v1,s1,0x1
9d00877c:	001188c0 	sll	s1,s1,0x3
9d008780:	00718821 	addu	s1,v1,s1
9d008784:	02118023 	subu	s0,s0,s1
9d008788:	321000ff 	andi	s0,s0,0xff
9d00878c:	00108080 	sll	s0,s0,0x2
9d008790:	02129021 	addu	s2,s0,s2
9d008794:	8e450000 	lw	a1,0(s2)
9d008798:	0f4020df 	jal	9d00837c <.LFE4>
9d00879c:	00402021 	move	a0,v0
9d0087a0:	8fbf001c 	lw	ra,28(sp)
9d0087a4:	8fb20018 	lw	s2,24(sp)
9d0087a8:	8fb10014 	lw	s1,20(sp)
9d0087ac:	8fb00010 	lw	s0,16(sp)
9d0087b0:	03e00008 	jr	ra
9d0087b4:	27bd0020 	addiu	sp,sp,32
9d0087b8:	3c1251eb 	lui	s2,0x51eb
9d0087bc:	3652851f 	ori	s2,s2,0x851f
9d0087c0:	00920019 	multu	a0,s2
9d0087c4:	00009010 	mfhi	s2
9d0087c8:	3c119d01 	lui	s1,0x9d01
9d0087cc:	2631a0f8 	addiu	s1,s1,-24328
9d0087d0:	3c029d01 	lui	v0,0x9d01
9d0087d4:	8c4596a8 	lw	a1,-26968(v0)
9d0087d8:	00129142 	srl	s2,s2,0x5
9d0087dc:	26420012 	addiu	v0,s2,18
9d0087e0:	00021080 	sll	v0,v0,0x2
9d0087e4:	00511021 	addu	v0,v0,s1
9d0087e8:	0f4020df 	jal	9d00837c <.LFE4>
9d0087ec:	8c440000 	lw	a0,0(v0)
9d0087f0:	00121880 	sll	v1,s2,0x2
9d0087f4:	00129100 	sll	s2,s2,0x4
9d0087f8:	00729021 	addu	s2,v1,s2
9d0087fc:	00121880 	sll	v1,s2,0x2
9d008800:	02431821 	addu	v1,s2,v1
9d008804:	02031823 	subu	v1,s0,v1
9d008808:	3c12cccc 	lui	s2,0xcccc
9d00880c:	3652cccd 	ori	s2,s2,0xcccd
9d008810:	306300ff 	andi	v1,v1,0xff
9d008814:	00720019 	multu	v1,s2
9d008818:	00001810 	mfhi	v1
9d00881c:	00402021 	move	a0,v0
9d008820:	000318c2 	srl	v1,v1,0x3
9d008824:	24630009 	addiu	v1,v1,9
9d008828:	00031880 	sll	v1,v1,0x2
9d00882c:	00711821 	addu	v1,v1,s1
9d008830:	0f4020df 	jal	9d00837c <.LFE4>
9d008834:	8c650000 	lw	a1,0(v1)
9d008838:	02120019 	multu	s0,s2
9d00883c:	00009010 	mfhi	s2
9d008840:	00402021 	move	a0,v0
9d008844:	001290c2 	srl	s2,s2,0x3
9d008848:	00121040 	sll	v0,s2,0x1
9d00884c:	001290c0 	sll	s2,s2,0x3
9d008850:	00529021 	addu	s2,v0,s2
9d008854:	02128023 	subu	s0,s0,s2
9d008858:	321000ff 	andi	s0,s0,0xff
9d00885c:	00108080 	sll	s0,s0,0x2
9d008860:	02118821 	addu	s1,s0,s1
9d008864:	0f4020df 	jal	9d00837c <.LFE4>
9d008868:	8e250000 	lw	a1,0(s1)
9d00886c:	8fbf001c 	lw	ra,28(sp)
9d008870:	8fb20018 	lw	s2,24(sp)
9d008874:	8fb10014 	lw	s1,20(sp)
9d008878:	8fb00010 	lw	s0,16(sp)
9d00887c:	03e00008 	jr	ra
9d008880:	27bd0020 	addiu	sp,sp,32

Disassembly of section .text:

9d008884 <strcpy>:
9d008884:	00854025 	or	t0,a0,a1
9d008888:	31080003 	andi	t0,t0,0x3
9d00888c:	11000003 	beqz	t0,9d00889c <strcpy+0x18>
9d008890:	00801021 	move	v0,a0
9d008894:	10000038 	b	9d008978 <strcpy+0xf4>
9d008898:	90aa0000 	lbu	t2,0(a1)
9d00889c:	8caa0000 	lw	t2,0(a1)
9d0088a0:	3c090101 	lui	t1,0x101
9d0088a4:	35290101 	ori	t1,t1,0x101
9d0088a8:	000979c0 	sll	t7,t1,0x7
9d0088ac:	01494023 	subu	t0,t2,t1
9d0088b0:	010f4024 	and	t0,t0,t7
9d0088b4:	11000007 	beqz	t0,9d0088d4 <strcpy+0x50>
9d0088b8:	010a6024 	and	t4,t0,t2
9d0088bc:	11880005 	beq	t4,t0,9d0088d4 <strcpy+0x50>
9d0088c0:	00000000 	nop
9d0088c4:	24a50000 	addiu	a1,a1,0
9d0088c8:	90aa0000 	lbu	t2,0(a1)
9d0088cc:	1000002a 	b	9d008978 <strcpy+0xf4>
9d0088d0:	24840000 	addiu	a0,a0,0
9d0088d4:	8cab0004 	lw	t3,4(a1)
9d0088d8:	ac8a0000 	sw	t2,0(a0)
9d0088dc:	01694023 	subu	t0,t3,t1
9d0088e0:	010f4024 	and	t0,t0,t7
9d0088e4:	11000007 	beqz	t0,9d008904 <strcpy+0x80>
9d0088e8:	010b6024 	and	t4,t0,t3
9d0088ec:	11880005 	beq	t4,t0,9d008904 <strcpy+0x80>
9d0088f0:	00000000 	nop
9d0088f4:	24a50004 	addiu	a1,a1,4
9d0088f8:	90aa0000 	lbu	t2,0(a1)
9d0088fc:	1000001e 	b	9d008978 <strcpy+0xf4>
9d008900:	24840004 	addiu	a0,a0,4
9d008904:	8caa0008 	lw	t2,8(a1)
9d008908:	ac8b0004 	sw	t3,4(a0)
9d00890c:	01494023 	subu	t0,t2,t1
9d008910:	010f4024 	and	t0,t0,t7
9d008914:	11000007 	beqz	t0,9d008934 <strcpy+0xb0>
9d008918:	010a6024 	and	t4,t0,t2
9d00891c:	11880005 	beq	t4,t0,9d008934 <strcpy+0xb0>
9d008920:	00000000 	nop
9d008924:	24a50008 	addiu	a1,a1,8
9d008928:	90aa0000 	lbu	t2,0(a1)
9d00892c:	10000012 	b	9d008978 <strcpy+0xf4>
9d008930:	24840008 	addiu	a0,a0,8
9d008934:	8cab000c 	lw	t3,12(a1)
9d008938:	ac8a0008 	sw	t2,8(a0)
9d00893c:	01694023 	subu	t0,t3,t1
9d008940:	010f4024 	and	t0,t0,t7
9d008944:	11000007 	beqz	t0,9d008964 <strcpy+0xe0>
9d008948:	010b6024 	and	t4,t0,t3
9d00894c:	11880005 	beq	t4,t0,9d008964 <strcpy+0xe0>
9d008950:	00000000 	nop
9d008954:	24a5000c 	addiu	a1,a1,12
9d008958:	90aa0000 	lbu	t2,0(a1)
9d00895c:	10000006 	b	9d008978 <strcpy+0xf4>
9d008960:	2484000c 	addiu	a0,a0,12
9d008964:	8caa0010 	lw	t2,16(a1)
9d008968:	ac8b000c 	sw	t3,12(a0)
9d00896c:	24840010 	addiu	a0,a0,16
9d008970:	1000ffce 	b	9d0088ac <strcpy+0x28>
9d008974:	24a50010 	addiu	a1,a1,16
9d008978:	15400003 	bnez	t2,9d008988 <strcpy+0x104>
9d00897c:	a08a0000 	sb	t2,0(a0)
9d008980:	03e00008 	jr	ra
9d008984:	00000000 	nop
9d008988:	90ab0001 	lbu	t3,1(a1)
9d00898c:	15600003 	bnez	t3,9d00899c <strcpy+0x118>
9d008990:	a08b0001 	sb	t3,1(a0)
9d008994:	03e00008 	jr	ra
9d008998:	00000000 	nop
9d00899c:	90aa0002 	lbu	t2,2(a1)
9d0089a0:	15400003 	bnez	t2,9d0089b0 <strcpy+0x12c>
9d0089a4:	a08a0002 	sb	t2,2(a0)
9d0089a8:	03e00008 	jr	ra
9d0089ac:	00000000 	nop
9d0089b0:	90ab0003 	lbu	t3,3(a1)
9d0089b4:	15600003 	bnez	t3,9d0089c4 <strcpy+0x140>
9d0089b8:	a08b0003 	sb	t3,3(a0)
9d0089bc:	03e00008 	jr	ra
9d0089c0:	00000000 	nop
9d0089c4:	90aa0004 	lbu	t2,4(a1)
9d0089c8:	15400003 	bnez	t2,9d0089d8 <strcpy+0x154>
9d0089cc:	a08a0004 	sb	t2,4(a0)
9d0089d0:	03e00008 	jr	ra
9d0089d4:	00000000 	nop
9d0089d8:	90ab0005 	lbu	t3,5(a1)
9d0089dc:	15600003 	bnez	t3,9d0089ec <strcpy+0x168>
9d0089e0:	a08b0005 	sb	t3,5(a0)
9d0089e4:	03e00008 	jr	ra
9d0089e8:	00000000 	nop
9d0089ec:	90aa0006 	lbu	t2,6(a1)
9d0089f0:	15400003 	bnez	t2,9d008a00 <strcpy+0x17c>
9d0089f4:	a08a0006 	sb	t2,6(a0)
9d0089f8:	03e00008 	jr	ra
9d0089fc:	00000000 	nop
9d008a00:	90ab0007 	lbu	t3,7(a1)
9d008a04:	15600003 	bnez	t3,9d008a14 <strcpy+0x190>
9d008a08:	a08b0007 	sb	t3,7(a0)
9d008a0c:	03e00008 	jr	ra
9d008a10:	00000000 	nop
9d008a14:	90aa0008 	lbu	t2,8(a1)
9d008a18:	24840008 	addiu	a0,a0,8
9d008a1c:	1000ffd6 	b	9d008978 <strcpy+0xf4>
9d008a20:	24a50008 	addiu	a1,a1,8

Disassembly of section .text._filbuf:

9d008a24 <_filbuf>:
9d008a24:	27bdffd0 	addiu	sp,sp,-48
9d008a28:	afbf002c 	sw	ra,44(sp)
9d008a2c:	afb40028 	sw	s4,40(sp)
9d008a30:	afb30024 	sw	s3,36(sp)
9d008a34:	afb20020 	sw	s2,32(sp)
9d008a38:	afb1001c 	sw	s1,28(sp)
9d008a3c:	afb00018 	sw	s0,24(sp)
9d008a40:	00808821 	move	s1,a0
9d008a44:	9482000c 	lhu	v0,12(a0)
9d008a48:	30420001 	andi	v0,v0,0x1
9d008a4c:	1040004a 	beqz	v0,9d008b78 <_filbuf+0x154>
9d008a50:	ac800004 	sw	zero,4(a0)
9d008a54:	3c14a000 	lui	s4,0xa000
9d008a58:	828200a8 	lb	v0,168(s4)
9d008a5c:	50400014 	beqzl	v0,9d008ab0 <_filbuf+0x8c>
9d008a60:	8e260010 	lw	a2,16(s1)
9d008a64:	3c10a000 	lui	s0,0xa000
9d008a68:	26100004 	addiu	s0,s0,4
9d008a6c:	3c13a000 	lui	s3,0xa000
9d008a70:	267300a4 	addiu	s3,s3,164
9d008a74:	0b4022a1 	j	9d008a84 <_filbuf+0x60>
9d008a78:	24120102 	li	s2,258
9d008a7c:	5213000b 	beql	s0,s3,9d008aac <_filbuf+0x88>
9d008a80:	a28000a8 	sb	zero,168(s4)
9d008a84:	9602000c 	lhu	v0,12(s0)
9d008a88:	30420102 	andi	v0,v0,0x102
9d008a8c:	5452fffb 	bnel	v0,s2,9d008a7c <_filbuf+0x58>
9d008a90:	26100014 	addiu	s0,s0,20
9d008a94:	0f402725 	jal	9d009c94 <fflush>
9d008a98:	02002021 	move	a0,s0
9d008a9c:	26100014 	addiu	s0,s0,20
9d008aa0:	5613fff9 	bnel	s0,s3,9d008a88 <_filbuf+0x64>
9d008aa4:	9602000c 	lhu	v0,12(s0)
9d008aa8:	a28000a8 	sb	zero,168(s4)
9d008aac:	8e260010 	lw	a2,16(s1)
9d008ab0:	10c00016 	beqz	a2,9d008b0c <_filbuf+0xe8>
9d008ab4:	9624000e 	lhu	a0,14(s1)
9d008ab8:	0f402345 	jal	9d008d14 <read>
9d008abc:	8e250008 	lw	a1,8(s1)
9d008ac0:	1040002f 	beqz	v0,9d008b80 <_filbuf+0x15c>
9d008ac4:	ae220004 	sw	v0,4(s1)
9d008ac8:	2403ffff 	li	v1,-1
9d008acc:	50430034 	beql	v0,v1,9d008ba0 <_filbuf+0x17c>
9d008ad0:	9622000c 	lhu	v0,12(s1)
9d008ad4:	8e230008 	lw	v1,8(s1)
9d008ad8:	2442ffff 	addiu	v0,v0,-1
9d008adc:	ae220004 	sw	v0,4(s1)
9d008ae0:	24620001 	addiu	v0,v1,1
9d008ae4:	ae220000 	sw	v0,0(s1)
9d008ae8:	90620000 	lbu	v0,0(v1)
9d008aec:	8fbf002c 	lw	ra,44(sp)
9d008af0:	8fb40028 	lw	s4,40(sp)
9d008af4:	8fb30024 	lw	s3,36(sp)
9d008af8:	8fb20020 	lw	s2,32(sp)
9d008afc:	8fb1001c 	lw	s1,28(sp)
9d008b00:	8fb00018 	lw	s0,24(sp)
9d008b04:	03e00008 	jr	ra
9d008b08:	27bd0030 	addiu	sp,sp,48
9d008b0c:	ae200004 	sw	zero,4(s1)
9d008b10:	27a50010 	addiu	a1,sp,16
9d008b14:	0f402345 	jal	9d008d14 <read>
9d008b18:	24060001 	li	a2,1
9d008b1c:	24030001 	li	v1,1
9d008b20:	1043000c 	beq	v0,v1,9d008b54 <_filbuf+0x130>
9d008b24:	2402ffff 	li	v0,-1
9d008b28:	9623000c 	lhu	v1,12(s1)
9d008b2c:	34630010 	ori	v1,v1,0x10
9d008b30:	a623000c 	sh	v1,12(s1)
9d008b34:	8fbf002c 	lw	ra,44(sp)
9d008b38:	8fb40028 	lw	s4,40(sp)
9d008b3c:	8fb30024 	lw	s3,36(sp)
9d008b40:	8fb20020 	lw	s2,32(sp)
9d008b44:	8fb1001c 	lw	s1,28(sp)
9d008b48:	8fb00018 	lw	s0,24(sp)
9d008b4c:	03e00008 	jr	ra
9d008b50:	27bd0030 	addiu	sp,sp,48
9d008b54:	93a20010 	lbu	v0,16(sp)
9d008b58:	8fbf002c 	lw	ra,44(sp)
9d008b5c:	8fb40028 	lw	s4,40(sp)
9d008b60:	8fb30024 	lw	s3,36(sp)
9d008b64:	8fb20020 	lw	s2,32(sp)
9d008b68:	8fb1001c 	lw	s1,28(sp)
9d008b6c:	8fb00018 	lw	s0,24(sp)
9d008b70:	03e00008 	jr	ra
9d008b74:	27bd0030 	addiu	sp,sp,48
9d008b78:	0b4022bb 	j	9d008aec <_filbuf+0xc8>
9d008b7c:	2402ffff 	li	v0,-1
9d008b80:	9622000c 	lhu	v0,12(s1)
9d008b84:	34420010 	ori	v0,v0,0x10
9d008b88:	a622000c 	sh	v0,12(s1)
9d008b8c:	8e230008 	lw	v1,8(s1)
9d008b90:	ae200004 	sw	zero,4(s1)
9d008b94:	2402ffff 	li	v0,-1
9d008b98:	0b4022bb 	j	9d008aec <_filbuf+0xc8>
9d008b9c:	ae230000 	sw	v1,0(s1)
9d008ba0:	34420030 	ori	v0,v0,0x30
9d008ba4:	0b4022e3 	j	9d008b8c <_filbuf+0x168>
9d008ba8:	a622000c 	sh	v0,12(s1)

Disassembly of section .text:

9d008bac <strlen>:
9d008bac:	908a0000 	lbu	t2,0(a0)
9d008bb0:	00801021 	move	v0,a0
9d008bb4:	15400003 	bnez	t2,9d008bc4 <strlen+0x18>
9d008bb8:	00000000 	nop
9d008bbc:	03e00008 	jr	ra
9d008bc0:	24020000 	li	v0,0
9d008bc4:	908a0001 	lbu	t2,1(a0)
9d008bc8:	15400003 	bnez	t2,9d008bd8 <strlen+0x2c>
9d008bcc:	00000000 	nop
9d008bd0:	03e00008 	jr	ra
9d008bd4:	24020001 	li	v0,1
9d008bd8:	908a0002 	lbu	t2,2(a0)
9d008bdc:	15400003 	bnez	t2,9d008bec <strlen+0x40>
9d008be0:	00000000 	nop
9d008be4:	03e00008 	jr	ra
9d008be8:	24020002 	li	v0,2
9d008bec:	908a0003 	lbu	t2,3(a0)
9d008bf0:	15400003 	bnez	t2,9d008c00 <strlen+0x54>
9d008bf4:	00042082 	srl	a0,a0,0x2
9d008bf8:	03e00008 	jr	ra
9d008bfc:	24020003 	li	v0,3
9d008c00:	24840001 	addiu	a0,a0,1
9d008c04:	00042080 	sll	a0,a0,0x2
9d008c08:	8c8a0000 	lw	t2,0(a0)
9d008c0c:	3c090101 	lui	t1,0x101
9d008c10:	35290101 	ori	t1,t1,0x101
9d008c14:	000979c0 	sll	t7,t1,0x7
9d008c18:	01494023 	subu	t0,t2,t1
9d008c1c:	010f4024 	and	t0,t0,t7
9d008c20:	11000006 	beqz	t0,9d008c3c <strlen+0x90>
9d008c24:	010a6024 	and	t4,t0,t2
9d008c28:	11880004 	beq	t4,t0,9d008c3c <strlen+0x90>
9d008c2c:	00000000 	nop
9d008c30:	908a0000 	lbu	t2,0(a0)
9d008c34:	10000022 	b	9d008cc0 <strlen+0x114>
9d008c38:	24840000 	addiu	a0,a0,0
9d008c3c:	8c8b0004 	lw	t3,4(a0)
9d008c40:	01694023 	subu	t0,t3,t1
9d008c44:	010f4024 	and	t0,t0,t7
9d008c48:	11000006 	beqz	t0,9d008c64 <strlen+0xb8>
9d008c4c:	010b6024 	and	t4,t0,t3
9d008c50:	11880004 	beq	t4,t0,9d008c64 <strlen+0xb8>
9d008c54:	00000000 	nop
9d008c58:	908a0004 	lbu	t2,4(a0)
9d008c5c:	10000018 	b	9d008cc0 <strlen+0x114>
9d008c60:	24840004 	addiu	a0,a0,4
9d008c64:	8c8a0008 	lw	t2,8(a0)
9d008c68:	01494023 	subu	t0,t2,t1
9d008c6c:	010f4024 	and	t0,t0,t7
9d008c70:	11000006 	beqz	t0,9d008c8c <strlen+0xe0>
9d008c74:	010a6024 	and	t4,t0,t2
9d008c78:	11880004 	beq	t4,t0,9d008c8c <strlen+0xe0>
9d008c7c:	00000000 	nop
9d008c80:	908a0008 	lbu	t2,8(a0)
9d008c84:	1000000e 	b	9d008cc0 <strlen+0x114>
9d008c88:	24840008 	addiu	a0,a0,8
9d008c8c:	8c8b000c 	lw	t3,12(a0)
9d008c90:	01694023 	subu	t0,t3,t1
9d008c94:	010f4024 	and	t0,t0,t7
9d008c98:	11000006 	beqz	t0,9d008cb4 <strlen+0x108>
9d008c9c:	010b6024 	and	t4,t0,t3
9d008ca0:	11880004 	beq	t4,t0,9d008cb4 <strlen+0x108>
9d008ca4:	00000000 	nop
9d008ca8:	908a000c 	lbu	t2,12(a0)
9d008cac:	10000004 	b	9d008cc0 <strlen+0x114>
9d008cb0:	2484000c 	addiu	a0,a0,12
9d008cb4:	8c8a0010 	lw	t2,16(a0)
9d008cb8:	1000ffd7 	b	9d008c18 <strlen+0x6c>
9d008cbc:	24840010 	addiu	a0,a0,16
9d008cc0:	15400004 	bnez	t2,9d008cd4 <strlen+0x128>
9d008cc4:	00000000 	nop
9d008cc8:	24840000 	addiu	a0,a0,0
9d008ccc:	03e00008 	jr	ra
9d008cd0:	00821023 	subu	v0,a0,v0
9d008cd4:	908a0001 	lbu	t2,1(a0)
9d008cd8:	15400004 	bnez	t2,9d008cec <strlen+0x140>
9d008cdc:	00000000 	nop
9d008ce0:	24840001 	addiu	a0,a0,1
9d008ce4:	03e00008 	jr	ra
9d008ce8:	00821023 	subu	v0,a0,v0
9d008cec:	908a0002 	lbu	t2,2(a0)
9d008cf0:	15400004 	bnez	t2,9d008d04 <strlen+0x158>
9d008cf4:	00000000 	nop
9d008cf8:	24840002 	addiu	a0,a0,2
9d008cfc:	03e00008 	jr	ra
9d008d00:	00821023 	subu	v0,a0,v0
9d008d04:	908a0003 	lbu	t2,3(a0)
9d008d08:	24840003 	addiu	a0,a0,3
9d008d0c:	03e00008 	jr	ra
9d008d10:	00821023 	subu	v0,a0,v0

Disassembly of section .text.read:

9d008d14 <read>:
9d008d14:	27bdffe0 	addiu	sp,sp,-32
9d008d18:	afbf001c 	sw	ra,28(sp)
9d008d1c:	afb20018 	sw	s2,24(sp)
9d008d20:	afb10014 	sw	s1,20(sp)
9d008d24:	afb00010 	sw	s0,16(sp)
9d008d28:	10a00017 	beqz	a1,9d008d88 <read+0x74>
9d008d2c:	00a08021 	move	s0,a1
9d008d30:	00c09021 	move	s2,a2
9d008d34:	10c0000e 	beqz	a2,9d008d70 <read+0x5c>
9d008d38:	00001021 	move	v0,zero
9d008d3c:	1480000c 	bnez	a0,9d008d70 <read+0x5c>
9d008d40:	02401021 	move	v0,s2
9d008d44:	3c020000 	lui	v0,0x0
9d008d48:	24420000 	addiu	v0,v0,0
9d008d4c:	10400015 	beqz	v0,9d008da4 <read+0x90>
9d008d50:	00c08821 	move	s1,a2
9d008d54:	24040001 	li	a0,1
9d008d58:	0c000000 	jal	90000000 <_bmxdkpba_address+0x8ffe0000>
9d008d5c:	26100001 	addiu	s0,s0,1
9d008d60:	2631ffff 	addiu	s1,s1,-1
9d008d64:	1620fffb 	bnez	s1,9d008d54 <read+0x40>
9d008d68:	a202ffff 	sb	v0,-1(s0)
9d008d6c:	02401021 	move	v0,s2
9d008d70:	8fbf001c 	lw	ra,28(sp)
9d008d74:	8fb20018 	lw	s2,24(sp)
9d008d78:	8fb10014 	lw	s1,20(sp)
9d008d7c:	8fb00010 	lw	s0,16(sp)
9d008d80:	03e00008 	jr	ra
9d008d84:	27bd0020 	addiu	sp,sp,32
9d008d88:	00001021 	move	v0,zero
9d008d8c:	8fbf001c 	lw	ra,28(sp)
9d008d90:	8fb20018 	lw	s2,24(sp)
9d008d94:	8fb10014 	lw	s1,20(sp)
9d008d98:	8fb00010 	lw	s0,16(sp)
9d008d9c:	03e00008 	jr	ra
9d008da0:	27bd0020 	addiu	sp,sp,32
9d008da4:	3c02a000 	lui	v0,0xa000
9d008da8:	8c430000 	lw	v1,0(v0)
9d008dac:	24020002 	li	v0,2
9d008db0:	10620025 	beq	v1,v0,9d008e48 <read+0x134>
9d008db4:	3c02bf80 	lui	v0,0xbf80
9d008db8:	3c02bf80 	lui	v0,0xbf80
9d008dbc:	8c426000 	lw	v0,24576(v0)
9d008dc0:	3c06bf80 	lui	a2,0xbf80
9d008dc4:	24c66030 	addiu	a2,a2,24624
9d008dc8:	3c05bf80 	lui	a1,0xbf80
9d008dcc:	24a56010 	addiu	a1,a1,24592
9d008dd0:	30428000 	andi	v0,v0,0x8000
9d008dd4:	14400005 	bnez	v0,9d008dec <read+0xd8>
9d008dd8:	02401021 	move	v0,s2
9d008ddc:	34038000 	li	v1,0x8000
9d008de0:	3c02bf80 	lui	v0,0xbf80
9d008de4:	ac436008 	sw	v1,24584(v0)
9d008de8:	02401021 	move	v0,s2
9d008dec:	8ca30000 	lw	v1,0(a1)
9d008df0:	30630001 	andi	v1,v1,0x1
9d008df4:	14600009 	bnez	v1,9d008e1c <read+0x108>
9d008df8:	240300a0 	li	v1,160
9d008dfc:	0b402383 	j	9d008e0c <read+0xf8>
9d008e00:	00000000 	nop
9d008e04:	10600005 	beqz	v1,9d008e1c <read+0x108>
9d008e08:	00000000 	nop
9d008e0c:	8ca40000 	lw	a0,0(a1)
9d008e10:	30840001 	andi	a0,a0,0x1
9d008e14:	1080fffb 	beqz	a0,9d008e04 <read+0xf0>
9d008e18:	2463ffff 	addiu	v1,v1,-1
9d008e1c:	8ca30000 	lw	v1,0(a1)
9d008e20:	30630001 	andi	v1,v1,0x1
9d008e24:	5460ffd2 	bnezl	v1,9d008d70 <read+0x5c>
9d008e28:	02421023 	subu	v0,s2,v0
9d008e2c:	8cc30000 	lw	v1,0(a2)
9d008e30:	26100001 	addiu	s0,s0,1
9d008e34:	2442ffff 	addiu	v0,v0,-1
9d008e38:	1440ffec 	bnez	v0,9d008dec <read+0xd8>
9d008e3c:	a203ffff 	sb	v1,-1(s0)
9d008e40:	0b40235c 	j	9d008d70 <read+0x5c>
9d008e44:	02421023 	subu	v0,s2,v0
9d008e48:	24426840 	addiu	v0,v0,26688
9d008e4c:	1040ffda 	beqz	v0,9d008db8 <read+0xa4>
9d008e50:	3c02bf80 	lui	v0,0xbf80
9d008e54:	8c426800 	lw	v0,26624(v0)
9d008e58:	3c06bf80 	lui	a2,0xbf80
9d008e5c:	24c66830 	addiu	a2,a2,26672
9d008e60:	3c05bf80 	lui	a1,0xbf80
9d008e64:	0b402374 	j	9d008dd0 <read+0xbc>
9d008e68:	24a56810 	addiu	a1,a1,26640

Disassembly of section .text.fputc:

9d008e6c <fputc>:
9d008e6c:	27bdffe0 	addiu	sp,sp,-32
9d008e70:	afbf001c 	sw	ra,28(sp)
9d008e74:	afb10018 	sw	s1,24(sp)
9d008e78:	afb00014 	sw	s0,20(sp)
9d008e7c:	94a2000c 	lhu	v0,12(a1)
9d008e80:	30430002 	andi	v1,v0,0x2
9d008e84:	10600048 	beqz	v1,9d008fa8 <fputc+0x13c>
9d008e88:	00a08021 	move	s0,a1
9d008e8c:	30430200 	andi	v1,v0,0x200
9d008e90:	1060001c 	beqz	v1,9d008f04 <fputc+0x98>
9d008e94:	8ca30004 	lw	v1,4(a1)
9d008e98:	34450200 	ori	a1,v0,0x200
9d008e9c:	a605000c 	sh	a1,12(s0)
9d008ea0:	1060001c 	beqz	v1,9d008f14 <fputc+0xa8>
9d008ea4:	309100ff 	andi	s1,a0,0xff
9d008ea8:	2404000a 	li	a0,10
9d008eac:	1224001f 	beq	s1,a0,9d008f2c <fputc+0xc0>
9d008eb0:	30420080 	andi	v0,v0,0x80
9d008eb4:	8e020010 	lw	v0,16(s0)
9d008eb8:	10620036 	beq	v1,v0,9d008f94 <fputc+0x128>
9d008ebc:	24630001 	addiu	v1,v1,1
9d008ec0:	8e020000 	lw	v0,0(s0)
9d008ec4:	24440001 	addiu	a0,v0,1
9d008ec8:	ae040000 	sw	a0,0(s0)
9d008ecc:	ae030004 	sw	v1,4(s0)
9d008ed0:	a0510000 	sb	s1,0(v0)
9d008ed4:	24030001 	li	v1,1
9d008ed8:	3c02a000 	lui	v0,0xa000
9d008edc:	a04300a8 	sb	v1,168(v0)
9d008ee0:	2402000a 	li	v0,10
9d008ee4:	52220018 	beql	s1,v0,9d008f48 <fputc+0xdc>
9d008ee8:	9603000c 	lhu	v1,12(s0)
9d008eec:	02201021 	move	v0,s1
9d008ef0:	8fbf001c 	lw	ra,28(sp)
9d008ef4:	8fb10018 	lw	s1,24(sp)
9d008ef8:	8fb00014 	lw	s0,20(sp)
9d008efc:	03e00008 	jr	ra
9d008f00:	27bd0020 	addiu	sp,sp,32
9d008f04:	14600028 	bnez	v1,9d008fa8 <fputc+0x13c>
9d008f08:	34450200 	ori	a1,v0,0x200
9d008f0c:	a605000c 	sh	a1,12(s0)
9d008f10:	309100ff 	andi	s1,a0,0xff
9d008f14:	8e040008 	lw	a0,8(s0)
9d008f18:	ae040000 	sw	a0,0(s0)
9d008f1c:	2404000a 	li	a0,10
9d008f20:	5624ffe5 	bnel	s1,a0,9d008eb8 <fputc+0x4c>
9d008f24:	8e020010 	lw	v0,16(s0)
9d008f28:	30420080 	andi	v0,v0,0x80
9d008f2c:	5440ffe2 	bnezl	v0,9d008eb8 <fputc+0x4c>
9d008f30:	8e020010 	lw	v0,16(s0)
9d008f34:	2404000d 	li	a0,13
9d008f38:	0f40239b 	jal	9d008e6c <fputc>
9d008f3c:	02002821 	move	a1,s0
9d008f40:	0b4023ad 	j	9d008eb4 <fputc+0x48>
9d008f44:	8e030004 	lw	v1,4(s0)
9d008f48:	30630100 	andi	v1,v1,0x100
9d008f4c:	1060ffe8 	beqz	v1,9d008ef0 <fputc+0x84>
9d008f50:	2402000a 	li	v0,10
9d008f54:	9604000e 	lhu	a0,14(s0)
9d008f58:	8e050008 	lw	a1,8(s0)
9d008f5c:	0f402774 	jal	9d009dd0 <write>
9d008f60:	8e060004 	lw	a2,4(s0)
9d008f64:	8e030004 	lw	v1,4(s0)
9d008f68:	50430006 	beql	v0,v1,9d008f84 <fputc+0x118>
9d008f6c:	8e030008 	lw	v1,8(s0)
9d008f70:	9602000c 	lhu	v0,12(s0)
9d008f74:	2411ffff 	li	s1,-1
9d008f78:	34420030 	ori	v0,v0,0x30
9d008f7c:	a602000c 	sh	v0,12(s0)
9d008f80:	8e030008 	lw	v1,8(s0)
9d008f84:	ae000004 	sw	zero,4(s0)
9d008f88:	02201021 	move	v0,s1
9d008f8c:	0b4023bc 	j	9d008ef0 <fputc+0x84>
9d008f90:	ae030000 	sw	v1,0(s0)
9d008f94:	7c112420 	seb	a0,s1
9d008f98:	0f4023ec 	jal	9d008fb0 <.LFE0>
9d008f9c:	02002821 	move	a1,s0
9d008fa0:	0b4023bd 	j	9d008ef4 <fputc+0x88>
9d008fa4:	8fbf001c 	lw	ra,28(sp)
9d008fa8:	0b4023bc 	j	9d008ef0 <fputc+0x84>
9d008fac:	2402ffff 	li	v0,-1

Disassembly of section .text._flsbuf:

9d008fb0 <_flsbuf>:
9d008fb0:	27bdffe8 	addiu	sp,sp,-24
9d008fb4:	afbf0014 	sw	ra,20(sp)
9d008fb8:	afb00010 	sw	s0,16(sp)
9d008fbc:	00a08021 	move	s0,a1
9d008fc0:	94a2000c 	lhu	v0,12(a1)
9d008fc4:	30430040 	andi	v1,v0,0x40
9d008fc8:	1460001c 	bnez	v1,9d00903c <_flsbuf+0x8c>
9d008fcc:	a3a40018 	sb	a0,24(sp)
9d008fd0:	30430002 	andi	v1,v0,0x2
9d008fd4:	5060003d 	beqzl	v1,9d0090cc <_flsbuf+0x11c>
9d008fd8:	34420030 	ori	v0,v0,0x30
9d008fdc:	8ca30010 	lw	v1,16(a1)
9d008fe0:	5060001b 	beqzl	v1,9d009050 <_flsbuf+0xa0>
9d008fe4:	94a4000e 	lhu	a0,14(a1)
9d008fe8:	8ca50008 	lw	a1,8(a1)
9d008fec:	50a0002d 	beqzl	a1,9d0090a4 <_flsbuf+0xf4>
9d008ff0:	3c05a000 	lui	a1,0xa000
9d008ff4:	8e060004 	lw	a2,4(s0)
9d008ff8:	0f402774 	jal	9d009dd0 <write>
9d008ffc:	9604000e 	lhu	a0,14(s0)
9d009000:	8e020008 	lw	v0,8(s0)
9d009004:	83a30018 	lb	v1,24(sp)
9d009008:	24440001 	addiu	a0,v0,1
9d00900c:	2405ffff 	li	a1,-1
9d009010:	ae050004 	sw	a1,4(s0)
9d009014:	ae040000 	sw	a0,0(s0)
9d009018:	a0430000 	sb	v1,0(v0)
9d00901c:	83a20018 	lb	v0,24(sp)
9d009020:	2403000a 	li	v1,10
9d009024:	50430013 	beql	v0,v1,9d009074 <_flsbuf+0xc4>
9d009028:	9603000c 	lhu	v1,12(s0)
9d00902c:	8fbf0014 	lw	ra,20(sp)
9d009030:	8fb00010 	lw	s0,16(sp)
9d009034:	03e00008 	jr	ra
9d009038:	27bd0018 	addiu	sp,sp,24
9d00903c:	7c041420 	seb	v0,a0
9d009040:	8fbf0014 	lw	ra,20(sp)
9d009044:	8fb00010 	lw	s0,16(sp)
9d009048:	03e00008 	jr	ra
9d00904c:	27bd0018 	addiu	sp,sp,24
9d009050:	27a50018 	addiu	a1,sp,24
9d009054:	0f402774 	jal	9d009dd0 <write>
9d009058:	24060001 	li	a2,1
9d00905c:	ae000004 	sw	zero,4(s0)
9d009060:	83a20018 	lb	v0,24(sp)
9d009064:	8fbf0014 	lw	ra,20(sp)
9d009068:	8fb00010 	lw	s0,16(sp)
9d00906c:	03e00008 	jr	ra
9d009070:	27bd0018 	addiu	sp,sp,24
9d009074:	30630100 	andi	v1,v1,0x100
9d009078:	1060ffed 	beqz	v1,9d009030 <_flsbuf+0x80>
9d00907c:	8fbf0014 	lw	ra,20(sp)
9d009080:	9604000e 	lhu	a0,14(s0)
9d009084:	8e050008 	lw	a1,8(s0)
9d009088:	0f402774 	jal	9d009dd0 <write>
9d00908c:	8e060004 	lw	a2,4(s0)
9d009090:	8e030008 	lw	v1,8(s0)
9d009094:	83a20018 	lb	v0,24(sp)
9d009098:	ae000004 	sw	zero,4(s0)
9d00909c:	0b40240b 	j	9d00902c <_flsbuf+0x7c>
9d0090a0:	ae030000 	sw	v1,0(s0)
9d0090a4:	24a500cc 	addiu	a1,a1,204
9d0090a8:	24030020 	li	v1,32
9d0090ac:	34420008 	ori	v0,v0,0x8
9d0090b0:	ae050008 	sw	a1,8(s0)
9d0090b4:	ae050000 	sw	a1,0(s0)
9d0090b8:	ae030010 	sw	v1,16(s0)
9d0090bc:	ae030004 	sw	v1,4(s0)
9d0090c0:	a602000c 	sh	v0,12(s0)
9d0090c4:	0b4023fe 	j	9d008ff8 <_flsbuf+0x48>
9d0090c8:	24060020 	li	a2,32
9d0090cc:	a4a2000c 	sh	v0,12(a1)
9d0090d0:	aca00004 	sw	zero,4(a1)
9d0090d4:	0b40240b 	j	9d00902c <_flsbuf+0x7c>
9d0090d8:	2402ffff 	li	v0,-1

Disassembly of section .text.fgetc:

9d0090dc <fgetc>:
9d0090dc:	27bdffe0 	addiu	sp,sp,-32
9d0090e0:	afbf001c 	sw	ra,28(sp)
9d0090e4:	afb20018 	sw	s2,24(sp)
9d0090e8:	afb10014 	sw	s1,20(sp)
9d0090ec:	afb00010 	sw	s0,16(sp)
9d0090f0:	00808021 	move	s0,a0
9d0090f4:	9483000c 	lhu	v1,12(a0)
9d0090f8:	30640011 	andi	a0,v1,0x11
9d0090fc:	24020001 	li	v0,1
9d009100:	1482001c 	bne	a0,v0,9d009174 <fgetc+0x98>
9d009104:	30620200 	andi	v0,v1,0x200
9d009108:	14400018 	bnez	v0,9d00916c <fgetc+0x90>
9d00910c:	8e020004 	lw	v0,4(s0)
9d009110:	3063fdff 	andi	v1,v1,0xfdff
9d009114:	a603000c 	sh	v1,12(s0)
9d009118:	2411001a 	li	s1,26
9d00911c:	2412000d 	li	s2,13
9d009120:	1840001f 	blez	v0,9d0091a0 <fgetc+0xc4>
9d009124:	2444ffff 	addiu	a0,v0,-1
9d009128:	8e020000 	lw	v0,0(s0)
9d00912c:	ae040004 	sw	a0,4(s0)
9d009130:	24440001 	addiu	a0,v0,1
9d009134:	ae040000 	sw	a0,0(s0)
9d009138:	90420000 	lbu	v0,0(v0)
9d00913c:	30640080 	andi	a0,v1,0x80
9d009140:	14800005 	bnez	a0,9d009158 <fgetc+0x7c>
9d009144:	8fbf001c 	lw	ra,28(sp)
9d009148:	5051001c 	beql	v0,s1,9d0091bc <fgetc+0xe0>
9d00914c:	8e020008 	lw	v0,8(s0)
9d009150:	50520011 	beql	v0,s2,9d009198 <fgetc+0xbc>
9d009154:	8e020004 	lw	v0,4(s0)
9d009158:	8fb20018 	lw	s2,24(sp)
9d00915c:	8fb10014 	lw	s1,20(sp)
9d009160:	8fb00010 	lw	s0,16(sp)
9d009164:	03e00008 	jr	ra
9d009168:	27bd0020 	addiu	sp,sp,32
9d00916c:	5040ffe9 	beqzl	v0,9d009114 <fgetc+0x38>
9d009170:	3063fdff 	andi	v1,v1,0xfdff
9d009174:	34630010 	ori	v1,v1,0x10
9d009178:	a603000c 	sh	v1,12(s0)
9d00917c:	2402ffff 	li	v0,-1
9d009180:	8fbf001c 	lw	ra,28(sp)
9d009184:	8fb20018 	lw	s2,24(sp)
9d009188:	8fb10014 	lw	s1,20(sp)
9d00918c:	8fb00010 	lw	s0,16(sp)
9d009190:	03e00008 	jr	ra
9d009194:	27bd0020 	addiu	sp,sp,32
9d009198:	1c40ffe3 	bgtz	v0,9d009128 <fgetc+0x4c>
9d00919c:	2444ffff 	addiu	a0,v0,-1
9d0091a0:	30620040 	andi	v0,v1,0x40
9d0091a4:	1440fff3 	bnez	v0,9d009174 <fgetc+0x98>
9d0091a8:	02002021 	move	a0,s0
9d0091ac:	0f402289 	jal	9d008a24 <_filbuf>
9d0091b0:	00000000 	nop
9d0091b4:	0b40244f 	j	9d00913c <fgetc+0x60>
9d0091b8:	9603000c 	lhu	v1,12(s0)
9d0091bc:	5040ffee 	beqzl	v0,9d009178 <fgetc+0x9c>
9d0091c0:	34630010 	ori	v1,v1,0x10
9d0091c4:	8e040004 	lw	a0,4(s0)
9d0091c8:	8e020000 	lw	v0,0(s0)
9d0091cc:	24840001 	addiu	a0,a0,1
9d0091d0:	2442ffff 	addiu	v0,v0,-1
9d0091d4:	ae040004 	sw	a0,4(s0)
9d0091d8:	0b40245d 	j	9d009174 <fgetc+0x98>
9d0091dc:	ae020000 	sw	v0,0(s0)

Disassembly of section .rodata:

9d0091e0 <_ctype>:
9d0091e0:	20202000 20202020 28282020 20282828     .         ((((( 
9d0091f0:	20202020 20202020 20202020 20202020                     
9d009200:	10108020 10101010 10101010 10101010      ...............
9d009210:	04040410 04040404 10040404 10101010     ................
9d009220:	41411010 41414141 01010101 01010101     ..AAAAAA........
9d009230:	01010101 01010101 01010101 10101010     ................
9d009240:	42421010 42424242 02020202 02020202     ..BBBBBB........
9d009250:	02020202 02020202 02020202 10101010     ................
9d009260:	00000020 00000000 00000000 00000000      ...............
	...

Disassembly of section .text.__ldexpf:

9d0092e4 <__ldexpf>:
9d0092e4:	7c863dc0 	ext	a2,a0,0x17,0x8
9d0092e8:	24c8ffff 	addiu	t0,a2,-1
9d0092ec:	2d0800fe 	sltiu	t0,t0,254
9d0092f0:	00044fc2 	srl	t1,a0,0x1f
9d0092f4:	1100002b 	beqz	t0,9d0093a4 <__ldexpf+0xc0>
9d0092f8:	7c87b000 	ext	a3,a0,0x0,0x17
9d0092fc:	24c6ff81 	addiu	a2,a2,-127
9d009300:	3c020080 	lui	v0,0x80
9d009304:	00e21025 	or	v0,a3,v0
9d009308:	00c53021 	addu	a2,a2,a1
9d00930c:	24c3007f 	addiu	v1,a2,127
9d009310:	18600018 	blez	v1,9d009374 <__ldexpf+0x90>
9d009314:	000210c0 	sll	v0,v0,0x3
9d009318:	30440007 	andi	a0,v0,0x7
9d00931c:	1480000d 	bnez	a0,9d009354 <__ldexpf+0x70>
9d009320:	7c4400c0 	ext	a0,v0,0x3,0x1
9d009324:	286400ff 	slti	a0,v1,255
9d009328:	10800024 	beqz	a0,9d0093bc <__ldexpf+0xd8>
9d00932c:	000210c2 	srl	v0,v0,0x3
9d009330:	7c4405c0 	ext	a0,v0,0x17,0x1
9d009334:	50800002 	beqzl	a0,9d009340 <__ldexpf+0x5c>
9d009338:	00001821 	move	v1,zero
9d00933c:	7c42b000 	ext	v0,v0,0x0,0x17
9d009340:	00094a00 	sll	t1,t1,0x8
9d009344:	00691825 	or	v1,v1,t1
9d009348:	00031dc0 	sll	v1,v1,0x17
9d00934c:	03e00008 	jr	ra
9d009350:	00621025 	or	v0,v1,v0
9d009354:	24420003 	addiu	v0,v0,3
9d009358:	00441021 	addu	v0,v0,a0
9d00935c:	000226c2 	srl	a0,v0,0x1b
9d009360:	1080fff1 	beqz	a0,9d009328 <__ldexpf+0x44>
9d009364:	286400ff 	slti	a0,v1,255
9d009368:	00021042 	srl	v0,v0,0x1
9d00936c:	0b4024c9 	j	9d009324 <__ldexpf+0x40>
9d009370:	24630001 	addiu	v1,v1,1
9d009374:	2403ff82 	li	v1,-126
9d009378:	00661823 	subu	v1,v1,a2
9d00937c:	2864001b 	slti	a0,v1,27
9d009380:	50800012 	beqzl	a0,9d0093cc <__ldexpf+0xe8>
9d009384:	00001021 	move	v0,zero
9d009388:	24c4009e 	addiu	a0,a2,158
9d00938c:	00822004 	sllv	a0,v0,a0
9d009390:	00621006 	srlv	v0,v0,v1
9d009394:	0004182b 	sltu	v1,zero,a0
9d009398:	00621025 	or	v0,v1,v0
9d00939c:	0b4024c6 	j	9d009318 <__ldexpf+0x34>
9d0093a0:	24030001 	li	v1,1
9d0093a4:	14c00003 	bnez	a2,9d0093b4 <__ldexpf+0xd0>
9d0093a8:	00000000 	nop
9d0093ac:	14e00009 	bnez	a3,9d0093d4 <__ldexpf+0xf0>
9d0093b0:	70e31820 	clz	v1,a3
9d0093b4:	03e00008 	jr	ra
9d0093b8:	00801021 	move	v0,a0
9d0093bc:	00091200 	sll	v0,t1,0x8
9d0093c0:	344200ff 	ori	v0,v0,0xff
9d0093c4:	03e00008 	jr	ra
9d0093c8:	000215c0 	sll	v0,v0,0x17
9d0093cc:	0b4024d0 	j	9d009340 <__ldexpf+0x5c>
9d0093d0:	00001821 	move	v1,zero
9d0093d4:	2462fff8 	addiu	v0,v1,-8
9d0093d8:	00471004 	sllv	v0,a3,v0
9d0093dc:	2406ff8a 	li	a2,-118
9d0093e0:	0b4024c2 	j	9d009308 <__ldexpf+0x24>
9d0093e4:	00c33023 	subu	a2,a2,v1

Disassembly of section .text.dptofp:

9d0093e8 <__truncdfsf2>:
9d0093e8:	00053ac0 00045d42 00eb3825 000432c0     .:..B]..%8...2..
9d0093f8:	3c018000 00e13825 3c018000 00a14824     ...<%8.....<$H..
9d009408:	00054040 00084542 2508fc80 250bffff     @@..BE.....%...%
9d009418:	2d6100fe 10200012 00000000              ..a-.. .....

9d009424 <Hlab1>:
9d009424:	10c00002 	beqz	a2,9d009430 <i45>
9d009428:	00000000 	nop
9d00942c:	34e70001 	ori	a3,a3,0x1

9d009430 <i45>:
9d009430:	24e70080 	addiu	a3,a3,128
9d009434:	2ceb0080 	sltiu	t3,a3,128
9d009438:	010b4021 	addu	t0,t0,t3
9d00943c:	00075a02 	srl	t3,a3,0x8
9d009440:	316b0001 	andi	t3,t3,0x1
9d009444:	00eb3823 	subu	a3,a3,t3
9d009448:	00073840 	sll	a3,a3,0x1
9d00944c:	00073a42 	srl	a3,a3,0x9
9d009450:	00085dc0 	sll	t3,t0,0x17
9d009454:	00eb3825 	or	a3,a3,t3
9d009458:	00e91025 	or	v0,a3,t1

9d00945c <H999>:
9d00945c:	03e00008 	jr	ra
9d009460:	00000000 	nop
9d009464:	00000000 	nop

9d009468 <Hspec>:
9d009468:	2401047f 	li	at,1151
9d00946c:	15010007 	bne	t0,at,9d00948c <i46>
9d009470:	00000000 	nop
9d009474:	00075840 	sll	t3,a3,0x1
9d009478:	01665825 	or	t3,t3,a2
9d00947c:	11600003 	beqz	t3,9d00948c <i46>
9d009480:	00000000 	nop
9d009484:	1000fff5 	b	9d00945c <H999>
9d009488:	3c02ffc0 	lui	v0,0xffc0

9d00948c <i46>:
9d00948c:	290100ff 	slti	at,t0,255
9d009490:	14200004 	bnez	at,9d0094a4 <i48>
9d009494:	00000000 	nop
9d009498:	3c017f80 	lui	at,0x7f80
9d00949c:	1000ffef 	b	9d00945c <H999>
9d0094a0:	01211025 	or	v0,t1,at

9d0094a4 <i48>:
9d0094a4:	240a0001 	li	t2,1
9d0094a8:	01485023 	subu	t2,t2,t0
9d0094ac:	2d410020 	sltiu	at,t2,32
9d0094b0:	14200003 	bnez	at,9d0094c0 <i49>
9d0094b4:	00000000 	nop
9d0094b8:	1000ffe8 	b	9d00945c <H999>
9d0094bc:	00091025 	or	v0,zero,t1

9d0094c0 <i49>:
9d0094c0:	240c0020 	li	t4,32
9d0094c4:	018a6023 	subu	t4,t4,t2
9d0094c8:	01875804 	sllv	t3,a3,t4
9d0094cc:	00cb3025 	or	a2,a2,t3
9d0094d0:	01473806 	srlv	a3,a3,t2
9d0094d4:	24080000 	li	t0,0
9d0094d8:	3c018000 	lui	at,0x8000
9d0094dc:	1000ffd1 	b	9d009424 <Hlab1>
9d0094e0:	00e13825 	or	a3,a3,at
9d0094e4:	00000000 	nop

Disassembly of section .dinit:

9d0094e8 <.dinit>:
9d0094e8:	a0000004 	sb	zero,4(zero)
9d0094ec:	000000a4 	0xa4
9d0094f0:	00000001 	movf	zero,zero,$fcc0
9d0094f4:	a00000ac 	sb	zero,172(zero)
9d0094f8:	00000000 	nop
9d0094fc:	a00000ac 	sb	zero,172(zero)
9d009500:	00000009 	jalr	zero,zero
9d009504:	00000020 	add	zero,zero,zero
9d009508:	a00000cc 	sb	zero,204(zero)
9d00950c:	00000000 	nop
9d009510:	a00000cc 	sb	zero,204(zero)
9d009514:	0001020e 	0x1020e
	...
9d009528:	00020206 	0x20206
	...
9d009594:	a0000004 	sb	zero,4(zero)
9d009598:	a00000a8 	sb	zero,168(zero)
9d00959c:	00000044 	0x44
9d0095a0:	00000000 	nop
9d0095a4:	a00000ec 	sb	zero,236(zero)
9d0095a8:	00000004 	sllv	zero,zero,zero
9d0095ac:	00000000 	nop
9d0095b0:	a0000000 	sb	zero,0(zero)
9d0095b4:	00000004 	sllv	zero,zero,zero
9d0095b8:	00000001 	movf	zero,zero,$fcc0
9d0095bc:	00000002 	srl	zero,zero,0x0
9d0095c0:	a00000f0 	sb	zero,240(zero)
9d0095c4:	00000004 	sllv	zero,zero,zero
	...
9d0095d0:	22222222 	addi	v0,s1,8738
9d0095d4:	22222222 	addi	v0,s1,8738

Disassembly of section .rodata:

9d0095d8 <.rodata>:
9d0095d8:	00000001 	movf	zero,zero,$fcc0
9d0095dc:	00000000 	nop
9d0095e0:	0000000a 	movz	zero,zero,zero
9d0095e4:	00000000 	nop
9d0095e8:	00000064 	0x64
9d0095ec:	00000000 	nop
9d0095f0:	000003e8 	0x3e8
9d0095f4:	00000000 	nop
9d0095f8:	00002710 	0x2710
9d0095fc:	00000000 	nop
9d009600:	000186a0 	0x186a0
9d009604:	00000000 	nop
9d009608:	000f4240 	sll	t0,t7,0x9
9d00960c:	00000000 	nop
9d009610:	00989680 	0x989680
9d009614:	00000000 	nop
9d009618:	05f5e100 	0x5f5e100
9d00961c:	00000000 	nop
9d009620:	3b9aca00 	xori	k0,gp,0xca00
9d009624:	00000000 	nop
9d009628:	540be400 	bnel	zero,t3,9d00262c <vfprintf+0x82c>
9d00962c:	00000002 	srl	zero,zero,0x0
9d009630:	4876e800 	mfhc2	s6,$29
9d009634:	00000017 	0x17
9d009638:	d4a51000 	ldc1	$f5,4096(a1)
9d00963c:	000000e8 	0xe8
9d009640:	4e72a000 	c3	0x72a000
9d009644:	00000918 	0x918
9d009648:	107a4000 	beq	v1,k0,9d01964c <.LFE16+0xeea0>
9d00964c:	00005af3 	tltu	zero,zero,0x16b
9d009650:	a4c68000 	sh	a2,-32768(a2)
9d009654:	00038d7e 	0x38d7e
9d009658:	6fc10000 	0x6fc10000
9d00965c:	002386f2 	tlt	at,v1,0x21b
9d009660:	5d8a0000 	0x5d8a0000
9d009664:	01634578 	0x1634578
9d009668:	a7640000 	sh	a0,0(k1)
9d00966c:	0de0b6b3 	jal	9782dacc <_bmxdkpba_address+0x9780dacc>
9d009670:	89e80000 	lwl	t0,0(t7)
9d009674:	8ac72304 	lwl	a3,8964(s6)
9d009678:	6c756e28 	0x6c756e28
9d00967c:	0000296c 	0x296c
9d009680:	33323130 	andi	s2,t9,0x3130
9d009684:	37363534 	ori	s6,t9,0x3534
9d009688:	42413938 	c0	0x413938
9d00968c:	46454443 	c1	0x454443
9d009690:	00000000 	nop
9d009694:	33323130 	andi	s2,t9,0x3130
9d009698:	37363534 	ori	s6,t9,0x3534
9d00969c:	62613938 	0x62613938
9d0096a0:	66656463 	0x66656463
9d0096a4:	00000000 	nop
9d0096a8:	3f000000 	0x3f000000
9d0096ac:	3f800000 	0x3f800000
9d0096b0:	41200000 	0x41200000
9d0096b4:	3dcccccd 	0x3dcccccd
9d0096b8:	4089705f 	0x4089705f
9d0096bc:	00000000 	nop
9d0096c0:	00000001 	movf	zero,zero,$fcc0
9d0096c4:	00000000 	nop
9d0096c8:	0000000a 	movz	zero,zero,zero
9d0096cc:	00000000 	nop
9d0096d0:	00000064 	0x64
9d0096d4:	00000000 	nop
9d0096d8:	000003e8 	0x3e8
9d0096dc:	00000000 	nop
9d0096e0:	00002710 	0x2710
9d0096e4:	00000000 	nop
9d0096e8:	000186a0 	0x186a0
9d0096ec:	00000000 	nop
9d0096f0:	000f4240 	sll	t0,t7,0x9
9d0096f4:	00000000 	nop
9d0096f8:	00989680 	0x989680
9d0096fc:	00000000 	nop
9d009700:	05f5e100 	0x5f5e100
9d009704:	00000000 	nop
9d009708:	3b9aca00 	xori	k0,gp,0xca00
9d00970c:	00000000 	nop
9d009710:	540be400 	bnel	zero,t3,9d002714 <vfprintf+0x914>
9d009714:	00000002 	srl	zero,zero,0x0
9d009718:	4876e800 	mfhc2	s6,$29
9d00971c:	00000017 	0x17
9d009720:	d4a51000 	ldc1	$f5,4096(a1)
9d009724:	000000e8 	0xe8
9d009728:	4e72a000 	c3	0x72a000
9d00972c:	00000918 	0x918
9d009730:	107a4000 	beq	v1,k0,9d019734 <.LFE16+0xef88>
9d009734:	00005af3 	tltu	zero,zero,0x16b
9d009738:	a4c68000 	sh	a2,-32768(a2)
9d00973c:	00038d7e 	0x38d7e
9d009740:	6fc10000 	0x6fc10000
9d009744:	002386f2 	tlt	at,v1,0x21b
9d009748:	5d8a0000 	0x5d8a0000
9d00974c:	01634578 	0x1634578
9d009750:	a7640000 	sh	a0,0(k1)
9d009754:	0de0b6b3 	jal	9782dacc <_bmxdkpba_address+0x9780dacc>
9d009758:	89e80000 	lwl	t0,0(t7)
9d00975c:	8ac72304 	lwl	a3,8964(s6)
9d009760:	6c756e28 	0x6c756e28
9d009764:	0000296c 	0x296c
9d009768:	33323130 	andi	s2,t9,0x3130
9d00976c:	37363534 	ori	s6,t9,0x3534
9d009770:	42413938 	c0	0x413938
9d009774:	46454443 	c1	0x454443
9d009778:	00000000 	nop
9d00977c:	33323130 	andi	s2,t9,0x3130
9d009780:	37363534 	ori	s6,t9,0x3534
9d009784:	62613938 	0x62613938
9d009788:	66656463 	0x66656463
9d00978c:	00000000 	nop
9d009790:	3f800000 	0x3f800000
9d009794:	41200000 	0x41200000
9d009798:	3f000000 	0x3f000000
9d00979c:	4089705f 	0x4089705f

Disassembly of section .text.general_exception:

9d0097a0 <_general_exception_context>:
9d0097a0:	27bdffa8 	addiu	sp,sp,-88
9d0097a4:	afa10004 	sw	at,4(sp)
9d0097a8:	afa20008 	sw	v0,8(sp)
9d0097ac:	afa3000c 	sw	v1,12(sp)
9d0097b0:	afa40010 	sw	a0,16(sp)
9d0097b4:	afa50014 	sw	a1,20(sp)
9d0097b8:	afa60018 	sw	a2,24(sp)
9d0097bc:	afa7001c 	sw	a3,28(sp)
9d0097c0:	afa80020 	sw	t0,32(sp)
9d0097c4:	afa90024 	sw	t1,36(sp)
9d0097c8:	afaa0028 	sw	t2,40(sp)
9d0097cc:	afab002c 	sw	t3,44(sp)
9d0097d0:	afac0030 	sw	t4,48(sp)
9d0097d4:	afad0034 	sw	t5,52(sp)
9d0097d8:	afae0038 	sw	t6,56(sp)
9d0097dc:	afaf003c 	sw	t7,60(sp)
9d0097e0:	afb80040 	sw	t8,64(sp)
9d0097e4:	afb90044 	sw	t9,68(sp)
9d0097e8:	afbf0048 	sw	ra,72(sp)
9d0097ec:	00004012 	mflo	t0
9d0097f0:	afa8004c 	sw	t0,76(sp)
9d0097f4:	00004010 	mfhi	t0
9d0097f8:	afa80050 	sw	t0,80(sp)
9d0097fc:	3c1a9d01 	lui	k0,0x9d01
9d009800:	275aa374 	addiu	k0,k0,-23692
9d009804:	00000000 	nop
9d009808:	40046800 	mfc0	a0,c0_cause
9d00980c:	40056000 	mfc0	a1,c0_status
9d009810:	0340f809 	jalr	k0
9d009814:	00000000 	nop
9d009818:	8fa80050 	lw	t0,80(sp)
9d00981c:	01000011 	mthi	t0
9d009820:	8fa8004c 	lw	t0,76(sp)
9d009824:	01000013 	mtlo	t0
9d009828:	8fa10004 	lw	at,4(sp)
9d00982c:	8fa20008 	lw	v0,8(sp)
9d009830:	8fa3000c 	lw	v1,12(sp)
9d009834:	8fa40010 	lw	a0,16(sp)
9d009838:	8fa50014 	lw	a1,20(sp)
9d00983c:	8fa60018 	lw	a2,24(sp)
9d009840:	8fa7001c 	lw	a3,28(sp)
9d009844:	8fa80020 	lw	t0,32(sp)
9d009848:	8fa90024 	lw	t1,36(sp)
9d00984c:	8faa0028 	lw	t2,40(sp)
9d009850:	8fab002c 	lw	t3,44(sp)
9d009854:	8fac0030 	lw	t4,48(sp)
9d009858:	8fad0034 	lw	t5,52(sp)
9d00985c:	8fae0038 	lw	t6,56(sp)
9d009860:	8faf003c 	lw	t7,60(sp)
9d009864:	8fb80040 	lw	t8,64(sp)
9d009868:	8fb90044 	lw	t9,68(sp)
9d00986c:	8fbf0048 	lw	ra,72(sp)
9d009870:	27bd0058 	addiu	sp,sp,88
9d009874:	000000c0 	ehb
9d009878:	42000018 	eret

Disassembly of section .text._mon_putc:

9d00987c <_mon_putc>:
9d00987c:	27bdffe8 	addiu	sp,sp,-24
9d009880:	afbf0014 	sw	ra,20(sp)
9d009884:	3c02a000 	lui	v0,0xa000
9d009888:	8c420000 	lw	v0,0(v0)
9d00988c:	1440000a 	bnez	v0,9d0098b8 <_mon_putc+0x3c>
9d009890:	7c042420 	seb	a0,a0
9d009894:	3c020000 	lui	v0,0x0
9d009898:	24420000 	addiu	v0,v0,0
9d00989c:	10400025 	beqz	v0,9d009934 <_mon_putc+0xb8>
9d0098a0:	3c020000 	lui	v0,0x0
9d0098a4:	0c000000 	jal	90000000 <_bmxdkpba_address+0x8ffe0000>
9d0098a8:	00000000 	nop
9d0098ac:	8fbf0014 	lw	ra,20(sp)
9d0098b0:	03e00008 	jr	ra
9d0098b4:	27bd0018 	addiu	sp,sp,24
9d0098b8:	24030001 	li	v1,1
9d0098bc:	10430015 	beq	v0,v1,9d009914 <_mon_putc+0x98>
9d0098c0:	3c05bf80 	lui	a1,0xbf80
9d0098c4:	3c05bf80 	lui	a1,0xbf80
9d0098c8:	24a56820 	addiu	a1,a1,26656
9d0098cc:	3c02bf80 	lui	v0,0xbf80
9d0098d0:	24426818 	addiu	v0,v0,26648
9d0098d4:	3c06bf80 	lui	a2,0xbf80
9d0098d8:	24c66808 	addiu	a2,a2,26632
9d0098dc:	3c03bf80 	lui	v1,0xbf80
9d0098e0:	24636810 	addiu	v1,v1,26640
9d0098e4:	34078000 	li	a3,0x8000
9d0098e8:	acc70000 	sw	a3,0(a2)
9d0098ec:	24060400 	li	a2,1024
9d0098f0:	ac460000 	sw	a2,0(v0)
9d0098f4:	8c620000 	lw	v0,0(v1)
9d0098f8:	30420100 	andi	v0,v0,0x100
9d0098fc:	1040fffd 	beqz	v0,9d0098f4 <_mon_putc+0x78>
9d009900:	00000000 	nop
9d009904:	aca40000 	sw	a0,0(a1)
9d009908:	8fbf0014 	lw	ra,20(sp)
9d00990c:	03e00008 	jr	ra
9d009910:	27bd0018 	addiu	sp,sp,24
9d009914:	24a56020 	addiu	a1,a1,24608
9d009918:	3c02bf80 	lui	v0,0xbf80
9d00991c:	24426018 	addiu	v0,v0,24600
9d009920:	3c06bf80 	lui	a2,0xbf80
9d009924:	24c66008 	addiu	a2,a2,24584
9d009928:	3c03bf80 	lui	v1,0xbf80
9d00992c:	0b402639 	j	9d0098e4 <_mon_putc+0x68>
9d009930:	24636010 	addiu	v1,v1,24592
9d009934:	24420000 	addiu	v0,v0,0
9d009938:	1040ffe3 	beqz	v0,9d0098c8 <_mon_putc+0x4c>
9d00993c:	3c05bf80 	lui	a1,0xbf80
9d009940:	0c000000 	jal	90000000 <_bmxdkpba_address+0x8ffe0000>
9d009944:	00000000 	nop
9d009948:	0b40262c 	j	9d0098b0 <_mon_putc+0x34>
9d00994c:	8fbf0014 	lw	ra,20(sp)

Disassembly of section .text.fptodp:

9d009950 <__extendsfdf2>:
9d009950:	00043dc2 30e700ff 3c018000 00813024     .=.....0...<$0..
9d009960:	24e9ffff 2d2100fe 1020000d 00000000     ...$..!-.. .....

9d009970 <Glab1>:
9d009970:	24e70380 	addiu	a3,a3,896
9d009974:	00044a40 	sll	t1,a0,0x9
9d009978:	00094b02 	srl	t1,t1,0xc
9d00997c:	00c93025 	or	a2,a2,t1
9d009980:	00042f40 	sll	a1,a0,0x1d

9d009984 <Gret>:
9d009984:	00074d00 	sll	t1,a3,0x14
9d009988:	00c93025 	or	a2,a2,t1
9d00998c:	00051025 	or	v0,zero,a1
9d009990:	00061825 	or	v1,zero,a2

9d009994 <G999>:
9d009994:	03e00008 	jr	ra
9d009998:	00000000 	nop
9d00999c:	00000000 	nop

9d0099a0 <Gspec>:
9d0099a0:	24050000 	li	a1,0
9d0099a4:	00842021 	addu	a0,a0,a0
9d0099a8:	1080fff6 	beqz	a0,9d009984 <Gret>
9d0099ac:	00000000 	nop
9d0099b0:	14e00009 	bnez	a3,9d0099d8 <i42>
9d0099b4:	00000000 	nop

9d0099b8 <b43>:
9d0099b8:	24e7ffff 	addiu	a3,a3,-1
9d0099bc:	00842021 	addu	a0,a0,a0
9d0099c0:	3c010080 	lui	at,0x80
9d0099c4:	0081082b 	sltu	at,a0,at
9d0099c8:	1420fffb 	bnez	at,9d0099b8 <b43>
9d0099cc:	00000000 	nop
9d0099d0:	1000ffe7 	b	9d009970 <Glab1>
9d0099d4:	00000000 	nop

9d0099d8 <i42>:
9d0099d8:	240707ff 	li	a3,2047
9d0099dc:	3c01ff00 	lui	at,0xff00
9d0099e0:	34210001 	ori	at,at,0x1
9d0099e4:	0081082b 	sltu	at,a0,at
9d0099e8:	1420ffe6 	bnez	at,9d009984 <Gret>
9d0099ec:	00000000 	nop
9d0099f0:	1000ffe4 	b	9d009984 <Gret>
9d0099f4:	3c06fff8 	lui	a2,0xfff8
9d0099f8:	00000000 	nop

Disassembly of section .text:

9d0099fc <memset>:
9d0099fc:	00801021 	move	v0,a0
9d009a00:	10c00026 	beqz	a2,9d009a9c <memset+0xa0>
9d009a04:	2cca0010 	sltiu	t2,a2,16
9d009a08:	1540001f 	bnez	t2,9d009a88 <memset+0x8c>
9d009a0c:	30a500ff 	andi	a1,a1,0xff
9d009a10:	00055200 	sll	t2,a1,0x8
9d009a14:	00aa2825 	or	a1,a1,t2
9d009a18:	00055400 	sll	t2,a1,0x10
9d009a1c:	00aa2825 	or	a1,a1,t2
9d009a20:	30830003 	andi	v1,a0,0x3
9d009a24:	10600005 	beqz	v1,9d009a3c <memset+0x40>
9d009a28:	24070004 	li	a3,4
9d009a2c:	00e33823 	subu	a3,a3,v1
9d009a30:	00c73023 	subu	a2,a2,a3
9d009a34:	b8850000 	swr	a1,0(a0)
9d009a38:	00872021 	addu	a0,a0,a3
9d009a3c:	30c3000f 	andi	v1,a2,0xf
9d009a40:	00c33823 	subu	a3,a2,v1
9d009a44:	10e00008 	beqz	a3,9d009a68 <memset+0x6c>
9d009a48:	00603021 	move	a2,v1
9d009a4c:	00e43821 	addu	a3,a3,a0
9d009a50:	ac850000 	sw	a1,0(a0)
9d009a54:	ac850004 	sw	a1,4(a0)
9d009a58:	ac850008 	sw	a1,8(a0)
9d009a5c:	24840010 	addiu	a0,a0,16
9d009a60:	1487fffb 	bne	a0,a3,9d009a50 <memset+0x54>
9d009a64:	ac85fffc 	sw	a1,-4(a0)
9d009a68:	30c30003 	andi	v1,a2,0x3
9d009a6c:	00c33823 	subu	a3,a2,v1
9d009a70:	10e00005 	beqz	a3,9d009a88 <memset+0x8c>
9d009a74:	00603021 	move	a2,v1
9d009a78:	00e43821 	addu	a3,a3,a0
9d009a7c:	24840004 	addiu	a0,a0,4
9d009a80:	1487fffe 	bne	a0,a3,9d009a7c <memset+0x80>
9d009a84:	ac85fffc 	sw	a1,-4(a0)
9d009a88:	10c00004 	beqz	a2,9d009a9c <memset+0xa0>
9d009a8c:	00c43821 	addu	a3,a2,a0
9d009a90:	24840001 	addiu	a0,a0,1
9d009a94:	1487fffe 	bne	a0,a3,9d009a90 <memset+0x94>
9d009a98:	a085ffff 	sb	a1,-1(a0)
9d009a9c:	03e00008 	jr	ra
9d009aa0:	00000000 	nop

Disassembly of section .text.range:

9d009aa4 <range>:
9d009aa4:	27bdffe0 	addiu	sp,sp,-32
9d009aa8:	afbf001c 	sw	ra,28(sp)
9d009aac:	afb00018 	sw	s0,24(sp)
9d009ab0:	3c109d01 	lui	s0,0x9d01
9d009ab4:	261091e1 	addiu	s0,s0,-28191
9d009ab8:	00901821 	addu	v1,a0,s0
9d009abc:	90630000 	lbu	v1,0(v1)
9d009ac0:	30670004 	andi	a3,v1,0x4
9d009ac4:	10e0000a 	beqz	a3,9d009af0 <range+0x4c>
9d009ac8:	00801021 	move	v0,a0
9d009acc:	2482ffd0 	addiu	v0,a0,-48
9d009ad0:	0045282a 	slt	a1,v0,a1
9d009ad4:	14a00013 	bnez	a1,9d009b24 <range+0x80>
9d009ad8:	304200ff 	andi	v0,v0,0xff
9d009adc:	240200ff 	li	v0,255
9d009ae0:	8fbf001c 	lw	ra,28(sp)
9d009ae4:	8fb00018 	lw	s0,24(sp)
9d009ae8:	03e00008 	jr	ra
9d009aec:	27bd0020 	addiu	sp,sp,32
9d009af0:	30670001 	andi	a3,v1,0x1
9d009af4:	50e00004 	beqzl	a3,9d009b08 <range+0x64>
9d009af8:	30630003 	andi	v1,v1,0x3
9d009afc:	14c0000d 	bnez	a2,9d009b34 <range+0x90>
9d009b00:	00000000 	nop
9d009b04:	30630003 	andi	v1,v1,0x3
9d009b08:	5060fff5 	beqzl	v1,9d009ae0 <range+0x3c>
9d009b0c:	240200ff 	li	v0,255
9d009b10:	2442ffa9 	addiu	v0,v0,-87
9d009b14:	0045282a 	slt	a1,v0,a1
9d009b18:	50a0fff1 	beqzl	a1,9d009ae0 <range+0x3c>
9d009b1c:	240200ff 	li	v0,255
9d009b20:	304200ff 	andi	v0,v0,0xff
9d009b24:	8fbf001c 	lw	ra,28(sp)
9d009b28:	8fb00018 	lw	s0,24(sp)
9d009b2c:	03e00008 	jr	ra
9d009b30:	27bd0020 	addiu	sp,sp,32
9d009b34:	0f40295e 	jal	9d00a578 <.LFE0>
9d009b38:	afa50010 	sw	a1,16(sp)
9d009b3c:	00508021 	addu	s0,v0,s0
9d009b40:	92030000 	lbu	v1,0(s0)
9d009b44:	0b4026c1 	j	9d009b04 <range+0x60>
9d009b48:	8fa50010 	lw	a1,16(sp)

Disassembly of section .text.atoi:

9d009b4c <atoi>:
9d009b4c:	24030020 	li	v1,32
9d009b50:	24050009 	li	a1,9
9d009b54:	80820000 	lb	v0,0(a0)
9d009b58:	5043fffe 	beql	v0,v1,9d009b54 <atoi+0x8>
9d009b5c:	24840001 	addiu	a0,a0,1
9d009b60:	54450003 	bnel	v0,a1,9d009b70 <atoi+0x24>
9d009b64:	2403002d 	li	v1,45
9d009b68:	0b4026d5 	j	9d009b54 <atoi+0x8>
9d009b6c:	24840001 	addiu	a0,a0,1
9d009b70:	10430019 	beq	v0,v1,9d009bd8 <atoi+0x8c>
9d009b74:	00802821 	move	a1,a0
9d009b78:	2403002b 	li	v1,43
9d009b7c:	1043001a 	beq	v0,v1,9d009be8 <atoi+0x9c>
9d009b80:	00004821 	move	t1,zero
9d009b84:	3c089d01 	lui	t0,0x9d01
9d009b88:	250891e1 	addiu	t0,t0,-28191
9d009b8c:	01021821 	addu	v1,t0,v0
9d009b90:	90630000 	lbu	v1,0(v1)
9d009b94:	30630004 	andi	v1,v1,0x4
9d009b98:	1060000c 	beqz	v1,9d009bcc <atoi+0x80>
9d009b9c:	00001821 	move	v1,zero
9d009ba0:	24840001 	addiu	a0,a0,1
9d009ba4:	2446ffd0 	addiu	a2,v0,-48
9d009ba8:	80820000 	lb	v0,0(a0)
9d009bac:	00033840 	sll	a3,v1,0x1
9d009bb0:	000318c0 	sll	v1,v1,0x3
9d009bb4:	01022821 	addu	a1,t0,v0
9d009bb8:	90a50000 	lbu	a1,0(a1)
9d009bbc:	00e31821 	addu	v1,a3,v1
9d009bc0:	30a50004 	andi	a1,a1,0x4
9d009bc4:	14a0fff6 	bnez	a1,9d009ba0 <atoi+0x54>
9d009bc8:	00661821 	addu	v1,v1,a2
9d009bcc:	00031023 	negu	v0,v1
9d009bd0:	03e00008 	jr	ra
9d009bd4:	0069100a 	movz	v0,v1,t1
9d009bd8:	24840001 	addiu	a0,a0,1
9d009bdc:	80a20001 	lb	v0,1(a1)
9d009be0:	0b4026e1 	j	9d009b84 <atoi+0x38>
9d009be4:	24090001 	li	t1,1
9d009be8:	24840001 	addiu	a0,a0,1
9d009bec:	0b4026e1 	j	9d009b84 <atoi+0x38>
9d009bf0:	80a20001 	lb	v0,1(a1)

Disassembly of section .rodata:

9d009bf4 <.LC0>:
9d009bf4:	65746e45 	0x65746e45
9d009bf8:	6e692072 	0x6e692072
9d009bfc:	74736576 	jalx	91cd95d8 <_bmxdkpba_address+0x91cb95d8>
9d009c00:	746e656d 	jalx	91b995b4 <_bmxdkpba_address+0x91b795b4>
9d009c04:	7267202c 	0x7267202c
9d009c08:	6874776f 	0x6874776f
9d009c0c:	74617220 	jalx	9185c880 <_bmxdkpba_address+0x9183c880>
9d009c10:	6e202c65 	0x6e202c65
9d009c14:	65626d75 	0x65626d75
9d009c18:	666f2072 	0x666f2072
9d009c1c:	73727920 	0x73727920
9d009c20:	70752820 	clz	a1 or s5,v1
9d009c24:	206f7420 	addi	t7,v1,29728
9d009c28:	3a296425 	xori	t1,s1,0x6425
9d009c2c:	00000d0a 	0xd0a

9d009c30 <.LC1>:
9d009c30:	20666c25 	addi	a2,v1,27685
9d009c34:	20666c25 	addi	a2,v1,27685
9d009c38:	00006425 	0x6425

9d009c3c <.LC2>:
9d009c3c:	696c6156 	0x696c6156
9d009c40:	6e692064 	0x6e692064
9d009c44:	3f747570 	0x3f747570
9d009c48:	64252020 	0x64252020
9d009c4c:	00000d0a 	0xd0a
9d009c50:	61766e49 	0x61766e49
9d009c54:	2064696c 	addi	a0,v1,26988
9d009c58:	75706e69 	jalx	95c1b9a4 <_bmxdkpba_address+0x95bfb9a4>
9d009c5c:	65203b74 	0x65203b74
9d009c60:	69746978 	0x69746978
9d009c64:	0a2e676e 	j	98b99db8 <_bmxdkpba_address+0x98b79db8>
9d009c68:	0000000d 	break
9d009c6c:	5345520a 	beql	k0,a1,9d01e498 <.LFE16+0x13cec>
9d009c70:	53544c55 	beql	k0,s4,9d01cdc8 <.LFE16+0x1261c>
9d009c74:	0d0a0a3a 	jal	942828e8 <_bmxdkpba_address+0x942628e8>
9d009c78:	00000000 	nop
9d009c7c:	72616559 	udi9	s3,at,t4,0x15
9d009c80:	64332520 	0x64332520
9d009c84:	2520203a 	addiu	zero,t1,8250
9d009c88:	322e3031 	andi	t6,s1,0x3031
9d009c8c:	000d0a66 	0xd0a66

9d009c90 <.LC6>:
9d009c90:	00000d0a 	0xd0a

Disassembly of section .text.fflush:

9d009c94 <fflush>:
9d009c94:	27bdffe8 	addiu	sp,sp,-24
9d009c98:	afbf0014 	sw	ra,20(sp)
9d009c9c:	afb00010 	sw	s0,16(sp)
9d009ca0:	00808021 	move	s0,a0
9d009ca4:	9482000c 	lhu	v0,12(a0)
9d009ca8:	30440201 	andi	a0,v0,0x201
9d009cac:	24030001 	li	v1,1
9d009cb0:	10830017 	beq	a0,v1,9d009d10 <fflush+0x7c>
9d009cb4:	30440202 	andi	a0,v0,0x202
9d009cb8:	24030202 	li	v1,514
9d009cbc:	10830005 	beq	a0,v1,9d009cd4 <fflush+0x40>
9d009cc0:	00001021 	move	v0,zero
9d009cc4:	8fbf0014 	lw	ra,20(sp)
9d009cc8:	8fb00010 	lw	s0,16(sp)
9d009ccc:	03e00008 	jr	ra
9d009cd0:	27bd0018 	addiu	sp,sp,24
9d009cd4:	8e050008 	lw	a1,8(s0)
9d009cd8:	10a0fffb 	beqz	a1,9d009cc8 <fflush+0x34>
9d009cdc:	8fbf0014 	lw	ra,20(sp)
9d009ce0:	8e020004 	lw	v0,4(s0)
9d009ce4:	5040fff9 	beqzl	v0,9d009ccc <fflush+0x38>
9d009ce8:	8fb00010 	lw	s0,16(sp)
9d009cec:	9604000e 	lhu	a0,14(s0)
9d009cf0:	0f402774 	jal	9d009dd0 <write>
9d009cf4:	00403021 	move	a2,v0
9d009cf8:	8e030004 	lw	v1,4(s0)
9d009cfc:	10430004 	beq	v0,v1,9d009d10 <fflush+0x7c>
9d009d00:	9602000c 	lhu	v0,12(s0)
9d009d04:	34420030 	ori	v0,v0,0x30
9d009d08:	3042ffff 	andi	v0,v0,0xffff
9d009d0c:	a602000c 	sh	v0,12(s0)
9d009d10:	8e030008 	lw	v1,8(s0)
9d009d14:	7c420140 	ext	v0,v0,0x5,0x1
9d009d18:	ae000004 	sw	zero,4(s0)
9d009d1c:	ae030000 	sw	v1,0(s0)
9d009d20:	00021023 	negu	v0,v0
9d009d24:	8fbf0014 	lw	ra,20(sp)
9d009d28:	8fb00010 	lw	s0,16(sp)
9d009d2c:	03e00008 	jr	ra
9d009d30:	27bd0018 	addiu	sp,sp,24

Disassembly of section .text.fpcmp:

9d009d34 <__eqsf2>:
9d009d34:	2408fffe 00043040 00053840 00c74825     ...$@0..@8..%H..
9d009d44:	1120001b 00000000 3c01ff00 34210001     .. ........<..!4
9d009d54:	00c1082b 1020001a 00000000 3c01ff00     +..... ........<
9d009d64:	34210001 00e1082b 10200015 00000000     ..!4+..... .....
9d009d74:	04810002 00063042 00063023              ....B0..#0..

9d009d80 <i48>:
9d009d80:	04a10002 	bgez	a1,9d009d8c <i49>
9d009d84:	00073842 	srl	a3,a3,0x1
9d009d88:	00073823 	negu	a3,a3

9d009d8c <i49>:
9d009d8c:	00c7082a 	slt	at,a2,a3
9d009d90:	10200003 	beqz	at,9d009da0 <i50>
9d009d94:	00000000 	nop
9d009d98:	10000007 	b	9d009db8 <J999>
9d009d9c:	2402ffff 	li	v0,-1

9d009da0 <i50>:
9d009da0:	00e6082a 	slt	at,a3,a2
9d009da4:	10200003 	beqz	at,9d009db4 <Jequ>
9d009da8:	00000000 	nop
9d009dac:	10000002 	b	9d009db8 <J999>
9d009db0:	24020001 	li	v0,1

9d009db4 <Jequ>:
9d009db4:	24020000 	li	v0,0

9d009db8 <J999>:
9d009db8:	03e00008 	jr	ra
9d009dbc:	00000000 	nop
9d009dc0:	00000000 	nop

9d009dc4 <Jnan>:
9d009dc4:	1000fffc 	b	9d009db8 <J999>
9d009dc8:	00081025 	or	v0,zero,t0
9d009dcc:	00000000 	nop

Disassembly of section .text.write:

9d009dd0 <write>:
9d009dd0:	10a00018 	beqz	a1,9d009e34 <write+0x64>
9d009dd4:	00001021 	move	v0,zero
9d009dd8:	10c00012 	beqz	a2,9d009e24 <write+0x54>
9d009ddc:	2c840003 	sltiu	a0,a0,3
9d009de0:	10800012 	beqz	a0,9d009e2c <write+0x5c>
9d009de4:	00000000 	nop
9d009de8:	27bdffe0 	addiu	sp,sp,-32
9d009dec:	afbf001c 	sw	ra,28(sp)
9d009df0:	3c020000 	lui	v0,0x0
9d009df4:	24420000 	addiu	v0,v0,0
9d009df8:	10400010 	beqz	v0,9d009e3c <write+0x6c>
9d009dfc:	afb00018 	sw	s0,24(sp)
9d009e00:	00a02021 	move	a0,a1
9d009e04:	00c02821 	move	a1,a2
9d009e08:	0c000000 	jal	90000000 <_bmxdkpba_address+0x8ffe0000>
9d009e0c:	afa60014 	sw	a2,20(sp)
9d009e10:	8fa60014 	lw	a2,20(sp)
9d009e14:	00c01021 	move	v0,a2
9d009e18:	8fbf001c 	lw	ra,28(sp)
9d009e1c:	8fb00018 	lw	s0,24(sp)
9d009e20:	27bd0020 	addiu	sp,sp,32
9d009e24:	03e00008 	jr	ra
9d009e28:	00000000 	nop
9d009e2c:	03e00008 	jr	ra
9d009e30:	00c01021 	move	v0,a2
9d009e34:	03e00008 	jr	ra
9d009e38:	00000000 	nop
9d009e3c:	00c08021 	move	s0,a2
9d009e40:	80a40000 	lb	a0,0(a1)
9d009e44:	2610ffff 	addiu	s0,s0,-1
9d009e48:	24a50001 	addiu	a1,a1,1
9d009e4c:	afa50010 	sw	a1,16(sp)
9d009e50:	0f40261f 	jal	9d00987c <_mon_putc>
9d009e54:	afa60014 	sw	a2,20(sp)
9d009e58:	8fa50010 	lw	a1,16(sp)
9d009e5c:	1600fff8 	bnez	s0,9d009e40 <write+0x70>
9d009e60:	8fa60014 	lw	a2,20(sp)
9d009e64:	0b402786 	j	9d009e18 <write+0x48>
9d009e68:	00c01021 	move	v0,a2

Disassembly of section .text.libm:

9d009e6c <fpfrexp>:
9d009e6c:	000435c2 30c600ff 24c9ffff 2d2100fe     .5.....0...$..!-
9d009e7c:	1020000b 00000000                       .. .....

9d009e84 <Blab1>:
9d009e84:	24c6ff82 	addiu	a2,a2,-126
9d009e88:	3c01807f 	lui	at,0x807f
9d009e8c:	3421ffff 	ori	at,at,0xffff
9d009e90:	00812024 	and	a0,a0,at
9d009e94:	3c013f00 	lui	at,0x3f00
9d009e98:	00812025 	or	a0,a0,at

9d009e9c <Bret>:
9d009e9c:	aca60000 	sw	a2,0(a1)
9d009ea0:	00041025 	or	v0,zero,a0

9d009ea4 <B999>:
9d009ea4:	03e00008 	jr	ra
9d009ea8:	00000000 	nop

9d009eac <Bspec>:
9d009eac:	14c0000d 	bnez	a2,9d009ee4 <i8>
9d009eb0:	00000000 	nop
9d009eb4:	00844821 	addu	t1,a0,a0
9d009eb8:	1120fff8 	beqz	t1,9d009e9c <Bret>
9d009ebc:	00000000 	nop
9d009ec0:	00043a40 	sll	a3,a0,0x9
9d009ec4:	70e84020 	clz	t0,a3
9d009ec8:	00c83023 	subu	a2,a2,t0
9d009ecc:	01073804 	sllv	a3,a3,t0
9d009ed0:	3c018000 	lui	at,0x8000
9d009ed4:	00812024 	and	a0,a0,at
9d009ed8:	00074a02 	srl	t1,a3,0x8
9d009edc:	1000ffe9 	b	9d009e84 <Blab1>
9d009ee0:	00892025 	or	a0,a0,t1

9d009ee4 <i8>:
9d009ee4:	3c04ffc0 	lui	a0,0xffc0
9d009ee8:	1000ffec 	b	9d009e9c <Bret>
9d009eec:	24060000 	li	a2,0
9d009ef0:	00000000 	nop

Disassembly of section .text.fptoul:

9d009ef4 <__fixunssfsi>:
9d009ef4:	00042a00 3c018000 00a12825 00043dc2     .*.....<%(...=..
9d009f04:	30e700ff 2406009e 00c73023 04c0000d     ...0...$#0......
9d009f14:	00000000 28c10020 14200003 00000000     .... ..(.. .....
9d009f24:	10000005 24020000                       .......$

9d009f2c <i45>:
9d009f2c:	04810002 	bgez	a0,9d009f38 <i46>
9d009f30:	00c52806 	srlv	a1,a1,a2
9d009f34:	00052823 	negu	a1,a1

9d009f38 <i46>:
9d009f38:	00051025 	or	v0,zero,a1

9d009f3c <I999>:
9d009f3c:	03e00008 	jr	ra
9d009f40:	00000000 	nop
9d009f44:	00000000 	nop

9d009f48 <Ispec>:
9d009f48:	3c017f80 	lui	at,0x7f80
9d009f4c:	34210001 	ori	at,at,0x1
9d009f50:	0081082b 	sltu	at,a0,at
9d009f54:	14200003 	bnez	at,9d009f64 <i47>
9d009f58:	00000000 	nop
9d009f5c:	1000fff7 	b	9d009f3c <I999>
9d009f60:	3c028000 	lui	v0,0x8000

9d009f64 <i47>:
9d009f64:	1000fff5 	b	9d009f3c <I999>
9d009f68:	2402ffff 	li	v0,-1
9d009f6c:	00000000 	nop

Disassembly of section .text.litodp:

9d009f70 <__floatsidf>:
9d009f70:	24050000 00054825 00053825 00043025     ...$%H..%8..%0..
9d009f80:	10c0000c 00000000 04c10006 00000000     ................
9d009f90:	3c098000 0005502b 00052823 00063023     ...<+P..#(..#0..
9d009fa0:	00ca3023                                #0..

9d009fa4 <i40>:
9d009fa4:	2407041e 	li	a3,1054
9d009fa8:	70c84020 	clz	t0,a2
9d009fac:	00e83823 	subu	a3,a3,t0
9d009fb0:	01063004 	sllv	a2,a2,t0

9d009fb4 <i39>:
9d009fb4:	000542c2 	srl	t0,a1,0xb
9d009fb8:	00065540 	sll	t2,a2,0x15
9d009fbc:	010a4025 	or	t0,t0,t2
9d009fc0:	00065040 	sll	t2,a2,0x1
9d009fc4:	000a5302 	srl	t2,t2,0xc
9d009fc8:	012a4825 	or	t1,t1,t2
9d009fcc:	00075500 	sll	t2,a3,0x14
9d009fd0:	012a4825 	or	t1,t1,t2
9d009fd4:	00081025 	or	v0,zero,t0
9d009fd8:	00091825 	or	v1,zero,t1

9d009fdc <E999>:
9d009fdc:	03e00008 	jr	ra
9d009fe0:	00000000 	nop
9d009fe4:	00000000 	nop

Disassembly of section .text.ungetc:

9d009fe8 <ungetc>:
9d009fe8:	2402ffff 	li	v0,-1
9d009fec:	10820017 	beq	a0,v0,9d00a04c <ungetc+0x64>
9d009ff0:	24030001 	li	v1,1
9d009ff4:	94a2000c 	lhu	v0,12(a1)
9d009ff8:	30460201 	andi	a2,v0,0x201
9d009ffc:	54c30013 	bnel	a2,v1,9d00a04c <ungetc+0x64>
9d00a000:	2402ffff 	li	v0,-1
9d00a004:	8ca60008 	lw	a2,8(a1)
9d00a008:	50c00010 	beqzl	a2,9d00a04c <ungetc+0x64>
9d00a00c:	2402ffff 	li	v0,-1
9d00a010:	8ca70004 	lw	a3,4(a1)
9d00a014:	8ca30010 	lw	v1,16(a1)
9d00a018:	50e3000c 	beql	a3,v1,9d00a04c <ungetc+0x64>
9d00a01c:	2402ffff 	li	v0,-1
9d00a020:	8ca30000 	lw	v1,0(a1)
9d00a024:	10c3000b 	beq	a2,v1,9d00a054 <ungetc+0x6c>
9d00a028:	24e70001 	addiu	a3,a3,1
9d00a02c:	aca70004 	sw	a3,4(a1)
9d00a030:	2467ffff 	addiu	a3,v1,-1
9d00a034:	30460040 	andi	a2,v0,0x40
9d00a038:	aca70000 	sw	a3,0(a1)
9d00a03c:	14c00003 	bnez	a2,9d00a04c <ungetc+0x64>
9d00a040:	00801021 	move	v0,a0
9d00a044:	03e00008 	jr	ra
9d00a048:	a064ffff 	sb	a0,-1(v1)
9d00a04c:	03e00008 	jr	ra
9d00a050:	00000000 	nop
9d00a054:	0b40280c 	j	9d00a030 <ungetc+0x48>
9d00a058:	24630001 	addiu	v1,v1,1

Disassembly of section .text._sprintf_cdfFnopuxX:

9d00a05c <_sprintf_cdfFnopuxX>:
9d00a05c:	27bdffd0 	addiu	sp,sp,-48
9d00a060:	afbf002c 	sw	ra,44(sp)
9d00a064:	afb00028 	sw	s0,40(sp)
9d00a068:	27a20038 	addiu	v0,sp,56
9d00a06c:	00808021 	move	s0,a0
9d00a070:	afa60038 	sw	a2,56(sp)
9d00a074:	27a40010 	addiu	a0,sp,16
9d00a078:	00403021 	move	a2,v0
9d00a07c:	afa7003c 	sw	a3,60(sp)
9d00a080:	afa20024 	sw	v0,36(sp)
9d00a084:	24027fff 	li	v0,32767
9d00a088:	afa20020 	sw	v0,32(sp)
9d00a08c:	afa00014 	sw	zero,20(sp)
9d00a090:	afb00010 	sw	s0,16(sp)
9d00a094:	afb00018 	sw	s0,24(sp)
9d00a098:	240200c2 	li	v0,194
9d00a09c:	0f400e82 	jal	9d003a08 <.LFE2>
9d00a0a0:	a7a2001c 	sh	v0,28(sp)
9d00a0a4:	8fa20010 	lw	v0,16(sp)
9d00a0a8:	a0400000 	sb	zero,0(v0)
9d00a0ac:	8fa20010 	lw	v0,16(sp)
9d00a0b0:	00501023 	subu	v0,v0,s0
9d00a0b4:	8fbf002c 	lw	ra,44(sp)
9d00a0b8:	8fb00028 	lw	s0,40(sp)
9d00a0bc:	03e00008 	jr	ra
9d00a0c0:	27bd0030 	addiu	sp,sp,48

Disassembly of section .rodata:

9d00a0c4 <_powers_f>:
9d00a0c4:	3f800000 41200000 42c80000 447a0000     ...?.. A...B..zD
9d00a0d4:	461c4000 47c35000 49742400 4b189680     .@.F.P.G.$tI...K
9d00a0e4:	4cbebc20 4e6e6b28 501502f9 60ad78ec      ..L(knN...P.x.`
9d00a0f4:	7149f2ca                                ..Iq

9d00a0f8 <_npowers_f>:
9d00a0f8:	3f800000 3dcccccd 3c23d70a 3a83126f     ...?...=..#<o..:
9d00a108:	38d1b717 3727c5ac 358637bd 33d6bf95     ...8..'7.7.5...3
9d00a118:	322bcc77 3089705f 2edbe6ff 1e3ce508     w.+2_p.0......<.
9d00a128:	0da24260                                `B..

Disassembly of section .text.wspace:

9d00a12c <wspace>:
9d00a12c:	27bdffe0 	addiu	sp,sp,-32
9d00a130:	afbf001c 	sw	ra,28(sp)
9d00a134:	afb10018 	sw	s1,24(sp)
9d00a138:	afb00014 	sw	s0,20(sp)
9d00a13c:	3c11a000 	lui	s1,0xa000
9d00a140:	3c109d01 	lui	s0,0x9d01
9d00a144:	261091e1 	addiu	s0,s0,-28191
9d00a148:	0f402437 	jal	9d0090dc <.LFE0>
9d00a14c:	8e2400ec 	lw	a0,236(s1)
9d00a150:	02021821 	addu	v1,s0,v0
9d00a154:	80630000 	lb	v1,0(v1)
9d00a158:	30630088 	andi	v1,v1,0x88
9d00a15c:	1460fffa 	bnez	v1,9d00a148 <wspace+0x1c>
9d00a160:	2403ffff 	li	v1,-1
9d00a164:	10430004 	beq	v0,v1,9d00a178 <wspace+0x4c>
9d00a168:	3c03a000 	lui	v1,0xa000
9d00a16c:	8c6500ec 	lw	a1,236(v1)
9d00a170:	0f4027fa 	jal	9d009fe8 <ungetc>
9d00a174:	00402021 	move	a0,v0
9d00a178:	8fbf001c 	lw	ra,28(sp)
9d00a17c:	8fb10018 	lw	s1,24(sp)
9d00a180:	8fb00014 	lw	s0,20(sp)
9d00a184:	03e00008 	jr	ra
9d00a188:	27bd0020 	addiu	sp,sp,32

Disassembly of section .text.sitofp:

9d00a18c <__floatsisf>:
9d00a18c:	3c018000 10800012 00813024 04810002     ...<....$0......
9d00a19c:	00000000 00042023                       ....# ..

9d00a1a4 <i40>:
9d00a1a4:	2405009e 	li	a1,158
9d00a1a8:	70873820 	clz	a3,a0
9d00a1ac:	00a72823 	subu	a1,a1,a3
9d00a1b0:	00e42004 	sllv	a0,a0,a3
9d00a1b4:	24840080 	addiu	a0,a0,128
9d00a1b8:	2c880080 	sltiu	t0,a0,128
9d00a1bc:	00a82821 	addu	a1,a1,t0
9d00a1c0:	00044203 	sra	t0,a0,0x8
9d00a1c4:	31080001 	andi	t0,t0,0x1
9d00a1c8:	00882023 	subu	a0,a0,t0
9d00a1cc:	00042040 	sll	a0,a0,0x1
9d00a1d0:	00042242 	srl	a0,a0,0x9
9d00a1d4:	000545c0 	sll	t0,a1,0x17
9d00a1d8:	00882025 	or	a0,a0,t0

9d00a1dc <i39>:
9d00a1dc:	00861025 	or	v0,a0,a2

9d00a1e0 <E999>:
9d00a1e0:	03e00008 	jr	ra
9d00a1e4:	00000000 	nop
9d00a1e8:	00000000 	nop

Disassembly of section .text.main_entry:

9d00a1ec <_main_entry>:
9d00a1ec:	3c040000 	lui	a0,0x0
9d00a1f0:	27bdffe8 	addiu	sp,sp,-24
9d00a1f4:	24840000 	addiu	a0,a0,0
9d00a1f8:	10800003 	beqz	a0,9d00a208 <_main_entry+0x1c>
9d00a1fc:	afbf0014 	sw	ra,20(sp)
9d00a200:	0080f809 	jalr	a0
9d00a204:	00000000 	nop
9d00a208:	30840000 	andi	a0,a0,0x0
9d00a20c:	30a50000 	andi	a1,a1,0x0
9d00a210:	3c089d01 	lui	t0,0x9d01
9d00a214:	2508a294 	addiu	t0,t0,-23916
9d00a218:	0100f809 	jalr	t0
9d00a21c:	00000000 	nop

9d00a220 <__crt0_exit>:
9d00a220:	3c020000 24420000 10400003 00000000     ...<..B$..@.....
9d00a230:	0040f809 00000000 1000fff9 00000000     ..@.............

Disassembly of section .text._sscanf_cdfFnopuxX:

9d00a240 <_sscanf_cdfFnopuxX>:
9d00a240:	27bdffc8 	addiu	sp,sp,-56
9d00a244:	afbf0034 	sw	ra,52(sp)
9d00a248:	afa60040 	sw	a2,64(sp)
9d00a24c:	afa70044 	sw	a3,68(sp)
9d00a250:	27a30040 	addiu	v1,sp,64
9d00a254:	afa30024 	sw	v1,36(sp)
9d00a258:	afa40010 	sw	a0,16(sp)
9d00a25c:	afa40018 	sw	a0,24(sp)
9d00a260:	0f4022eb 	jal	9d008bac <.LFE0>
9d00a264:	afa50028 	sw	a1,40(sp)
9d00a268:	8fa60024 	lw	a2,36(sp)
9d00a26c:	27a40010 	addiu	a0,sp,16
9d00a270:	8fa50028 	lw	a1,40(sp)
9d00a274:	afa20014 	sw	v0,20(sp)
9d00a278:	afa20020 	sw	v0,32(sp)
9d00a27c:	240200c1 	li	v0,193
9d00a280:	0f40138a 	jal	9d004e28 <.LFE2>
9d00a284:	a7a2001c 	sh	v0,28(sp)
9d00a288:	8fbf0034 	lw	ra,52(sp)
9d00a28c:	03e00008 	jr	ra
9d00a290:	27bd0038 	addiu	sp,sp,56

Disassembly of section .text:

9d00a294 <main>:
#include <stdio.h>
#include "NU32.h"
#include "helper.h"

int main(void) {
9d00a294:	27bdfe48 	addiu	sp,sp,-440
9d00a298:	afbf01b4 	sw	ra,436(sp)
  NU32_Startup();
9d00a29c:	0f40206e 	jal	9d0081b8 <.LFE29>
9d00a2a0:	00000000 	nop
  Investment inv;
  while(getUserInput(&inv)) {
9d00a2a4:	0b4028b1 	j	9d00a2c4 <main+0x30>
9d00a2a8:	00000000 	nop
    inv.invarray[0] = inv.inv0;
9d00a2ac:	afa2001c 	sw	v0,28(sp)
    calculateGrowth(&inv);
9d00a2b0:	0f401d12 	jal	9d007448 <calculateGrowth>
9d00a2b4:	27a40010 	addiu	a0,sp,16
    sendOutput(inv.invarray,
9d00a2b8:	27a4001c 	addiu	a0,sp,28
9d00a2bc:	0f401d7a 	jal	9d0075e8 <sendOutput>
9d00a2c0:	8fa50018 	lw	a1,24(sp)
#include "helper.h"

int main(void) {
  NU32_Startup();
  Investment inv;
  while(getUserInput(&inv)) {
9d00a2c4:	0f401d2c 	jal	9d0074b0 <getUserInput>
9d00a2c8:	27a40010 	addiu	a0,sp,16
9d00a2cc:	5440fff7 	bnezl	v0,9d00a2ac <main+0x18>
9d00a2d0:	8fa20010 	lw	v0,16(sp)
    calculateGrowth(&inv);
    sendOutput(inv.invarray,
               inv.years);
  }
  return 0;
}
9d00a2d4:	8fbf01b4 	lw	ra,436(sp)
9d00a2d8:	03e00008 	jr	ra
9d00a2dc:	27bd01b8 	addiu	sp,sp,440

9d00a2e0 <__floatunsisf>:
9d00a2e0:	27bdffe8 	addiu	sp,sp,-24
9d00a2e4:	afbf0014 	sw	ra,20(sp)
9d00a2e8:	04800006 	bltz	a0,9d00a304 <__floatunsisf+0x24>
9d00a2ec:	00801021 	move	v0,a0
9d00a2f0:	0f402863 	jal	9d00a18c <.LFE1>
9d00a2f4:	00000000 	nop
9d00a2f8:	8fbf0014 	lw	ra,20(sp)
9d00a2fc:	03e00008 	jr	ra
9d00a300:	27bd0018 	addiu	sp,sp,24
9d00a304:	00042042 	srl	a0,a0,0x1
9d00a308:	30420001 	andi	v0,v0,0x1
9d00a30c:	0f402863 	jal	9d00a18c <.LFE1>
9d00a310:	00822025 	or	a0,a0,v0
9d00a314:	00402021 	move	a0,v0
9d00a318:	0f401db3 	jal	9d0076cc <__addsf3>
9d00a31c:	00402821 	move	a1,v0
9d00a320:	8fbf0014 	lw	ra,20(sp)
9d00a324:	03e00008 	jr	ra
9d00a328:	27bd0018 	addiu	sp,sp,24

Disassembly of section .text._bootstrap_exception_handler:

9d00a32c <_bootstrap_exception_handler>:
9d00a32c:	3c020000 	lui	v0,0x0
9d00a330:	24420000 	addiu	v0,v0,0
9d00a334:	10400005 	beqz	v0,9d00a34c <_bootstrap_exception_handler+0x20>
9d00a338:	3c020000 	lui	v0,0x0
9d00a33c:	24420000 	addiu	v0,v0,0
9d00a340:	10400003 	beqz	v0,9d00a350 <_bootstrap_exception_handler+0x24>
9d00a344:	3c029d01 	lui	v0,0x9d01
9d00a348:	7000003f 	sdbbp
9d00a34c:	3c029d01 	lui	v0,0x9d01
9d00a350:	2442a44c 	addiu	v0,v0,-23476
9d00a354:	10400005 	beqz	v0,9d00a36c <_bootstrap_exception_handler+0x40>
9d00a358:	00000000 	nop
9d00a35c:	27bdffe8 	addiu	sp,sp,-24
9d00a360:	afbf0014 	sw	ra,20(sp)
9d00a364:	0040f809 	jalr	v0
9d00a368:	00000000 	nop
9d00a36c:	0b4028db 	j	9d00a36c <_bootstrap_exception_handler+0x40>
9d00a370:	00000000 	nop

Disassembly of section .text._general_exception_handler:

9d00a374 <_general_exception_handler>:
9d00a374:	3c020000 	lui	v0,0x0
9d00a378:	24420000 	addiu	v0,v0,0
9d00a37c:	10400005 	beqz	v0,9d00a394 <_general_exception_handler+0x20>
9d00a380:	3c020000 	lui	v0,0x0
9d00a384:	24420000 	addiu	v0,v0,0
9d00a388:	10400003 	beqz	v0,9d00a398 <_general_exception_handler+0x24>
9d00a38c:	3c029d01 	lui	v0,0x9d01
9d00a390:	7000003f 	sdbbp
9d00a394:	3c029d01 	lui	v0,0x9d01
9d00a398:	2442a44c 	addiu	v0,v0,-23476
9d00a39c:	10400005 	beqz	v0,9d00a3b4 <_general_exception_handler+0x40>
9d00a3a0:	00000000 	nop
9d00a3a4:	27bdffe8 	addiu	sp,sp,-24
9d00a3a8:	afbf0014 	sw	ra,20(sp)
9d00a3ac:	0040f809 	jalr	v0
9d00a3b0:	00000000 	nop
9d00a3b4:	0b4028ed 	j	9d00a3b4 <_general_exception_handler+0x40>
9d00a3b8:	00000000 	nop

Disassembly of section .vector_default:

9d00a3bc <_DefaultInterrupt>:
9d00a3bc:	3c020000 	lui	v0,0x0
9d00a3c0:	24420000 	addiu	v0,v0,0
9d00a3c4:	10400007 	beqz	v0,9d00a3e4 <_DefaultInterrupt+0x28>
9d00a3c8:	3c020000 	lui	v0,0x0
9d00a3cc:	24420000 	addiu	v0,v0,0
9d00a3d0:	50400005 	beqzl	v0,9d00a3e8 <_DefaultInterrupt+0x2c>
9d00a3d4:	3c029d01 	lui	v0,0x9d01
9d00a3d8:	7000003f 	sdbbp
9d00a3dc:	03e00008 	jr	ra
9d00a3e0:	00000000 	nop
9d00a3e4:	3c029d01 	lui	v0,0x9d01
9d00a3e8:	2442a44c 	addiu	v0,v0,-23476
9d00a3ec:	10400003 	beqz	v0,9d00a3fc <_DefaultInterrupt+0x40>
9d00a3f0:	00000000 	nop
9d00a3f4:	0040f809 	jalr	v0
9d00a3f8:	00000000 	nop
9d00a3fc:	03e00008 	jr	ra
9d00a400:	00000000 	nop

Disassembly of section .rodata:

9d00a404 <f5pow>:
9d00a404:	00000000 40140000 00000000 40390000     .......@......9@
9d00a414:	00000000 40838800 00000000 4117d784     .......@.......A
9d00a424:	37e08000 4241c379 b5056e17 4493b8b5     ...7y.AB.n.....D
9d00a434:	e93ff9f5 49384f03 f9301d32 52827748     ..?..O8I2.0.Hw.R
9d00a444:	7f73bf3c 65154fdd                       <.s..O.e

Disassembly of section .text:

9d00a44c <__pic32_software_reset>:
9d00a44c:	41606000 	di
9d00a450:	000000c0 	ehb
9d00a454:	3c03aa99 	lui	v1,0xaa99
9d00a458:	3c02bf81 	lui	v0,0xbf81
9d00a45c:	24636655 	addiu	v1,v1,26197
9d00a460:	ac40f230 	sw	zero,-3536(v0)
9d00a464:	ac43f230 	sw	v1,-3536(v0)
9d00a468:	3c035566 	lui	v1,0x5566
9d00a46c:	346399aa 	ori	v1,v1,0x99aa
9d00a470:	ac43f230 	sw	v1,-3536(v0)
9d00a474:	3c02bf81 	lui	v0,0xbf81
9d00a478:	24030001 	li	v1,1
9d00a47c:	ac43f618 	sw	v1,-2536(v0)
9d00a480:	3c02bf81 	lui	v0,0xbf81
9d00a484:	8c42f610 	lw	v0,-2544(v0)
9d00a488:	0b402915 	j	9d00a454 <__pic32_software_reset+0x8>
9d00a48c:	00000000 	nop

Disassembly of section .text.printf:

9d00a490 <printf>:
9d00a490:	27bdffe0 	addiu	sp,sp,-32
9d00a494:	afbf001c 	sw	ra,28(sp)
9d00a498:	00801821 	move	v1,a0
9d00a49c:	27a20024 	addiu	v0,sp,36
9d00a4a0:	afa50024 	sw	a1,36(sp)
9d00a4a4:	afa60028 	sw	a2,40(sp)
9d00a4a8:	3c04a000 	lui	a0,0xa000
9d00a4ac:	24840018 	addiu	a0,a0,24
9d00a4b0:	00602821 	move	a1,v1
9d00a4b4:	00403021 	move	a2,v0
9d00a4b8:	afa7002c 	sw	a3,44(sp)
9d00a4bc:	0f400780 	jal	9d001e00 <vfprintf>
9d00a4c0:	afa20010 	sw	v0,16(sp)
9d00a4c4:	8fbf001c 	lw	ra,28(sp)
9d00a4c8:	03e00008 	jr	ra
9d00a4cc:	27bd0020 	addiu	sp,sp,32

Disassembly of section .text:

9d00a4d0 <__lshrdi3>:
9d00a4d0:	10c00009 	beqz	a2,9d00a4f8 <__lshrdi3+0x28>
9d00a4d4:	00801021 	move	v0,a0
9d00a4d8:	24020020 	li	v0,32
9d00a4dc:	00461023 	subu	v0,v0,a2
9d00a4e0:	18400007 	blez	v0,9d00a500 <__lshrdi3+0x30>
9d00a4e4:	00c42006 	srlv	a0,a0,a2
9d00a4e8:	00451004 	sllv	v0,a1,v0
9d00a4ec:	00c51806 	srlv	v1,a1,a2
9d00a4f0:	03e00008 	jr	ra
9d00a4f4:	00441025 	or	v0,v0,a0
9d00a4f8:	03e00008 	jr	ra
9d00a4fc:	00a01821 	move	v1,a1
9d00a500:	00021023 	negu	v0,v0
9d00a504:	00001821 	move	v1,zero
9d00a508:	03e00008 	jr	ra
9d00a50c:	00451006 	srlv	v0,a1,v0

9d00a510 <__ashldi3>:
9d00a510:	10c00009 	beqz	a2,9d00a538 <__ashldi3+0x28>
9d00a514:	00801021 	move	v0,a0
9d00a518:	24030020 	li	v1,32
9d00a51c:	00661823 	subu	v1,v1,a2
9d00a520:	18600007 	blez	v1,9d00a540 <__ashldi3+0x30>
9d00a524:	00c52804 	sllv	a1,a1,a2
9d00a528:	00641806 	srlv	v1,a0,v1
9d00a52c:	00c41004 	sllv	v0,a0,a2
9d00a530:	03e00008 	jr	ra
9d00a534:	00651825 	or	v1,v1,a1
9d00a538:	03e00008 	jr	ra
9d00a53c:	00a01821 	move	v1,a1
9d00a540:	00031823 	negu	v1,v1
9d00a544:	00001021 	move	v0,zero
9d00a548:	03e00008 	jr	ra
9d00a54c:	00641804 	sllv	v1,a0,v1

Disassembly of section .text.strtod:

9d00a550 <strtod>:
9d00a550:	27bdffe8 	addiu	sp,sp,-24
9d00a554:	afbf0014 	sw	ra,20(sp)
9d00a558:	0f401a7d 	jal	9d0069f4 <__strtod>
9d00a55c:	00000000 	nop
9d00a560:	00402021 	move	a0,v0
9d00a564:	0f4024fa 	jal	9d0093e8 <.LFE23>
9d00a568:	00602821 	move	a1,v1
9d00a56c:	8fbf0014 	lw	ra,20(sp)
9d00a570:	03e00008 	jr	ra
9d00a574:	27bd0018 	addiu	sp,sp,24

Disassembly of section .text.tolower:

9d00a578 <tolower>:
9d00a578:	3c029d01 	lui	v0,0x9d01
9d00a57c:	244291e1 	addiu	v0,v0,-28191
9d00a580:	00821021 	addu	v0,a0,v0
9d00a584:	90420000 	lbu	v0,0(v0)
9d00a588:	24830020 	addiu	v1,a0,32
9d00a58c:	30420001 	andi	v0,v0,0x1
9d00a590:	0062200b 	movn	a0,v1,v0
9d00a594:	03e00008 	jr	ra
9d00a598:	00801021 	move	v0,a0

Disassembly of section .text.toupper:

9d00a59c <toupper>:
9d00a59c:	3c029d01 	lui	v0,0x9d01
9d00a5a0:	244291e1 	addiu	v0,v0,-28191
9d00a5a4:	00821021 	addu	v0,a0,v0
9d00a5a8:	90420000 	lbu	v0,0(v0)
9d00a5ac:	2483ffe0 	addiu	v1,a0,-32
9d00a5b0:	30420002 	andi	v0,v0,0x2
9d00a5b4:	0062200b 	movn	a0,v1,v0
9d00a5b8:	03e00008 	jr	ra
9d00a5bc:	00801021 	move	v0,a0

Disassembly of section .text._dstrtod:

9d00a5c0 <_dstrtod>:
9d00a5c0:	27bdffe8 	addiu	sp,sp,-24
9d00a5c4:	afbf0014 	sw	ra,20(sp)
9d00a5c8:	0f401a7d 	jal	9d0069f4 <__strtod>
9d00a5cc:	00000000 	nop
9d00a5d0:	8fbf0014 	lw	ra,20(sp)
9d00a5d4:	03e00008 	jr	ra
9d00a5d8:	27bd0018 	addiu	sp,sp,24

Disassembly of section .text.strtof:

9d00a5dc <strtof>:
9d00a5dc:	27bdffe8 	addiu	sp,sp,-24
9d00a5e0:	afbf0014 	sw	ra,20(sp)
9d00a5e4:	0f401b71 	jal	9d006dc4 <.LFE23>
9d00a5e8:	00000000 	nop
9d00a5ec:	8fbf0014 	lw	ra,20(sp)
9d00a5f0:	03e00008 	jr	ra
9d00a5f4:	27bd0018 	addiu	sp,sp,24

Disassembly of section .text.strtodf:

9d00a5f8 <strtodf>:
9d00a5f8:	27bdffe8 	addiu	sp,sp,-24
9d00a5fc:	afbf0014 	sw	ra,20(sp)
9d00a600:	0f401b71 	jal	9d006dc4 <.LFE23>
9d00a604:	00000000 	nop
9d00a608:	8fbf0014 	lw	ra,20(sp)
9d00a60c:	03e00008 	jr	ra
9d00a610:	27bd0018 	addiu	sp,sp,24

Disassembly of section .text.negdf2:

9d00a614 <__negdf2>:
9d00a614:	3c018000 00a12826 00041025 00051825     ...<&(..%...%...

9d00a624 <M999>:
9d00a624:	03e00008 	jr	ra
9d00a628:	00000000 	nop
9d00a62c:	00000000 	nop

Disassembly of section .text:

9d00a630 <_nmi_handler>:
9d00a630:	401a6000 	mfc0	k0,c0_status
9d00a634:	3c1bffbf 	lui	k1,0xffbf
9d00a638:	377bffff 	ori	k1,k1,0xffff
9d00a63c:	035bd024 	and	k0,k0,k1
9d00a640:	409a6000 	mtc0	k0,c0_status
9d00a644:	42000018 	eret

Disassembly of section .text.isalnum:

9d00a648 <isalnum>:
9d00a648:	3c029d01 	lui	v0,0x9d01
9d00a64c:	244291e1 	addiu	v0,v0,-28191
9d00a650:	00442021 	addu	a0,v0,a0
9d00a654:	90820000 	lbu	v0,0(a0)
9d00a658:	03e00008 	jr	ra
9d00a65c:	30420007 	andi	v0,v0,0x7

Disassembly of section .text.isalpha:

9d00a660 <isalpha>:
9d00a660:	3c029d01 	lui	v0,0x9d01
9d00a664:	244291e1 	addiu	v0,v0,-28191
9d00a668:	00442021 	addu	a0,v0,a0
9d00a66c:	90820000 	lbu	v0,0(a0)
9d00a670:	03e00008 	jr	ra
9d00a674:	30420003 	andi	v0,v0,0x3

Disassembly of section .text.iscntrl:

9d00a678 <iscntrl>:
9d00a678:	3c029d01 	lui	v0,0x9d01
9d00a67c:	244291e1 	addiu	v0,v0,-28191
9d00a680:	00442021 	addu	a0,v0,a0
9d00a684:	90820000 	lbu	v0,0(a0)
9d00a688:	03e00008 	jr	ra
9d00a68c:	30420020 	andi	v0,v0,0x20

Disassembly of section .text.isdigit:

9d00a690 <isdigit>:
9d00a690:	3c029d01 	lui	v0,0x9d01
9d00a694:	244291e1 	addiu	v0,v0,-28191
9d00a698:	00442021 	addu	a0,v0,a0
9d00a69c:	90820000 	lbu	v0,0(a0)
9d00a6a0:	03e00008 	jr	ra
9d00a6a4:	30420004 	andi	v0,v0,0x4

Disassembly of section .text.isgraph:

9d00a6a8 <isgraph>:
9d00a6a8:	3c029d01 	lui	v0,0x9d01
9d00a6ac:	244291e1 	addiu	v0,v0,-28191
9d00a6b0:	00442021 	addu	a0,v0,a0
9d00a6b4:	90820000 	lbu	v0,0(a0)
9d00a6b8:	03e00008 	jr	ra
9d00a6bc:	30420017 	andi	v0,v0,0x17

Disassembly of section .text.islower:

9d00a6c0 <islower>:
9d00a6c0:	3c029d01 	lui	v0,0x9d01
9d00a6c4:	244291e1 	addiu	v0,v0,-28191
9d00a6c8:	00442021 	addu	a0,v0,a0
9d00a6cc:	90820000 	lbu	v0,0(a0)
9d00a6d0:	03e00008 	jr	ra
9d00a6d4:	30420002 	andi	v0,v0,0x2

Disassembly of section .text.isprint:

9d00a6d8 <isprint>:
9d00a6d8:	3c029d01 	lui	v0,0x9d01
9d00a6dc:	244291e1 	addiu	v0,v0,-28191
9d00a6e0:	00442021 	addu	a0,v0,a0
9d00a6e4:	80820000 	lb	v0,0(a0)
9d00a6e8:	03e00008 	jr	ra
9d00a6ec:	30420097 	andi	v0,v0,0x97

Disassembly of section .text.ispunct:

9d00a6f0 <ispunct>:
9d00a6f0:	3c029d01 	lui	v0,0x9d01
9d00a6f4:	244291e1 	addiu	v0,v0,-28191
9d00a6f8:	00442021 	addu	a0,v0,a0
9d00a6fc:	90820000 	lbu	v0,0(a0)
9d00a700:	03e00008 	jr	ra
9d00a704:	30420010 	andi	v0,v0,0x10

Disassembly of section .text.isspace:

9d00a708 <isspace>:
9d00a708:	3c029d01 	lui	v0,0x9d01
9d00a70c:	244291e1 	addiu	v0,v0,-28191
9d00a710:	00442021 	addu	a0,v0,a0
9d00a714:	80820000 	lb	v0,0(a0)
9d00a718:	03e00008 	jr	ra
9d00a71c:	30420088 	andi	v0,v0,0x88

Disassembly of section .text.isupper:

9d00a720 <isupper>:
9d00a720:	3c029d01 	lui	v0,0x9d01
9d00a724:	244291e1 	addiu	v0,v0,-28191
9d00a728:	00442021 	addu	a0,v0,a0
9d00a72c:	90820000 	lbu	v0,0(a0)
9d00a730:	03e00008 	jr	ra
9d00a734:	30420001 	andi	v0,v0,0x1

Disassembly of section .text.isxdigit:

9d00a738 <isxdigit>:
9d00a738:	3c029d01 	lui	v0,0x9d01
9d00a73c:	244291e1 	addiu	v0,v0,-28191
9d00a740:	00442021 	addu	a0,v0,a0
9d00a744:	90820000 	lbu	v0,0(a0)
9d00a748:	03e00008 	jr	ra
9d00a74c:	30420044 	andi	v0,v0,0x44

Disassembly of section .rodata:

9d00a750 <f5pow>:
9d00a750:	40a00000 41c80000 441c4000 48bebc20     ...@...A.@.D ..H
9d00a760:	520e1bca 649dc5ae                       ...R...d

Disassembly of section .text.negsf2:

9d00a768 <__negsf2>:
9d00a768:	3c018000 00811026                       ...<&...

9d00a770 <L999>:
9d00a770:	03e00008 	jr	ra
9d00a774:	00000000 	nop
9d00a778:	00000000 	nop

Disassembly of section .text._on_reset:

9d00a77c <_on_reset>:
9d00a77c:	03e00008 	jr	ra
9d00a780:	00000000 	nop

Disassembly of section .text._on_bootstrap:

9d00a784 <_on_bootstrap>:
9d00a784:	03e00008 	jr	ra
9d00a788:	00000000 	nop

Disassembly of section .text.isascii:

9d00a78c <isascii>:
9d00a78c:	03e00008 	jr	ra
9d00a790:	2c820080 	sltiu	v0,a0,128

Disassembly of section .text.toascii:

9d00a794 <toascii>:
9d00a794:	03e00008 	jr	ra
9d00a798:	3082007f 	andi	v0,a0,0x7f

Disassembly of section .text._tolower:

9d00a79c <_tolower>:
9d00a79c:	03e00008 	jr	ra
9d00a7a0:	24820020 	addiu	v0,a0,32

Disassembly of section .text._toupper:

9d00a7a4 <_toupper>:
9d00a7a4:	03e00008 	jr	ra
9d00a7a8:	2482ffe0 	addiu	v0,a0,-32
