
out.elf:     file format elf32-tradlittlemips


Disassembly of section .config_BFC02FF0:

bfc02ff0 <__config_BFC02FF0>:
bfc02ff0:	ff ff fe fa                                         ....

Disassembly of section .config_BFC02FF4:

bfc02ff4 <__config_BFC02FF4>:
bfc02ff4:	d9 79 f8 ff                                         .y..

Disassembly of section .config_BFC02FF8:

bfc02ff8 <__config_BFC02FF8>:
bfc02ff8:	db ce 6c ff                                         ..l.

Disassembly of section .config_BFC02FFC:

bfc02ffc <__config_BFC02FFC>:
bfc02ffc:	ff ff ff 7e                                         ...~

Disassembly of section .reset:

bd001970 <_reset>:
bd001970:	0f40065e 	jal	bd001978 <_startup>
bd001974:	00000000 	nop

bd001978 <_startup>:
bd001978:	401a6000 	mfc0	k0,c0_status
bd00197c:	7f5a04c0 	ext	k0,k0,0x13,0x1
bd001980:	13400005 	beqz	k0,bd001998 <_no_nmi>
bd001984:	00000000 	nop
bd001988:	3c1a9d01 	lui	k0,0x9d01
bd00198c:	275a9108 	addiu	k0,k0,-28408
bd001990:	03400008 	jr	k0
bd001994:	00000000 	nop

bd001998 <_no_nmi>:
bd001998:	3c1da002 	lui	sp,0xa002
bd00199c:	27bdfff0 	addiu	sp,sp,-16
bd0019a0:	3c1ca000 	lui	gp,0xa000
bd0019a4:	279c7ff0 	addiu	gp,gp,32752
bd0019a8:	40096002 	mfc0	t1,c0_srsctl
bd0019ac:	01205820 	add	t3,t1,zero
bd0019b0:	7d2a1e80 	ext	t2,t1,0x1a,0x4
bd0019b4:	7d494984 	ins	t1,t2,0x6,0x4
bd0019b8:	40896002 	mtc0	t1,c0_srsctl
bd0019bc:	000000c0 	ehb
bd0019c0:	41dce000 	wrpgpr	gp,gp
bd0019c4:	408b6002 	mtc0	t3,c0_srsctl
bd0019c8:	000000c0 	ehb
bd0019cc:	3c089d01 	lui	t0,0x9d01
bd0019d0:	25089254 	addiu	t0,t0,-28076
bd0019d4:	0100f809 	jalr	t0
bd0019d8:	00000000 	nop
bd0019dc:	3c08a000 	lui	t0,0xa000
bd0019e0:	25080004 	addiu	t0,t0,4
bd0019e4:	3c09a000 	lui	t1,0xa000
bd0019e8:	25290038 	addiu	t1,t1,56
bd0019ec:	10000006 	b	bd001a08 <_bss_check>
bd0019f0:	00000000 	nop

bd0019f4 <_bss_init>:
bd0019f4:	ad000000 	sw	zero,0(t0)
bd0019f8:	ad000004 	sw	zero,4(t0)
bd0019fc:	ad000008 	sw	zero,8(t0)
bd001a00:	ad00000c 	sw	zero,12(t0)
bd001a04:	25080010 	addiu	t0,t0,16

bd001a08 <_bss_check>:
bd001a08:	0109082b 	sltu	at,t0,t1
bd001a0c:	1420fff9 	bnez	at,bd0019f4 <_bss_init>
bd001a10:	00000000 	nop

bd001a14 <_dinit_init>:
bd001a14:	3c089d00 	lui	t0,0x9d00
bd001a18:	25087a10 	addiu	t0,t0,31248
bd001a1c:	8d090000 	lw	t1,0(t0)
bd001a20:	11200018 	beqz	t1,bd001a84 <_dinit_end+0x18>
bd001a24:	25080004 	addiu	t0,t0,4
bd001a28:	8d0a0000 	lw	t2,0(t0)
bd001a2c:	25080004 	addiu	t0,t0,4
bd001a30:	8d0b0000 	lw	t3,0(t0)
bd001a34:	11600009 	beqz	t3,bd001a5c <_dinit_clear>
bd001a38:	25080004 	addiu	t0,t0,4

bd001a3c <_dinit_copy>:
bd001a3c:	910c0000 	lbu	t4,0(t0)
bd001a40:	254affff 	addiu	t2,t2,-1
bd001a44:	25080001 	addiu	t0,t0,1
bd001a48:	a12c0000 	sb	t4,0(t1)
bd001a4c:	1540fffb 	bnez	t2,bd001a3c <_dinit_copy>
bd001a50:	25290001 	addiu	t1,t1,1
bd001a54:	10000005 	b	bd001a6c <_dinit_end>
bd001a58:	00000000 	nop

bd001a5c <_dinit_clear>:
bd001a5c:	a1200000 	sb	zero,0(t1)
bd001a60:	254affff 	addiu	t2,t2,-1
bd001a64:	1540fffd 	bnez	t2,bd001a5c <_dinit_clear>
bd001a68:	25290001 	addiu	t1,t1,1

bd001a6c <_dinit_end>:
bd001a6c:	25080003 	addiu	t0,t0,3
bd001a70:	240afffc 	li	t2,-4
bd001a74:	01484024 	and	t0,t2,t0
bd001a78:	8d090000 	lw	t1,0(t0)
bd001a7c:	1520ffe7 	bnez	t1,bd001a1c <_dinit_init+0x8>
bd001a80:	00000000 	nop
bd001a84:	3c090000 	lui	t1,0x0
bd001a88:	25290000 	addiu	t1,t1,0
bd001a8c:	11200010 	beqz	t1,bd001ad0 <_ramfunc_done>
bd001a90:	00000000 	nop
bd001a94:	3c090002 	lui	t1,0x2
bd001a98:	25290000 	addiu	t1,t1,0
bd001a9c:	3c0abf88 	lui	t2,0xbf88
bd001aa0:	254a2010 	addiu	t2,t2,8208
bd001aa4:	ad490000 	sw	t1,0(t2)
bd001aa8:	3c090002 	lui	t1,0x2
bd001aac:	25290000 	addiu	t1,t1,0
bd001ab0:	3c0abf88 	lui	t2,0xbf88
bd001ab4:	254a2020 	addiu	t2,t2,8224
bd001ab8:	ad490000 	sw	t1,0(t2)
bd001abc:	3c090002 	lui	t1,0x2
bd001ac0:	25290000 	addiu	t1,t1,0
bd001ac4:	3c0abf88 	lui	t2,0xbf88
bd001ac8:	254a2030 	addiu	t2,t2,8240
bd001acc:	ad490000 	sw	t1,0(t2)

bd001ad0 <_ramfunc_done>:
bd001ad0:	40804800 	mtc0	zero,c0_count
bd001ad4:	240affff 	li	t2,-1
bd001ad8:	408a5800 	mtc0	t2,c0_compare
bd001adc:	3c099d00 	lui	t1,0x9d00
bd001ae0:	25290000 	addiu	t1,t1,0
bd001ae4:	40897801 	mtc0	t1,c0_ebase
bd001ae8:	3c090000 	lui	t1,0x0
bd001aec:	25290001 	addiu	t1,t1,1
bd001af0:	240a0000 	li	t2,0
bd001af4:	7d2a4944 	ins	t2,t1,0x5,0x5
bd001af8:	408a6001 	mtc0	t2,c0_intctl
bd001afc:	3c090080 	lui	t1,0x80
bd001b00:	40896800 	mtc0	t1,c0_cause
bd001b04:	40088000 	mfc0	t0,c0_config
bd001b08:	7d090580 	ext	t1,t0,0x16,0x1
bd001b0c:	00094c40 	sll	t1,t1,0x11
bd001b10:	40086000 	mfc0	t0,c0_status
bd001b14:	3c010058 	lui	at,0x58
bd001b18:	01014024 	and	t0,t0,at
bd001b1c:	01284025 	or	t0,t1,t0
bd001b20:	40886000 	mtc0	t0,c0_status
bd001b24:	000000c0 	ehb
bd001b28:	3c089d01 	lui	t0,0x9d01
bd001b2c:	2508925c 	addiu	t0,t0,-28068
bd001b30:	0100f809 	jalr	t0
bd001b34:	00000000 	nop
bd001b38:	40086000 	mfc0	t0,c0_status
bd001b3c:	3c01ffbf 	lui	at,0xffbf
bd001b40:	3421ffff 	ori	at,at,0xffff
bd001b44:	01014024 	and	t0,t0,at
bd001b48:	40886000 	mtc0	t0,c0_status
bd001b4c:	30840000 	andi	a0,a0,0x0
bd001b50:	30a50000 	andi	a1,a1,0x0
bd001b54:	3c089d01 	lui	t0,0x9d01
bd001b58:	25088d04 	addiu	t0,t0,-29436
bd001b5c:	01000008 	jr	t0
bd001b60:	00000000 	nop

Disassembly of section .bev_excpt:

bd001cf0 <_bev_exception>:
bd001cf0:	3c1a9d01 	lui	k0,0x9d01
bd001cf4:	275a8e44 	addiu	k0,k0,-29116
bd001cf8:	03400008 	jr	k0
bd001cfc:	00000000 	nop

Disassembly of section .app_excpt:

9d000180 <_gen_exception>:
9d000180:	3c1a9d01 	lui	k0,0x9d01
9d000184:	275a8380 	addiu	k0,k0,-31872
9d000188:	03400008 	jr	k0
9d00018c:	00000000 	nop

Disassembly of section .vector_0:

9d000200 <__vector_dispatch_0>:
9d000200:	0b4023b5 	j	9d008ed4 <.LFE0>
9d000204:	00000000 	nop

Disassembly of section .vector_1:

9d000220 <__vector_dispatch_1>:
9d000220:	0b4023b5 	j	9d008ed4 <.LFE0>
9d000224:	00000000 	nop

Disassembly of section .vector_2:

9d000240 <__vector_dispatch_2>:
9d000240:	0b4023b5 	j	9d008ed4 <.LFE0>
9d000244:	00000000 	nop

Disassembly of section .vector_3:

9d000260 <__vector_dispatch_3>:
9d000260:	0b4023b5 	j	9d008ed4 <.LFE0>
9d000264:	00000000 	nop

Disassembly of section .vector_4:

9d000280 <__vector_dispatch_4>:
9d000280:	0b4023b5 	j	9d008ed4 <.LFE0>
9d000284:	00000000 	nop

Disassembly of section .vector_5:

9d0002a0 <__vector_dispatch_5>:
9d0002a0:	0b4023b5 	j	9d008ed4 <.LFE0>
9d0002a4:	00000000 	nop

Disassembly of section .vector_6:

9d0002c0 <__vector_dispatch_6>:
9d0002c0:	0b4023b5 	j	9d008ed4 <.LFE0>
9d0002c4:	00000000 	nop

Disassembly of section .vector_7:

9d0002e0 <__vector_dispatch_7>:
9d0002e0:	0b4023b5 	j	9d008ed4 <.LFE0>
9d0002e4:	00000000 	nop

Disassembly of section .vector_8:

9d000300 <__vector_dispatch_8>:
9d000300:	0b400fdc 	j	9d003f70 <Controller>
9d000304:	00000000 	nop

Disassembly of section .vector_9:

9d000320 <__vector_dispatch_9>:
9d000320:	0b4023b5 	j	9d008ed4 <.LFE0>
9d000324:	00000000 	nop

Disassembly of section .vector_10:

9d000340 <__vector_dispatch_10>:
9d000340:	0b4023b5 	j	9d008ed4 <.LFE0>
9d000344:	00000000 	nop

Disassembly of section .vector_11:

9d000360 <__vector_dispatch_11>:
9d000360:	0b4023b5 	j	9d008ed4 <.LFE0>
9d000364:	00000000 	nop

Disassembly of section .vector_12:

9d000380 <__vector_dispatch_12>:
9d000380:	0b4023b5 	j	9d008ed4 <.LFE0>
9d000384:	00000000 	nop

Disassembly of section .vector_13:

9d0003a0 <__vector_dispatch_13>:
9d0003a0:	0b4023b5 	j	9d008ed4 <.LFE0>
9d0003a4:	00000000 	nop

Disassembly of section .vector_14:

9d0003c0 <__vector_dispatch_14>:
9d0003c0:	0b4023b5 	j	9d008ed4 <.LFE0>
9d0003c4:	00000000 	nop

Disassembly of section .vector_15:

9d0003e0 <__vector_dispatch_15>:
9d0003e0:	0b4023b5 	j	9d008ed4 <.LFE0>
9d0003e4:	00000000 	nop

Disassembly of section .vector_16:

9d000400 <__vector_dispatch_16>:
9d000400:	0b4023b5 	j	9d008ed4 <.LFE0>
9d000404:	00000000 	nop

Disassembly of section .vector_17:

9d000420 <__vector_dispatch_17>:
9d000420:	0b4023b5 	j	9d008ed4 <.LFE0>
9d000424:	00000000 	nop

Disassembly of section .vector_18:

9d000440 <__vector_dispatch_18>:
9d000440:	0b4023b5 	j	9d008ed4 <.LFE0>
9d000444:	00000000 	nop

Disassembly of section .vector_19:

9d000460 <__vector_dispatch_19>:
9d000460:	0b4023b5 	j	9d008ed4 <.LFE0>
9d000464:	00000000 	nop

Disassembly of section .vector_20:

9d000480 <__vector_dispatch_20>:
9d000480:	0b4023b5 	j	9d008ed4 <.LFE0>
9d000484:	00000000 	nop

Disassembly of section .vector_21:

9d0004a0 <__vector_dispatch_21>:
9d0004a0:	0b4023b5 	j	9d008ed4 <.LFE0>
9d0004a4:	00000000 	nop

Disassembly of section .vector_22:

9d0004c0 <__vector_dispatch_22>:
9d0004c0:	0b4023b5 	j	9d008ed4 <.LFE0>
9d0004c4:	00000000 	nop

Disassembly of section .vector_23:

9d0004e0 <__vector_dispatch_23>:
9d0004e0:	0b4023b5 	j	9d008ed4 <.LFE0>
9d0004e4:	00000000 	nop

Disassembly of section .vector_24:

9d000500 <__vector_dispatch_24>:
9d000500:	0b4023b5 	j	9d008ed4 <.LFE0>
9d000504:	00000000 	nop

Disassembly of section .vector_25:

9d000520 <__vector_dispatch_25>:
9d000520:	0b4023b5 	j	9d008ed4 <.LFE0>
9d000524:	00000000 	nop

Disassembly of section .vector_26:

9d000540 <__vector_dispatch_26>:
9d000540:	0b4023b5 	j	9d008ed4 <.LFE0>
9d000544:	00000000 	nop

Disassembly of section .vector_27:

9d000560 <__vector_dispatch_27>:
9d000560:	0b4023b5 	j	9d008ed4 <.LFE0>
9d000564:	00000000 	nop

Disassembly of section .vector_28:

9d000580 <__vector_dispatch_28>:
9d000580:	0b4023b5 	j	9d008ed4 <.LFE0>
9d000584:	00000000 	nop

Disassembly of section .vector_29:

9d0005a0 <__vector_dispatch_29>:
9d0005a0:	0b4023b5 	j	9d008ed4 <.LFE0>
9d0005a4:	00000000 	nop

Disassembly of section .vector_30:

9d0005c0 <__vector_dispatch_30>:
9d0005c0:	0b4023b5 	j	9d008ed4 <.LFE0>
9d0005c4:	00000000 	nop

Disassembly of section .vector_31:

9d0005e0 <__vector_dispatch_31>:
9d0005e0:	0b4023b5 	j	9d008ed4 <.LFE0>
9d0005e4:	00000000 	nop

Disassembly of section .vector_32:

9d000600 <__vector_dispatch_32>:
9d000600:	0b4023b5 	j	9d008ed4 <.LFE0>
9d000604:	00000000 	nop

Disassembly of section .vector_33:

9d000620 <__vector_dispatch_33>:
9d000620:	0b4023b5 	j	9d008ed4 <.LFE0>
9d000624:	00000000 	nop

Disassembly of section .vector_34:

9d000640 <__vector_dispatch_34>:
9d000640:	0b4023b5 	j	9d008ed4 <.LFE0>
9d000644:	00000000 	nop

Disassembly of section .vector_35:

9d000660 <__vector_dispatch_35>:
9d000660:	0b4023b5 	j	9d008ed4 <.LFE0>
9d000664:	00000000 	nop

Disassembly of section .vector_36:

9d000680 <__vector_dispatch_36>:
9d000680:	0b4023b5 	j	9d008ed4 <.LFE0>
9d000684:	00000000 	nop

Disassembly of section .vector_37:

9d0006a0 <__vector_dispatch_37>:
9d0006a0:	0b4023b5 	j	9d008ed4 <.LFE0>
9d0006a4:	00000000 	nop

Disassembly of section .vector_38:

9d0006c0 <__vector_dispatch_38>:
9d0006c0:	0b4023b5 	j	9d008ed4 <.LFE0>
9d0006c4:	00000000 	nop

Disassembly of section .vector_39:

9d0006e0 <__vector_dispatch_39>:
9d0006e0:	0b4023b5 	j	9d008ed4 <.LFE0>
9d0006e4:	00000000 	nop

Disassembly of section .vector_40:

9d000700 <__vector_dispatch_40>:
9d000700:	0b4023b5 	j	9d008ed4 <.LFE0>
9d000704:	00000000 	nop

Disassembly of section .vector_41:

9d000720 <__vector_dispatch_41>:
9d000720:	0b4023b5 	j	9d008ed4 <.LFE0>
9d000724:	00000000 	nop

Disassembly of section .vector_42:

9d000740 <__vector_dispatch_42>:
9d000740:	0b4023b5 	j	9d008ed4 <.LFE0>
9d000744:	00000000 	nop

Disassembly of section .vector_43:

9d000760 <__vector_dispatch_43>:
9d000760:	0b4023b5 	j	9d008ed4 <.LFE0>
9d000764:	00000000 	nop

Disassembly of section .vector_44:

9d000780 <__vector_dispatch_44>:
9d000780:	0b4023b5 	j	9d008ed4 <.LFE0>
9d000784:	00000000 	nop

Disassembly of section .vector_45:

9d0007a0 <__vector_dispatch_45>:
9d0007a0:	0b4023b5 	j	9d008ed4 <.LFE0>
9d0007a4:	00000000 	nop

Disassembly of section .vector_46:

9d0007c0 <__vector_dispatch_46>:
9d0007c0:	0b4023b5 	j	9d008ed4 <.LFE0>
9d0007c4:	00000000 	nop

Disassembly of section .vector_47:

9d0007e0 <__vector_dispatch_47>:
9d0007e0:	0b4023b5 	j	9d008ed4 <.LFE0>
9d0007e4:	00000000 	nop

Disassembly of section .vector_48:

9d000800 <__vector_dispatch_48>:
9d000800:	0b4023b5 	j	9d008ed4 <.LFE0>
9d000804:	00000000 	nop

Disassembly of section .vector_49:

9d000820 <__vector_dispatch_49>:
9d000820:	0b4023b5 	j	9d008ed4 <.LFE0>
9d000824:	00000000 	nop

Disassembly of section .vector_50:

9d000840 <__vector_dispatch_50>:
9d000840:	0b4023b5 	j	9d008ed4 <.LFE0>
9d000844:	00000000 	nop

Disassembly of section .vector_51:

9d000860 <__vector_dispatch_51>:
9d000860:	0b4023b5 	j	9d008ed4 <.LFE0>
9d000864:	00000000 	nop

Disassembly of section ._debug_exception:

bfc00480 <__DbgExecReturn>:
bfc00480:	409bf800 	mtc0	k1,c0_desave
bfc00484:	000000c0 	ehb
bfc00488:	3c1b9d01 	lui	k1,0x9d01
bfc0048c:	277b8f64 	addiu	k1,k1,-28828
bfc00490:	13600002 	beqz	k1,bfc0049c <__DbgExecReturn+0x1c>
bfc00494:	00000000 	nop
bfc00498:	409bc000 	mtc0	k1,c0_depc
bfc0049c:	401bf800 	mfc0	k1,c0_desave
bfc004a0:	000000c0 	ehb
bfc004a4:	4200001f 	deret
bfc004a8:	00000000 	nop

Disassembly of section .text._vfprintf_cdfFnopuxX:

9d001e00 <_vfprintf_cdfFnopuxX>:
9d001e00:	27bdffa0 	addiu	sp,sp,-96
9d001e04:	afbf005c 	sw	ra,92(sp)
9d001e08:	afbe0058 	sw	s8,88(sp)
9d001e0c:	afb70054 	sw	s7,84(sp)
9d001e10:	afb60050 	sw	s6,80(sp)
9d001e14:	afb5004c 	sw	s5,76(sp)
9d001e18:	afb40048 	sw	s4,72(sp)
9d001e1c:	afb30044 	sw	s3,68(sp)
9d001e20:	afb20040 	sw	s2,64(sp)
9d001e24:	afb1003c 	sw	s1,60(sp)
9d001e28:	afb00038 	sw	s0,56(sp)
9d001e2c:	00809021 	move	s2,a0
9d001e30:	00a08821 	move	s1,a1
9d001e34:	afa60068 	sw	a2,104(sp)
9d001e38:	00001021 	move	v0,zero
9d001e3c:	afa20024 	sw	v0,36(sp)
9d001e40:	00008021 	move	s0,zero
9d001e44:	82240000 	lb	a0,0(s1)
9d001e48:	26330001 	addiu	s3,s1,1
9d001e4c:	10800028 	beqz	a0,9d001ef0 <_vfprintf_cdfFnopuxX+0xf0>
9d001e50:	a3a40016 	sb	a0,22(sp)
9d001e54:	24020025 	li	v0,37
9d001e58:	1482001b 	bne	a0,v0,9d001ec8 <_vfprintf_cdfFnopuxX+0xc8>
9d001e5c:	26220002 	addiu	v0,s1,2
9d001e60:	0000b021 	move	s6,zero
9d001e64:	2404002b 	li	a0,43
9d001e68:	2405002d 	li	a1,45
9d001e6c:	24070030 	li	a3,48
9d001e70:	24060020 	li	a2,32
9d001e74:	8057ffff 	lb	s7,-1(v0)
9d001e78:	12e4000c 	beq	s7,a0,9d001eac <_vfprintf_cdfFnopuxX+0xac>
9d001e7c:	2451ffff 	addiu	s1,v0,-1
9d001e80:	2ae3002c 	slti	v1,s7,44
9d001e84:	1460000c 	bnez	v1,9d001eb8 <_vfprintf_cdfFnopuxX+0xb8>
9d001e88:	00000000 	nop
9d001e8c:	52e501df 	beql	s7,a1,9d00260c <_vfprintf_cdfFnopuxX+0x80c>
9d001e90:	36d60008 	ori	s6,s6,0x8
9d001e94:	16e70023 	bne	s7,a3,9d001f24 <_vfprintf_cdfFnopuxX+0x124>
9d001e98:	24420001 	addiu	v0,v0,1
9d001e9c:	36d60004 	ori	s6,s6,0x4
9d001ea0:	8057ffff 	lb	s7,-1(v0)
9d001ea4:	16e4fff6 	bne	s7,a0,9d001e80 <_vfprintf_cdfFnopuxX+0x80>
9d001ea8:	2451ffff 	addiu	s1,v0,-1
9d001eac:	36d60002 	ori	s6,s6,0x2
9d001eb0:	0b4007a8 	j	9d001ea0 <_vfprintf_cdfFnopuxX+0xa0>
9d001eb4:	24420001 	addiu	v0,v0,1
9d001eb8:	16e6001a 	bne	s7,a2,9d001f24 <_vfprintf_cdfFnopuxX+0x124>
9d001ebc:	24420001 	addiu	v0,v0,1
9d001ec0:	0b4007a8 	j	9d001ea0 <_vfprintf_cdfFnopuxX+0xa0>
9d001ec4:	36d60001 	ori	s6,s6,0x1
9d001ec8:	0f401e33 	jal	9d0078cc <.LFE0>
9d001ecc:	02402821 	move	a1,s2
9d001ed0:	2403ffff 	li	v1,-1
9d001ed4:	1043ffdb 	beq	v0,v1,9d001e44 <_vfprintf_cdfFnopuxX+0x44>
9d001ed8:	02608821 	move	s1,s3
9d001edc:	26100001 	addiu	s0,s0,1
9d001ee0:	82640000 	lb	a0,0(s3)
9d001ee4:	26330001 	addiu	s3,s1,1
9d001ee8:	1480ffda 	bnez	a0,9d001e54 <_vfprintf_cdfFnopuxX+0x54>
9d001eec:	a3a40016 	sb	a0,22(sp)
9d001ef0:	02001021 	move	v0,s0
9d001ef4:	8fbf005c 	lw	ra,92(sp)
9d001ef8:	8fbe0058 	lw	s8,88(sp)
9d001efc:	8fb70054 	lw	s7,84(sp)
9d001f00:	8fb60050 	lw	s6,80(sp)
9d001f04:	8fb5004c 	lw	s5,76(sp)
9d001f08:	8fb40048 	lw	s4,72(sp)
9d001f0c:	8fb30044 	lw	s3,68(sp)
9d001f10:	8fb20040 	lw	s2,64(sp)
9d001f14:	8fb1003c 	lw	s1,60(sp)
9d001f18:	8fb00038 	lw	s0,56(sp)
9d001f1c:	03e00008 	jr	ra
9d001f20:	27bd0060 	addiu	sp,sp,96
9d001f24:	3c039d00 	lui	v1,0x9d00
9d001f28:	24637f99 	addiu	v1,v1,32665
9d001f2c:	00771021 	addu	v0,v1,s7
9d001f30:	90420000 	lbu	v0,0(v0)
9d001f34:	32c40002 	andi	a0,s6,0x2
9d001f38:	32c3fffe 	andi	v1,s6,0xfffe
9d001f3c:	0064b00b 	movn	s6,v1,a0
9d001f40:	32c40008 	andi	a0,s6,0x8
9d001f44:	32c3fffb 	andi	v1,s6,0xfffb
9d001f48:	30420004 	andi	v0,v0,0x4
9d001f4c:	02202821 	move	a1,s1
9d001f50:	104001b0 	beqz	v0,9d002614 <_vfprintf_cdfFnopuxX+0x814>
9d001f54:	0064b00b 	movn	s6,v1,a0
9d001f58:	02e01821 	move	v1,s7
9d001f5c:	0b4007da 	j	9d001f68 <_vfprintf_cdfFnopuxX+0x168>
9d001f60:	0000b821 	move	s7,zero
9d001f64:	00401821 	move	v1,v0
9d001f68:	26310001 	addiu	s1,s1,1
9d001f6c:	82220000 	lb	v0,0(s1)
9d001f70:	00172840 	sll	a1,s7,0x1
9d001f74:	0017b8c0 	sll	s7,s7,0x3
9d001f78:	3c069d00 	lui	a2,0x9d00
9d001f7c:	24c67f99 	addiu	a2,a2,32665
9d001f80:	00c22021 	addu	a0,a2,v0
9d001f84:	90840000 	lbu	a0,0(a0)
9d001f88:	00b7b821 	addu	s7,a1,s7
9d001f8c:	02e3b821 	addu	s7,s7,v1
9d001f90:	30840004 	andi	a0,a0,0x4
9d001f94:	1480fff3 	bnez	a0,9d001f64 <_vfprintf_cdfFnopuxX+0x164>
9d001f98:	26f7ffd0 	addiu	s7,s7,-48
9d001f9c:	2403002e 	li	v1,46
9d001fa0:	504301a3 	beql	v0,v1,9d002630 <_vfprintf_cdfFnopuxX+0x830>
9d001fa4:	82220001 	lb	v0,1(s1)
9d001fa8:	36d61000 	ori	s6,s6,0x1000
9d001fac:	00009821 	move	s3,zero
9d001fb0:	24060010 	li	a2,16
9d001fb4:	34058000 	li	a1,0x8000
9d001fb8:	304300ff 	andi	v1,v0,0xff
9d001fbc:	2c640079 	sltiu	a0,v1,121
9d001fc0:	1080016e 	beqz	a0,9d00257c <_vfprintf_cdfFnopuxX+0x77c>
9d001fc4:	26310001 	addiu	s1,s1,1
9d001fc8:	00031880 	sll	v1,v1,0x2
9d001fcc:	3c079d00 	lui	a3,0x9d00
9d001fd0:	24e71fe4 	addiu	a3,a3,8164
9d001fd4:	00e31821 	addu	v1,a3,v1
9d001fd8:	8c630000 	lw	v1,0(v1)
9d001fdc:	00600008 	jr	v1
9d001fe0:	00000000 	nop
9d001fe4:	9d001ef0 	0x9d001ef0
9d001fe8:	9d00257c 	0x9d00257c
9d001fec:	9d00257c 	0x9d00257c
9d001ff0:	9d00257c 	0x9d00257c
9d001ff4:	9d00257c 	0x9d00257c
9d001ff8:	9d00257c 	0x9d00257c
9d001ffc:	9d00257c 	0x9d00257c
9d002000:	9d00257c 	0x9d00257c
9d002004:	9d00257c 	0x9d00257c
9d002008:	9d00257c 	0x9d00257c
9d00200c:	9d00257c 	0x9d00257c
9d002010:	9d00257c 	0x9d00257c
9d002014:	9d00257c 	0x9d00257c
9d002018:	9d00257c 	0x9d00257c
9d00201c:	9d00257c 	0x9d00257c
9d002020:	9d00257c 	0x9d00257c
9d002024:	9d00257c 	0x9d00257c
9d002028:	9d00257c 	0x9d00257c
9d00202c:	9d00257c 	0x9d00257c
9d002030:	9d00257c 	0x9d00257c
9d002034:	9d00257c 	0x9d00257c
9d002038:	9d00257c 	0x9d00257c
9d00203c:	9d00257c 	0x9d00257c
9d002040:	9d00257c 	0x9d00257c
9d002044:	9d00257c 	0x9d00257c
9d002048:	9d00257c 	0x9d00257c
9d00204c:	9d00257c 	0x9d00257c
9d002050:	9d00257c 	0x9d00257c
9d002054:	9d00257c 	0x9d00257c
9d002058:	9d00257c 	0x9d00257c
9d00205c:	9d00257c 	0x9d00257c
9d002060:	9d00257c 	0x9d00257c
9d002064:	9d00257c 	0x9d00257c
9d002068:	9d00257c 	0x9d00257c
9d00206c:	9d00257c 	0x9d00257c
9d002070:	9d00257c 	0x9d00257c
9d002074:	9d00257c 	0x9d00257c
9d002078:	9d00257c 	0x9d00257c
9d00207c:	9d00257c 	0x9d00257c
9d002080:	9d00257c 	0x9d00257c
9d002084:	9d00257c 	0x9d00257c
9d002088:	9d00257c 	0x9d00257c
9d00208c:	9d00257c 	0x9d00257c
9d002090:	9d00257c 	0x9d00257c
9d002094:	9d00257c 	0x9d00257c
9d002098:	9d00257c 	0x9d00257c
9d00209c:	9d00257c 	0x9d00257c
9d0020a0:	9d00257c 	0x9d00257c
9d0020a4:	9d00257c 	0x9d00257c
9d0020a8:	9d00257c 	0x9d00257c
9d0020ac:	9d00257c 	0x9d00257c
9d0020b0:	9d00257c 	0x9d00257c
9d0020b4:	9d00257c 	0x9d00257c
9d0020b8:	9d00257c 	0x9d00257c
9d0020bc:	9d00257c 	0x9d00257c
9d0020c0:	9d00257c 	0x9d00257c
9d0020c4:	9d00257c 	0x9d00257c
9d0020c8:	9d00257c 	0x9d00257c
9d0020cc:	9d00257c 	0x9d00257c
9d0020d0:	9d00257c 	0x9d00257c
9d0020d4:	9d00257c 	0x9d00257c
9d0020d8:	9d00257c 	0x9d00257c
9d0020dc:	9d00257c 	0x9d00257c
9d0020e0:	9d00257c 	0x9d00257c
9d0020e4:	9d00257c 	0x9d00257c
9d0020e8:	9d00257c 	0x9d00257c
9d0020ec:	9d00257c 	0x9d00257c
9d0020f0:	9d00257c 	0x9d00257c
9d0020f4:	9d00257c 	0x9d00257c
9d0020f8:	9d00257c 	0x9d00257c
9d0020fc:	9d00257c 	0x9d00257c
9d002100:	9d00257c 	0x9d00257c
9d002104:	9d00257c 	0x9d00257c
9d002108:	9d00257c 	0x9d00257c
9d00210c:	9d00257c 	0x9d00257c
9d002110:	9d00257c 	0x9d00257c
9d002114:	9d00257c 	0x9d00257c
9d002118:	9d00257c 	0x9d00257c
9d00211c:	9d00257c 	0x9d00257c
9d002120:	9d00257c 	0x9d00257c
9d002124:	9d00257c 	0x9d00257c
9d002128:	9d00257c 	0x9d00257c
9d00212c:	9d00257c 	0x9d00257c
9d002130:	9d00257c 	0x9d00257c
9d002134:	9d00257c 	0x9d00257c
9d002138:	9d00257c 	0x9d00257c
9d00213c:	9d00257c 	0x9d00257c
9d002140:	9d00257c 	0x9d00257c
9d002144:	9d002600 	0x9d002600
9d002148:	9d00257c 	0x9d00257c
9d00214c:	9d00257c 	0x9d00257c
9d002150:	9d00257c 	0x9d00257c
9d002154:	9d00257c 	0x9d00257c
9d002158:	9d00257c 	0x9d00257c
9d00215c:	9d00257c 	0x9d00257c
9d002160:	9d00257c 	0x9d00257c
9d002164:	9d00257c 	0x9d00257c
9d002168:	9d00257c 	0x9d00257c
9d00216c:	9d00257c 	0x9d00257c
9d002170:	9d0025a4 	0x9d0025a4
9d002174:	9d00259c 	0x9d00259c
9d002178:	9d00257c 	0x9d00257c
9d00217c:	9d00258c 	0x9d00258c
9d002180:	9d00257c 	0x9d00257c
9d002184:	9d00257c 	0x9d00257c
9d002188:	9d00259c 	0x9d00259c
9d00218c:	9d00257c 	0x9d00257c
9d002190:	9d00257c 	0x9d00257c
9d002194:	9d002558 	0x9d002558
9d002198:	9d00257c 	0x9d00257c
9d00219c:	9d00257c 	0x9d00257c
9d0021a0:	9d002548 	0x9d002548
9d0021a4:	9d002600 	0x9d002600
9d0021a8:	9d00257c 	0x9d00257c
9d0021ac:	9d00257c 	0x9d00257c
9d0021b0:	9d002458 	0x9d002458
9d0021b4:	9d00257c 	0x9d00257c
9d0021b8:	9d0022f4 	0x9d0022f4
9d0021bc:	9d00257c 	0x9d00257c
9d0021c0:	9d00257c 	0x9d00257c
9d0021c4:	9d0021c8 	0x9d0021c8
9d0021c8:	24020078 	li	v0,120
9d0021cc:	a3a20016 	sb	v0,22(sp)
9d0021d0:	36d60080 	ori	s6,s6,0x80
9d0021d4:	32c20700 	andi	v0,s6,0x700
9d0021d8:	1040004d 	beqz	v0,9d002310 <_vfprintf_cdfFnopuxX+0x510>
9d0021dc:	32c200c0 	andi	v0,s6,0xc0
9d0021e0:	32c41000 	andi	a0,s6,0x1000
9d0021e4:	32c20010 	andi	v0,s6,0x10
9d0021e8:	24030006 	li	v1,6
9d0021ec:	104001fd 	beqz	v0,9d0029e4 <_vfprintf_cdfFnopuxX+0xbe4>
9d0021f0:	0064980b 	movn	s3,v1,a0
9d0021f4:	8fa20068 	lw	v0,104(sp)
9d0021f8:	24430007 	addiu	v1,v0,7
9d0021fc:	2402fff8 	li	v0,-8
9d002200:	00621024 	and	v0,v1,v0
9d002204:	8c440000 	lw	a0,0(v0)
9d002208:	8c450004 	lw	a1,4(v0)
9d00220c:	24420008 	addiu	v0,v0,8
9d002210:	0f401b52 	jal	9d006d48 <.LFE1>
9d002214:	afa20068 	sw	v0,104(sp)
9d002218:	0040a021 	move	s4,v0
9d00221c:	02802021 	move	a0,s4
9d002220:	0f4021f3 	jal	9d0087cc <.LFE0>
9d002224:	00002821 	move	a1,zero
9d002228:	044001f8 	bltz	v0,9d002a0c <_vfprintf_cdfFnopuxX+0xc0c>
9d00222c:	3c028000 	lui	v0,0x8000
9d002230:	02802021 	move	a0,s4
9d002234:	00002821 	move	a1,zero
9d002238:	0f4021f3 	jal	9d0087cc <.LFE0>
9d00223c:	afa00010 	sw	zero,16(sp)
9d002240:	144001fa 	bnez	v0,9d002a2c <_vfprintf_cdfFnopuxX+0xc2c>
9d002244:	0000f021 	move	s8,zero
9d002248:	2a620019 	slti	v0,s3,25
9d00224c:	10400015 	beqz	v0,9d0022a4 <_vfprintf_cdfFnopuxX+0x4a4>
9d002250:	2bc2000a 	slti	v0,s8,10
9d002254:	326200ff 	andi	v0,s3,0xff
9d002258:	305500ff 	andi	s5,v0,0xff
9d00225c:	2ea4006e 	sltiu	a0,s5,110
9d002260:	1080022a 	beqz	a0,9d002b0c <_vfprintf_cdfFnopuxX+0xd0c>
9d002264:	3c0751eb 	lui	a3,0x51eb
9d002268:	2ea4000b 	sltiu	a0,s5,11
9d00226c:	108003ab 	beqz	a0,9d00311c <_vfprintf_cdfFnopuxX+0x131c>
9d002270:	00021080 	sll	v0,v0,0x2
9d002274:	3c039d01 	lui	v1,0x9d01
9d002278:	24638c10 	addiu	v1,v1,-29680
9d00227c:	00431021 	addu	v0,v0,v1
9d002280:	8c440000 	lw	a0,0(v0)
9d002284:	3c029d01 	lui	v0,0x9d01
9d002288:	0f401c48 	jal	9d007120 <.LFE4>
9d00228c:	8c458378 	lw	a1,-31880(v0)
9d002290:	00402821 	move	a1,v0
9d002294:	0f4019a3 	jal	9d00668c <__addsf3>
9d002298:	02802021 	move	a0,s4
9d00229c:	0040a021 	move	s4,v0
9d0022a0:	2bc2000a 	slti	v0,s8,10
9d0022a4:	50400104 	beqzl	v0,9d0026b8 <_vfprintf_cdfFnopuxX+0x8b8>
9d0022a8:	8fa40024 	lw	a0,36(sp)
9d0022ac:	02802021 	move	a0,s4
9d0022b0:	0f4021f3 	jal	9d0087cc <.LFE0>
9d0022b4:	00002821 	move	a1,zero
9d0022b8:	144000f7 	bnez	v0,9d002698 <_vfprintf_cdfFnopuxX+0x898>
9d0022bc:	02802021 	move	a0,s4
9d0022c0:	0f402283 	jal	9d008a0c <__fixunssfsi>
9d0022c4:	00000000 	nop
9d0022c8:	0040f021 	move	s8,v0
9d0022cc:	0f40237e 	jal	9d008df8 <__floatunsisf>
9d0022d0:	00402021 	move	a0,v0
9d0022d4:	02802021 	move	a0,s4
9d0022d8:	0f4019a1 	jal	9d006684 <__subsf3>
9d0022dc:	00402821 	move	a1,v0
9d0022e0:	afa2001c 	sw	v0,28(sp)
9d0022e4:	03c0a821 	move	s5,s8
9d0022e8:	afa00010 	sw	zero,16(sp)
9d0022ec:	0b4009c4 	j	9d002710 <_vfprintf_cdfFnopuxX+0x910>
9d0022f0:	00005021 	move	t2,zero
9d0022f4:	24020075 	li	v0,117
9d0022f8:	a3a20016 	sb	v0,22(sp)
9d0022fc:	36d600c0 	ori	s6,s6,0xc0
9d002300:	32c20700 	andi	v0,s6,0x700
9d002304:	1440ffb7 	bnez	v0,9d0021e4 <_vfprintf_cdfFnopuxX+0x3e4>
9d002308:	32c41000 	andi	a0,s6,0x1000
9d00230c:	32c200c0 	andi	v0,s6,0xc0
9d002310:	144001eb 	bnez	v0,9d002ac0 <_vfprintf_cdfFnopuxX+0xcc0>
9d002314:	7c161620 	seh	v0,s6
9d002318:	0440036d 	bltz	v0,9d0030d0 <_vfprintf_cdfFnopuxX+0x12d0>
9d00231c:	8fa70068 	lw	a3,104(sp)
9d002320:	32c20010 	andi	v0,s6,0x10
9d002324:	10400233 	beqz	v0,9d002bf4 <_vfprintf_cdfFnopuxX+0xdf4>
9d002328:	8fa40068 	lw	a0,104(sp)
9d00232c:	8fa30068 	lw	v1,104(sp)
9d002330:	8c620000 	lw	v0,0(v1)
9d002334:	24630004 	addiu	v1,v1,4
9d002338:	afa30068 	sw	v1,104(sp)
9d00233c:	00021fc3 	sra	v1,v0,0x1f
9d002340:	0040a821 	move	s5,v0
9d002344:	0060f021 	move	s8,v1
9d002348:	00602021 	move	a0,v1
9d00234c:	04810006 	bgez	a0,9d002368 <_vfprintf_cdfFnopuxX+0x568>
9d002350:	00024023 	negu	t0,v0
9d002354:	0008102b 	sltu	v0,zero,t0
9d002358:	00031823 	negu	v1,v1
9d00235c:	36d60003 	ori	s6,s6,0x3
9d002360:	0100a821 	move	s5,t0
9d002364:	0062f023 	subu	s8,v1,v0
9d002368:	16600003 	bnez	s3,9d002378 <_vfprintf_cdfFnopuxX+0x578>
9d00236c:	32d400c0 	andi	s4,s6,0xc0
9d002370:	02be9825 	or	s3,s5,s8
9d002374:	2e730001 	sltiu	s3,s3,1
9d002378:	24020040 	li	v0,64
9d00237c:	12820332 	beq	s4,v0,9d003048 <_vfprintf_cdfFnopuxX+0x1248>
9d002380:	2e820041 	sltiu	v0,s4,65
9d002384:	14400228 	bnez	v0,9d002c28 <_vfprintf_cdfFnopuxX+0xe28>
9d002388:	24020080 	li	v0,128
9d00238c:	12820309 	beq	s4,v0,9d002fb4 <_vfprintf_cdfFnopuxX+0x11b4>
9d002390:	24020001 	li	v0,1
9d002394:	240200c0 	li	v0,192
9d002398:	16820226 	bne	s4,v0,9d002c34 <_vfprintf_cdfFnopuxX+0xe34>
9d00239c:	83a20016 	lb	v0,22(sp)
9d0023a0:	24020001 	li	v0,1
9d0023a4:	13c0038b 	beqz	s8,9d0031d4 <_vfprintf_cdfFnopuxX+0x13d4>
9d0023a8:	a3a20016 	sb	v0,22(sp)
9d0023ac:	3c039d01 	lui	v1,0x9d01
9d0023b0:	246382b0 	addiu	v1,v1,-32080
9d0023b4:	24020003 	li	v0,3
9d0023b8:	24060002 	li	a2,2
9d0023bc:	0b4008f2 	j	9d0023c8 <_vfprintf_cdfFnopuxX+0x5c8>
9d0023c0:	24070015 	li	a3,21
9d0023c4:	00803021 	move	a2,a0
9d0023c8:	8c640004 	lw	a0,4(v1)
9d0023cc:	03c4282b 	sltu	a1,s8,a0
9d0023d0:	54a002eb 	bnezl	a1,9d002f80 <_vfprintf_cdfFnopuxX+0x1180>
9d0023d4:	a3a60016 	sb	a2,22(sp)
9d0023d8:	509e0373 	beql	a0,s8,9d0031a8 <_vfprintf_cdfFnopuxX+0x13a8>
9d0023dc:	8c640000 	lw	a0,0(v1)
9d0023e0:	24450001 	addiu	a1,v0,1
9d0023e4:	7c022420 	seb	a0,v0
9d0023e8:	30a200ff 	andi	v0,a1,0xff
9d0023ec:	1447fff5 	bne	v0,a3,9d0023c4 <_vfprintf_cdfFnopuxX+0x5c4>
9d0023f0:	24630008 	addiu	v1,v1,8
9d0023f4:	00801021 	move	v0,a0
9d0023f8:	0053182a 	slt	v1,v0,s3
9d0023fc:	14600210 	bnez	v1,9d002c40 <_vfprintf_cdfFnopuxX+0xe40>
9d002400:	a3a40016 	sb	a0,22(sp)
9d002404:	0262182a 	slt	v1,s3,v0
9d002408:	0043980b 	movn	s3,v0,v1
9d00240c:	12e00005 	beqz	s7,9d002424 <_vfprintf_cdfFnopuxX+0x624>
9d002410:	32c34000 	andi	v1,s6,0x4000
9d002414:	32c30003 	andi	v1,s6,0x3
9d002418:	0003182b 	sltu	v1,zero,v1
9d00241c:	02e3b823 	subu	s7,s7,v1
9d002420:	32c34000 	andi	v1,s6,0x4000
9d002424:	10600005 	beqz	v1,9d00243c <_vfprintf_cdfFnopuxX+0x63c>
9d002428:	0057182a 	slt	v1,v0,s7
9d00242c:	0277182a 	slt	v1,s3,s7
9d002430:	02f3b823 	subu	s7,s7,s3
9d002434:	0003b80a 	movz	s7,zero,v1
9d002438:	0057182a 	slt	v1,v0,s7
9d00243c:	54600225 	bnezl	v1,9d002cd4 <_vfprintf_cdfFnopuxX+0xed4>
9d002440:	32c30004 	andi	v1,s6,0x4
9d002444:	32c20004 	andi	v0,s6,0x4
9d002448:	10400371 	beqz	v0,9d003210 <_vfprintf_cdfFnopuxX+0x1410>
9d00244c:	32c20008 	andi	v0,s6,0x8
9d002450:	0b400b37 	j	9d002cdc <_vfprintf_cdfFnopuxX+0xedc>
9d002454:	0000b821 	move	s7,zero
9d002458:	24020073 	li	v0,115
9d00245c:	a3a20016 	sb	v0,22(sp)
9d002460:	8fa50068 	lw	a1,104(sp)
9d002464:	8ca40000 	lw	a0,0(a1)
9d002468:	24a50004 	addiu	a1,a1,4
9d00246c:	10800323 	beqz	a0,9d0030fc <_vfprintf_cdfFnopuxX+0x12fc>
9d002470:	0080a821 	move	s5,a0
9d002474:	80820000 	lb	v0,0(a0)
9d002478:	10400353 	beqz	v0,9d0031c8 <_vfprintf_cdfFnopuxX+0x13c8>
9d00247c:	24820001 	addiu	v0,a0,1
9d002480:	0044a023 	subu	s4,v0,a0
9d002484:	24420001 	addiu	v0,v0,1
9d002488:	8043ffff 	lb	v1,-1(v0)
9d00248c:	5460fffd 	bnezl	v1,9d002484 <_vfprintf_cdfFnopuxX+0x684>
9d002490:	0044a023 	subu	s4,v0,a0
9d002494:	afa50068 	sw	a1,104(sp)
9d002498:	12600003 	beqz	s3,9d0024a8 <_vfprintf_cdfFnopuxX+0x6a8>
9d00249c:	32d60008 	andi	s6,s6,0x8
9d0024a0:	0274102b 	sltu	v0,s3,s4
9d0024a4:	0262a00b 	movn	s4,s3,v0
9d0024a8:	0297102b 	sltu	v0,s4,s7
9d0024ac:	02f4b823 	subu	s7,s7,s4
9d0024b0:	32d6ffff 	andi	s6,s6,0xffff
9d0024b4:	16c0000c 	bnez	s6,9d0024e8 <_vfprintf_cdfFnopuxX+0x6e8>
9d0024b8:	0002b80a 	movz	s7,zero,v0
9d0024bc:	52e0000a 	beqzl	s7,9d0024e8 <_vfprintf_cdfFnopuxX+0x6e8>
9d0024c0:	2417ffff 	li	s7,-1
9d0024c4:	24040020 	li	a0,32
9d0024c8:	0f401e33 	jal	9d0078cc <.LFE0>
9d0024cc:	02402821 	move	a1,s2
9d0024d0:	00021027 	nor	v0,zero,v0
9d0024d4:	0002102b 	sltu	v0,zero,v0
9d0024d8:	26f7ffff 	addiu	s7,s7,-1
9d0024dc:	16e0fff9 	bnez	s7,9d0024c4 <_vfprintf_cdfFnopuxX+0x6c4>
9d0024e0:	02028021 	addu	s0,s0,v0
9d0024e4:	2417ffff 	li	s7,-1
9d0024e8:	2694ffff 	addiu	s4,s4,-1
9d0024ec:	2413ffff 	li	s3,-1
9d0024f0:	1293000a 	beq	s4,s3,9d00251c <_vfprintf_cdfFnopuxX+0x71c>
9d0024f4:	00000000 	nop
9d0024f8:	82a40000 	lb	a0,0(s5)
9d0024fc:	02402821 	move	a1,s2
9d002500:	0f401e33 	jal	9d0078cc <.LFE0>
9d002504:	26b50001 	addiu	s5,s5,1
9d002508:	00021027 	nor	v0,zero,v0
9d00250c:	0002102b 	sltu	v0,zero,v0
9d002510:	2694ffff 	addiu	s4,s4,-1
9d002514:	1693fff8 	bne	s4,s3,9d0024f8 <_vfprintf_cdfFnopuxX+0x6f8>
9d002518:	02028021 	addu	s0,s0,v0
9d00251c:	52c0fe4a 	beqzl	s6,9d001e48 <_vfprintf_cdfFnopuxX+0x48>
9d002520:	82240000 	lb	a0,0(s1)
9d002524:	12e0fe47 	beqz	s7,9d001e44 <_vfprintf_cdfFnopuxX+0x44>
9d002528:	24040020 	li	a0,32
9d00252c:	0f401e33 	jal	9d0078cc <.LFE0>
9d002530:	02402821 	move	a1,s2
9d002534:	00021027 	nor	v0,zero,v0
9d002538:	0002102b 	sltu	v0,zero,v0
9d00253c:	02028021 	addu	s0,s0,v0
9d002540:	0b400949 	j	9d002524 <_vfprintf_cdfFnopuxX+0x724>
9d002544:	26f7ffff 	addiu	s7,s7,-1
9d002548:	2402006f 	li	v0,111
9d00254c:	a3a20016 	sb	v0,22(sp)
9d002550:	0b400875 	j	9d0021d4 <_vfprintf_cdfFnopuxX+0x3d4>
9d002554:	36d60040 	ori	s6,s6,0x40
9d002558:	32c20010 	andi	v0,s6,0x10
9d00255c:	00a01821 	move	v1,a1
9d002560:	00c2180a 	movz	v1,a2,v0
9d002564:	0076b025 	or	s6,v1,s6
9d002568:	82220000 	lb	v0,0(s1)
9d00256c:	304300ff 	andi	v1,v0,0xff
9d002570:	2c640079 	sltiu	a0,v1,121
9d002574:	1480fe94 	bnez	a0,9d001fc8 <_vfprintf_cdfFnopuxX+0x1c8>
9d002578:	26310001 	addiu	s1,s1,1
9d00257c:	a3a20016 	sb	v0,22(sp)
9d002580:	27b50016 	addiu	s5,sp,22
9d002584:	0b400926 	j	9d002498 <_vfprintf_cdfFnopuxX+0x698>
9d002588:	24140001 	li	s4,1
9d00258c:	24020066 	li	v0,102
9d002590:	a3a20016 	sb	v0,22(sp)
9d002594:	0b400875 	j	9d0021d4 <_vfprintf_cdfFnopuxX+0x3d4>
9d002598:	36d60400 	ori	s6,s6,0x400
9d00259c:	0b400875 	j	9d0021d4 <_vfprintf_cdfFnopuxX+0x3d4>
9d0025a0:	a3a20016 	sb	v0,22(sp)
9d0025a4:	8fa60068 	lw	a2,104(sp)
9d0025a8:	8cc30000 	lw	v1,0(a2)
9d0025ac:	32c60010 	andi	a2,s6,0x10
9d0025b0:	8fa70068 	lw	a3,104(sp)
9d0025b4:	24e50004 	addiu	a1,a3,4
9d0025b8:	000327c3 	sra	a0,v1,0x1f
9d0025bc:	00042600 	sll	a0,a0,0x18
9d0025c0:	00031202 	srl	v0,v1,0x8
9d0025c4:	00821025 	or	v0,a0,v0
9d0025c8:	7c022420 	seb	a0,v0
9d0025cc:	10c00191 	beqz	a2,9d002c14 <_vfprintf_cdfFnopuxX+0xe14>
9d0025d0:	a3a40016 	sb	a0,22(sp)
9d0025d4:	24420001 	addiu	v0,v0,1
9d0025d8:	304200ff 	andi	v0,v0,0xff
9d0025dc:	2c420002 	sltiu	v0,v0,2
9d0025e0:	5440018d 	bnezl	v0,9d002c18 <_vfprintf_cdfFnopuxX+0xe18>
9d0025e4:	a3a30014 	sb	v1,20(sp)
9d0025e8:	a3a40014 	sb	a0,20(sp)
9d0025ec:	a3a30015 	sb	v1,21(sp)
9d0025f0:	24140002 	li	s4,2
9d0025f4:	27b50014 	addiu	s5,sp,20
9d0025f8:	0b400926 	j	9d002498 <_vfprintf_cdfFnopuxX+0x698>
9d0025fc:	afa50068 	sw	a1,104(sp)
9d002600:	a3a20016 	sb	v0,22(sp)
9d002604:	0b400874 	j	9d0021d0 <_vfprintf_cdfFnopuxX+0x3d0>
9d002608:	36d60020 	ori	s6,s6,0x20
9d00260c:	0b4007a8 	j	9d001ea0 <_vfprintf_cdfFnopuxX+0xa0>
9d002610:	24420001 	addiu	v0,v0,1
9d002614:	2402002a 	li	v0,42
9d002618:	12e20133 	beq	s7,v0,9d002ae8 <_vfprintf_cdfFnopuxX+0xce8>
9d00261c:	2403002e 	li	v1,46
9d002620:	02e01021 	move	v0,s7
9d002624:	1443fe60 	bne	v0,v1,9d001fa8 <_vfprintf_cdfFnopuxX+0x1a8>
9d002628:	0000b821 	move	s7,zero
9d00262c:	82220001 	lb	v0,1(s1)
9d002630:	2403002a 	li	v1,42
9d002634:	10430254 	beq	v0,v1,9d002f88 <_vfprintf_cdfFnopuxX+0x1188>
9d002638:	36d64000 	ori	s6,s6,0x4000
9d00263c:	3c049d00 	lui	a0,0x9d00
9d002640:	24847f99 	addiu	a0,a0,32665
9d002644:	00821821 	addu	v1,a0,v0
9d002648:	90630000 	lbu	v1,0(v1)
9d00264c:	26310001 	addiu	s1,s1,1
9d002650:	30630004 	andi	v1,v1,0x4
9d002654:	1060fe56 	beqz	v1,9d001fb0 <_vfprintf_cdfFnopuxX+0x1b0>
9d002658:	00009821 	move	s3,zero
9d00265c:	00131840 	sll	v1,s3,0x1
9d002660:	001398c0 	sll	s3,s3,0x3
9d002664:	26310001 	addiu	s1,s1,1
9d002668:	00739821 	addu	s3,v1,s3
9d00266c:	02629821 	addu	s3,s3,v0
9d002670:	82220000 	lb	v0,0(s1)
9d002674:	3c069d00 	lui	a2,0x9d00
9d002678:	24c67f99 	addiu	a2,a2,32665
9d00267c:	00c21821 	addu	v1,a2,v0
9d002680:	90630000 	lbu	v1,0(v1)
9d002684:	30630004 	andi	v1,v1,0x4
9d002688:	1460fff4 	bnez	v1,9d00265c <_vfprintf_cdfFnopuxX+0x85c>
9d00268c:	2673ffd0 	addiu	s3,s3,-48
9d002690:	0b4007ed 	j	9d001fb4 <_vfprintf_cdfFnopuxX+0x1b4>
9d002694:	24060010 	li	a2,16
9d002698:	0f402283 	jal	9d008a0c <__fixunssfsi>
9d00269c:	00000000 	nop
9d0026a0:	5440ff0a 	bnezl	v0,9d0022cc <_vfprintf_cdfFnopuxX+0x4cc>
9d0026a4:	0040f021 	move	s8,v0
9d0026a8:	2bc30002 	slti	v1,s8,2
9d0026ac:	5460ff07 	bnezl	v1,9d0022cc <_vfprintf_cdfFnopuxX+0x4cc>
9d0026b0:	0040f021 	move	s8,v0
9d0026b4:	8fa40024 	lw	a0,36(sp)
9d0026b8:	3c029d01 	lui	v0,0x9d01
9d0026bc:	2442837c 	addiu	v0,v0,-31876
9d0026c0:	0f4021f3 	jal	9d0087cc <.LFE0>
9d0026c4:	8c450000 	lw	a1,0(v0)
9d0026c8:	0440010e 	bltz	v0,9d002b04 <_vfprintf_cdfFnopuxX+0xd04>
9d0026cc:	27caffed 	addiu	t2,s8,-19
9d0026d0:	27caffee 	addiu	t2,s8,-18
9d0026d4:	afaa0010 	sw	t2,16(sp)
9d0026d8:	7c0a2420 	seb	a0,t2
9d0026dc:	0f401acb 	jal	9d006b2c <scale>
9d0026e0:	afaa002c 	sw	t2,44(sp)
9d0026e4:	afa20024 	sw	v0,36(sp)
9d0026e8:	02802021 	move	a0,s4
9d0026ec:	0f401a3f 	jal	9d0068fc <__divsf3>
9d0026f0:	00402821 	move	a1,v0
9d0026f4:	0f402283 	jal	9d008a0c <__fixunssfsi>
9d0026f8:	00402021 	move	a0,v0
9d0026fc:	0040f021 	move	s8,v0
9d002700:	0040a821 	move	s5,v0
9d002704:	00001821 	move	v1,zero
9d002708:	afa3001c 	sw	v1,28(sp)
9d00270c:	8faa002c 	lw	t2,44(sp)
9d002710:	2fc2000a 	sltiu	v0,s8,10
9d002714:	1440027d 	bnez	v0,9d00310c <_vfprintf_cdfFnopuxX+0x130c>
9d002718:	3c039d01 	lui	v1,0x9d01
9d00271c:	246382b0 	addiu	v1,v1,-32080
9d002720:	24050002 	li	a1,2
9d002724:	24060002 	li	a2,2
9d002728:	24090014 	li	t1,20
9d00272c:	8c670004 	lw	a3,4(v1)
9d002730:	54e0000c 	bnezl	a3,9d002764 <_vfprintf_cdfFnopuxX+0x964>
9d002734:	a3a60016 	sb	a2,22(sp)
9d002738:	8c620000 	lw	v0,0(v1)
9d00273c:	03c2102b 	sltu	v0,s8,v0
9d002740:	54400008 	bnezl	v0,9d002764 <_vfprintf_cdfFnopuxX+0x964>
9d002744:	a3a60016 	sb	a2,22(sp)
9d002748:	24a60001 	addiu	a2,a1,1
9d00274c:	00c02821 	move	a1,a2
9d002750:	7c063420 	seb	a2,a2
9d002754:	14a9fff5 	bne	a1,t1,9d00272c <_vfprintf_cdfFnopuxX+0x92c>
9d002758:	24630008 	addiu	v1,v1,8
9d00275c:	a3a60016 	sb	a2,22(sp)
9d002760:	24050014 	li	a1,20
9d002764:	02652821 	addu	a1,s3,a1
9d002768:	00aa5021 	addu	t2,a1,t2
9d00276c:	02eab823 	subu	s7,s7,t2
9d002770:	0013102b 	sltu	v0,zero,s3
9d002774:	32c30003 	andi	v1,s6,0x3
9d002778:	02e2b823 	subu	s7,s7,v0
9d00277c:	0003182b 	sltu	v1,zero,v1
9d002780:	32c20004 	andi	v0,s6,0x4
9d002784:	10400137 	beqz	v0,9d002c64 <_vfprintf_cdfFnopuxX+0xe64>
9d002788:	02e3b823 	subu	s7,s7,v1
9d00278c:	32c20002 	andi	v0,s6,0x2
9d002790:	10400221 	beqz	v0,9d003018 <_vfprintf_cdfFnopuxX+0x1218>
9d002794:	32c20001 	andi	v0,s6,0x1
9d002798:	32c40001 	andi	a0,s6,0x1
9d00279c:	2402002d 	li	v0,45
9d0027a0:	2403002b 	li	v1,43
9d0027a4:	0064100a 	movz	v0,v1,a0
9d0027a8:	00402021 	move	a0,v0
9d0027ac:	0f401e33 	jal	9d0078cc <.LFE0>
9d0027b0:	02402821 	move	a1,s2
9d0027b4:	00021027 	nor	v0,zero,v0
9d0027b8:	0002102b 	sltu	v0,zero,v0
9d0027bc:	02028021 	addu	s0,s0,v0
9d0027c0:	5ae0000a 	blezl	s7,9d0027ec <_vfprintf_cdfFnopuxX+0x9ec>
9d0027c4:	32d60008 	andi	s6,s6,0x8
9d0027c8:	24040030 	li	a0,48
9d0027cc:	0f401e33 	jal	9d0078cc <.LFE0>
9d0027d0:	02402821 	move	a1,s2
9d0027d4:	00021027 	nor	v0,zero,v0
9d0027d8:	0002102b 	sltu	v0,zero,v0
9d0027dc:	26f7ffff 	addiu	s7,s7,-1
9d0027e0:	16e0fff9 	bnez	s7,9d0027c8 <_vfprintf_cdfFnopuxX+0x9c8>
9d0027e4:	02028021 	addu	s0,s0,v0
9d0027e8:	32d60008 	andi	s6,s6,0x8
9d0027ec:	32d6ffff 	andi	s6,s6,0xffff
9d0027f0:	afb60018 	sw	s6,24(sp)
9d0027f4:	3c049d01 	lui	a0,0x9d01
9d0027f8:	0b400a12 	j	9d002848 <_vfprintf_cdfFnopuxX+0xa48>
9d0027fc:	249482a0 	addiu	s4,a0,-32096
9d002800:	000318c0 	sll	v1,v1,0x3
9d002804:	02831821 	addu	v1,s4,v1
9d002808:	8c660000 	lw	a2,0(v1)
9d00280c:	8c670004 	lw	a3,4(v1)
9d002810:	02a02021 	move	a0,s5
9d002814:	0f4014ea 	jal	9d0053a8 <__udivdi3>
9d002818:	00002821 	move	a1,zero
9d00281c:	00402021 	move	a0,v0
9d002820:	00602821 	move	a1,v1
9d002824:	2406000a 	li	a2,10
9d002828:	0f4012bb 	jal	9d004aec <__umoddi3>
9d00282c:	00003821 	move	a3,zero
9d002830:	24440030 	addiu	a0,v0,48
9d002834:	0f401e33 	jal	9d0078cc <.LFE0>
9d002838:	02402821 	move	a1,s2
9d00283c:	00021027 	nor	v0,zero,v0
9d002840:	0002102b 	sltu	v0,zero,v0
9d002844:	02028021 	addu	s0,s0,v0
9d002848:	83a20016 	lb	v0,22(sp)
9d00284c:	2443ffff 	addiu	v1,v0,-1
9d002850:	7c031c20 	seb	v1,v1
9d002854:	1440ffea 	bnez	v0,9d002800 <_vfprintf_cdfFnopuxX+0xa00>
9d002858:	a3a30016 	sb	v1,22(sp)
9d00285c:	8fa20010 	lw	v0,16(sp)
9d002860:	1840000c 	blez	v0,9d002894 <_vfprintf_cdfFnopuxX+0xa94>
9d002864:	2a620013 	slti	v0,s3,19
9d002868:	24040030 	li	a0,48
9d00286c:	0f401e33 	jal	9d0078cc <.LFE0>
9d002870:	02402821 	move	a1,s2
9d002874:	00021027 	nor	v0,zero,v0
9d002878:	0002102b 	sltu	v0,zero,v0
9d00287c:	8fa30010 	lw	v1,16(sp)
9d002880:	2463ffff 	addiu	v1,v1,-1
9d002884:	02028021 	addu	s0,s0,v0
9d002888:	1c60fff7 	bgtz	v1,9d002868 <_vfprintf_cdfFnopuxX+0xa68>
9d00288c:	afa30010 	sw	v1,16(sp)
9d002890:	2a620013 	slti	v0,s3,19
9d002894:	144000ed 	bnez	v0,9d002c4c <_vfprintf_cdfFnopuxX+0xe4c>
9d002898:	7c131420 	seb	v0,s3
9d00289c:	24020012 	li	v0,18
9d0028a0:	a3a20016 	sb	v0,22(sp)
9d0028a4:	2674ffee 	addiu	s4,s3,-18
9d0028a8:	2404002e 	li	a0,46
9d0028ac:	0f401e33 	jal	9d0078cc <.LFE0>
9d0028b0:	02402821 	move	a1,s2
9d0028b4:	2403ffff 	li	v1,-1
9d0028b8:	10430002 	beq	v0,v1,9d0028c4 <_vfprintf_cdfFnopuxX+0xac4>
9d0028bc:	83b30016 	lb	s3,22(sp)
9d0028c0:	26100001 	addiu	s0,s0,1
9d0028c4:	0f401acb 	jal	9d006b2c <scale>
9d0028c8:	02602021 	move	a0,s3
9d0028cc:	00402021 	move	a0,v0
9d0028d0:	0f401c48 	jal	9d007120 <.LFE4>
9d0028d4:	8fa5001c 	lw	a1,28(sp)
9d0028d8:	0f402283 	jal	9d008a0c <__fixunssfsi>
9d0028dc:	00402021 	move	a0,v0
9d0028e0:	0040a821 	move	s5,v0
9d0028e4:	2666ffff 	addiu	a2,s3,-1
9d0028e8:	7c063420 	seb	a2,a2
9d0028ec:	0000f021 	move	s8,zero
9d0028f0:	12600023 	beqz	s3,9d002980 <_vfprintf_cdfFnopuxX+0xb80>
9d0028f4:	a3a60016 	sb	a2,22(sp)
9d0028f8:	3c059d01 	lui	a1,0x9d01
9d0028fc:	24b382a0 	addiu	s3,a1,-32096
9d002900:	000630c0 	sll	a2,a2,0x3
9d002904:	02663021 	addu	a2,s3,a2
9d002908:	8cc70004 	lw	a3,4(a2)
9d00290c:	8cc60000 	lw	a2,0(a2)
9d002910:	02a02021 	move	a0,s5
9d002914:	0f4014ea 	jal	9d0053a8 <__udivdi3>
9d002918:	03c02821 	move	a1,s8
9d00291c:	00402021 	move	a0,v0
9d002920:	00602821 	move	a1,v1
9d002924:	2406000a 	li	a2,10
9d002928:	0f4012bb 	jal	9d004aec <__umoddi3>
9d00292c:	00003821 	move	a3,zero
9d002930:	24440030 	addiu	a0,v0,48
9d002934:	0f401e33 	jal	9d0078cc <.LFE0>
9d002938:	02402821 	move	a1,s2
9d00293c:	83b60016 	lb	s6,22(sp)
9d002940:	00021027 	nor	v0,zero,v0
9d002944:	0002102b 	sltu	v0,zero,v0
9d002948:	001618c0 	sll	v1,s6,0x3
9d00294c:	02631821 	addu	v1,s3,v1
9d002950:	8c660000 	lw	a2,0(v1)
9d002954:	8c670004 	lw	a3,4(v1)
9d002958:	02a02021 	move	a0,s5
9d00295c:	03c02821 	move	a1,s8
9d002960:	0f4012bb 	jal	9d004aec <__umoddi3>
9d002964:	02028021 	addu	s0,s0,v0
9d002968:	26c6ffff 	addiu	a2,s6,-1
9d00296c:	7c063420 	seb	a2,a2
9d002970:	0040a821 	move	s5,v0
9d002974:	0060f021 	move	s8,v1
9d002978:	16c0ffe1 	bnez	s6,9d002900 <_vfprintf_cdfFnopuxX+0xb00>
9d00297c:	a3a60016 	sb	a2,22(sp)
9d002980:	1280000a 	beqz	s4,9d0029ac <_vfprintf_cdfFnopuxX+0xbac>
9d002984:	8fa60018 	lw	a2,24(sp)
9d002988:	24040030 	li	a0,48
9d00298c:	0f401e33 	jal	9d0078cc <.LFE0>
9d002990:	02402821 	move	a1,s2
9d002994:	00021027 	nor	v0,zero,v0
9d002998:	0002102b 	sltu	v0,zero,v0
9d00299c:	2694ffff 	addiu	s4,s4,-1
9d0029a0:	1680fff9 	bnez	s4,9d002988 <_vfprintf_cdfFnopuxX+0xb88>
9d0029a4:	02028021 	addu	s0,s0,v0
9d0029a8:	8fa60018 	lw	a2,24(sp)
9d0029ac:	50c0fd26 	beqzl	a2,9d001e48 <_vfprintf_cdfFnopuxX+0x48>
9d0029b0:	82240000 	lb	a0,0(s1)
9d0029b4:	5ae0fd24 	blezl	s7,9d001e48 <_vfprintf_cdfFnopuxX+0x48>
9d0029b8:	82240000 	lb	a0,0(s1)
9d0029bc:	24040020 	li	a0,32
9d0029c0:	0f401e33 	jal	9d0078cc <.LFE0>
9d0029c4:	02402821 	move	a1,s2
9d0029c8:	00021027 	nor	v0,zero,v0
9d0029cc:	0002102b 	sltu	v0,zero,v0
9d0029d0:	26f7ffff 	addiu	s7,s7,-1
9d0029d4:	16e0fff9 	bnez	s7,9d0029bc <_vfprintf_cdfFnopuxX+0xbbc>
9d0029d8:	02028021 	addu	s0,s0,v0
9d0029dc:	0b400792 	j	9d001e48 <_vfprintf_cdfFnopuxX+0x48>
9d0029e0:	82240000 	lb	a0,0(s1)
9d0029e4:	8fa30068 	lw	v1,104(sp)
9d0029e8:	8c740000 	lw	s4,0(v1)
9d0029ec:	24630004 	addiu	v1,v1,4
9d0029f0:	afa30068 	sw	v1,104(sp)
9d0029f4:	02802021 	move	a0,s4
9d0029f8:	0f4021f3 	jal	9d0087cc <.LFE0>
9d0029fc:	00002821 	move	a1,zero
9d002a00:	0441fe0c 	bgez	v0,9d002234 <_vfprintf_cdfFnopuxX+0x434>
9d002a04:	02802021 	move	a0,s4
9d002a08:	3c028000 	lui	v0,0x8000
9d002a0c:	0054a026 	xor	s4,v0,s4
9d002a10:	36d60003 	ori	s6,s6,0x3
9d002a14:	02802021 	move	a0,s4
9d002a18:	00002821 	move	a1,zero
9d002a1c:	0f4021f3 	jal	9d0087cc <.LFE0>
9d002a20:	afa00010 	sw	zero,16(sp)
9d002a24:	1040fe08 	beqz	v0,9d002248 <_vfprintf_cdfFnopuxX+0x448>
9d002a28:	0000f021 	move	s8,zero
9d002a2c:	02802021 	move	a0,s4
9d002a30:	0f402241 	jal	9d008904 <.LFE0>
9d002a34:	27a50010 	addiu	a1,sp,16
9d002a38:	8fa20010 	lw	v0,16(sp)
9d002a3c:	2442ffff 	addiu	v0,v0,-1
9d002a40:	00021840 	sll	v1,v0,0x1
9d002a44:	00621021 	addu	v0,v1,v0
9d002a48:	3c036666 	lui	v1,0x6666
9d002a4c:	24636667 	addiu	v1,v1,26215
9d002a50:	00430018 	mult	v0,v1
9d002a54:	00001810 	mfhi	v1
9d002a58:	000217c3 	sra	v0,v0,0x1f
9d002a5c:	00031883 	sra	v1,v1,0x2
9d002a60:	00621023 	subu	v0,v1,v0
9d002a64:	2443ffff 	addiu	v1,v0,-1
9d002a68:	285e0000 	slti	s8,v0,0
9d002a6c:	007e100b 	movn	v0,v1,s8
9d002a70:	0040f021 	move	s8,v0
9d002a74:	00022023 	negu	a0,v0
9d002a78:	0f401acb 	jal	9d006b2c <scale>
9d002a7c:	7c042420 	seb	a0,a0
9d002a80:	00402021 	move	a0,v0
9d002a84:	0f401c48 	jal	9d007120 <.LFE4>
9d002a88:	02802821 	move	a1,s4
9d002a8c:	afa20024 	sw	v0,36(sp)
9d002a90:	3c029d01 	lui	v0,0x9d01
9d002a94:	8c458370 	lw	a1,-31888(v0)
9d002a98:	0f4021f3 	jal	9d0087cc <.LFE0>
9d002a9c:	8fa40024 	lw	a0,36(sp)
9d002aa0:	044001c7 	bltz	v0,9d0031c0 <_vfprintf_cdfFnopuxX+0x13c0>
9d002aa4:	3c029d01 	lui	v0,0x9d01
9d002aa8:	8c448374 	lw	a0,-31884(v0)
9d002aac:	0f4021f3 	jal	9d0087cc <.LFE0>
9d002ab0:	8fa50024 	lw	a1,36(sp)
9d002ab4:	28420001 	slti	v0,v0,1
9d002ab8:	0b400892 	j	9d002248 <_vfprintf_cdfFnopuxX+0x448>
9d002abc:	03c2f021 	addu	s8,s8,v0
9d002ac0:	0440017a 	bltz	v0,9d0030ac <_vfprintf_cdfFnopuxX+0x12ac>
9d002ac4:	32c20010 	andi	v0,s6,0x10
9d002ac8:	10400045 	beqz	v0,9d002be0 <_vfprintf_cdfFnopuxX+0xde0>
9d002acc:	8fa20068 	lw	v0,104(sp)
9d002ad0:	8fa70068 	lw	a3,104(sp)
9d002ad4:	8cf50000 	lw	s5,0(a3)
9d002ad8:	0000f021 	move	s8,zero
9d002adc:	24e70004 	addiu	a3,a3,4
9d002ae0:	0b4008da 	j	9d002368 <_vfprintf_cdfFnopuxX+0x568>
9d002ae4:	afa70068 	sw	a3,104(sp)
9d002ae8:	8fa70068 	lw	a3,104(sp)
9d002aec:	8cf70000 	lw	s7,0(a3)
9d002af0:	26310001 	addiu	s1,s1,1
9d002af4:	80a20001 	lb	v0,1(a1)
9d002af8:	24e70004 	addiu	a3,a3,4
9d002afc:	0b4007e7 	j	9d001f9c <_vfprintf_cdfFnopuxX+0x19c>
9d002b00:	afa70068 	sw	a3,104(sp)
9d002b04:	0b4009b6 	j	9d0026d8 <_vfprintf_cdfFnopuxX+0x8d8>
9d002b08:	afaa0010 	sw	t2,16(sp)
9d002b0c:	34e7851f 	ori	a3,a3,0x851f
9d002b10:	02a70019 	multu	s5,a3
9d002b14:	00003810 	mfhi	a3
9d002b18:	3c069d01 	lui	a2,0x9d01
9d002b1c:	24c68c10 	addiu	a2,a2,-29680
9d002b20:	3c029d01 	lui	v0,0x9d01
9d002b24:	8c458378 	lw	a1,-31880(v0)
9d002b28:	00073942 	srl	a3,a3,0x5
9d002b2c:	24e20012 	addiu	v0,a3,18
9d002b30:	00021080 	sll	v0,v0,0x2
9d002b34:	00461021 	addu	v0,v0,a2
9d002b38:	8c440000 	lw	a0,0(v0)
9d002b3c:	afa60030 	sw	a2,48(sp)
9d002b40:	0f401c48 	jal	9d007120 <.LFE4>
9d002b44:	afa7002c 	sw	a3,44(sp)
9d002b48:	8fa7002c 	lw	a3,44(sp)
9d002b4c:	00072080 	sll	a0,a3,0x2
9d002b50:	00073900 	sll	a3,a3,0x4
9d002b54:	00872021 	addu	a0,a0,a3
9d002b58:	00042880 	sll	a1,a0,0x2
9d002b5c:	00852021 	addu	a0,a0,a1
9d002b60:	02a42823 	subu	a1,s5,a0
9d002b64:	3c07cccc 	lui	a3,0xcccc
9d002b68:	34e7cccd 	ori	a3,a3,0xcccd
9d002b6c:	30a500ff 	andi	a1,a1,0xff
9d002b70:	00a70019 	multu	a1,a3
9d002b74:	00002810 	mfhi	a1
9d002b78:	00402021 	move	a0,v0
9d002b7c:	000510c2 	srl	v0,a1,0x3
9d002b80:	24420009 	addiu	v0,v0,9
9d002b84:	00021080 	sll	v0,v0,0x2
9d002b88:	8fa60030 	lw	a2,48(sp)
9d002b8c:	00461021 	addu	v0,v0,a2
9d002b90:	8c450000 	lw	a1,0(v0)
9d002b94:	0f401c48 	jal	9d007120 <.LFE4>
9d002b98:	afa7002c 	sw	a3,44(sp)
9d002b9c:	8fa7002c 	lw	a3,44(sp)
9d002ba0:	02a70019 	multu	s5,a3
9d002ba4:	00003810 	mfhi	a3
9d002ba8:	00402021 	move	a0,v0
9d002bac:	000710c2 	srl	v0,a3,0x3
9d002bb0:	00022840 	sll	a1,v0,0x1
9d002bb4:	000210c0 	sll	v0,v0,0x3
9d002bb8:	00a21021 	addu	v0,a1,v0
9d002bbc:	02a21023 	subu	v0,s5,v0
9d002bc0:	304200ff 	andi	v0,v0,0xff
9d002bc4:	00021080 	sll	v0,v0,0x2
9d002bc8:	8fa60030 	lw	a2,48(sp)
9d002bcc:	00463021 	addu	a2,v0,a2
9d002bd0:	0f401c48 	jal	9d007120 <.LFE4>
9d002bd4:	8cc50000 	lw	a1,0(a2)
9d002bd8:	0b4008a5 	j	9d002294 <_vfprintf_cdfFnopuxX+0x494>
9d002bdc:	00402821 	move	a1,v0
9d002be0:	8c550000 	lw	s5,0(v0)
9d002be4:	0000f021 	move	s8,zero
9d002be8:	24420004 	addiu	v0,v0,4
9d002bec:	0b4008da 	j	9d002368 <_vfprintf_cdfFnopuxX+0x568>
9d002bf0:	afa20068 	sw	v0,104(sp)
9d002bf4:	8c820000 	lw	v0,0(a0)
9d002bf8:	24840004 	addiu	a0,a0,4
9d002bfc:	afa40068 	sw	a0,104(sp)
9d002c00:	00021fc3 	sra	v1,v0,0x1f
9d002c04:	0040a821 	move	s5,v0
9d002c08:	0060f021 	move	s8,v1
9d002c0c:	0b4008d3 	j	9d00234c <_vfprintf_cdfFnopuxX+0x54c>
9d002c10:	00602021 	move	a0,v1
9d002c14:	a3a30014 	sb	v1,20(sp)
9d002c18:	24140001 	li	s4,1
9d002c1c:	27b50014 	addiu	s5,sp,20
9d002c20:	0b400926 	j	9d002498 <_vfprintf_cdfFnopuxX+0x698>
9d002c24:	afa50068 	sw	a1,104(sp)
9d002c28:	1280fdde 	beqz	s4,9d0023a4 <_vfprintf_cdfFnopuxX+0x5a4>
9d002c2c:	24020001 	li	v0,1
9d002c30:	83a20016 	lb	v0,22(sp)
9d002c34:	0053182a 	slt	v1,v0,s3
9d002c38:	1060fdf3 	beqz	v1,9d002408 <_vfprintf_cdfFnopuxX+0x608>
9d002c3c:	0262182a 	slt	v1,s3,v0
9d002c40:	7c131420 	seb	v0,s3
9d002c44:	0b400903 	j	9d00240c <_vfprintf_cdfFnopuxX+0x60c>
9d002c48:	a3a20016 	sb	v0,22(sp)
9d002c4c:	a3a20016 	sb	v0,22(sp)
9d002c50:	1440ff15 	bnez	v0,9d0028a8 <_vfprintf_cdfFnopuxX+0xaa8>
9d002c54:	0262a023 	subu	s4,s3,v0
9d002c58:	2402ffff 	li	v0,-1
9d002c5c:	0b400a60 	j	9d002980 <_vfprintf_cdfFnopuxX+0xb80>
9d002c60:	a3a20016 	sb	v0,22(sp)
9d002c64:	32de0008 	andi	s8,s6,0x8
9d002c68:	33deffff 	andi	s8,s8,0xffff
9d002c6c:	17c0000b 	bnez	s8,9d002c9c <_vfprintf_cdfFnopuxX+0xe9c>
9d002c70:	afbe0018 	sw	s8,24(sp)
9d002c74:	1ae0000a 	blez	s7,9d002ca0 <_vfprintf_cdfFnopuxX+0xea0>
9d002c78:	32c20002 	andi	v0,s6,0x2
9d002c7c:	24040020 	li	a0,32
9d002c80:	0f401e33 	jal	9d0078cc <.LFE0>
9d002c84:	02402821 	move	a1,s2
9d002c88:	00021027 	nor	v0,zero,v0
9d002c8c:	0002102b 	sltu	v0,zero,v0
9d002c90:	26f7ffff 	addiu	s7,s7,-1
9d002c94:	16e0fff9 	bnez	s7,9d002c7c <_vfprintf_cdfFnopuxX+0xe7c>
9d002c98:	02028021 	addu	s0,s0,v0
9d002c9c:	32c20002 	andi	v0,s6,0x2
9d002ca0:	504000c0 	beqzl	v0,9d002fa4 <_vfprintf_cdfFnopuxX+0x11a4>
9d002ca4:	32d60001 	andi	s6,s6,0x1
9d002ca8:	32c40001 	andi	a0,s6,0x1
9d002cac:	2402002b 	li	v0,43
9d002cb0:	2403002d 	li	v1,45
9d002cb4:	0064100b 	movn	v0,v1,a0
9d002cb8:	00402021 	move	a0,v0
9d002cbc:	0f401e33 	jal	9d0078cc <.LFE0>
9d002cc0:	02402821 	move	a1,s2
9d002cc4:	00021027 	nor	v0,zero,v0
9d002cc8:	0002102b 	sltu	v0,zero,v0
9d002ccc:	0b4009fd 	j	9d0027f4 <_vfprintf_cdfFnopuxX+0x9f4>
9d002cd0:	02028021 	addu	s0,s0,v0
9d002cd4:	1060001c 	beqz	v1,9d002d48 <_vfprintf_cdfFnopuxX+0xf48>
9d002cd8:	02e2b823 	subu	s7,s7,v0
9d002cdc:	32c20002 	andi	v0,s6,0x2
9d002ce0:	104000d5 	beqz	v0,9d003038 <_vfprintf_cdfFnopuxX+0x1238>
9d002ce4:	32c20001 	andi	v0,s6,0x1
9d002ce8:	32c40001 	andi	a0,s6,0x1
9d002cec:	2402002d 	li	v0,45
9d002cf0:	2403002b 	li	v1,43
9d002cf4:	0064100a 	movz	v0,v1,a0
9d002cf8:	00402021 	move	a0,v0
9d002cfc:	0f401e33 	jal	9d0078cc <.LFE0>
9d002d00:	02402821 	move	a1,s2
9d002d04:	00021027 	nor	v0,zero,v0
9d002d08:	0002102b 	sltu	v0,zero,v0
9d002d0c:	02028021 	addu	s0,s0,v0
9d002d10:	12e0000a 	beqz	s7,9d002d3c <_vfprintf_cdfFnopuxX+0xf3c>
9d002d14:	32c20008 	andi	v0,s6,0x8
9d002d18:	24040030 	li	a0,48
9d002d1c:	0f401e33 	jal	9d0078cc <.LFE0>
9d002d20:	02402821 	move	a1,s2
9d002d24:	00021027 	nor	v0,zero,v0
9d002d28:	0002102b 	sltu	v0,zero,v0
9d002d2c:	26f7ffff 	addiu	s7,s7,-1
9d002d30:	16e0fff9 	bnez	s7,9d002d18 <_vfprintf_cdfFnopuxX+0xf18>
9d002d34:	02028021 	addu	s0,s0,v0
9d002d38:	32c20008 	andi	v0,s6,0x8
9d002d3c:	3042ffff 	andi	v0,v0,0xffff
9d002d40:	0b400b65 	j	9d002d94 <_vfprintf_cdfFnopuxX+0xf94>
9d002d44:	afa20028 	sw	v0,40(sp)
9d002d48:	32c20008 	andi	v0,s6,0x8
9d002d4c:	3042ffff 	andi	v0,v0,0xffff
9d002d50:	12e00003 	beqz	s7,9d002d60 <_vfprintf_cdfFnopuxX+0xf60>
9d002d54:	afa20028 	sw	v0,40(sp)
9d002d58:	10400045 	beqz	v0,9d002e70 <_vfprintf_cdfFnopuxX+0x1070>
9d002d5c:	24040020 	li	a0,32
9d002d60:	32c20002 	andi	v0,s6,0x2
9d002d64:	104000b0 	beqz	v0,9d003028 <_vfprintf_cdfFnopuxX+0x1228>
9d002d68:	32c20001 	andi	v0,s6,0x1
9d002d6c:	32c40001 	andi	a0,s6,0x1
9d002d70:	2402002d 	li	v0,45
9d002d74:	2403002b 	li	v1,43
9d002d78:	0064100a 	movz	v0,v1,a0
9d002d7c:	00402021 	move	a0,v0
9d002d80:	0f401e33 	jal	9d0078cc <.LFE0>
9d002d84:	02402821 	move	a1,s2
9d002d88:	00021027 	nor	v0,zero,v0
9d002d8c:	0002102b 	sltu	v0,zero,v0
9d002d90:	02028021 	addu	s0,s0,v0
9d002d94:	2662ffff 	addiu	v0,s3,-1
9d002d98:	000220c0 	sll	a0,v0,0x3
9d002d9c:	3c039d01 	lui	v1,0x9d01
9d002da0:	247382a0 	addiu	s3,v1,-32096
9d002da4:	00024840 	sll	t1,v0,0x1
9d002da8:	32c30020 	andi	v1,s6,0x20
9d002dac:	02649821 	addu	s3,s3,a0
9d002db0:	afb30018 	sw	s3,24(sp)
9d002db4:	00029880 	sll	s3,v0,0x2
9d002db8:	0122b021 	addu	s6,t1,v0
9d002dbc:	001e2040 	sll	a0,s8,0x1
9d002dc0:	afa4001c 	sw	a0,28(sp)
9d002dc4:	3063ffff 	andi	v1,v1,0xffff
9d002dc8:	2402fffd 	li	v0,-3
9d002dcc:	12c20018 	beq	s6,v0,9d002e30 <_vfprintf_cdfFnopuxX+0x1030>
9d002dd0:	afa30020 	sw	v1,32(sp)
9d002dd4:	24020040 	li	v0,64
9d002dd8:	12820059 	beq	s4,v0,9d002f40 <_vfprintf_cdfFnopuxX+0x1140>
9d002ddc:	2e820041 	sltiu	v0,s4,65
9d002de0:	14400034 	bnez	v0,9d002eb4 <_vfprintf_cdfFnopuxX+0x10b4>
9d002de4:	24020080 	li	v0,128
9d002de8:	12820043 	beq	s4,v0,9d002ef8 <_vfprintf_cdfFnopuxX+0x10f8>
9d002dec:	00131827 	nor	v1,zero,s3
9d002df0:	240200c0 	li	v0,192
9d002df4:	12820032 	beq	s4,v0,9d002ec0 <_vfprintf_cdfFnopuxX+0x10c0>
9d002df8:	8fa50018 	lw	a1,24(sp)
9d002dfc:	83a40016 	lb	a0,22(sp)
9d002e00:	0f401e33 	jal	9d0078cc <.LFE0>
9d002e04:	02402821 	move	a1,s2
9d002e08:	00021027 	nor	v0,zero,v0
9d002e0c:	0002102b 	sltu	v0,zero,v0
9d002e10:	02028021 	addu	s0,s0,v0
9d002e14:	8fa70018 	lw	a3,24(sp)
9d002e18:	24e7fff8 	addiu	a3,a3,-8
9d002e1c:	afa70018 	sw	a3,24(sp)
9d002e20:	26d6fffd 	addiu	s6,s6,-3
9d002e24:	2402fffd 	li	v0,-3
9d002e28:	16c2ffea 	bne	s6,v0,9d002dd4 <_vfprintf_cdfFnopuxX+0xfd4>
9d002e2c:	2673fffc 	addiu	s3,s3,-4
9d002e30:	8fa20028 	lw	v0,40(sp)
9d002e34:	5040fc04 	beqzl	v0,9d001e48 <_vfprintf_cdfFnopuxX+0x48>
9d002e38:	82240000 	lb	a0,0(s1)
9d002e3c:	5ae0fc02 	blezl	s7,9d001e48 <_vfprintf_cdfFnopuxX+0x48>
9d002e40:	82240000 	lb	a0,0(s1)
9d002e44:	24040020 	li	a0,32
9d002e48:	0f401e33 	jal	9d0078cc <.LFE0>
9d002e4c:	02402821 	move	a1,s2
9d002e50:	00021027 	nor	v0,zero,v0
9d002e54:	0002102b 	sltu	v0,zero,v0
9d002e58:	26f7ffff 	addiu	s7,s7,-1
9d002e5c:	16e0fff9 	bnez	s7,9d002e44 <_vfprintf_cdfFnopuxX+0x1044>
9d002e60:	02028021 	addu	s0,s0,v0
9d002e64:	0b400792 	j	9d001e48 <_vfprintf_cdfFnopuxX+0x48>
9d002e68:	82240000 	lb	a0,0(s1)
9d002e6c:	24040020 	li	a0,32
9d002e70:	0f401e33 	jal	9d0078cc <.LFE0>
9d002e74:	02402821 	move	a1,s2
9d002e78:	00021027 	nor	v0,zero,v0
9d002e7c:	0002102b 	sltu	v0,zero,v0
9d002e80:	26f7ffff 	addiu	s7,s7,-1
9d002e84:	12e0ffb6 	beqz	s7,9d002d60 <_vfprintf_cdfFnopuxX+0xf60>
9d002e88:	02028021 	addu	s0,s0,v0
9d002e8c:	24040020 	li	a0,32
9d002e90:	0f401e33 	jal	9d0078cc <.LFE0>
9d002e94:	02402821 	move	a1,s2
9d002e98:	00021027 	nor	v0,zero,v0
9d002e9c:	0002102b 	sltu	v0,zero,v0
9d002ea0:	26f7ffff 	addiu	s7,s7,-1
9d002ea4:	16e0fff1 	bnez	s7,9d002e6c <_vfprintf_cdfFnopuxX+0x106c>
9d002ea8:	02028021 	addu	s0,s0,v0
9d002eac:	0b400b59 	j	9d002d64 <_vfprintf_cdfFnopuxX+0xf64>
9d002eb0:	32c20002 	andi	v0,s6,0x2
9d002eb4:	5680ffd2 	bnezl	s4,9d002e00 <_vfprintf_cdfFnopuxX+0x1000>
9d002eb8:	83a40016 	lb	a0,22(sp)
9d002ebc:	8fa50018 	lw	a1,24(sp)
9d002ec0:	8ca60000 	lw	a2,0(a1)
9d002ec4:	8ca70004 	lw	a3,4(a1)
9d002ec8:	02a02021 	move	a0,s5
9d002ecc:	0f4014ea 	jal	9d0053a8 <__udivdi3>
9d002ed0:	03c02821 	move	a1,s8
9d002ed4:	00402021 	move	a0,v0
9d002ed8:	00602821 	move	a1,v1
9d002edc:	2406000a 	li	a2,10
9d002ee0:	0f4012bb 	jal	9d004aec <__umoddi3>
9d002ee4:	00003821 	move	a3,zero
9d002ee8:	24420030 	addiu	v0,v0,48
9d002eec:	7c022420 	seb	a0,v0
9d002ef0:	0b400b80 	j	9d002e00 <_vfprintf_cdfFnopuxX+0x1000>
9d002ef4:	a3a40016 	sb	a0,22(sp)
9d002ef8:	8fa6001c 	lw	a2,28(sp)
9d002efc:	00661804 	sllv	v1,a2,v1
9d002f00:	02751006 	srlv	v0,s5,s3
9d002f04:	32660020 	andi	a2,s3,0x20
9d002f08:	00621025 	or	v0,v1,v0
9d002f0c:	027e2806 	srlv	a1,s8,s3
9d002f10:	3c079d01 	lui	a3,0x9d01
9d002f14:	24e38348 	addiu	v1,a3,-31928
9d002f18:	3c079d01 	lui	a3,0x9d01
9d002f1c:	24e4835c 	addiu	a0,a3,-31908
9d002f20:	00a6100b 	movn	v0,a1,a2
9d002f24:	8fa50020 	lw	a1,32(sp)
9d002f28:	0085180a 	movz	v1,a0,a1
9d002f2c:	3042000f 	andi	v0,v0,0xf
9d002f30:	00621821 	addu	v1,v1,v0
9d002f34:	80640000 	lb	a0,0(v1)
9d002f38:	0b400b80 	j	9d002e00 <_vfprintf_cdfFnopuxX+0x1000>
9d002f3c:	a3a40016 	sb	a0,22(sp)
9d002f40:	00161027 	nor	v0,zero,s6
9d002f44:	8fa6001c 	lw	a2,28(sp)
9d002f48:	00461004 	sllv	v0,a2,v0
9d002f4c:	02d52006 	srlv	a0,s5,s6
9d002f50:	32c30020 	andi	v1,s6,0x20
9d002f54:	00442025 	or	a0,v0,a0
9d002f58:	02de1006 	srlv	v0,s8,s6
9d002f5c:	0043200b 	movn	a0,v0,v1
9d002f60:	30840007 	andi	a0,a0,0x7
9d002f64:	24840030 	addiu	a0,a0,48
9d002f68:	0b400b80 	j	9d002e00 <_vfprintf_cdfFnopuxX+0x1000>
9d002f6c:	a3a40016 	sb	a0,22(sp)
9d002f70:	02a4282b 	sltu	a1,s5,a0
9d002f74:	10a00044 	beqz	a1,9d003088 <_vfprintf_cdfFnopuxX+0x1288>
9d002f78:	00043f42 	srl	a3,a0,0x1d
9d002f7c:	a3a60016 	sb	a2,22(sp)
9d002f80:	0b400b0d 	j	9d002c34 <_vfprintf_cdfFnopuxX+0xe34>
9d002f84:	00c01021 	move	v0,a2
9d002f88:	8fa50068 	lw	a1,104(sp)
9d002f8c:	8cb30000 	lw	s3,0(a1)
9d002f90:	82220002 	lb	v0,2(s1)
9d002f94:	24a50004 	addiu	a1,a1,4
9d002f98:	afa50068 	sw	a1,104(sp)
9d002f9c:	0b4007ec 	j	9d001fb0 <_vfprintf_cdfFnopuxX+0x1b0>
9d002fa0:	26310002 	addiu	s1,s1,2
9d002fa4:	52c0fe14 	beqzl	s6,9d0027f8 <_vfprintf_cdfFnopuxX+0x9f8>
9d002fa8:	3c049d01 	lui	a0,0x9d01
9d002fac:	0b400b2f 	j	9d002cbc <_vfprintf_cdfFnopuxX+0xebc>
9d002fb0:	24040020 	li	a0,32
9d002fb4:	13c00091 	beqz	s8,9d0031fc <_vfprintf_cdfFnopuxX+0x13fc>
9d002fb8:	a3a20016 	sb	v0,22(sp)
9d002fbc:	24030003 	li	v1,3
9d002fc0:	24060002 	li	a2,2
9d002fc4:	24040100 	li	a0,256
9d002fc8:	00001021 	move	v0,zero
9d002fcc:	0b400bf6 	j	9d002fd8 <_vfprintf_cdfFnopuxX+0x11d8>
9d002fd0:	240a0011 	li	t2,17
9d002fd4:	00a03021 	move	a2,a1
9d002fd8:	03c2282b 	sltu	a1,s8,v0
9d002fdc:	54a0ffe8 	bnezl	a1,9d002f80 <_vfprintf_cdfFnopuxX+0x1180>
9d002fe0:	a3a60016 	sb	a2,22(sp)
9d002fe4:	105e006b 	beq	v0,s8,9d003194 <_vfprintf_cdfFnopuxX+0x1394>
9d002fe8:	02a4282b 	sltu	a1,s5,a0
9d002fec:	24690001 	addiu	t1,v1,1
9d002ff0:	00043f02 	srl	a3,a0,0x1c
9d002ff4:	00023100 	sll	a2,v0,0x4
9d002ff8:	7c032c20 	seb	a1,v1
9d002ffc:	312300ff 	andi	v1,t1,0xff
9d003000:	00e61025 	or	v0,a3,a2
9d003004:	146afff3 	bne	v1,t2,9d002fd4 <_vfprintf_cdfFnopuxX+0x11d4>
9d003008:	00042100 	sll	a0,a0,0x4
9d00300c:	a3a50016 	sb	a1,22(sp)
9d003010:	0b400b0d 	j	9d002c34 <_vfprintf_cdfFnopuxX+0xe34>
9d003014:	00a01021 	move	v0,a1
9d003018:	1040fde9 	beqz	v0,9d0027c0 <_vfprintf_cdfFnopuxX+0x9c0>
9d00301c:	24040020 	li	a0,32
9d003020:	0b4009eb 	j	9d0027ac <_vfprintf_cdfFnopuxX+0x9ac>
9d003024:	00000000 	nop
9d003028:	1040ff5b 	beqz	v0,9d002d98 <_vfprintf_cdfFnopuxX+0xf98>
9d00302c:	2662ffff 	addiu	v0,s3,-1
9d003030:	0b400b60 	j	9d002d80 <_vfprintf_cdfFnopuxX+0xf80>
9d003034:	24040020 	li	a0,32
9d003038:	1040ff35 	beqz	v0,9d002d10 <_vfprintf_cdfFnopuxX+0xf10>
9d00303c:	24040020 	li	a0,32
9d003040:	0b400b3f 	j	9d002cfc <_vfprintf_cdfFnopuxX+0xefc>
9d003044:	00000000 	nop
9d003048:	24020001 	li	v0,1
9d00304c:	13c00066 	beqz	s8,9d0031e8 <_vfprintf_cdfFnopuxX+0x13e8>
9d003050:	a3a20016 	sb	v0,22(sp)
9d003054:	24030003 	li	v1,3
9d003058:	24060002 	li	a2,2
9d00305c:	24040040 	li	a0,64
9d003060:	00001021 	move	v0,zero
9d003064:	0b400c1c 	j	9d003070 <_vfprintf_cdfFnopuxX+0x1270>
9d003068:	240a0016 	li	t2,22
9d00306c:	00a03021 	move	a2,a1
9d003070:	03c2282b 	sltu	a1,s8,v0
9d003074:	54a0ffc2 	bnezl	a1,9d002f80 <_vfprintf_cdfFnopuxX+0x1180>
9d003078:	a3a60016 	sb	a2,22(sp)
9d00307c:	105effbc 	beq	v0,s8,9d002f70 <_vfprintf_cdfFnopuxX+0x1170>
9d003080:	24690001 	addiu	t1,v1,1
9d003084:	00043f42 	srl	a3,a0,0x1d
9d003088:	000230c0 	sll	a2,v0,0x3
9d00308c:	7c032c20 	seb	a1,v1
9d003090:	312300ff 	andi	v1,t1,0xff
9d003094:	00e61025 	or	v0,a3,a2
9d003098:	146afff4 	bne	v1,t2,9d00306c <_vfprintf_cdfFnopuxX+0x126c>
9d00309c:	000420c0 	sll	a0,a0,0x3
9d0030a0:	a3a50016 	sb	a1,22(sp)
9d0030a4:	0b400b0d 	j	9d002c34 <_vfprintf_cdfFnopuxX+0xe34>
9d0030a8:	00a01021 	move	v0,a1
9d0030ac:	8fa50068 	lw	a1,104(sp)
9d0030b0:	24a30007 	addiu	v1,a1,7
9d0030b4:	2402fff8 	li	v0,-8
9d0030b8:	00621024 	and	v0,v1,v0
9d0030bc:	24460008 	addiu	a2,v0,8
9d0030c0:	afa60068 	sw	a2,104(sp)
9d0030c4:	8c550000 	lw	s5,0(v0)
9d0030c8:	0b4008da 	j	9d002368 <_vfprintf_cdfFnopuxX+0x568>
9d0030cc:	8c5e0004 	lw	s8,4(v0)
9d0030d0:	24e30007 	addiu	v1,a3,7
9d0030d4:	2402fff8 	li	v0,-8
9d0030d8:	00621824 	and	v1,v1,v0
9d0030dc:	8c640004 	lw	a0,4(v1)
9d0030e0:	8c620000 	lw	v0,0(v1)
9d0030e4:	24630008 	addiu	v1,v1,8
9d0030e8:	afa30068 	sw	v1,104(sp)
9d0030ec:	00801821 	move	v1,a0
9d0030f0:	0040a821 	move	s5,v0
9d0030f4:	0b4008d3 	j	9d00234c <_vfprintf_cdfFnopuxX+0x54c>
9d0030f8:	0080f021 	move	s8,a0
9d0030fc:	3c089d01 	lui	t0,0x9d01
9d003100:	25158340 	addiu	s5,t0,-31936
9d003104:	0b40091d 	j	9d002474 <_vfprintf_cdfFnopuxX+0x674>
9d003108:	02a02021 	move	a0,s5
9d00310c:	24020001 	li	v0,1
9d003110:	a3a20016 	sb	v0,22(sp)
9d003114:	0b4009d9 	j	9d002764 <_vfprintf_cdfFnopuxX+0x964>
9d003118:	24050001 	li	a1,1
9d00311c:	3c06cccc 	lui	a2,0xcccc
9d003120:	34c6cccd 	ori	a2,a2,0xcccd
9d003124:	02a60019 	multu	s5,a2
9d003128:	00003010 	mfhi	a2
9d00312c:	3c079d01 	lui	a3,0x9d01
9d003130:	24e78c10 	addiu	a3,a3,-29680
9d003134:	3c029d01 	lui	v0,0x9d01
9d003138:	8c458378 	lw	a1,-31880(v0)
9d00313c:	000630c2 	srl	a2,a2,0x3
9d003140:	24c20009 	addiu	v0,a2,9
9d003144:	00021080 	sll	v0,v0,0x2
9d003148:	00471021 	addu	v0,v0,a3
9d00314c:	8c440000 	lw	a0,0(v0)
9d003150:	afa60030 	sw	a2,48(sp)
9d003154:	0f401c48 	jal	9d007120 <.LFE4>
9d003158:	afa7002c 	sw	a3,44(sp)
9d00315c:	8fa60030 	lw	a2,48(sp)
9d003160:	00062040 	sll	a0,a2,0x1
9d003164:	000630c0 	sll	a2,a2,0x3
9d003168:	00862021 	addu	a0,a0,a2
9d00316c:	02a41823 	subu	v1,s5,a0
9d003170:	306300ff 	andi	v1,v1,0xff
9d003174:	00031880 	sll	v1,v1,0x2
9d003178:	8fa7002c 	lw	a3,44(sp)
9d00317c:	00673821 	addu	a3,v1,a3
9d003180:	8ce50000 	lw	a1,0(a3)
9d003184:	0f401c48 	jal	9d007120 <.LFE4>
9d003188:	00402021 	move	a0,v0
9d00318c:	0b4008a5 	j	9d002294 <_vfprintf_cdfFnopuxX+0x494>
9d003190:	00402821 	move	a1,v0
9d003194:	10a0ff96 	beqz	a1,9d002ff0 <_vfprintf_cdfFnopuxX+0x11f0>
9d003198:	24690001 	addiu	t1,v1,1
9d00319c:	a3a60016 	sb	a2,22(sp)
9d0031a0:	0b400b0d 	j	9d002c34 <_vfprintf_cdfFnopuxX+0xe34>
9d0031a4:	00c01021 	move	v0,a2
9d0031a8:	02a4202b 	sltu	a0,s5,a0
9d0031ac:	1080fc8d 	beqz	a0,9d0023e4 <_vfprintf_cdfFnopuxX+0x5e4>
9d0031b0:	24450001 	addiu	a1,v0,1
9d0031b4:	a3a60016 	sb	a2,22(sp)
9d0031b8:	0b400b0d 	j	9d002c34 <_vfprintf_cdfFnopuxX+0xe34>
9d0031bc:	00c01021 	move	v0,a2
9d0031c0:	0b400892 	j	9d002248 <_vfprintf_cdfFnopuxX+0x448>
9d0031c4:	27deffff 	addiu	s8,s8,-1
9d0031c8:	afa50068 	sw	a1,104(sp)
9d0031cc:	0b400926 	j	9d002498 <_vfprintf_cdfFnopuxX+0x698>
9d0031d0:	0000a021 	move	s4,zero
9d0031d4:	2ea2000a 	sltiu	v0,s5,10
9d0031d8:	1040fc75 	beqz	v0,9d0023b0 <_vfprintf_cdfFnopuxX+0x5b0>
9d0031dc:	3c039d01 	lui	v1,0x9d01
9d0031e0:	0b400b0d 	j	9d002c34 <_vfprintf_cdfFnopuxX+0xe34>
9d0031e4:	24020001 	li	v0,1
9d0031e8:	2ea20008 	sltiu	v0,s5,8
9d0031ec:	1040ff9a 	beqz	v0,9d003058 <_vfprintf_cdfFnopuxX+0x1258>
9d0031f0:	24030003 	li	v1,3
9d0031f4:	0b400b0d 	j	9d002c34 <_vfprintf_cdfFnopuxX+0xe34>
9d0031f8:	24020001 	li	v0,1
9d0031fc:	2ea20010 	sltiu	v0,s5,16
9d003200:	1040ff6f 	beqz	v0,9d002fc0 <_vfprintf_cdfFnopuxX+0x11c0>
9d003204:	24030003 	li	v1,3
9d003208:	0b400b0d 	j	9d002c34 <_vfprintf_cdfFnopuxX+0xe34>
9d00320c:	24020001 	li	v0,1
9d003210:	3042ffff 	andi	v0,v0,0xffff
9d003214:	afa20028 	sw	v0,40(sp)
9d003218:	0b400b58 	j	9d002d60 <_vfprintf_cdfFnopuxX+0xf60>
9d00321c:	0000b821 	move	s7,zero

Disassembly of section .text._vfscanf_cdfFnopuxX:

9d003220 <_vfscanf_cdfFnopuxX>:
9d003220:	27bdff78 	addiu	sp,sp,-136
9d003224:	afbf0084 	sw	ra,132(sp)
9d003228:	afbe0080 	sw	s8,128(sp)
9d00322c:	afb7007c 	sw	s7,124(sp)
9d003230:	afb60078 	sw	s6,120(sp)
9d003234:	afb50074 	sw	s5,116(sp)
9d003238:	afb40070 	sw	s4,112(sp)
9d00323c:	afb3006c 	sw	s3,108(sp)
9d003240:	afb20068 	sw	s2,104(sp)
9d003244:	afb10064 	sw	s1,100(sp)
9d003248:	afb00060 	sw	s0,96(sp)
9d00324c:	3c13a000 	lui	s3,0xa000
9d003250:	3c169d00 	lui	s6,0x9d00
9d003254:	26d67f99 	addiu	s6,s6,32665
9d003258:	afa60090 	sw	a2,144(sp)
9d00325c:	ae641a44 	sw	a0,6724(s3)
9d003260:	0000a021 	move	s4,zero
9d003264:	afa00058 	sw	zero,88(sp)
9d003268:	90b00000 	lbu	s0,0(a1)
9d00326c:	1200009a 	beqz	s0,9d0034d8 <_vfscanf_cdfFnopuxX+0x2b8>
9d003270:	24b50001 	addiu	s5,a1,1
9d003274:	02d01021 	addu	v0,s6,s0
9d003278:	80420000 	lb	v0,0(v0)
9d00327c:	30420088 	andi	v0,v0,0x88
9d003280:	144000a2 	bnez	v0,9d00350c <_vfscanf_cdfFnopuxX+0x2ec>
9d003284:	24020025 	li	v0,37
9d003288:	1602008b 	bne	s0,v0,9d0034b8 <_vfscanf_cdfFnopuxX+0x298>
9d00328c:	02a08821 	move	s1,s5
9d003290:	80b20001 	lb	s2,1(a1)
9d003294:	00008021 	move	s0,zero
9d003298:	24030004 	li	v1,4
9d00329c:	afa30054 	sw	v1,84(sp)
9d0032a0:	afa00050 	sw	zero,80(sp)
9d0032a4:	241e0004 	li	s8,4
9d0032a8:	325200ff 	andi	s2,s2,0xff
9d0032ac:	2e420079 	sltiu	v0,s2,121
9d0032b0:	10400163 	beqz	v0,9d003840 <_vfscanf_cdfFnopuxX+0x620>
9d0032b4:	26350001 	addiu	s5,s1,1
9d0032b8:	00121080 	sll	v0,s2,0x2
9d0032bc:	3c049d00 	lui	a0,0x9d00
9d0032c0:	248432d4 	addiu	a0,a0,13012
9d0032c4:	00821021 	addu	v0,a0,v0
9d0032c8:	8c420000 	lw	v0,0(v0)
9d0032cc:	00400008 	jr	v0
9d0032d0:	00000000 	nop
9d0032d4:	9d00351c 	0x9d00351c
9d0032d8:	9d003840 	0x9d003840
9d0032dc:	9d003840 	0x9d003840
9d0032e0:	9d003840 	0x9d003840
9d0032e4:	9d003840 	0x9d003840
9d0032e8:	9d003840 	0x9d003840
9d0032ec:	9d003840 	0x9d003840
9d0032f0:	9d003840 	0x9d003840
9d0032f4:	9d003840 	0x9d003840
9d0032f8:	9d003840 	0x9d003840
9d0032fc:	9d003840 	0x9d003840
9d003300:	9d003840 	0x9d003840
9d003304:	9d003840 	0x9d003840
9d003308:	9d003840 	0x9d003840
9d00330c:	9d003840 	0x9d003840
9d003310:	9d003840 	0x9d003840
9d003314:	9d003840 	0x9d003840
9d003318:	9d003840 	0x9d003840
9d00331c:	9d003840 	0x9d003840
9d003320:	9d003840 	0x9d003840
9d003324:	9d003840 	0x9d003840
9d003328:	9d003840 	0x9d003840
9d00332c:	9d003840 	0x9d003840
9d003330:	9d003840 	0x9d003840
9d003334:	9d003840 	0x9d003840
9d003338:	9d003840 	0x9d003840
9d00333c:	9d003840 	0x9d003840
9d003340:	9d003840 	0x9d003840
9d003344:	9d003840 	0x9d003840
9d003348:	9d003840 	0x9d003840
9d00334c:	9d003840 	0x9d003840
9d003350:	9d003840 	0x9d003840
9d003354:	9d003840 	0x9d003840
9d003358:	9d003840 	0x9d003840
9d00335c:	9d003840 	0x9d003840
9d003360:	9d003840 	0x9d003840
9d003364:	9d003840 	0x9d003840
9d003368:	9d003840 	0x9d003840
9d00336c:	9d003840 	0x9d003840
9d003370:	9d003840 	0x9d003840
9d003374:	9d003840 	0x9d003840
9d003378:	9d003840 	0x9d003840
9d00337c:	9d003938 	0x9d003938
9d003380:	9d003840 	0x9d003840
9d003384:	9d003840 	0x9d003840
9d003388:	9d003840 	0x9d003840
9d00338c:	9d003840 	0x9d003840
9d003390:	9d003840 	0x9d003840
9d003394:	9d003840 	0x9d003840
9d003398:	9d003840 	0x9d003840
9d00339c:	9d003840 	0x9d003840
9d0033a0:	9d003840 	0x9d003840
9d0033a4:	9d003840 	0x9d003840
9d0033a8:	9d003840 	0x9d003840
9d0033ac:	9d003840 	0x9d003840
9d0033b0:	9d003840 	0x9d003840
9d0033b4:	9d003840 	0x9d003840
9d0033b8:	9d003840 	0x9d003840
9d0033bc:	9d003840 	0x9d003840
9d0033c0:	9d003840 	0x9d003840
9d0033c4:	9d003840 	0x9d003840
9d0033c8:	9d003840 	0x9d003840
9d0033cc:	9d003840 	0x9d003840
9d0033d0:	9d003840 	0x9d003840
9d0033d4:	9d003840 	0x9d003840
9d0033d8:	9d003840 	0x9d003840
9d0033dc:	9d003840 	0x9d003840
9d0033e0:	9d003840 	0x9d003840
9d0033e4:	9d003840 	0x9d003840
9d0033e8:	9d0038a4 	0x9d0038a4
9d0033ec:	9d003840 	0x9d003840
9d0033f0:	9d0038a4 	0x9d0038a4
9d0033f4:	9d003840 	0x9d003840
9d0033f8:	9d003840 	0x9d003840
9d0033fc:	9d003840 	0x9d003840
9d003400:	9d003840 	0x9d003840
9d003404:	9d003954 	0x9d003954
9d003408:	9d003840 	0x9d003840
9d00340c:	9d003840 	0x9d003840
9d003410:	9d003840 	0x9d003840
9d003414:	9d003840 	0x9d003840
9d003418:	9d003840 	0x9d003840
9d00341c:	9d003840 	0x9d003840
9d003420:	9d003840 	0x9d003840
9d003424:	9d003840 	0x9d003840
9d003428:	9d003840 	0x9d003840
9d00342c:	9d003840 	0x9d003840
9d003430:	9d003840 	0x9d003840
9d003434:	9d0037c8 	0x9d0037c8
9d003438:	9d003840 	0x9d003840
9d00343c:	9d003840 	0x9d003840
9d003440:	9d003840 	0x9d003840
9d003444:	9d003840 	0x9d003840
9d003448:	9d003840 	0x9d003840
9d00344c:	9d003840 	0x9d003840
9d003450:	9d003840 	0x9d003840
9d003454:	9d003840 	0x9d003840
9d003458:	9d003840 	0x9d003840
9d00345c:	9d003840 	0x9d003840
9d003460:	9d0037dc 	0x9d0037dc
9d003464:	9d0037d4 	0x9d0037d4
9d003468:	9d0038a4 	0x9d0038a4
9d00346c:	9d0038a4 	0x9d0038a4
9d003470:	9d0038a4 	0x9d0038a4
9d003474:	9d003820 	0x9d003820
9d003478:	9d0037d4 	0x9d0037d4
9d00347c:	9d003840 	0x9d003840
9d003480:	9d003840 	0x9d003840
9d003484:	9d003954 	0x9d003954
9d003488:	9d003840 	0x9d003840
9d00348c:	9d003840 	0x9d003840
9d003490:	9d003568 	0x9d003568
9d003494:	9d003840 	0x9d003840
9d003498:	9d003840 	0x9d003840
9d00349c:	9d003840 	0x9d003840
9d0034a0:	9d003714 	0x9d003714
9d0034a4:	9d003840 	0x9d003840
9d0034a8:	9d0037d4 	0x9d0037d4
9d0034ac:	9d003840 	0x9d003840
9d0034b0:	9d003840 	0x9d003840
9d0034b4:	9d003688 	0x9d003688
9d0034b8:	0f401fa5 	jal	9d007e94 <fgetc>
9d0034bc:	8e641a44 	lw	a0,6724(s3)
9d0034c0:	16020152 	bne	s0,v0,9d003a0c <_vfscanf_cdfFnopuxX+0x7ec>
9d0034c4:	2403ffff 	li	v1,-1
9d0034c8:	02a02821 	move	a1,s5
9d0034cc:	90b00000 	lbu	s0,0(a1)
9d0034d0:	1600ff68 	bnez	s0,9d003274 <_vfscanf_cdfFnopuxX+0x54>
9d0034d4:	24b50001 	addiu	s5,a1,1
9d0034d8:	8fa20058 	lw	v0,88(sp)
9d0034dc:	8fbf0084 	lw	ra,132(sp)
9d0034e0:	8fbe0080 	lw	s8,128(sp)
9d0034e4:	8fb7007c 	lw	s7,124(sp)
9d0034e8:	8fb60078 	lw	s6,120(sp)
9d0034ec:	8fb50074 	lw	s5,116(sp)
9d0034f0:	8fb40070 	lw	s4,112(sp)
9d0034f4:	8fb3006c 	lw	s3,108(sp)
9d0034f8:	8fb20068 	lw	s2,104(sp)
9d0034fc:	8fb10064 	lw	s1,100(sp)
9d003500:	8fb00060 	lw	s0,96(sp)
9d003504:	03e00008 	jr	ra
9d003508:	27bd0088 	addiu	sp,sp,136
9d00350c:	0f402329 	jal	9d008ca4 <wspace>
9d003510:	00000000 	nop
9d003514:	0b400d33 	j	9d0034cc <_vfscanf_cdfFnopuxX+0x2ac>
9d003518:	02a02821 	move	a1,s5
9d00351c:	8fa40058 	lw	a0,88(sp)
9d003520:	14800140 	bnez	a0,9d003a24 <_vfscanf_cdfFnopuxX+0x804>
9d003524:	00801021 	move	v0,a0
9d003528:	8e621a44 	lw	v0,6724(s3)
9d00352c:	9442000c 	lhu	v0,12(v0)
9d003530:	7c420100 	ext	v0,v0,0x4,0x1
9d003534:	00021023 	negu	v0,v0
9d003538:	8fbf0084 	lw	ra,132(sp)
9d00353c:	8fbe0080 	lw	s8,128(sp)
9d003540:	8fb7007c 	lw	s7,124(sp)
9d003544:	8fb60078 	lw	s6,120(sp)
9d003548:	8fb50074 	lw	s5,116(sp)
9d00354c:	8fb40070 	lw	s4,112(sp)
9d003550:	8fb3006c 	lw	s3,108(sp)
9d003554:	8fb20068 	lw	s2,104(sp)
9d003558:	8fb10064 	lw	s1,100(sp)
9d00355c:	8fb00060 	lw	s0,96(sp)
9d003560:	03e00008 	jr	ra
9d003564:	27bd0088 	addiu	sp,sp,136
9d003568:	24120008 	li	s2,8
9d00356c:	0f402329 	jal	9d008ca4 <wspace>
9d003570:	00000000 	nop
9d003574:	8e641a44 	lw	a0,6724(s3)
9d003578:	0f401fa5 	jal	9d007e94 <fgetc>
9d00357c:	afa0005c 	sw	zero,92(sp)
9d003580:	00408821 	move	s1,v0
9d003584:	2402002d 	li	v0,45
9d003588:	1222004a 	beq	s1,v0,9d0036b4 <_vfscanf_cdfFnopuxX+0x494>
9d00358c:	3c03a000 	lui	v1,0xa000
9d003590:	02202021 	move	a0,s1
9d003594:	02402821 	move	a1,s2
9d003598:	0f402177 	jal	9d0085dc <range>
9d00359c:	02803021 	move	a2,s4
9d0035a0:	240300ff 	li	v1,255
9d0035a4:	10430050 	beq	v0,v1,9d0036e8 <_vfscanf_cdfFnopuxX+0x4c8>
9d0035a8:	8e651a44 	lw	a1,6724(s3)
9d0035ac:	24020030 	li	v0,48
9d0035b0:	1222013d 	beq	s1,v0,9d003aa8 <_vfscanf_cdfFnopuxX+0x888>
9d0035b4:	00000000 	nop
9d0035b8:	0b400d7a 	j	9d0035e8 <_vfscanf_cdfFnopuxX+0x3c8>
9d0035bc:	0000f021 	move	s8,zero
9d0035c0:	0f401fa5 	jal	9d007e94 <fgetc>
9d0035c4:	8e641a44 	lw	a0,6724(s3)
9d0035c8:	00408821 	move	s1,v0
9d0035cc:	00402021 	move	a0,v0
9d0035d0:	02402821 	move	a1,s2
9d0035d4:	0f402177 	jal	9d0085dc <range>
9d0035d8:	02803021 	move	a2,s4
9d0035dc:	240300ff 	li	v1,255
9d0035e0:	1043000b 	beq	v0,v1,9d003610 <_vfscanf_cdfFnopuxX+0x3f0>
9d0035e4:	02202021 	move	a0,s1
9d0035e8:	73d2f002 	mul	s8,s8,s2
9d0035ec:	02202021 	move	a0,s1
9d0035f0:	02402821 	move	a1,s2
9d0035f4:	0f402177 	jal	9d0085dc <range>
9d0035f8:	02803021 	move	a2,s4
9d0035fc:	2610ffff 	addiu	s0,s0,-1
9d003600:	7c108420 	seb	s0,s0
9d003604:	1600ffee 	bnez	s0,9d0035c0 <_vfscanf_cdfFnopuxX+0x3a0>
9d003608:	03c2f021 	addu	s8,s8,v0
9d00360c:	02202021 	move	a0,s1
9d003610:	02402821 	move	a1,s2
9d003614:	0f402177 	jal	9d0085dc <range>
9d003618:	02803021 	move	a2,s4
9d00361c:	240400ff 	li	a0,255
9d003620:	10440155 	beq	v0,a0,9d003b78 <_vfscanf_cdfFnopuxX+0x958>
9d003624:	8e651a44 	lw	a1,6724(s3)
9d003628:	001e1023 	negu	v0,s8
9d00362c:	8fa3005c 	lw	v1,92(sp)
9d003630:	0043f00b 	movn	s8,v0,v1
9d003634:	8fa30050 	lw	v1,80(sp)
9d003638:	1460ffa4 	bnez	v1,9d0034cc <_vfscanf_cdfFnopuxX+0x2ac>
9d00363c:	02a02821 	move	a1,s5
9d003640:	8fa40058 	lw	a0,88(sp)
9d003644:	24820001 	addiu	v0,a0,1
9d003648:	304200ff 	andi	v0,v0,0xff
9d00364c:	afa20058 	sw	v0,88(sp)
9d003650:	24020004 	li	v0,4
9d003654:	8fa30054 	lw	v1,84(sp)
9d003658:	10620004 	beq	v1,v0,9d00366c <_vfscanf_cdfFnopuxX+0x44c>
9d00365c:	24020002 	li	v0,2
9d003660:	8fa30054 	lw	v1,84(sp)
9d003664:	10620148 	beq	v1,v0,9d003b88 <_vfscanf_cdfFnopuxX+0x968>
9d003668:	8fa30090 	lw	v1,144(sp)
9d00366c:	8fa30090 	lw	v1,144(sp)
9d003670:	8c620000 	lw	v0,0(v1)
9d003674:	24630004 	addiu	v1,v1,4
9d003678:	afa30090 	sw	v1,144(sp)
9d00367c:	ac5e0000 	sw	s8,0(v0)
9d003680:	0b400d33 	j	9d0034cc <_vfscanf_cdfFnopuxX+0x2ac>
9d003684:	02a02821 	move	a1,s5
9d003688:	24120010 	li	s2,16
9d00368c:	0f402329 	jal	9d008ca4 <wspace>
9d003690:	0000a021 	move	s4,zero
9d003694:	8e641a44 	lw	a0,6724(s3)
9d003698:	0f401fa5 	jal	9d007e94 <fgetc>
9d00369c:	afa0005c 	sw	zero,92(sp)
9d0036a0:	00408821 	move	s1,v0
9d0036a4:	2402002d 	li	v0,45
9d0036a8:	1622ffba 	bne	s1,v0,9d003594 <_vfscanf_cdfFnopuxX+0x374>
9d0036ac:	02202021 	move	a0,s1
9d0036b0:	3c03a000 	lui	v1,0xa000
9d0036b4:	8c641a44 	lw	a0,6724(v1)
9d0036b8:	24030001 	li	v1,1
9d0036bc:	0f401fa5 	jal	9d007e94 <fgetc>
9d0036c0:	afa3005c 	sw	v1,92(sp)
9d0036c4:	00408821 	move	s1,v0
9d0036c8:	02202021 	move	a0,s1
9d0036cc:	02402821 	move	a1,s2
9d0036d0:	0f402177 	jal	9d0085dc <range>
9d0036d4:	02803021 	move	a2,s4
9d0036d8:	240300ff 	li	v1,255
9d0036dc:	1443ffb4 	bne	v0,v1,9d0035b0 <_vfscanf_cdfFnopuxX+0x390>
9d0036e0:	24020030 	li	v0,48
9d0036e4:	8e651a44 	lw	a1,6724(s3)
9d0036e8:	0f4022c0 	jal	9d008b00 <ungetc>
9d0036ec:	02202021 	move	a0,s1
9d0036f0:	8fa40058 	lw	a0,88(sp)
9d0036f4:	548000cb 	bnezl	a0,9d003a24 <_vfscanf_cdfFnopuxX+0x804>
9d0036f8:	00801021 	move	v0,a0
9d0036fc:	3c02a000 	lui	v0,0xa000
9d003700:	8c421a44 	lw	v0,6724(v0)
9d003704:	9442000c 	lhu	v0,12(v0)
9d003708:	7c420100 	ext	v0,v0,0x4,0x1
9d00370c:	0b400d4e 	j	9d003538 <_vfscanf_cdfFnopuxX+0x318>
9d003710:	00021023 	negu	v0,v0
9d003714:	0f402329 	jal	9d008ca4 <wspace>
9d003718:	00000000 	nop
9d00371c:	8fa30050 	lw	v1,80(sp)
9d003720:	106000d4 	beqz	v1,9d003a74 <_vfscanf_cdfFnopuxX+0x854>
9d003724:	8fa30090 	lw	v1,144(sp)
9d003728:	0f401fa5 	jal	9d007e94 <fgetc>
9d00372c:	8e641a44 	lw	a0,6724(s3)
9d003730:	2403ffff 	li	v1,-1
9d003734:	504300d8 	beql	v0,v1,9d003a98 <_vfscanf_cdfFnopuxX+0x878>
9d003738:	8fa20058 	lw	v0,88(sp)
9d00373c:	14400012 	bnez	v0,9d003788 <_vfscanf_cdfFnopuxX+0x568>
9d003740:	24430001 	addiu	v1,v0,1
9d003744:	0b400dea 	j	9d0037a8 <_vfscanf_cdfFnopuxX+0x588>
9d003748:	8fa30050 	lw	v1,80(sp)
9d00374c:	1062011d 	beq	v1,v0,9d003bc4 <_vfscanf_cdfFnopuxX+0x9a4>
9d003750:	8fa30050 	lw	v1,80(sp)
9d003754:	14600003 	bnez	v1,9d003764 <_vfscanf_cdfFnopuxX+0x544>
9d003758:	2610ffff 	addiu	s0,s0,-1
9d00375c:	a2e20000 	sb	v0,0(s7)
9d003760:	26f70001 	addiu	s7,s7,1
9d003764:	7c108420 	seb	s0,s0
9d003768:	1200000f 	beqz	s0,9d0037a8 <_vfscanf_cdfFnopuxX+0x588>
9d00376c:	8fa30050 	lw	v1,80(sp)
9d003770:	0f401fa5 	jal	9d007e94 <fgetc>
9d003774:	8e641a44 	lw	a0,6724(s3)
9d003778:	24430001 	addiu	v1,v0,1
9d00377c:	2c640002 	sltiu	a0,v1,2
9d003780:	54800009 	bnezl	a0,9d0037a8 <_vfscanf_cdfFnopuxX+0x588>
9d003784:	8fa30050 	lw	v1,80(sp)
9d003788:	3c049d00 	lui	a0,0x9d00
9d00378c:	24847f98 	addiu	a0,a0,32664
9d003790:	00831821 	addu	v1,a0,v1
9d003794:	80630000 	lb	v1,0(v1)
9d003798:	30630088 	andi	v1,v1,0x88
9d00379c:	5060ffeb 	beqzl	v1,9d00374c <_vfscanf_cdfFnopuxX+0x52c>
9d0037a0:	82230001 	lb	v1,1(s1)
9d0037a4:	8fa30050 	lw	v1,80(sp)
9d0037a8:	1460ff48 	bnez	v1,9d0034cc <_vfscanf_cdfFnopuxX+0x2ac>
9d0037ac:	02a02821 	move	a1,s5
9d0037b0:	8fa40058 	lw	a0,88(sp)
9d0037b4:	24820001 	addiu	v0,a0,1
9d0037b8:	304200ff 	andi	v0,v0,0xff
9d0037bc:	afa20058 	sw	v0,88(sp)
9d0037c0:	0b400d33 	j	9d0034cc <_vfscanf_cdfFnopuxX+0x2ac>
9d0037c4:	a2e00000 	sb	zero,0(s7)
9d0037c8:	24120010 	li	s2,16
9d0037cc:	0b400d5b 	j	9d00356c <_vfscanf_cdfFnopuxX+0x34c>
9d0037d0:	24140001 	li	s4,1
9d0037d4:	0b400d5b 	j	9d00356c <_vfscanf_cdfFnopuxX+0x34c>
9d0037d8:	2412000a 	li	s2,10
9d0037dc:	8fa30050 	lw	v1,80(sp)
9d0037e0:	1060009c 	beqz	v1,9d003a54 <_vfscanf_cdfFnopuxX+0x834>
9d0037e4:	8fa40058 	lw	a0,88(sp)
9d0037e8:	2411ffff 	li	s1,-1
9d0037ec:	0f401fa5 	jal	9d007e94 <fgetc>
9d0037f0:	8e641a44 	lw	a0,6724(s3)
9d0037f4:	10510087 	beq	v0,s1,9d003a14 <_vfscanf_cdfFnopuxX+0x7f4>
9d0037f8:	8fa30050 	lw	v1,80(sp)
9d0037fc:	14600003 	bnez	v1,9d00380c <_vfscanf_cdfFnopuxX+0x5ec>
9d003800:	2610ffff 	addiu	s0,s0,-1
9d003804:	a2e20000 	sb	v0,0(s7)
9d003808:	26f70001 	addiu	s7,s7,1
9d00380c:	7c108420 	seb	s0,s0
9d003810:	1e00fff6 	bgtz	s0,9d0037ec <_vfscanf_cdfFnopuxX+0x5cc>
9d003814:	02a02821 	move	a1,s5
9d003818:	0b400d34 	j	9d0034d0 <_vfscanf_cdfFnopuxX+0x2b0>
9d00381c:	90b00000 	lbu	s0,0(a1)
9d003820:	82320001 	lb	s2,1(s1)
9d003824:	24030002 	li	v1,2
9d003828:	afa30054 	sw	v1,84(sp)
9d00382c:	02a08821 	move	s1,s5
9d003830:	325200ff 	andi	s2,s2,0xff
9d003834:	2e420079 	sltiu	v0,s2,121
9d003838:	1440fe9f 	bnez	v0,9d0032b8 <_vfscanf_cdfFnopuxX+0x98>
9d00383c:	26350001 	addiu	s5,s1,1
9d003840:	02d21021 	addu	v0,s6,s2
9d003844:	90420000 	lbu	v0,0(v0)
9d003848:	30420004 	andi	v0,v0,0x4
9d00384c:	104000e8 	beqz	v0,9d003bf0 <_vfscanf_cdfFnopuxX+0x9d0>
9d003850:	00000000 	nop
9d003854:	0f4021a1 	jal	9d008684 <.LFE0>
9d003858:	02202021 	move	a0,s1
9d00385c:	82320001 	lb	s2,1(s1)
9d003860:	7c028420 	seb	s0,v0
9d003864:	3c049d00 	lui	a0,0x9d00
9d003868:	24847f99 	addiu	a0,a0,32665
9d00386c:	02441021 	addu	v0,s2,a0
9d003870:	90420000 	lbu	v0,0(v0)
9d003874:	30420004 	andi	v0,v0,0x4
9d003878:	1040fe8b 	beqz	v0,9d0032a8 <_vfscanf_cdfFnopuxX+0x88>
9d00387c:	02a08821 	move	s1,s5
9d003880:	26310001 	addiu	s1,s1,1
9d003884:	82320000 	lb	s2,0(s1)
9d003888:	02d21021 	addu	v0,s6,s2
9d00388c:	90420000 	lbu	v0,0(v0)
9d003890:	30420004 	andi	v0,v0,0x4
9d003894:	5440fffb 	bnezl	v0,9d003884 <_vfscanf_cdfFnopuxX+0x664>
9d003898:	26310001 	addiu	s1,s1,1
9d00389c:	0b400cab 	j	9d0032ac <_vfscanf_cdfFnopuxX+0x8c>
9d0038a0:	325200ff 	andi	s2,s2,0xff
9d0038a4:	0f402329 	jal	9d008ca4 <wspace>
9d0038a8:	00000000 	nop
9d0038ac:	8e641a44 	lw	a0,6724(s3)
9d0038b0:	2402003b 	li	v0,59
9d0038b4:	0f401fa5 	jal	9d007e94 <fgetc>
9d0038b8:	0050800a 	movz	s0,v0,s0
9d0038bc:	2403002d 	li	v1,45
9d0038c0:	104300c2 	beq	v0,v1,9d003bcc <_vfscanf_cdfFnopuxX+0x9ac>
9d0038c4:	3c03a000 	lui	v1,0xa000
9d0038c8:	27a30010 	addiu	v1,sp,16
9d0038cc:	afa3005c 	sw	v1,92(sp)
9d0038d0:	247e0001 	addiu	s8,v1,1
9d0038d4:	00009021 	move	s2,zero
9d0038d8:	2411002e 	li	s1,46
9d0038dc:	12000006 	beqz	s0,9d0038f8 <_vfscanf_cdfFnopuxX+0x6d8>
9d0038e0:	27d7ffff 	addiu	s7,s8,-1
9d0038e4:	02c22021 	addu	a0,s6,v0
9d0038e8:	90840000 	lbu	a0,0(a0)
9d0038ec:	30840004 	andi	a0,a0,0x4
9d0038f0:	14800009 	bnez	a0,9d003918 <_vfscanf_cdfFnopuxX+0x6f8>
9d0038f4:	00000000 	nop
9d0038f8:	1640001d 	bnez	s2,9d003970 <_vfscanf_cdfFnopuxX+0x750>
9d0038fc:	00000000 	nop
9d003900:	1451001b 	bne	v0,s1,9d003970 <_vfscanf_cdfFnopuxX+0x750>
9d003904:	00000000 	nop
9d003908:	a3d1ffff 	sb	s1,-1(s8)
9d00390c:	26520001 	addiu	s2,s2,1
9d003910:	0b400e48 	j	9d003920 <_vfscanf_cdfFnopuxX+0x700>
9d003914:	325200ff 	andi	s2,s2,0xff
9d003918:	1051fffc 	beq	v0,s1,9d00390c <_vfscanf_cdfFnopuxX+0x6ec>
9d00391c:	a3c2ffff 	sb	v0,-1(s8)
9d003920:	8e641a44 	lw	a0,6724(s3)
9d003924:	0f401fa5 	jal	9d007e94 <fgetc>
9d003928:	27de0001 	addiu	s8,s8,1
9d00392c:	2610ffff 	addiu	s0,s0,-1
9d003930:	0b400e37 	j	9d0038dc <_vfscanf_cdfFnopuxX+0x6bc>
9d003934:	7c108420 	seb	s0,s0
9d003938:	8fa30050 	lw	v1,80(sp)
9d00393c:	24620001 	addiu	v0,v1,1
9d003940:	82320001 	lb	s2,1(s1)
9d003944:	304200ff 	andi	v0,v0,0xff
9d003948:	afa20050 	sw	v0,80(sp)
9d00394c:	0b400caa 	j	9d0032a8 <_vfscanf_cdfFnopuxX+0x88>
9d003950:	02a08821 	move	s1,s5
9d003954:	8fa30054 	lw	v1,84(sp)
9d003958:	107effb4 	beq	v1,s8,9d00382c <_vfscanf_cdfFnopuxX+0x60c>
9d00395c:	82320001 	lb	s2,1(s1)
9d003960:	24030008 	li	v1,8
9d003964:	afa30054 	sw	v1,84(sp)
9d003968:	0b400caa 	j	9d0032a8 <_vfscanf_cdfFnopuxX+0x88>
9d00396c:	02a08821 	move	s1,s5
9d003970:	12000006 	beqz	s0,9d00398c <_vfscanf_cdfFnopuxX+0x76c>
9d003974:	02e08821 	move	s1,s7
9d003978:	2404ffdf 	li	a0,-33
9d00397c:	00442024 	and	a0,v0,a0
9d003980:	24030045 	li	v1,69
9d003984:	10830055 	beq	a0,v1,9d003adc <_vfscanf_cdfFnopuxX+0x8bc>
9d003988:	8e641a44 	lw	a0,6724(s3)
9d00398c:	2403ffff 	li	v1,-1
9d003990:	10430004 	beq	v0,v1,9d0039a4 <_vfscanf_cdfFnopuxX+0x784>
9d003994:	a2e00000 	sb	zero,0(s7)
9d003998:	8e651a44 	lw	a1,6724(s3)
9d00399c:	0f4022c0 	jal	9d008b00 <ungetc>
9d0039a0:	00402021 	move	a0,v0
9d0039a4:	8fa3005c 	lw	v1,92(sp)
9d0039a8:	1077fedc 	beq	v1,s7,9d00351c <_vfscanf_cdfFnopuxX+0x2fc>
9d0039ac:	8fa30050 	lw	v1,80(sp)
9d0039b0:	1460fec6 	bnez	v1,9d0034cc <_vfscanf_cdfFnopuxX+0x2ac>
9d0039b4:	02a02821 	move	a1,s5
9d0039b8:	8fa40058 	lw	a0,88(sp)
9d0039bc:	24830001 	addiu	v1,a0,1
9d0039c0:	8fa40054 	lw	a0,84(sp)
9d0039c4:	2c820005 	sltiu	v0,a0,5
9d0039c8:	306300ff 	andi	v1,v1,0xff
9d0039cc:	afa30058 	sw	v1,88(sp)
9d0039d0:	14400073 	bnez	v0,9d003ba0 <_vfscanf_cdfFnopuxX+0x980>
9d0039d4:	8fa30090 	lw	v1,144(sp)
9d0039d8:	8c700000 	lw	s0,0(v1)
9d0039dc:	00002821 	move	a1,zero
9d0039e0:	0f40240a 	jal	9d009028 <strtod>
9d0039e4:	8fa4005c 	lw	a0,92(sp)
9d0039e8:	00402021 	move	a0,v0
9d0039ec:	8fa30090 	lw	v1,144(sp)
9d0039f0:	0f40214c 	jal	9d008530 <.LFE0>
9d0039f4:	24710004 	addiu	s1,v1,4
9d0039f8:	ae020000 	sw	v0,0(s0)
9d0039fc:	ae030004 	sw	v1,4(s0)
9d003a00:	afb10090 	sw	s1,144(sp)
9d003a04:	0b400d33 	j	9d0034cc <_vfscanf_cdfFnopuxX+0x2ac>
9d003a08:	02a02821 	move	a1,s5
9d003a0c:	1443007f 	bne	v0,v1,9d003c0c <_vfscanf_cdfFnopuxX+0x9ec>
9d003a10:	3c03a000 	lui	v1,0xa000
9d003a14:	8fa40058 	lw	a0,88(sp)
9d003a18:	1080fec7 	beqz	a0,9d003538 <_vfscanf_cdfFnopuxX+0x318>
9d003a1c:	2402ffff 	li	v0,-1
9d003a20:	00801021 	move	v0,a0
9d003a24:	8fbf0084 	lw	ra,132(sp)
9d003a28:	8fbe0080 	lw	s8,128(sp)
9d003a2c:	8fb7007c 	lw	s7,124(sp)
9d003a30:	8fb60078 	lw	s6,120(sp)
9d003a34:	8fb50074 	lw	s5,116(sp)
9d003a38:	8fb40070 	lw	s4,112(sp)
9d003a3c:	8fb3006c 	lw	s3,108(sp)
9d003a40:	8fb20068 	lw	s2,104(sp)
9d003a44:	8fb10064 	lw	s1,100(sp)
9d003a48:	8fb00060 	lw	s0,96(sp)
9d003a4c:	03e00008 	jr	ra
9d003a50:	27bd0088 	addiu	sp,sp,136
9d003a54:	24820001 	addiu	v0,a0,1
9d003a58:	8fa30090 	lw	v1,144(sp)
9d003a5c:	8c770000 	lw	s7,0(v1)
9d003a60:	304200ff 	andi	v0,v0,0xff
9d003a64:	afa20058 	sw	v0,88(sp)
9d003a68:	24630004 	addiu	v1,v1,4
9d003a6c:	0b400dfa 	j	9d0037e8 <_vfscanf_cdfFnopuxX+0x5c8>
9d003a70:	afa30090 	sw	v1,144(sp)
9d003a74:	8c770000 	lw	s7,0(v1)
9d003a78:	24630004 	addiu	v1,v1,4
9d003a7c:	afa30090 	sw	v1,144(sp)
9d003a80:	0f401fa5 	jal	9d007e94 <fgetc>
9d003a84:	8e641a44 	lw	a0,6724(s3)
9d003a88:	2403ffff 	li	v1,-1
9d003a8c:	1443ff2b 	bne	v0,v1,9d00373c <_vfscanf_cdfFnopuxX+0x51c>
9d003a90:	00000000 	nop
9d003a94:	8fa20058 	lw	v0,88(sp)
9d003a98:	1440fea8 	bnez	v0,9d00353c <_vfscanf_cdfFnopuxX+0x31c>
9d003a9c:	8fbf0084 	lw	ra,132(sp)
9d003aa0:	0b400d4e 	j	9d003538 <_vfscanf_cdfFnopuxX+0x318>
9d003aa4:	2402ffff 	li	v0,-1
9d003aa8:	0f401fa5 	jal	9d007e94 <fgetc>
9d003aac:	8e641a44 	lw	a0,6724(s3)
9d003ab0:	24030078 	li	v1,120
9d003ab4:	1043002a 	beq	v0,v1,9d003b60 <_vfscanf_cdfFnopuxX+0x940>
9d003ab8:	24030058 	li	v1,88
9d003abc:	1443002a 	bne	v0,v1,9d003b68 <_vfscanf_cdfFnopuxX+0x948>
9d003ac0:	8e651a44 	lw	a1,6724(s3)
9d003ac4:	12800028 	beqz	s4,9d003b68 <_vfscanf_cdfFnopuxX+0x948>
9d003ac8:	00000000 	nop
9d003acc:	0f401fa5 	jal	9d007e94 <fgetc>
9d003ad0:	8e641a44 	lw	a0,6724(s3)
9d003ad4:	0b400d6e 	j	9d0035b8 <_vfscanf_cdfFnopuxX+0x398>
9d003ad8:	00408821 	move	s1,v0
9d003adc:	a2e20000 	sb	v0,0(s7)
9d003ae0:	0f401fa5 	jal	9d007e94 <fgetc>
9d003ae4:	321000ff 	andi	s0,s0,0xff
9d003ae8:	2603ffff 	addiu	v1,s0,-1
9d003aec:	7c031c20 	seb	v1,v1
9d003af0:	1060ffa6 	beqz	v1,9d00398c <_vfscanf_cdfFnopuxX+0x76c>
9d003af4:	26f70001 	addiu	s7,s7,1
9d003af8:	2404002d 	li	a0,45
9d003afc:	10440048 	beq	v0,a0,9d003c20 <_vfscanf_cdfFnopuxX+0xa00>
9d003b00:	2404002b 	li	a0,43
9d003b04:	10440047 	beq	v0,a0,9d003c24 <_vfscanf_cdfFnopuxX+0xa04>
9d003b08:	8e641a44 	lw	a0,6724(s3)
9d003b0c:	02c22021 	addu	a0,s6,v0
9d003b10:	90840000 	lbu	a0,0(a0)
9d003b14:	30840004 	andi	a0,a0,0x4
9d003b18:	1080ff9c 	beqz	a0,9d00398c <_vfscanf_cdfFnopuxX+0x76c>
9d003b1c:	2463ffff 	addiu	v1,v1,-1
9d003b20:	307000ff 	andi	s0,v1,0xff
9d003b24:	26100001 	addiu	s0,s0,1
9d003b28:	0b400ed0 	j	9d003b40 <_vfscanf_cdfFnopuxX+0x920>
9d003b2c:	02f08021 	addu	s0,s7,s0
9d003b30:	90630000 	lbu	v1,0(v1)
9d003b34:	30630004 	andi	v1,v1,0x4
9d003b38:	1060ff95 	beqz	v1,9d003990 <_vfscanf_cdfFnopuxX+0x770>
9d003b3c:	2403ffff 	li	v1,-1
9d003b40:	8e641a44 	lw	a0,6724(s3)
9d003b44:	26f70001 	addiu	s7,s7,1
9d003b48:	0f401fa5 	jal	9d007e94 <fgetc>
9d003b4c:	a2e2ffff 	sb	v0,-1(s7)
9d003b50:	56f0fff7 	bnel	s7,s0,9d003b30 <_vfscanf_cdfFnopuxX+0x910>
9d003b54:	02c21821 	addu	v1,s6,v0
9d003b58:	0b400e64 	j	9d003990 <_vfscanf_cdfFnopuxX+0x770>
9d003b5c:	2403ffff 	li	v1,-1
9d003b60:	1280ffda 	beqz	s4,9d003acc <_vfscanf_cdfFnopuxX+0x8ac>
9d003b64:	8e651a44 	lw	a1,6724(s3)
9d003b68:	0f4022c0 	jal	9d008b00 <ungetc>
9d003b6c:	00402021 	move	a0,v0
9d003b70:	0b400d7a 	j	9d0035e8 <_vfscanf_cdfFnopuxX+0x3c8>
9d003b74:	0000f021 	move	s8,zero
9d003b78:	0f4022c0 	jal	9d008b00 <ungetc>
9d003b7c:	02202021 	move	a0,s1
9d003b80:	0b400d8b 	j	9d00362c <_vfscanf_cdfFnopuxX+0x40c>
9d003b84:	001e1023 	negu	v0,s8
9d003b88:	8c620000 	lw	v0,0(v1)
9d003b8c:	24630004 	addiu	v1,v1,4
9d003b90:	afa30090 	sw	v1,144(sp)
9d003b94:	a45e0000 	sh	s8,0(v0)
9d003b98:	0b400d33 	j	9d0034cc <_vfscanf_cdfFnopuxX+0x2ac>
9d003b9c:	02a02821 	move	a1,s5
9d003ba0:	8c710000 	lw	s1,0(v1)
9d003ba4:	8fa4005c 	lw	a0,92(sp)
9d003ba8:	00002821 	move	a1,zero
9d003bac:	0f40242d 	jal	9d0090b4 <.LFE1>
9d003bb0:	24700004 	addiu	s0,v1,4
9d003bb4:	ae220000 	sw	v0,0(s1)
9d003bb8:	afb00090 	sw	s0,144(sp)
9d003bbc:	0b400d33 	j	9d0034cc <_vfscanf_cdfFnopuxX+0x2ac>
9d003bc0:	02a02821 	move	a1,s5
9d003bc4:	0b400de9 	j	9d0037a4 <_vfscanf_cdfFnopuxX+0x584>
9d003bc8:	26350002 	addiu	s5,s1,2
9d003bcc:	8c641a44 	lw	a0,6724(v1)
9d003bd0:	a3a20010 	sb	v0,16(sp)
9d003bd4:	27a30010 	addiu	v1,sp,16
9d003bd8:	0f401fa5 	jal	9d007e94 <fgetc>
9d003bdc:	afa3005c 	sw	v1,92(sp)
9d003be0:	2610ffff 	addiu	s0,s0,-1
9d003be4:	7c108420 	seb	s0,s0
9d003be8:	0b400e34 	j	9d0038d0 <_vfscanf_cdfFnopuxX+0x6b0>
9d003bec:	27a30011 	addiu	v1,sp,17
9d003bf0:	0f401fa5 	jal	9d007e94 <fgetc>
9d003bf4:	8e641a44 	lw	a0,6724(s3)
9d003bf8:	1242fe33 	beq	s2,v0,9d0034c8 <_vfscanf_cdfFnopuxX+0x2a8>
9d003bfc:	2403ffff 	li	v1,-1
9d003c00:	5043ffa5 	beql	v0,v1,9d003a98 <_vfscanf_cdfFnopuxX+0x878>
9d003c04:	8fa20058 	lw	v0,88(sp)
9d003c08:	3c03a000 	lui	v1,0xa000
9d003c0c:	8c651a44 	lw	a1,6724(v1)
9d003c10:	0f4022c0 	jal	9d008b00 <ungetc>
9d003c14:	00402021 	move	a0,v0
9d003c18:	0b400d4e 	j	9d003538 <_vfscanf_cdfFnopuxX+0x318>
9d003c1c:	8fa20058 	lw	v0,88(sp)
9d003c20:	8e641a44 	lw	a0,6724(s3)
9d003c24:	a2220001 	sb	v0,1(s1)
9d003c28:	0f401fa5 	jal	9d007e94 <fgetc>
9d003c2c:	26370002 	addiu	s7,s1,2
9d003c30:	2603fffe 	addiu	v1,s0,-2
9d003c34:	7c031c20 	seb	v1,v1
9d003c38:	1460ffb5 	bnez	v1,9d003b10 <_vfscanf_cdfFnopuxX+0x8f0>
9d003c3c:	02c22021 	addu	a0,s6,v0
9d003c40:	0b400e64 	j	9d003990 <_vfscanf_cdfFnopuxX+0x770>
9d003c44:	2403ffff 	li	v1,-1

Disassembly of section .text:

9d003c48 <printGainsToLCD>:
// plotting to take place
static volatile float Kp=0, Ki=0; //Gain variables
static volatile int Eint = 0; //Integrated value so far in feedback

/* Prints the values of Kp and Ki on the CD screen */
void printGainsToLCD(void) {
9d003c48:	27bdff80 	addiu	sp,sp,-128
9d003c4c:	afbf007c 	sw	ra,124(sp)
  char msg[100];
  sprintf(msg,"Kp: %2.4f", Kp);
9d003c50:	8f868018 	lw	a2,-32744(gp)
9d003c54:	27a40010 	addiu	a0,sp,16
9d003c58:	3c059d01 	lui	a1,0x9d01
9d003c5c:	0f4022dd 	jal	9d008b74 <.LFE0>
9d003c60:	24a58dac 	addiu	a1,a1,-29268

9d003c64 <.LVL0>:
  LCD_WriteString(msg);
9d003c64:	0f40147b 	jal	9d0051ec <LCD_WriteString>
9d003c68:	27a40010 	addiu	a0,sp,16

9d003c6c <.LVL1>:
  LCD_Move(1,0);
9d003c6c:	24040001 	li	a0,1
9d003c70:	0f40145e 	jal	9d005178 <LCD_Move>
9d003c74:	00002821 	move	a1,zero

9d003c78 <.LVL2>:
  sprintf(msg,"Ki: %2.4f", Ki);
9d003c78:	8f86801c 	lw	a2,-32740(gp)
9d003c7c:	27a40010 	addiu	a0,sp,16
9d003c80:	3c059d01 	lui	a1,0x9d01
9d003c84:	0f4022dd 	jal	9d008b74 <.LFE0>
9d003c88:	24a58db8 	addiu	a1,a1,-29256

9d003c8c <.LVL3>:
  LCD_WriteString(msg);
9d003c8c:	0f40147b 	jal	9d0051ec <LCD_WriteString>
9d003c90:	27a40010 	addiu	a0,sp,16

9d003c94 <.LVL4>:
  LCD_Move(0,0); // Move the curcer to the beginning so the next vals get printed
9d003c94:	00002021 	move	a0,zero
9d003c98:	0f40145e 	jal	9d005178 <LCD_Move>
9d003c9c:	00002821 	move	a1,zero

9d003ca0 <.LVL5>:
}
9d003ca0:	8fbf007c 	lw	ra,124(sp)
9d003ca4:	03e00008 	jr	ra
9d003ca8:	27bd0080 	addiu	sp,sp,128

9d003cac <makeWaveform>:
wherefore setting a refeence brightness */

void makeWaveform(int center, int A){ // makes a square Waveform at 1 Hz,
  // amplitude A, and vertical shift of center
  int i = 0;
  for(i=0;i<NUMSAMPS;++i){
9d003cac:	00001021 	move	v0,zero
    if (i<NUMSAMPS/2){
      Waveform[i]= center + A;
    }
    else {
      Waveform[i] = center - A;
9d003cb0:	00853823 	subu	a3,a0,a1
9d003cb4:	3c06a000 	lui	a2,0xa000
9d003cb8:	24c60038 	addiu	a2,a2,56
void makeWaveform(int center, int A){ // makes a square Waveform at 1 Hz,
  // amplitude A, and vertical shift of center
  int i = 0;
  for(i=0;i<NUMSAMPS;++i){
    if (i<NUMSAMPS/2){
      Waveform[i]= center + A;
9d003cbc:	00852821 	addu	a1,a0,a1
wherefore setting a refeence brightness */

void makeWaveform(int center, int A){ // makes a square Waveform at 1 Hz,
  // amplitude A, and vertical shift of center
  int i = 0;
  for(i=0;i<NUMSAMPS;++i){
9d003cc0:	240403e8 	li	a0,1000
    if (i<NUMSAMPS/2){
9d003cc4:	284301f4 	slti	v1,v0,500
9d003cc8:	10600005 	beqz	v1,9d003ce0 <makeWaveform+0x34>
9d003ccc:	00021880 	sll	v1,v0,0x2
      Waveform[i]= center + A;
9d003cd0:	00661821 	addu	v1,v1,a2
9d003cd4:	ac650000 	sw	a1,0(v1)
9d003cd8:	0b400f3b 	j	9d003cec <makeWaveform+0x40>
9d003cdc:	24420001 	addiu	v0,v0,1
    }
    else {
      Waveform[i] = center - A;
9d003ce0:	00661821 	addu	v1,v1,a2
9d003ce4:	ac670000 	sw	a3,0(v1)
wherefore setting a refeence brightness */

void makeWaveform(int center, int A){ // makes a square Waveform at 1 Hz,
  // amplitude A, and vertical shift of center
  int i = 0;
  for(i=0;i<NUMSAMPS;++i){
9d003ce8:	24420001 	addiu	v0,v0,1
9d003cec:	1444fff6 	bne	v0,a0,9d003cc8 <makeWaveform+0x1c>
9d003cf0:	284301f4 	slti	v1,v0,500
    }
    else {
      Waveform[i] = center - A;
    }
  }
}
9d003cf4:	03e00008 	jr	ra
9d003cf8:	00000000 	nop

9d003cfc <makeWaveformSIN>:
/* Wave types that can be used for reference */

 void makeWaveformSIN(double T, int center, int A){ // makes sin Waveform with
9d003cfc:	27bdffc8 	addiu	sp,sp,-56
9d003d00:	afbf0034 	sw	ra,52(sp)
9d003d04:	afb70030 	sw	s7,48(sp)
9d003d08:	afb6002c 	sw	s6,44(sp)
9d003d0c:	afb50028 	sw	s5,40(sp)
9d003d10:	afb40024 	sw	s4,36(sp)
9d003d14:	afb30020 	sw	s3,32(sp)
9d003d18:	afb2001c 	sw	s2,28(sp)
9d003d1c:	afb10018 	sw	s1,24(sp)
9d003d20:	afb00014 	sw	s0,20(sp)
9d003d24:	0080b821 	move	s7,a0
9d003d28:	00a0b021 	move	s6,a1
9d003d2c:	00c0a821 	move	s5,a2
  // period T, amplitude A, and vertical shift of center
  int i;
  for(i=0;i<NUMSAMPS;++i){
9d003d30:	00008021 	move	s0,zero
    Waveform[i] = (int) A*sin(2*3.14*i/T) + center;
9d003d34:	3c029d01 	lui	v0,0x9d01
9d003d38:	8c548de8 	lw	s4,-29208(v0)
9d003d3c:	3c13a000 	lui	s3,0xa000
9d003d40:	26730038 	addiu	s3,s3,56
/* Wave types that can be used for reference */

 void makeWaveformSIN(double T, int center, int A){ // makes sin Waveform with
  // period T, amplitude A, and vertical shift of center
  int i;
  for(i=0;i<NUMSAMPS;++i){
9d003d44:	241203e8 	li	s2,1000
    Waveform[i] = (int) A*sin(2*3.14*i/T) + center;
9d003d48:	0f402311 	jal	9d008c44 <__floatsisf>
9d003d4c:	02002021 	move	a0,s0
9d003d50:	00402021 	move	a0,v0
9d003d54:	0f401c48 	jal	9d007120 <.LFE4>
9d003d58:	02802821 	move	a1,s4
9d003d5c:	00402021 	move	a0,v0
9d003d60:	0f401a3f 	jal	9d0068fc <__divsf3>
9d003d64:	02e02821 	move	a1,s7
9d003d68:	0f401f1b 	jal	9d007c6c <.LFE0>
9d003d6c:	00402021 	move	a0,v0

9d003d70 <.LVL16>:
9d003d70:	00408821 	move	s1,v0
9d003d74:	0f402311 	jal	9d008c44 <__floatsisf>
9d003d78:	02a02021 	move	a0,s5
9d003d7c:	00402021 	move	a0,v0
9d003d80:	0f401c48 	jal	9d007120 <.LFE4>
9d003d84:	02202821 	move	a1,s1
9d003d88:	00408821 	move	s1,v0
9d003d8c:	0f402311 	jal	9d008c44 <__floatsisf>
9d003d90:	02c02021 	move	a0,s6
9d003d94:	02202021 	move	a0,s1
9d003d98:	0f4019a3 	jal	9d00668c <__addsf3>
9d003d9c:	00402821 	move	a1,v0
9d003da0:	0f402263 	jal	9d00898c <__fixsfsi>
9d003da4:	00402021 	move	a0,v0
9d003da8:	00101880 	sll	v1,s0,0x2
9d003dac:	00731821 	addu	v1,v1,s3
9d003db0:	ac620000 	sw	v0,0(v1)
/* Wave types that can be used for reference */

 void makeWaveformSIN(double T, int center, int A){ // makes sin Waveform with
  // period T, amplitude A, and vertical shift of center
  int i;
  for(i=0;i<NUMSAMPS;++i){
9d003db4:	26100001 	addiu	s0,s0,1
9d003db8:	1612ffe3 	bne	s0,s2,9d003d48 <makeWaveformSIN+0x4c>
9d003dbc:	8fbf0034 	lw	ra,52(sp)
    Waveform[i] = (int) A*sin(2*3.14*i/T) + center;
    }
  }
9d003dc0:	8fb70030 	lw	s7,48(sp)
9d003dc4:	8fb6002c 	lw	s6,44(sp)
9d003dc8:	8fb50028 	lw	s5,40(sp)
9d003dcc:	8fb40024 	lw	s4,36(sp)
9d003dd0:	8fb30020 	lw	s3,32(sp)
9d003dd4:	8fb2001c 	lw	s2,28(sp)
9d003dd8:	8fb10018 	lw	s1,24(sp)
9d003ddc:	8fb00014 	lw	s0,20(sp)
9d003de0:	03e00008 	jr	ra
9d003de4:	27bd0038 	addiu	sp,sp,56

9d003de8 <makeWaveformSAWF>:
  void makeWaveformSAWF(int center, int A){ //front sloping saw wave
9d003de8:	00054040 	sll	t0,a1,0x1
9d003dec:	00001821 	move	v1,zero
    int i = 0;
    for(i=0;i<NUMSAMPS;++i){
9d003df0:	00001021 	move	v0,zero
      Waveform[i]= i*2*A/NUMSAMPS + (center-A);
9d003df4:	3c071062 	lui	a3,0x1062
9d003df8:	24e74dd3 	addiu	a3,a3,19923
9d003dfc:	00852023 	subu	a0,a0,a1
9d003e00:	3c0aa000 	lui	t2,0xa000
9d003e04:	254a0038 	addiu	t2,t2,56
    Waveform[i] = (int) A*sin(2*3.14*i/T) + center;
    }
  }
  void makeWaveformSAWF(int center, int A){ //front sloping saw wave
    int i = 0;
    for(i=0;i<NUMSAMPS;++i){
9d003e08:	240903e8 	li	t1,1000
      Waveform[i]= i*2*A/NUMSAMPS + (center-A);
9d003e0c:	00670018 	mult	v1,a3
9d003e10:	00003010 	mfhi	a2
9d003e14:	00063183 	sra	a2,a2,0x6
9d003e18:	00032fc3 	sra	a1,v1,0x1f
9d003e1c:	00c53023 	subu	a2,a2,a1
9d003e20:	00c43021 	addu	a2,a2,a0
9d003e24:	00022880 	sll	a1,v0,0x2
9d003e28:	00aa2821 	addu	a1,a1,t2
9d003e2c:	aca60000 	sw	a2,0(a1)
    Waveform[i] = (int) A*sin(2*3.14*i/T) + center;
    }
  }
  void makeWaveformSAWF(int center, int A){ //front sloping saw wave
    int i = 0;
    for(i=0;i<NUMSAMPS;++i){
9d003e30:	24420001 	addiu	v0,v0,1
9d003e34:	1449fff5 	bne	v0,t1,9d003e0c <makeWaveformSAWF+0x24>
9d003e38:	00681821 	addu	v1,v1,t0
      Waveform[i]= i*2*A/NUMSAMPS + (center-A);
    }
  }
9d003e3c:	03e00008 	jr	ra
9d003e40:	00000000 	nop

9d003e44 <makeWaveformSAWB>:
  void makeWaveformSAWB(int center, int A){ //backward sloping saw wave
9d003e44:	00054023 	negu	t0,a1
9d003e48:	00084040 	sll	t0,t0,0x1
9d003e4c:	00051080 	sll	v0,a1,0x2
9d003e50:	000519c0 	sll	v1,a1,0x7
9d003e54:	00621823 	subu	v1,v1,v0
9d003e58:	00651821 	addu	v1,v1,a1
9d003e5c:	00031900 	sll	v1,v1,0x4
    int i = 0;
    for(i=0;i<NUMSAMPS;++i){
9d003e60:	00001021 	move	v0,zero
      Waveform[i]=(NUMSAMPS-i)*2*A/NUMSAMPS + (center-A);
9d003e64:	3c071062 	lui	a3,0x1062
9d003e68:	24e74dd3 	addiu	a3,a3,19923
9d003e6c:	00852023 	subu	a0,a0,a1
9d003e70:	3c0aa000 	lui	t2,0xa000
9d003e74:	254a0038 	addiu	t2,t2,56
      Waveform[i]= i*2*A/NUMSAMPS + (center-A);
    }
  }
  void makeWaveformSAWB(int center, int A){ //backward sloping saw wave
    int i = 0;
    for(i=0;i<NUMSAMPS;++i){
9d003e78:	240903e8 	li	t1,1000
      Waveform[i]=(NUMSAMPS-i)*2*A/NUMSAMPS + (center-A);
9d003e7c:	00670018 	mult	v1,a3
9d003e80:	00003010 	mfhi	a2
9d003e84:	00063183 	sra	a2,a2,0x6
9d003e88:	00032fc3 	sra	a1,v1,0x1f
9d003e8c:	00c53023 	subu	a2,a2,a1
9d003e90:	00c43021 	addu	a2,a2,a0
9d003e94:	00022880 	sll	a1,v0,0x2
9d003e98:	00aa2821 	addu	a1,a1,t2
9d003e9c:	aca60000 	sw	a2,0(a1)
      Waveform[i]= i*2*A/NUMSAMPS + (center-A);
    }
  }
  void makeWaveformSAWB(int center, int A){ //backward sloping saw wave
    int i = 0;
    for(i=0;i<NUMSAMPS;++i){
9d003ea0:	24420001 	addiu	v0,v0,1
9d003ea4:	1449fff5 	bne	v0,t1,9d003e7c <makeWaveformSAWB+0x38>
9d003ea8:	00681821 	addu	v1,v1,t0
      Waveform[i]=(NUMSAMPS-i)*2*A/NUMSAMPS + (center-A);
    }
  }
9d003eac:	03e00008 	jr	ra
9d003eb0:	00000000 	nop

9d003eb4 <makeWaveformMATLAB>:
  void makeWaveformMATLAB(int * array){ //waveform recieved from MATLAB
    int i = 0;
    for(i=0;i<NUMSAMPS;i++){
9d003eb4:	00001021 	move	v0,zero
      Waveform[i]=array[i];
9d003eb8:	3c07a000 	lui	a3,0xa000
9d003ebc:	24e70038 	addiu	a3,a3,56
      Waveform[i]=(NUMSAMPS-i)*2*A/NUMSAMPS + (center-A);
    }
  }
  void makeWaveformMATLAB(int * array){ //waveform recieved from MATLAB
    int i = 0;
    for(i=0;i<NUMSAMPS;i++){
9d003ec0:	240603e8 	li	a2,1000
      Waveform[i]=array[i];
9d003ec4:	8c850000 	lw	a1,0(a0)
9d003ec8:	00021880 	sll	v1,v0,0x2
9d003ecc:	00671821 	addu	v1,v1,a3
9d003ed0:	ac650000 	sw	a1,0(v1)
      Waveform[i]=(NUMSAMPS-i)*2*A/NUMSAMPS + (center-A);
    }
  }
  void makeWaveformMATLAB(int * array){ //waveform recieved from MATLAB
    int i = 0;
    for(i=0;i<NUMSAMPS;i++){
9d003ed4:	24420001 	addiu	v0,v0,1
9d003ed8:	1446fffa 	bne	v0,a2,9d003ec4 <makeWaveformMATLAB+0x10>
9d003edc:	24840004 	addiu	a0,a0,4
      Waveform[i]=array[i];
    }
  }
9d003ee0:	03e00008 	jr	ra
9d003ee4:	00000000 	nop

9d003ee8 <PIcontroller>:

/* A controller used for feedback */
int PIcontroller(int ref, int act){ // a controller for out feedback
9d003ee8:	27bdffe0 	addiu	sp,sp,-32
9d003eec:	afbf001c 	sw	ra,28(sp)
9d003ef0:	afb20018 	sw	s2,24(sp)
9d003ef4:	afb10014 	sw	s1,20(sp)
9d003ef8:	afb00010 	sw	s0,16(sp)
  Eint = Eint + (ref - act); // accumulating error for integral control
9d003efc:	00852023 	subu	a0,a0,a1
9d003f00:	8f828020 	lw	v0,-32736(gp)
9d003f04:	00821021 	addu	v0,a0,v0
9d003f08:	af828020 	sw	v0,-32736(gp)
  return(Kp*(ref-act) + Ki*Eint);
9d003f0c:	8f908018 	lw	s0,-32744(gp)
9d003f10:	8f928020 	lw	s2,-32736(gp)
9d003f14:	8f91801c 	lw	s1,-32740(gp)
9d003f18:	0f402311 	jal	9d008c44 <__floatsisf>
9d003f1c:	00000000 	nop
9d003f20:	00402021 	move	a0,v0
9d003f24:	0f401c48 	jal	9d007120 <.LFE4>
9d003f28:	02002821 	move	a1,s0
9d003f2c:	00408021 	move	s0,v0
9d003f30:	0f402311 	jal	9d008c44 <__floatsisf>
9d003f34:	02402021 	move	a0,s2
9d003f38:	00402021 	move	a0,v0
9d003f3c:	0f401c48 	jal	9d007120 <.LFE4>
9d003f40:	02202821 	move	a1,s1
9d003f44:	02002021 	move	a0,s0
9d003f48:	0f4019a3 	jal	9d00668c <__addsf3>
9d003f4c:	00402821 	move	a1,v0
9d003f50:	0f402263 	jal	9d00898c <__fixsfsi>
9d003f54:	00402021 	move	a0,v0

}
9d003f58:	8fbf001c 	lw	ra,28(sp)
9d003f5c:	8fb20018 	lw	s2,24(sp)
9d003f60:	8fb10014 	lw	s1,20(sp)
9d003f64:	8fb00010 	lw	s0,16(sp)
9d003f68:	03e00008 	jr	ra
9d003f6c:	27bd0020 	addiu	sp,sp,32

9d003f70 <Controller>:

void __ISR(_TIMER_2_VECTOR, IPL5SOFT) Controller(void){
9d003f70:	415de800 	rdpgpr	sp,sp
9d003f74:	401a7000 	mfc0	k0,c0_epc
9d003f78:	401b6000 	mfc0	k1,c0_status
9d003f7c:	27bdff78 	addiu	sp,sp,-136
9d003f80:	afba0084 	sw	k0,132(sp)
9d003f84:	401a6002 	mfc0	k0,c0_srsctl
9d003f88:	afbb0080 	sw	k1,128(sp)
9d003f8c:	afba007c 	sw	k0,124(sp)
9d003f90:	7c1b7844 	ins	k1,zero,0x1,0xf
9d003f94:	377b1400 	ori	k1,k1,0x1400
9d003f98:	409b6000 	mtc0	k1,c0_status
9d003f9c:	afbf006c 	sw	ra,108(sp)
9d003fa0:	afb90068 	sw	t9,104(sp)
9d003fa4:	afb80064 	sw	t8,100(sp)
9d003fa8:	afb50060 	sw	s5,96(sp)
9d003fac:	afb4005c 	sw	s4,92(sp)
9d003fb0:	afb30058 	sw	s3,88(sp)
9d003fb4:	afb20054 	sw	s2,84(sp)
9d003fb8:	afb10050 	sw	s1,80(sp)
9d003fbc:	afb0004c 	sw	s0,76(sp)
9d003fc0:	afaf0048 	sw	t7,72(sp)
9d003fc4:	afae0044 	sw	t6,68(sp)
9d003fc8:	afad0040 	sw	t5,64(sp)
9d003fcc:	afac003c 	sw	t4,60(sp)
9d003fd0:	afab0038 	sw	t3,56(sp)
9d003fd4:	afaa0034 	sw	t2,52(sp)
9d003fd8:	afa90030 	sw	t1,48(sp)
9d003fdc:	afa8002c 	sw	t0,44(sp)
9d003fe0:	afa70028 	sw	a3,40(sp)
9d003fe4:	afa60024 	sw	a2,36(sp)
9d003fe8:	afa50020 	sw	a1,32(sp)
9d003fec:	afa4001c 	sw	a0,28(sp)
9d003ff0:	afa30018 	sw	v1,24(sp)
9d003ff4:	afa20014 	sw	v0,20(sp)
9d003ff8:	afa10010 	sw	at,16(sp)
9d003ffc:	00001012 	mflo	v0
9d004000:	afa20074 	sw	v0,116(sp)
9d004004:	00001810 	mfhi	v1
9d004008:	afa30070 	sw	v1,112(sp)
  static int decctr = 0; // used to count up to DECIMATION to send data
  static int adcval = 0; //value of Vout ranging from 0 to 1023 (0 to 3.3 V)
  static int unew, u; // variables used for turning off integrator
  unsigned int start_time; // time when sampling begins
  unsigned int end_time; // time when sampling ends
  _CP0_SET_COUNT(0); // Start the timer
9d00400c:	00001021 	move	v0,zero
9d004010:	40824800 	mtc0	v0,c0_count
9d004014:	000000c0 	ehb
  total = 0;
9d004018:	00001021 	move	v0,zero
9d00401c:	af828024 	sw	v0,-32732(gp)
  avg_num = 50;
9d004020:	24020032 	li	v0,50
9d004024:	af828028 	sw	v0,-32728(gp)
  for (i=0; i<avg_num; i++){
9d004028:	af80802c 	sw	zero,-32724(gp)
    AD1CHSbits.CH0SA = 15; // Set Pin for data collection
9d00402c:	3c11bf81 	lui	s1,0xbf81
9d004030:	2414000f 	li	s4,15
    AD1CON1bits.SAMP = 1; // make SHA begin sampling
9d004034:	3c10bf81 	lui	s0,0xbf81
9d004038:	24130001 	li	s3,1
    }
    AD1CON1bits.SAMP = 0; // make SHA stop sampling
    while(!AD1CON1bits.DONE){ // wait for cnversion
      ;
    }
    total = ADC1BUF0 + total;
9d00403c:	3c12bf81 	lui	s2,0xbf81
  unsigned int end_time; // time when sampling ends
  _CP0_SET_COUNT(0); // Start the timer
  total = 0;
  avg_num = 50;
  for (i=0; i<avg_num; i++){
    AD1CHSbits.CH0SA = 15; // Set Pin for data collection
9d004040:	8e229040 	lw	v0,-28608(s1)
9d004044:	7e829c04 	ins	v0,s4,0x10,0x4
9d004048:	ae229040 	sw	v0,-28608(s1)
    AD1CON1bits.SAMP = 1; // make SHA begin sampling
9d00404c:	96029000 	lhu	v0,-28672(s0)
9d004050:	7e620844 	ins	v0,s3,0x1,0x1
9d004054:	a6029000 	sh	v0,-28672(s0)
    start_time = _CP0_GET_COUNT(); // Get clock count for sampling time
9d004058:	40034800 	mfc0	v1,c0_count
    end_time = start_time + 20; // Sampling for 20*25ns=500ns
9d00405c:	24630014 	addiu	v1,v1,20
        while(_CP0_GET_COUNT() < end_time){
9d004060:	40024800 	mfc0	v0,c0_count
9d004064:	0043102b 	sltu	v0,v0,v1
9d004068:	1440fffd 	bnez	v0,9d004060 <Controller+0xf0>
9d00406c:	00000000 	nop
      ;
    }
    AD1CON1bits.SAMP = 0; // make SHA stop sampling
9d004070:	96029000 	lhu	v0,-28672(s0)
9d004074:	7c020844 	ins	v0,zero,0x1,0x1
9d004078:	a6029000 	sh	v0,-28672(s0)
    while(!AD1CON1bits.DONE){ // wait for cnversion
9d00407c:	8e029000 	lw	v0,-28672(s0)
9d004080:	30420001 	andi	v0,v0,0x1
9d004084:	1040fffd 	beqz	v0,9d00407c <Controller+0x10c>
9d004088:	00000000 	nop
      ;
    }
    total = ADC1BUF0 + total;
9d00408c:	8e449070 	lw	a0,-28560(s2)
9d004090:	0f40237e 	jal	9d008df8 <__floatunsisf>
9d004094:	00000000 	nop
9d004098:	8f848024 	lw	a0,-32732(gp)
9d00409c:	0f4019a3 	jal	9d00668c <__addsf3>
9d0040a0:	00402821 	move	a1,v0
9d0040a4:	af828024 	sw	v0,-32732(gp)
  unsigned int start_time; // time when sampling begins
  unsigned int end_time; // time when sampling ends
  _CP0_SET_COUNT(0); // Start the timer
  total = 0;
  avg_num = 50;
  for (i=0; i<avg_num; i++){
9d0040a8:	8f82802c 	lw	v0,-32724(gp)
9d0040ac:	24420001 	addiu	v0,v0,1
9d0040b0:	af82802c 	sw	v0,-32724(gp)
9d0040b4:	8f958028 	lw	s5,-32728(gp)
9d0040b8:	0055102a 	slt	v0,v0,s5
9d0040bc:	1440ffe0 	bnez	v0,9d004040 <Controller+0xd0>
9d0040c0:	00000000 	nop
    while(!AD1CON1bits.DONE){ // wait for cnversion
      ;
    }
    total = ADC1BUF0 + total;
  }
  adcval = (int) total/avg_num ; // Get the average value from ADC
9d0040c4:	0f402263 	jal	9d00898c <__fixsfsi>
9d0040c8:	8f848024 	lw	a0,-32732(gp)
9d0040cc:	0055001a 	div	zero,v0,s5
9d0040d0:	02a001f4 	teq	s5,zero,0x7
9d0040d4:	0000a812 	mflo	s5
  u = PIcontroller(Waveform[counter], adcval); // send refference and actual
9d0040d8:	8f908034 	lw	s0,-32716(gp)
9d0040dc:	00101880 	sll	v1,s0,0x2
9d0040e0:	3c02a000 	lui	v0,0xa000
9d0040e4:	24420038 	addiu	v0,v0,56
9d0040e8:	00621021 	addu	v0,v1,v0
9d0040ec:	8c440000 	lw	a0,0(v0)
9d0040f0:	0f400fba 	jal	9d003ee8 <PIcontroller>
9d0040f4:	00002812 	mflo	a1

9d0040f8 <.LVL51>:
  // duty cycle values

  unew = u + 50; //center unew
9d0040f8:	24510032 	addiu	s1,v0,50
  if (unew > 100.0){ //set upper limit
9d0040fc:	0f402311 	jal	9d008c44 <__floatsisf>
9d004100:	02202021 	move	a0,s1
9d004104:	00409021 	move	s2,v0
9d004108:	3c029d01 	lui	v0,0x9d01
9d00410c:	8c448dec 	lw	a0,-29204(v0)
9d004110:	0f4021f3 	jal	9d0087cc <.LFE0>
9d004114:	02402821 	move	a1,s2
9d004118:	04430004 	bgezl	v0,9d00412c <.LVL51+0x34>
9d00411c:	02402021 	move	a0,s2
    unew = 100.0;
9d004120:	24020064 	li	v0,100
9d004124:	0b401050 	j	9d004140 <.LVL51+0x48>
9d004128:	af82803c 	sw	v0,-32708(gp)
  } else if (unew < 0.0){//set lower limit
9d00412c:	0f4021f3 	jal	9d0087cc <.LFE0>
9d004130:	00002821 	move	a1,zero
  }
  adcval = (int) total/avg_num ; // Get the average value from ADC
  u = PIcontroller(Waveform[counter], adcval); // send refference and actual
  // duty cycle values

  unew = u + 50; //center unew
9d004134:	28420000 	slti	v0,v0,0
9d004138:	0002880b 	movn	s1,zero,v0
9d00413c:	af91803c 	sw	s1,-32708(gp)
  if (unew > 100.0){ //set upper limit
    unew = 100.0;
  } else if (unew < 0.0){//set lower limit
    unew = 0.0;
  }
  OC1RS = (unsigned int) ((unew/100.0)*P3VAL); // set the clock cycle to close
9d004140:	0f402311 	jal	9d008c44 <__floatsisf>
9d004144:	8f84803c 	lw	a0,-32708(gp)
9d004148:	00402021 	move	a0,v0
9d00414c:	3c029d01 	lui	v0,0x9d01
9d004150:	0f401a3f 	jal	9d0068fc <__divsf3>
9d004154:	8c458dec 	lw	a1,-29204(v0)
9d004158:	00402021 	move	a0,v0
9d00415c:	3c029d01 	lui	v0,0x9d01
9d004160:	0f401c48 	jal	9d007120 <.LFE4>
9d004164:	8c458df0 	lw	a1,-29200(v0)
9d004168:	0f402283 	jal	9d008a0c <__fixunssfsi>
9d00416c:	00402021 	move	a0,v0
9d004170:	3c03bf80 	lui	v1,0xbf80
9d004174:	ac623020 	sw	v0,12320(v1)
  // the feedback loop

  if (StoringData) {
9d004178:	8f828014 	lw	v0,-32748(gp)
9d00417c:	50400026 	beqzl	v0,9d004218 <.LVL51+0x120>
9d004180:	26100001 	addiu	s0,s0,1
    decctr++; // store data every 10 points
9d004184:	8f828040 	lw	v0,-32704(gp)
9d004188:	24420001 	addiu	v0,v0,1
    if (decctr == DECIMATION) {
9d00418c:	2403000a 	li	v1,10
9d004190:	50430003 	beql	v0,v1,9d0041a0 <.LVL51+0xa8>
9d004194:	af808040 	sw	zero,-32704(gp)
  }
  OC1RS = (unsigned int) ((unew/100.0)*P3VAL); // set the clock cycle to close
  // the feedback loop

  if (StoringData) {
    decctr++; // store data every 10 points
9d004198:	0b40107f 	j	9d0041fc <.LVL51+0x104>
9d00419c:	af828040 	sw	v0,-32704(gp)
    if (decctr == DECIMATION) {
      decctr = 0;
      ADCarray[plotind] = adcval;
9d0041a0:	8f838044 	lw	v1,-32700(gp)
9d0041a4:	00031080 	sll	v0,v1,0x2
9d0041a8:	3c04a000 	lui	a0,0xa000
9d0041ac:	24840fd8 	addiu	a0,a0,4056
9d0041b0:	00442021 	addu	a0,v0,a0
9d0041b4:	ac950000 	sw	s5,0(a0)
      REFarray[plotind] = Waveform[counter];
9d0041b8:	00102880 	sll	a1,s0,0x2
9d0041bc:	3c04a000 	lui	a0,0xa000
9d0041c0:	24840038 	addiu	a0,a0,56
9d0041c4:	00a42021 	addu	a0,a1,a0
9d0041c8:	8c850000 	lw	a1,0(a0)
9d0041cc:	3c04a000 	lui	a0,0xa000
9d0041d0:	248412f8 	addiu	a0,a0,4856
9d0041d4:	00442021 	addu	a0,v0,a0
9d0041d8:	ac850000 	sw	a1,0(a0)
      CRLarray[plotind] = OC1RS;
9d0041dc:	3c04bf80 	lui	a0,0xbf80
9d0041e0:	8c843020 	lw	a0,12320(a0)
9d0041e4:	3c05a000 	lui	a1,0xa000
9d0041e8:	24a51618 	addiu	a1,a1,5656
9d0041ec:	00451021 	addu	v0,v0,a1
9d0041f0:	ac440000 	sw	a0,0(v0)
      plotind++;
9d0041f4:	24630001 	addiu	v1,v1,1
9d0041f8:	af838044 	sw	v1,-32700(gp)
    }
    if (plotind == PLOTPTS) { //once PLOTPTS number of data points is sent, the
9d0041fc:	240200c8 	li	v0,200
9d004200:	8f838044 	lw	v1,-32700(gp)
9d004204:	54620004 	bnel	v1,v0,9d004218 <.LVL51+0x120>
9d004208:	26100001 	addiu	s0,s0,1
      //program will stop storing data
      plotind = 0;
9d00420c:	af808044 	sw	zero,-32700(gp)
      StoringData = 0;
9d004210:	af808014 	sw	zero,-32748(gp)
    }
  }
  counter++;
9d004214:	26100001 	addiu	s0,s0,1
9d004218:	3a0203e8 	xori	v0,s0,0x3e8
9d00421c:	0002800a 	movz	s0,zero,v0
9d004220:	af908034 	sw	s0,-32716(gp)
  if(counter==NUMSAMPS){
    counter=0;
  }
  IFS0bits.T2IF=0; // interrupt has been handles, flag turns off
9d004224:	3c02bf88 	lui	v0,0xbf88
9d004228:	8c431030 	lw	v1,4144(v0)
9d00422c:	7c034204 	ins	v1,zero,0x8,0x1
9d004230:	ac431030 	sw	v1,4144(v0)
}
9d004234:	8fa20074 	lw	v0,116(sp)
9d004238:	00400013 	mtlo	v0
9d00423c:	8fa30070 	lw	v1,112(sp)
9d004240:	00600011 	mthi	v1
9d004244:	8fbf006c 	lw	ra,108(sp)
9d004248:	8fb90068 	lw	t9,104(sp)
9d00424c:	8fb80064 	lw	t8,100(sp)
9d004250:	8fb50060 	lw	s5,96(sp)
9d004254:	8fb4005c 	lw	s4,92(sp)
9d004258:	8fb30058 	lw	s3,88(sp)
9d00425c:	8fb20054 	lw	s2,84(sp)
9d004260:	8fb10050 	lw	s1,80(sp)
9d004264:	8fb0004c 	lw	s0,76(sp)
9d004268:	8faf0048 	lw	t7,72(sp)
9d00426c:	8fae0044 	lw	t6,68(sp)
9d004270:	8fad0040 	lw	t5,64(sp)
9d004274:	8fac003c 	lw	t4,60(sp)
9d004278:	8fab0038 	lw	t3,56(sp)
9d00427c:	8faa0034 	lw	t2,52(sp)
9d004280:	8fa90030 	lw	t1,48(sp)
9d004284:	8fa8002c 	lw	t0,44(sp)
9d004288:	8fa70028 	lw	a3,40(sp)
9d00428c:	8fa60024 	lw	a2,36(sp)
9d004290:	8fa50020 	lw	a1,32(sp)
9d004294:	8fa4001c 	lw	a0,28(sp)
9d004298:	8fa30018 	lw	v1,24(sp)
9d00429c:	8fa20014 	lw	v0,20(sp)
9d0042a0:	8fa10010 	lw	at,16(sp)
9d0042a4:	41606000 	di
9d0042a8:	000000c0 	ehb
9d0042ac:	8fba0084 	lw	k0,132(sp)
9d0042b0:	8fbb0080 	lw	k1,128(sp)
9d0042b4:	409a7000 	mtc0	k0,c0_epc
9d0042b8:	8fba007c 	lw	k0,124(sp)
9d0042bc:	27bd0088 	addiu	sp,sp,136
9d0042c0:	409a6002 	mtc0	k0,c0_srsctl
9d0042c4:	41dde800 	wrpgpr	sp,sp
9d0042c8:	409b6000 	mtc0	k1,c0_status
9d0042cc:	42000018 	eret

9d0042d0 <main>:

int main(void) {
9d0042d0:	27bdff28 	addiu	sp,sp,-216
9d0042d4:	afbf00d4 	sw	ra,212(sp)
9d0042d8:	afbe00d0 	sw	s8,208(sp)
9d0042dc:	afb700cc 	sw	s7,204(sp)
9d0042e0:	afb600c8 	sw	s6,200(sp)
9d0042e4:	afb500c4 	sw	s5,196(sp)
9d0042e8:	afb400c0 	sw	s4,192(sp)
9d0042ec:	afb300bc 	sw	s3,188(sp)
9d0042f0:	afb200b8 	sw	s2,184(sp)
9d0042f4:	afb100b4 	sw	s1,180(sp)
9d0042f8:	afb000b0 	sw	s0,176(sp)
  char message[100]; // this message will contain gain values, as well as wave type
  char msg2[10]; // this message will contain values along specific wave specified
  // by MATLAB
  float kptemp = 0, kitemp = 0; // Temporary gain factors
9d0042fc:	00001021 	move	v0,zero
9d004300:	afa20090 	sw	v0,144(sp)
9d004304:	afa20094 	sw	v0,148(sp)
  int MATLABval; // value read from MATLAB to assign to
  int center, AMP;
  int WaveType = 1; // Determines which reference wave will be used
9d004308:	24020001 	li	v0,1
  // The default is square wave
  int i = 0; // generic index
  NU32_Startup();
9d00430c:	0f401bd7 	jal	9d006f5c <.LFE29>
9d004310:	afa200a0 	sw	v0,160(sp)

9d004314 <.LVL60>:
  __builtin_disable_interrupts();
9d004314:	41626000 	di	v0
9d004318:	000000c0 	ehb
  AD1PCFGbits.PCFG15 = 0; //set pin 15 to be analog input
9d00431c:	3c02bf81 	lui	v0,0xbf81
9d004320:	94439060 	lhu	v1,-28576(v0)
9d004324:	7c037bc4 	ins	v1,zero,0xf,0x1
9d004328:	a4439060 	sh	v1,-28576(v0)
  AD1CON1bits.ON = 1;  // enable ADC
9d00432c:	3c03bf81 	lui	v1,0xbf81
9d004330:	94649000 	lhu	a0,-28672(v1)
9d004334:	24020001 	li	v0,1
9d004338:	7c447bc4 	ins	a0,v0,0xf,0x1
9d00433c:	a4649000 	sh	a0,-28672(v1)
  AD1CON3bits.ADCS = 2; // set ADC clock period to 75ns
9d004340:	24040002 	li	a0,2
9d004344:	3c03bf81 	lui	v1,0xbf81
9d004348:	a0649020 	sb	a0,-28640(v1)
  T3CONbits.TCKPS = 0; // timer 3 prescalar is 1
9d00434c:	3c03bf80 	lui	v1,0xbf80
9d004350:	94640a00 	lhu	a0,2560(v1)
9d004354:	7c043104 	ins	a0,zero,0x4,0x3
9d004358:	a4640a00 	sh	a0,2560(v1)
  PR3 = P3VAL; // set period to (3999+1)*1*12.5 = 50us (20kHz)
9d00435c:	24050f9f 	li	a1,3999
9d004360:	3c04bf80 	lui	a0,0xbf80
9d004364:	ac850a20 	sw	a1,2592(a0)
  TMR3 = 0; // set timer 3 to 0
9d004368:	3c04bf80 	lui	a0,0xbf80
9d00436c:	ac800a10 	sw	zero,2576(a0)
  OC1RS = 2000; //(P3VAL+1)/2;
9d004370:	240407d0 	li	a0,2000
9d004374:	3c05bf80 	lui	a1,0xbf80
9d004378:	aca43020 	sw	a0,12320(a1)
  OC1R = 2000; // (P3VAL+1)/2; // preset duty cycle to 50%
9d00437c:	3c05bf80 	lui	a1,0xbf80
9d004380:	aca43010 	sw	a0,12304(a1)
  T3CONbits.ON = 1; // turn the timer on
9d004384:	94640a00 	lhu	a0,2560(v1)
9d004388:	7c447bc4 	ins	a0,v0,0xf,0x1
9d00438c:	a4640a00 	sh	a0,2560(v1)

  T2CONbits.TCKPS = 6; // timer 3 prescalar is 64
9d004390:	3c03bf80 	lui	v1,0xbf80
9d004394:	94640800 	lhu	a0,2048(v1)
9d004398:	24050006 	li	a1,6
9d00439c:	7ca43104 	ins	a0,a1,0x4,0x3
9d0043a0:	a4640800 	sh	a0,2048(v1)
  PR2 =  P2VAL; // set period to (1249 + 1)*64*12.5 = 1ms (1kHz)
9d0043a4:	240604e1 	li	a2,1249
9d0043a8:	3c04bf80 	lui	a0,0xbf80
9d0043ac:	ac860820 	sw	a2,2080(a0)
  TMR2 = 0; // set timer 2 to 0
9d0043b0:	3c04bf80 	lui	a0,0xbf80
9d0043b4:	ac800810 	sw	zero,2064(a0)
  T2CONbits.TGATE = 0; // timer doesn't stop based on signal high or low
9d0043b8:	94640800 	lhu	a0,2048(v1)
9d0043bc:	7c0439c4 	ins	a0,zero,0x7,0x1
9d0043c0:	a4640800 	sh	a0,2048(v1)
  T2CONbits.ON = 1; // turn timer 2 on
9d0043c4:	94640800 	lhu	a0,2048(v1)
9d0043c8:	7c447bc4 	ins	a0,v0,0xf,0x1
9d0043cc:	a4640800 	sh	a0,2048(v1)
  OC1CONbits.OCM = 0b110; //PWM mode without fault pin
9d0043d0:	3c03bf80 	lui	v1,0xbf80
9d0043d4:	94643000 	lhu	a0,12288(v1)
9d0043d8:	7ca41004 	ins	a0,a1,0x0,0x3
9d0043dc:	a4643000 	sh	a0,12288(v1)
  OC1CONbits.ON = 1; // eanbles output compare module
9d0043e0:	94643000 	lhu	a0,12288(v1)
9d0043e4:	7c447bc4 	ins	a0,v0,0xf,0x1
9d0043e8:	a4643000 	sh	a0,12288(v1)
  OC1CONbits.OCTSEL = 1; // Timer 2 chosen for comparison
9d0043ec:	94643000 	lhu	a0,12288(v1)
9d0043f0:	7c4418c4 	ins	a0,v0,0x3,0x1
9d0043f4:	a4643000 	sh	a0,12288(v1)
  IPC2bits.T2IP = 5; // prority level 5
9d0043f8:	3c03bf88 	lui	v1,0xbf88
9d0043fc:	8c6410b0 	lw	a0,4272(v1)
9d004400:	24050005 	li	a1,5
9d004404:	7ca42084 	ins	a0,a1,0x2,0x3
9d004408:	ac6410b0 	sw	a0,4272(v1)
  IPC2bits.T2IS = 0; // subpriority level 0
9d00440c:	8c6410b0 	lw	a0,4272(v1)
9d004410:	7c040804 	ins	a0,zero,0x0,0x2
9d004414:	ac6410b0 	sw	a0,4272(v1)
  IFS0bits.T2IF = 0; // interrupt flag off
9d004418:	3c03bf88 	lui	v1,0xbf88
9d00441c:	8c641030 	lw	a0,4144(v1)
9d004420:	7c044204 	ins	a0,zero,0x8,0x1
9d004424:	ac641030 	sw	a0,4144(v1)
  IEC0bits.T2IE = 1; // interrupt enable
9d004428:	3c03bf88 	lui	v1,0xbf88
9d00442c:	8c641060 	lw	a0,4192(v1)
9d004430:	7c444204 	ins	a0,v0,0x8,0x1
9d004434:	ac641060 	sw	a0,4192(v1)
  __builtin_enable_interrupts();
9d004438:	41626020 	ei	v0
  LCD_Setup(); // Begin communicating with LCD
9d00443c:	0f4013db 	jal	9d004f6c <LCD_Setup>
9d004440:	3c179d01 	lui	s7,0x9d01

9d004444 <.LVL61>:
  LCD_Clear(); // Clear the LCD
9d004444:	0f40141e 	jal	9d005078 <LCD_Clear>
9d004448:	26f78dc4 	addiu	s7,s7,-29244

9d00444c <.LVL62>:
  LCD_Move(0,0); // Move the cursor to the start
9d00444c:	00002021 	move	a0,zero
9d004450:	0f40145e 	jal	9d005178 <LCD_Move>
9d004454:	00002821 	move	a1,zero

9d004458 <.LVL63>:
  while(1) {
    NU32_ReadUART3(message,sizeof(message)); //wait to recieve a message from
   // MATLAB
    sscanf(message,"%f %f %d %d %d", &kptemp, &kitemp, &WaveType, &center, &AMP);
    switch(WaveType){ // make a reference wave based on user's choice
9d004458:	3c1e9d00 	lui	s8,0x9d00
9d00445c:	27de44d8 	addiu	s8,s8,17624
9d004460:	3c02a000 	lui	v0,0xa000
9d004464:	24430038 	addiu	v1,v0,56
9d004468:	afa300a8 	sw	v1,168(sp)
9d00446c:	24760fa0 	addiu	s6,v1,4000
      case 1:
        makeWaveform(center,AMP);
        break;
      case 2:
        makeWaveformSIN(500,center,AMP);
9d004470:	3c029d01 	lui	v0,0x9d01
9d004474:	8c438df4 	lw	v1,-29196(v0)
9d004478:	afa300ac 	sw	v1,172(sp)
  __builtin_enable_interrupts();
  LCD_Setup(); // Begin communicating with LCD
  LCD_Clear(); // Clear the LCD
  LCD_Move(0,0); // Move the cursor to the start
  while(1) {
    NU32_ReadUART3(message,sizeof(message)); //wait to recieve a message from
9d00447c:	27a40020 	addiu	a0,sp,32
9d004480:	0f401c1c 	jal	9d007070 <NU32_ReadUART3>
9d004484:	24050064 	li	a1,100

9d004488 <.LVL65>:
   // MATLAB
    sscanf(message,"%f %f %d %d %d", &kptemp, &kitemp, &WaveType, &center, &AMP);
9d004488:	27a200a0 	addiu	v0,sp,160
9d00448c:	afa20010 	sw	v0,16(sp)
9d004490:	27a20098 	addiu	v0,sp,152
9d004494:	afa20014 	sw	v0,20(sp)
9d004498:	27a2009c 	addiu	v0,sp,156
9d00449c:	afa20018 	sw	v0,24(sp)
9d0044a0:	27a40020 	addiu	a0,sp,32
9d0044a4:	02e02821 	move	a1,s7
9d0044a8:	27a60090 	addiu	a2,sp,144
9d0044ac:	0f402356 	jal	9d008d58 <_sscanf_cdfFnopuxX>
9d0044b0:	27a70094 	addiu	a3,sp,148

9d0044b4 <.LVL66>:
    switch(WaveType){ // make a reference wave based on user's choice
9d0044b4:	8fa200a0 	lw	v0,160(sp)
9d0044b8:	2c420006 	sltiu	v0,v0,6
9d0044bc:	1040002e 	beqz	v0,9d004578 <.LVL72+0xc>
9d0044c0:	8fa200a0 	lw	v0,160(sp)
9d0044c4:	00021080 	sll	v0,v0,0x2
9d0044c8:	03c21021 	addu	v0,s8,v0
9d0044cc:	8c420000 	lw	v0,0(v0)
9d0044d0:	00400008 	jr	v0
9d0044d4:	00000000 	nop
9d0044d8:	9d004578 	0x9d004578
9d0044dc:	9d0044f0 	0x9d0044f0
9d0044e0:	9d004504 	0x9d004504
9d0044e4:	9d00451c 	0x9d00451c
9d0044e8:	9d004530 	0x9d004530
9d0044ec:	9d004544 	0x9d004544
      case 1:
        makeWaveform(center,AMP);
9d0044f0:	8fa40098 	lw	a0,152(sp)
9d0044f4:	0f400f2b 	jal	9d003cac <makeWaveform>
9d0044f8:	8fa5009c 	lw	a1,156(sp)

9d0044fc <.LVL67>:
        break;
9d0044fc:	0b40115e 	j	9d004578 <.LVL72+0xc>
9d004500:	00000000 	nop
      case 2:
        makeWaveformSIN(500,center,AMP);
9d004504:	8fa400ac 	lw	a0,172(sp)
9d004508:	8fa50098 	lw	a1,152(sp)
9d00450c:	0f400f3f 	jal	9d003cfc <makeWaveformSIN>
9d004510:	8fa6009c 	lw	a2,156(sp)

9d004514 <.LVL68>:
        break;
9d004514:	0b40115e 	j	9d004578 <.LVL72+0xc>
9d004518:	00000000 	nop
      case 3:
        makeWaveformSAWF(center,AMP);
9d00451c:	8fa40098 	lw	a0,152(sp)
9d004520:	0f400f7a 	jal	9d003de8 <makeWaveformSAWF>
9d004524:	8fa5009c 	lw	a1,156(sp)

9d004528 <.LVL69>:
        break;
9d004528:	0b40115e 	j	9d004578 <.LVL72+0xc>
9d00452c:	00000000 	nop
      case 4:
        makeWaveformSAWB(center,AMP);
9d004530:	8fa40098 	lw	a0,152(sp)
9d004534:	0f400f91 	jal	9d003e44 <makeWaveformSAWB>
9d004538:	8fa5009c 	lw	a1,156(sp)

9d00453c <.LVL70>:
        break;
9d00453c:	0b40115e 	j	9d004578 <.LVL72+0xc>
9d004540:	00000000 	nop
9d004544:	8fb000a8 	lw	s0,168(sp)
      case 5:
        for (i=0;i<NUMSAMPS;i++){
          NU32_ReadUART3(msg2,sizeof(msg2));
          sscanf(msg2,"%d", &Waveform[i]);
9d004548:	3c119d01 	lui	s1,0x9d01
9d00454c:	26318dd4 	addiu	s1,s1,-29228
      case 4:
        makeWaveformSAWB(center,AMP);
        break;
      case 5:
        for (i=0;i<NUMSAMPS;i++){
          NU32_ReadUART3(msg2,sizeof(msg2));
9d004550:	27a40084 	addiu	a0,sp,132
9d004554:	0f401c1c 	jal	9d007070 <NU32_ReadUART3>
9d004558:	2405000a 	li	a1,10

9d00455c <.LVL71>:
          sscanf(msg2,"%d", &Waveform[i]);
9d00455c:	27a40084 	addiu	a0,sp,132
9d004560:	02202821 	move	a1,s1
9d004564:	0f402356 	jal	9d008d58 <_sscanf_cdfFnopuxX>
9d004568:	02003021 	move	a2,s0

9d00456c <.LVL72>:
9d00456c:	26100004 	addiu	s0,s0,4
        break;
      case 4:
        makeWaveformSAWB(center,AMP);
        break;
      case 5:
        for (i=0;i<NUMSAMPS;i++){
9d004570:	1616fff8 	bne	s0,s6,9d004554 <.LVL70+0x18>
9d004574:	27a40084 	addiu	a0,sp,132
          NU32_ReadUART3(msg2,sizeof(msg2));
          sscanf(msg2,"%d", &Waveform[i]);
        }
        break;
      }
    __builtin_disable_interrupts(); // disable interrupts which we set gains
9d004578:	41626000 	di	v0
9d00457c:	000000c0 	ehb
    Kp=kptemp; // set gain values
9d004580:	8fa20090 	lw	v0,144(sp)
9d004584:	af828018 	sw	v0,-32744(gp)
    Ki=kitemp;
9d004588:	8fa20094 	lw	v0,148(sp)
9d00458c:	af82801c 	sw	v0,-32740(gp)
    Eint = 0; // Integrator reset
9d004590:	af808020 	sw	zero,-32736(gp)
    __builtin_enable_interrupts();
9d004594:	41626020 	ei	v0
    _CP0_SET_COUNT(0); //Set clock count
9d004598:	00001021 	move	v0,zero
9d00459c:	40824800 	mtc0	v0,c0_count
9d0045a0:	000000c0 	ehb
    StoringData = 1; // message to ISR to store data
9d0045a4:	24020001 	li	v0,1
9d0045a8:	af828014 	sw	v0,-32748(gp)
    printGainsToLCD();
9d0045ac:	0f400f12 	jal	9d003c48 <printGainsToLCD>
9d0045b0:	00000000 	nop

9d0045b4 <.LVL73>:
    while(StoringData){ //wait here until interrupt issued
9d0045b4:	8f828014 	lw	v0,-32748(gp)
9d0045b8:	1440fffe 	bnez	v0,9d0045b4 <.LVL73>
9d0045bc:	3c15a000 	lui	s5,0xa000
9d0045c0:	00008021 	move	s0,zero
    ; //Don't do anything
    }
    for(i=0 ; i<PLOTPTS ; i++){
      sprintf(message,"%d %d %d %d\r\n", PLOTPTS-i, ADCarray[i], REFarray[i], CRLarray[i]);
9d0045c4:	26b50fd8 	addiu	s5,s5,4056
9d0045c8:	3c14a000 	lui	s4,0xa000
9d0045cc:	269412f8 	addiu	s4,s4,4856
9d0045d0:	3c13a000 	lui	s3,0xa000
9d0045d4:	26731618 	addiu	s3,s3,5656
9d0045d8:	3c129d01 	lui	s2,0x9d01
9d0045dc:	26528dd8 	addiu	s2,s2,-29224
9d0045e0:	00101080 	sll	v0,s0,0x2
9d0045e4:	00551821 	addu	v1,v0,s5
9d0045e8:	8c670000 	lw	a3,0(v1)
9d0045ec:	00541821 	addu	v1,v0,s4
9d0045f0:	8c630000 	lw	v1,0(v1)
9d0045f4:	00531021 	addu	v0,v0,s3
9d0045f8:	8c420000 	lw	v0,0(v0)
9d0045fc:	241100c8 	li	s1,200
9d004600:	afa30010 	sw	v1,16(sp)
9d004604:	afa20014 	sw	v0,20(sp)
9d004608:	27a40020 	addiu	a0,sp,32
9d00460c:	02402821 	move	a1,s2
9d004610:	0f4022dd 	jal	9d008b74 <.LFE0>
9d004614:	02303023 	subu	a2,s1,s0

9d004618 <.LVL75>:
      NU32_WriteUART3(message); //send plot data to MATLAB
9d004618:	0f401c39 	jal	9d0070e4 <NU32_WriteUART3>
9d00461c:	27a40020 	addiu	a0,sp,32

9d004620 <.LVL76>:
    StoringData = 1; // message to ISR to store data
    printGainsToLCD();
    while(StoringData){ //wait here until interrupt issued
    ; //Don't do anything
    }
    for(i=0 ; i<PLOTPTS ; i++){
9d004620:	26100001 	addiu	s0,s0,1
9d004624:	1611ffef 	bne	s0,s1,9d0045e4 <.LVL73+0x30>
9d004628:	00101080 	sll	v0,s0,0x2
9d00462c:	0b401120 	j	9d004480 <.LVL63+0x28>
9d004630:	27a40020 	addiu	a0,sp,32

Disassembly of section .text.dp32mul:

9d004634 <__divdf3>:
9d004634:	00055040 000a5542 00054ac0 00047d42     @P..BU...J..B}..
9d004644:	012f4825 000442c0 3c0e8000 012e4825     %H/..B.....<%H..
9d004654:	00076840 000d6d42 000762c0 00067d42     @h..Bm...b..B}..
9d004664:	018f6025 00065ac0 018e6025 00a72826     %`...Z..%`..&(..
9d004674:	00ae2824 254fffff 2de107fe 102000cb     $(....O%...-.. .
9d004684:	00000000                                ....

9d004688 <Dlab1>:
9d004688:	25afffff 	addiu	t7,t5,-1
9d00468c:	2de107fe 	sltiu	at,t7,2046
9d004690:	102000f4 	beqz	at,9d004a64 <DspecB>
9d004694:	00000000 	nop

9d004698 <Dlab2>:
9d004698:	014d5023 	subu	t2,t2,t5
9d00469c:	254a03ff 	addiu	t2,t2,1023
9d0046a0:	00084042 	srl	t0,t0,0x1
9d0046a4:	00097fc0 	sll	t7,t1,0x1f
9d0046a8:	010f4025 	or	t0,t0,t7
9d0046ac:	00094842 	srl	t1,t1,0x1
9d0046b0:	000c3c02 	srl	a3,t4,0x10
9d0046b4:	00e001f4 	teq	a3,zero,0x7
9d0046b8:	0127001b 	divu	zero,t1,a3
9d0046bc:	00007012 	mflo	t6
9d0046c0:	00004810 	mfhi	t1
9d0046c4:	3186ffff 	andi	a2,t4,0xffff
9d0046c8:	00ce0019 	multu	a2,t6
9d0046cc:	00002012 	mflo	a0
9d0046d0:	00094c00 	sll	t1,t1,0x10
9d0046d4:	00087c02 	srl	t7,t0,0x10
9d0046d8:	012f4825 	or	t1,t1,t7
9d0046dc:	0124782b 	sltu	t7,t1,a0
9d0046e0:	11e00006 	beqz	t7,9d0046fc <i20>
9d0046e4:	01244823 	subu	t1,t1,a0

9d0046e8 <b21>:
9d0046e8:	25ceffff 	addiu	t6,t6,-1
9d0046ec:	012c4821 	addu	t1,t1,t4
9d0046f0:	012c082b 	sltu	at,t1,t4
9d0046f4:	1020fffc 	beqz	at,9d0046e8 <b21>
9d0046f8:	00000000 	nop

9d0046fc <i20>:
9d0046fc:	00e001f4 	teq	a3,zero,0x7
9d004700:	0127001b 	divu	zero,t1,a3
9d004704:	00003812 	mflo	a3
9d004708:	00004810 	mfhi	t1
9d00470c:	00c70019 	multu	a2,a3
9d004710:	00002012 	mflo	a0
9d004714:	00094c00 	sll	t1,t1,0x10
9d004718:	310fffff 	andi	t7,t0,0xffff
9d00471c:	012f4825 	or	t1,t1,t7
9d004720:	0124782b 	sltu	t7,t1,a0
9d004724:	11e00006 	beqz	t7,9d004740 <i22>
9d004728:	01244823 	subu	t1,t1,a0

9d00472c <b23>:
9d00472c:	24e7ffff 	addiu	a3,a3,-1
9d004730:	012c4821 	addu	t1,t1,t4
9d004734:	012c082b 	sltu	at,t1,t4
9d004738:	1020fffc 	beqz	at,9d00472c <b23>
9d00473c:	00000000 	nop

9d004740 <i22>:
9d004740:	000e7400 	sll	t6,t6,0x10
9d004744:	01c77021 	addu	t6,t6,a3
9d004748:	01cb0019 	multu	t6,t3
9d00474c:	00003812 	mflo	a3
9d004750:	00002010 	mfhi	a0
9d004754:	24080000 	li	t0,0
9d004758:	0107782b 	sltu	t7,t0,a3
9d00475c:	01074023 	subu	t0,t0,a3
9d004760:	012f102b 	sltu	v0,t1,t7
9d004764:	012f4823 	subu	t1,t1,t7
9d004768:	0124782b 	sltu	t7,t1,a0
9d00476c:	01e27825 	or	t7,t7,v0
9d004770:	11e0000b 	beqz	t7,9d0047a0 <i24>
9d004774:	01244823 	subu	t1,t1,a0

9d004778 <Dlab3>:
9d004778:	25ceffff 	addiu	t6,t6,-1
9d00477c:	010b4021 	addu	t0,t0,t3
9d004780:	010b782b 	sltu	t7,t0,t3
9d004784:	012c4821 	addu	t1,t1,t4
9d004788:	012f4821 	addu	t1,t1,t7
9d00478c:	112c0002 	beq	t1,t4,9d004798 <L31>
9d004790:	00000000 	nop
9d004794:	012c782b 	sltu	t7,t1,t4

9d004798 <L31>:
9d004798:	11e0fff7 	beqz	t7,9d004778 <Dlab3>
9d00479c:	00000000 	nop

9d0047a0 <i24>:
9d0047a0:	152c0006 	bne	t1,t4,9d0047bc <i25>
9d0047a4:	00000000 	nop
9d0047a8:	000b2025 	or	a0,zero,t3
9d0047ac:	00084825 	or	t1,zero,t0
9d0047b0:	240d0000 	li	t5,0
9d0047b4:	1000002a 	b	9d004860 <e25>
9d0047b8:	000d3825 	or	a3,zero,t5

9d0047bc <i25>:
9d0047bc:	000c3c02 	srl	a3,t4,0x10
9d0047c0:	00e001f4 	teq	a3,zero,0x7
9d0047c4:	0127001b 	divu	zero,t1,a3
9d0047c8:	00006812 	mflo	t5
9d0047cc:	00004810 	mfhi	t1
9d0047d0:	3186ffff 	andi	a2,t4,0xffff
9d0047d4:	00cd0019 	multu	a2,t5
9d0047d8:	00002012 	mflo	a0
9d0047dc:	00094c00 	sll	t1,t1,0x10
9d0047e0:	00087c02 	srl	t7,t0,0x10
9d0047e4:	012f4825 	or	t1,t1,t7
9d0047e8:	0124782b 	sltu	t7,t1,a0
9d0047ec:	11e00006 	beqz	t7,9d004808 <i26>
9d0047f0:	01244823 	subu	t1,t1,a0

9d0047f4 <b27>:
9d0047f4:	25adffff 	addiu	t5,t5,-1
9d0047f8:	012c4821 	addu	t1,t1,t4
9d0047fc:	012c082b 	sltu	at,t1,t4
9d004800:	1020fffc 	beqz	at,9d0047f4 <b27>
9d004804:	00000000 	nop

9d004808 <i26>:
9d004808:	00e001f4 	teq	a3,zero,0x7
9d00480c:	0127001b 	divu	zero,t1,a3
9d004810:	00003812 	mflo	a3
9d004814:	00004810 	mfhi	t1
9d004818:	00c70019 	multu	a2,a3
9d00481c:	00002012 	mflo	a0
9d004820:	00094c00 	sll	t1,t1,0x10
9d004824:	310fffff 	andi	t7,t0,0xffff
9d004828:	012f4825 	or	t1,t1,t7
9d00482c:	0124782b 	sltu	t7,t1,a0
9d004830:	11e00006 	beqz	t7,9d00484c <i28>
9d004834:	01244823 	subu	t1,t1,a0

9d004838 <b29>:
9d004838:	24e7ffff 	addiu	a3,a3,-1
9d00483c:	012c4821 	addu	t1,t1,t4
9d004840:	012c082b 	sltu	at,t1,t4
9d004844:	1020fffc 	beqz	at,9d004838 <b29>
9d004848:	00000000 	nop

9d00484c <i28>:
9d00484c:	000d6c00 	sll	t5,t5,0x10
9d004850:	01a76821 	addu	t5,t5,a3
9d004854:	01ab0019 	multu	t5,t3
9d004858:	00003812 	mflo	a3
9d00485c:	00002010 	mfhi	a0

9d004860 <e25>:
9d004860:	24080000 	li	t0,0
9d004864:	0107782b 	sltu	t7,t0,a3
9d004868:	01074023 	subu	t0,t0,a3
9d00486c:	012f102b 	sltu	v0,t1,t7
9d004870:	012f4823 	subu	t1,t1,t7
9d004874:	0124782b 	sltu	t7,t1,a0
9d004878:	01e27825 	or	t7,t7,v0
9d00487c:	11e0000b 	beqz	t7,9d0048ac <i30>
9d004880:	01244823 	subu	t1,t1,a0

9d004884 <Dlab4>:
9d004884:	25adffff 	addiu	t5,t5,-1
9d004888:	010b4021 	addu	t0,t0,t3
9d00488c:	010b782b 	sltu	t7,t0,t3
9d004890:	012c4821 	addu	t1,t1,t4
9d004894:	012f4821 	addu	t1,t1,t7
9d004898:	112c0002 	beq	t1,t4,9d0048a4 <L32>
9d00489c:	00000000 	nop
9d0048a0:	012c782b 	sltu	t7,t1,t4

9d0048a4 <L32>:
9d0048a4:	11e0fff7 	beqz	t7,9d004884 <Dlab4>
9d0048a8:	00000000 	nop

9d0048ac <i30>:
9d0048ac:	05c00006 	bltz	t6,9d0048c8 <i31>
9d0048b0:	00000000 	nop
9d0048b4:	01a0782a 	slt	t7,t5,zero
9d0048b8:	01ad6821 	addu	t5,t5,t5
9d0048bc:	01ce7021 	addu	t6,t6,t6
9d0048c0:	01cf7021 	addu	t6,t6,t7
9d0048c4:	254affff 	addiu	t2,t2,-1

9d0048c8 <i31>:
9d0048c8:	01287825 	or	t7,t1,t0
9d0048cc:	11e00002 	beqz	t7,9d0048d8 <i32>
9d0048d0:	00000000 	nop
9d0048d4:	35ad0001 	ori	t5,t5,0x1

9d0048d8 <i32>:
9d0048d8:	000e4825 	or	t1,zero,t6
9d0048dc:	000d4025 	or	t0,zero,t5
9d0048e0:	254fffff 	addiu	t7,t2,-1
9d0048e4:	2de107fe 	sltiu	at,t7,2046
9d0048e8:	10200015 	beqz	at,9d004940 <Doveund>
9d0048ec:	00000000 	nop
9d0048f0:	25080400 	addiu	t0,t0,1024
9d0048f4:	2d0f0400 	sltiu	t7,t0,1024
9d0048f8:	012f4821 	addu	t1,t1,t7
9d0048fc:	012f782b 	sltu	t7,t1,t7
9d004900:	014f5021 	addu	t2,t2,t7

9d004904 <Dlab8>:
9d004904:	00087ac2 	srl	t7,t0,0xb
9d004908:	31ef0001 	andi	t7,t7,0x1
9d00490c:	010f4023 	subu	t0,t0,t7
9d004910:	000822c2 	srl	a0,t0,0xb
9d004914:	00097d40 	sll	t7,t1,0x15
9d004918:	008f2025 	or	a0,a0,t7
9d00491c:	00097840 	sll	t7,t1,0x1
9d004920:	000f7b02 	srl	t7,t7,0xc
9d004924:	00af2825 	or	a1,a1,t7
9d004928:	000a7d00 	sll	t7,t2,0x14
9d00492c:	00af2825 	or	a1,a1,t7

9d004930 <Dret>:
9d004930:	00041025 	or	v0,zero,a0
9d004934:	00051825 	or	v1,zero,a1

9d004938 <D999>:
9d004938:	03e00008 	jr	ra
9d00493c:	00000000 	nop

9d004940 <Doveund>:
9d004940:	1d400044 	bgtz	t2,9d004a54 <Dinf>
9d004944:	00000000 	nop
9d004948:	240e0001 	li	t6,1
9d00494c:	01ca7023 	subu	t6,t6,t2

9d004950 <L33>:
9d004950:	2dc10020 	sltiu	at,t6,32
9d004954:	14200007 	bnez	at,9d004974 <L34>
9d004958:	00000000 	nop
9d00495c:	21ceffe0 	addi	t6,t6,-32
9d004960:	0008202b 	sltu	a0,zero,t0
9d004964:	1009000d 	beq	zero,t1,9d00499c <L35>
9d004968:	01244025 	or	t0,t1,a0
9d00496c:	1000fff8 	b	9d004950 <L33>
9d004970:	34090000 	li	t1,0x0

9d004974 <L34>:
9d004974:	11c00009 	beqz	t6,9d00499c <L35>
9d004978:	00000000 	nop
9d00497c:	000e3022 	neg	a2,t6
9d004980:	00c82004 	sllv	a0,t0,a2
9d004984:	00c93004 	sllv	a2,t1,a2
9d004988:	01c84006 	srlv	t0,t0,t6
9d00498c:	01c94806 	srlv	t1,t1,t6
9d004990:	10800002 	beqz	a0,9d00499c <L35>
9d004994:	00c84025 	or	t0,a2,t0
9d004998:	35080002 	ori	t0,t0,0x2

9d00499c <L35>:
9d00499c:	25080400 	addiu	t0,t0,1024
9d0049a0:	2d0f0400 	sltiu	t7,t0,1024
9d0049a4:	012f4821 	addu	t1,t1,t7
9d0049a8:	1000ffd6 	b	9d004904 <Dlab8>
9d0049ac:	000957c2 	srl	t2,t1,0x1f

9d0049b0 <DspecA>:
9d0049b0:	0100782a 	slt	t7,t0,zero
9d0049b4:	01084021 	addu	t0,t0,t0
9d0049b8:	01294821 	addu	t1,t1,t1
9d0049bc:	15400017 	bnez	t2,9d004a1c <i33>
9d0049c0:	012f4821 	addu	t1,t1,t7
9d0049c4:	01287825 	or	t7,t1,t0
9d0049c8:	11e00014 	beqz	t7,9d004a1c <i33>
9d0049cc:	00000000 	nop
9d0049d0:	15200008 	bnez	t1,9d0049f4 <L36>
9d0049d4:	00000000 	nop
9d0049d8:	15000003 	bnez	t0,9d0049e8 <L37>
9d0049dc:	00000000 	nop
9d0049e0:	1000ff29 	b	9d004688 <Dlab1>
9d0049e4:	240a0000 	li	t2,0

9d0049e8 <L37>:
9d0049e8:	01004825 	move	t1,t0
9d0049ec:	24080000 	li	t0,0
9d0049f0:	254affe0 	addiu	t2,t2,-32

9d0049f4 <L36>:
9d0049f4:	712e7020 	clz	t6,t1
9d0049f8:	11c0ff23 	beqz	t6,9d004688 <Dlab1>
9d0049fc:	00000000 	nop
9d004a00:	014e5023 	subu	t2,t2,t6
9d004a04:	000e3022 	neg	a2,t6
9d004a08:	00c83006 	srlv	a2,t0,a2
9d004a0c:	01c84004 	sllv	t0,t0,t6
9d004a10:	01c94804 	sllv	t1,t1,t6
9d004a14:	1000ff1c 	b	9d004688 <Dlab1>
9d004a18:	01264825 	or	t1,t1,a2

9d004a1c <i33>:
9d004a1c:	154d0005 	bne	t2,t5,9d004a34 <i35>
9d004a20:	00000000 	nop
9d004a24:	000c7840 	sll	t7,t4,0x1
9d004a28:	01eb7825 	or	t7,t7,t3
9d004a2c:	11e0002b 	beqz	t7,9d004adc <Dnan>
9d004a30:	00000000 	nop

9d004a34 <i35>:
9d004a34:	240107ff 	li	at,2047
9d004a38:	11a1000a 	beq	t5,at,9d004a64 <DspecB>
9d004a3c:	00000000 	nop
9d004a40:	1140ffbb 	beqz	t2,9d004930 <Dret>
9d004a44:	00000000 	nop
9d004a48:	01287825 	or	t7,t1,t0
9d004a4c:	15e00023 	bnez	t7,9d004adc <Dnan>
9d004a50:	00000000 	nop

9d004a54 <Dinf>:
9d004a54:	3c017ff0 	lui	at,0x7ff0
9d004a58:	00a12825 	or	a1,a1,at
9d004a5c:	1000ffb4 	b	9d004930 <Dret>
9d004a60:	24040000 	li	a0,0

9d004a64 <DspecB>:
9d004a64:	0160782a 	slt	t7,t3,zero
9d004a68:	016b5821 	addu	t3,t3,t3
9d004a6c:	018c6021 	addu	t4,t4,t4
9d004a70:	15a00017 	bnez	t5,9d004ad0 <i36>
9d004a74:	018f6021 	addu	t4,t4,t7
9d004a78:	018b7825 	or	t7,t4,t3
9d004a7c:	11e0fff5 	beqz	t7,9d004a54 <Dinf>
9d004a80:	00000000 	nop
9d004a84:	15800008 	bnez	t4,9d004aa8 <L39>
9d004a88:	00000000 	nop
9d004a8c:	15600003 	bnez	t3,9d004a9c <L40>
9d004a90:	00000000 	nop
9d004a94:	1000ff00 	b	9d004698 <Dlab2>
9d004a98:	240d0000 	li	t5,0

9d004a9c <L40>:
9d004a9c:	01606025 	move	t4,t3
9d004aa0:	240b0000 	li	t3,0
9d004aa4:	25adffe0 	addiu	t5,t5,-32

9d004aa8 <L39>:
9d004aa8:	718e7020 	clz	t6,t4
9d004aac:	11c0fefa 	beqz	t6,9d004698 <Dlab2>
9d004ab0:	00000000 	nop
9d004ab4:	01ae6823 	subu	t5,t5,t6
9d004ab8:	000e3022 	neg	a2,t6
9d004abc:	00cb3006 	srlv	a2,t3,a2
9d004ac0:	01cb5804 	sllv	t3,t3,t6
9d004ac4:	01cc6004 	sllv	t4,t4,t6
9d004ac8:	1000fef3 	b	9d004698 <Dlab2>
9d004acc:	01866025 	or	t4,t4,a2

9d004ad0 <i36>:
9d004ad0:	018b7825 	or	t7,t4,t3
9d004ad4:	11e00002 	beqz	t7,9d004ae0 <i38>
9d004ad8:	00000000 	nop

9d004adc <Dnan>:
9d004adc:	3c05fff8 	lui	a1,0xfff8

9d004ae0 <i38>:
9d004ae0:	1000ff93 	b	9d004930 <Dret>
9d004ae4:	24040000 	li	a0,0
9d004ae8:	00000000 	nop

Disassembly of section .text:

9d004aec <__umoddi3>:
9d004aec:	00c04021 	move	t0,a2
9d004af0:	00804821 	move	t1,a0
9d004af4:	14e0003b 	bnez	a3,9d004be4 <__umoddi3+0xf8>
9d004af8:	00a01821 	move	v1,a1
9d004afc:	00a6102b 	sltu	v0,a1,a2
9d004b00:	10400048 	beqz	v0,9d004c24 <__umoddi3+0x138>
9d004b04:	70c21020 	clz	v0,a2
9d004b08:	50400008 	beqzl	v0,9d004b2c <__umoddi3+0x40>
9d004b0c:	00083402 	srl	a2,t0,0x10
9d004b10:	00021823 	negu	v1,v0
9d004b14:	00452804 	sllv	a1,a1,v0
9d004b18:	00641806 	srlv	v1,a0,v1
9d004b1c:	00464004 	sllv	t0,a2,v0
9d004b20:	00651825 	or	v1,v1,a1
9d004b24:	00444804 	sllv	t1,a0,v0
9d004b28:	00083402 	srl	a2,t0,0x10
9d004b2c:	0066001b 	divu	zero,v1,a2
9d004b30:	00c001f4 	teq	a2,zero,0x7
9d004b34:	00002010 	mfhi	a0
9d004b38:	00005812 	mflo	t3
9d004b3c:	310cffff 	andi	t4,t0,0xffff
9d004b40:	00095402 	srl	t2,t1,0x10
9d004b44:	716c5802 	mul	t3,t3,t4
9d004b48:	00042400 	sll	a0,a0,0x10
9d004b4c:	008a5025 	or	t2,a0,t2
9d004b50:	014b682b 	sltu	t5,t2,t3
9d004b54:	0066001b 	divu	zero,v1,a2
9d004b58:	00c001f4 	teq	a2,zero,0x7
9d004b5c:	51a00009 	beqzl	t5,9d004b84 <__umoddi3+0x98>
9d004b60:	014b5023 	subu	t2,t2,t3
9d004b64:	01485021 	addu	t2,t2,t0
9d004b68:	0148182b 	sltu	v1,t2,t0
9d004b6c:	54600005 	bnezl	v1,9d004b84 <__umoddi3+0x98>
9d004b70:	014b5023 	subu	t2,t2,t3
9d004b74:	014b202b 	sltu	a0,t2,t3
9d004b78:	01481821 	addu	v1,t2,t0
9d004b7c:	0064500b 	movn	t2,v1,a0
9d004b80:	014b5023 	subu	t2,t2,t3
9d004b84:	3123ffff 	andi	v1,t1,0xffff
9d004b88:	0146001b 	divu	zero,t2,a2
9d004b8c:	00c001f4 	teq	a2,zero,0x7
9d004b90:	00004810 	mfhi	t1
9d004b94:	00002012 	mflo	a0
9d004b98:	708c2002 	mul	a0,a0,t4
9d004b9c:	00094c00 	sll	t1,t1,0x10
9d004ba0:	01234825 	or	t1,t1,v1
9d004ba4:	0124182b 	sltu	v1,t1,a0
9d004ba8:	0146001b 	divu	zero,t2,a2
9d004bac:	00c001f4 	teq	a2,zero,0x7
9d004bb0:	50600009 	beqzl	v1,9d004bd8 <__umoddi3+0xec>
9d004bb4:	01244823 	subu	t1,t1,a0
9d004bb8:	01284821 	addu	t1,t1,t0
9d004bbc:	0128182b 	sltu	v1,t1,t0
9d004bc0:	54600005 	bnezl	v1,9d004bd8 <__umoddi3+0xec>
9d004bc4:	01244823 	subu	t1,t1,a0
9d004bc8:	0124182b 	sltu	v1,t1,a0
9d004bcc:	01284021 	addu	t0,t1,t0
9d004bd0:	0103480b 	movn	t1,t0,v1
9d004bd4:	01244823 	subu	t1,t1,a0
9d004bd8:	00491006 	srlv	v0,t1,v0
9d004bdc:	03e00008 	jr	ra
9d004be0:	00001821 	move	v1,zero
9d004be4:	00a7102b 	sltu	v0,a1,a3
9d004be8:	14400047 	bnez	v0,9d004d08 <__umoddi3+0x21c>
9d004bec:	70ea5020 	clz	t2,a3
9d004bf0:	15400048 	bnez	t2,9d004d14 <__umoddi3+0x228>
9d004bf4:	240b0020 	li	t3,32
9d004bf8:	00e5102b 	sltu	v0,a3,a1
9d004bfc:	14400005 	bnez	v0,9d004c14 <__umoddi3+0x128>
9d004c00:	00861023 	subu	v0,a0,a2
9d004c04:	0086402b 	sltu	t0,a0,a2
9d004c08:	15000089 	bnez	t0,9d004e30 <__umoddi3+0x344>
9d004c0c:	00801021 	move	v0,a0
9d004c10:	00861023 	subu	v0,a0,a2
9d004c14:	00a72823 	subu	a1,a1,a3
9d004c18:	0082202b 	sltu	a0,a0,v0
9d004c1c:	03e00008 	jr	ra
9d004c20:	00a41823 	subu	v1,a1,a0
9d004c24:	14c00006 	bnez	a2,9d004c40 <__umoddi3+0x154>
9d004c28:	71021020 	clz	v0,t0
9d004c2c:	24020001 	li	v0,1
9d004c30:	0046001b 	divu	zero,v0,a2
9d004c34:	00c001f4 	teq	a2,zero,0x7
9d004c38:	00004012 	mflo	t0
9d004c3c:	71021020 	clz	v0,t0
9d004c40:	5440007d 	bnezl	v0,9d004e38 <__umoddi3+0x34c>
9d004c44:	00484004 	sllv	t0,t0,v0
9d004c48:	00a82823 	subu	a1,a1,t0
9d004c4c:	00081c02 	srl	v1,t0,0x10
9d004c50:	3107ffff 	andi	a3,t0,0xffff
9d004c54:	00092402 	srl	a0,t1,0x10
9d004c58:	00a3001b 	divu	zero,a1,v1
9d004c5c:	006001f4 	teq	v1,zero,0x7
9d004c60:	00005010 	mfhi	t2
9d004c64:	00003012 	mflo	a2
9d004c68:	70c73002 	mul	a2,a2,a3
9d004c6c:	000a5400 	sll	t2,t2,0x10
9d004c70:	01442025 	or	a0,t2,a0
9d004c74:	0086502b 	sltu	t2,a0,a2
9d004c78:	00a3001b 	divu	zero,a1,v1
9d004c7c:	006001f4 	teq	v1,zero,0x7
9d004c80:	51400009 	beqzl	t2,9d004ca8 <__umoddi3+0x1bc>
9d004c84:	00862023 	subu	a0,a0,a2
9d004c88:	00882021 	addu	a0,a0,t0
9d004c8c:	0088282b 	sltu	a1,a0,t0
9d004c90:	54a00005 	bnezl	a1,9d004ca8 <__umoddi3+0x1bc>
9d004c94:	00862023 	subu	a0,a0,a2
9d004c98:	0086502b 	sltu	t2,a0,a2
9d004c9c:	00882821 	addu	a1,a0,t0
9d004ca0:	00aa200b 	movn	a0,a1,t2
9d004ca4:	00862023 	subu	a0,a0,a2
9d004ca8:	3126ffff 	andi	a2,t1,0xffff
9d004cac:	0083001b 	divu	zero,a0,v1
9d004cb0:	006001f4 	teq	v1,zero,0x7
9d004cb4:	00004810 	mfhi	t1
9d004cb8:	00002812 	mflo	a1
9d004cbc:	70a72802 	mul	a1,a1,a3
9d004cc0:	00094c00 	sll	t1,t1,0x10
9d004cc4:	01264825 	or	t1,t1,a2
9d004cc8:	0125302b 	sltu	a2,t1,a1
9d004ccc:	0083001b 	divu	zero,a0,v1
9d004cd0:	006001f4 	teq	v1,zero,0x7
9d004cd4:	50c00009 	beqzl	a2,9d004cfc <__umoddi3+0x210>
9d004cd8:	01254823 	subu	t1,t1,a1
9d004cdc:	01284821 	addu	t1,t1,t0
9d004ce0:	0128182b 	sltu	v1,t1,t0
9d004ce4:	54600005 	bnezl	v1,9d004cfc <__umoddi3+0x210>
9d004ce8:	01254823 	subu	t1,t1,a1
9d004cec:	0125182b 	sltu	v1,t1,a1
9d004cf0:	01284021 	addu	t0,t1,t0
9d004cf4:	0103480b 	movn	t1,t0,v1
9d004cf8:	01254823 	subu	t1,t1,a1
9d004cfc:	00491006 	srlv	v0,t1,v0
9d004d00:	03e00008 	jr	ra
9d004d04:	00001821 	move	v1,zero
9d004d08:	00801021 	move	v0,a0
9d004d0c:	03e00008 	jr	ra
9d004d10:	00a01821 	move	v1,a1
9d004d14:	016a5823 	subu	t3,t3,t2
9d004d18:	01473804 	sllv	a3,a3,t2
9d004d1c:	01661006 	srlv	v0,a2,t3
9d004d20:	00473825 	or	a3,v0,a3
9d004d24:	01656806 	srlv	t5,a1,t3
9d004d28:	00074c02 	srl	t1,a3,0x10
9d004d2c:	01a9001b 	divu	zero,t5,t1
9d004d30:	012001f4 	teq	t1,zero,0x7
9d004d34:	00006010 	mfhi	t4
9d004d38:	00001812 	mflo	v1
9d004d3c:	30eeffff 	andi	t6,a3,0xffff
9d004d40:	01452804 	sllv	a1,a1,t2
9d004d44:	01641006 	srlv	v0,a0,t3
9d004d48:	00451025 	or	v0,v0,a1
9d004d4c:	00022c02 	srl	a1,v0,0x10
9d004d50:	01463004 	sllv	a2,a2,t2
9d004d54:	00004012 	mflo	t0
9d004d58:	706e7802 	mul	t7,v1,t6
9d004d5c:	000c6400 	sll	t4,t4,0x10
9d004d60:	01856025 	or	t4,t4,a1
9d004d64:	018f282b 	sltu	a1,t4,t7
9d004d68:	01a9001b 	divu	zero,t5,t1
9d004d6c:	012001f4 	teq	t1,zero,0x7
9d004d70:	10a0000a 	beqz	a1,9d004d9c <__umoddi3+0x2b0>
9d004d74:	01442004 	sllv	a0,a0,t2
9d004d78:	01876021 	addu	t4,t4,a3
9d004d7c:	0187282b 	sltu	a1,t4,a3
9d004d80:	14a00006 	bnez	a1,9d004d9c <__umoddi3+0x2b0>
9d004d84:	2468ffff 	addiu	t0,v1,-1
9d004d88:	018f282b 	sltu	a1,t4,t7
9d004d8c:	50a00004 	beqzl	a1,9d004da0 <__umoddi3+0x2b4>
9d004d90:	018f6023 	subu	t4,t4,t7
9d004d94:	2468fffe 	addiu	t0,v1,-2
9d004d98:	01876021 	addu	t4,t4,a3
9d004d9c:	018f6023 	subu	t4,t4,t7
9d004da0:	3042ffff 	andi	v0,v0,0xffff
9d004da4:	0189001b 	divu	zero,t4,t1
9d004da8:	012001f4 	teq	t1,zero,0x7
9d004dac:	00002810 	mfhi	a1
9d004db0:	00001812 	mflo	v1
9d004db4:	00006812 	mflo	t5
9d004db8:	706e7002 	mul	t6,v1,t6
9d004dbc:	00052c00 	sll	a1,a1,0x10
9d004dc0:	00a21025 	or	v0,a1,v0
9d004dc4:	004e282b 	sltu	a1,v0,t6
9d004dc8:	0189001b 	divu	zero,t4,t1
9d004dcc:	012001f4 	teq	t1,zero,0x7
9d004dd0:	50a00006 	beqzl	a1,9d004dec <__umoddi3+0x300>
9d004dd4:	00084400 	sll	t0,t0,0x10
9d004dd8:	00471021 	addu	v0,v0,a3
9d004ddc:	0047282b 	sltu	a1,v0,a3
9d004de0:	10a0004c 	beqz	a1,9d004f14 <__umoddi3+0x428>
9d004de4:	246dffff 	addiu	t5,v1,-1
9d004de8:	00084400 	sll	t0,t0,0x10
9d004dec:	01a84025 	or	t0,t5,t0
9d004df0:	004e1023 	subu	v0,v0,t6
9d004df4:	01060019 	multu	t0,a2
9d004df8:	00004810 	mfhi	t1
9d004dfc:	0049182b 	sltu	v1,v0,t1
9d004e00:	1460003e 	bnez	v1,9d004efc <__umoddi3+0x410>
9d004e04:	00004012 	mflo	t0
9d004e08:	1049004b 	beq	v0,t1,9d004f38 <__umoddi3+0x44c>
9d004e0c:	00491823 	subu	v1,v0,t1
9d004e10:	00003012 	mflo	a2
9d004e14:	00863023 	subu	a2,a0,a2
9d004e18:	0086202b 	sltu	a0,a0,a2
9d004e1c:	00641823 	subu	v1,v1,a0
9d004e20:	01631004 	sllv	v0,v1,t3
9d004e24:	01463006 	srlv	a2,a2,t2
9d004e28:	00461025 	or	v0,v0,a2
9d004e2c:	01431806 	srlv	v1,v1,t2
9d004e30:	03e00008 	jr	ra
9d004e34:	00000000 	nop
9d004e38:	24090020 	li	t1,32
9d004e3c:	01224823 	subu	t1,t1,v0
9d004e40:	01255006 	srlv	t2,a1,t1
9d004e44:	00081c02 	srl	v1,t0,0x10
9d004e48:	0143001b 	divu	zero,t2,v1
9d004e4c:	006001f4 	teq	v1,zero,0x7
9d004e50:	00003010 	mfhi	a2
9d004e54:	00005812 	mflo	t3
9d004e58:	3107ffff 	andi	a3,t0,0xffff
9d004e5c:	00452804 	sllv	a1,a1,v0
9d004e60:	01244806 	srlv	t1,a0,t1
9d004e64:	01252825 	or	a1,t1,a1
9d004e68:	00056402 	srl	t4,a1,0x10
9d004e6c:	00444804 	sllv	t1,a0,v0
9d004e70:	71675802 	mul	t3,t3,a3
9d004e74:	00063400 	sll	a2,a2,0x10
9d004e78:	01863025 	or	a2,t4,a2
9d004e7c:	00cb202b 	sltu	a0,a2,t3
9d004e80:	0143001b 	divu	zero,t2,v1
9d004e84:	006001f4 	teq	v1,zero,0x7
9d004e88:	50800006 	beqzl	a0,9d004ea4 <__umoddi3+0x3b8>
9d004e8c:	00cb3023 	subu	a2,a2,t3
9d004e90:	00c83021 	addu	a2,a2,t0
9d004e94:	00c8202b 	sltu	a0,a2,t0
9d004e98:	10800024 	beqz	a0,9d004f2c <__umoddi3+0x440>
9d004e9c:	00cb502b 	sltu	t2,a2,t3
9d004ea0:	00cb3023 	subu	a2,a2,t3
9d004ea4:	30aaffff 	andi	t2,a1,0xffff
9d004ea8:	00c3001b 	divu	zero,a2,v1
9d004eac:	006001f4 	teq	v1,zero,0x7
9d004eb0:	00002010 	mfhi	a0
9d004eb4:	00002812 	mflo	a1
9d004eb8:	70a72802 	mul	a1,a1,a3
9d004ebc:	00042400 	sll	a0,a0,0x10
9d004ec0:	008a2025 	or	a0,a0,t2
9d004ec4:	0085502b 	sltu	t2,a0,a1
9d004ec8:	00c3001b 	divu	zero,a2,v1
9d004ecc:	006001f4 	teq	v1,zero,0x7
9d004ed0:	5140ff60 	beqzl	t2,9d004c54 <__umoddi3+0x168>
9d004ed4:	00852823 	subu	a1,a0,a1
9d004ed8:	00882021 	addu	a0,a0,t0
9d004edc:	0088302b 	sltu	a2,a0,t0
9d004ee0:	54c0ff5c 	bnezl	a2,9d004c54 <__umoddi3+0x168>
9d004ee4:	00852823 	subu	a1,a0,a1
9d004ee8:	0085502b 	sltu	t2,a0,a1
9d004eec:	00883021 	addu	a2,a0,t0
9d004ef0:	00ca200b 	movn	a0,a2,t2
9d004ef4:	0b401315 	j	9d004c54 <__umoddi3+0x168>
9d004ef8:	00852823 	subu	a1,a0,a1
9d004efc:	01063023 	subu	a2,t0,a2
9d004f00:	01271823 	subu	v1,t1,a3
9d004f04:	0106402b 	sltu	t0,t0,a2
9d004f08:	00681823 	subu	v1,v1,t0
9d004f0c:	0b401385 	j	9d004e14 <__umoddi3+0x328>
9d004f10:	00431823 	subu	v1,v0,v1
9d004f14:	004e282b 	sltu	a1,v0,t6
9d004f18:	50a0ffb4 	beqzl	a1,9d004dec <__umoddi3+0x300>
9d004f1c:	00084400 	sll	t0,t0,0x10
9d004f20:	246dfffe 	addiu	t5,v1,-2
9d004f24:	0b40137a 	j	9d004de8 <__umoddi3+0x2fc>
9d004f28:	00471021 	addu	v0,v0,a3
9d004f2c:	00c82021 	addu	a0,a2,t0
9d004f30:	0b4013a8 	j	9d004ea0 <__umoddi3+0x3b4>
9d004f34:	008a300b 	movn	a2,a0,t2
9d004f38:	0088182b 	sltu	v1,a0,t0
9d004f3c:	5460fff0 	bnezl	v1,9d004f00 <__umoddi3+0x414>
9d004f40:	01063023 	subu	a2,t0,a2
9d004f44:	00003012 	mflo	a2
9d004f48:	0b401385 	j	9d004e14 <__umoddi3+0x328>
9d004f4c:	00001821 	move	v1,zero

// wait for the peripheral master port (PMP) to be ready
// should be called before every read and write operation
static void waitPMP(void)
{
  while(PMMODEbits.BUSY) { ; }
9d004f50:	3c03bf80 	lui	v1,0xbf80
9d004f54:	8c627010 	lw	v0,28688(v1)
9d004f58:	30428000 	andi	v0,v0,0x8000
9d004f5c:	1440fffd 	bnez	v0,9d004f54 <__umoddi3+0x468>
9d004f60:	00000000 	nop
}
9d004f64:	03e00008 	jr	ra
9d004f68:	00000000 	nop

9d004f6c <LCD_Setup>:
// pins RE0 - RE7 (PMD0 - PMD7) connect to LCD pins D0 - D7
// pin RD4 (PMENB) connects to LCD pin E
// pin RD5 (PMRD/PMWR) Connects to LCD pin R/W
// pin RB13 (PMA10) Connects to RS.
// interrupts will be disabled while this function executes
void LCD_Setup() {
9d004f6c:	27bdffe8 	addiu	sp,sp,-24
9d004f70:	afbf0014 	sw	ra,20(sp)
9d004f74:	afb00010 	sw	s0,16(sp)
  int en = __builtin_disable_interrupts();  // disable interrupts, remember initial state
9d004f78:	41706000 	di	s0
9d004f7c:	000000c0 	ehb
  
  IEC1bits.PMPIE = 0;    // disable PMP interrupts
9d004f80:	3c02bf88 	lui	v0,0xbf88
9d004f84:	8c431070 	lw	v1,4208(v0)
9d004f88:	7c031084 	ins	v1,zero,0x2,0x1
9d004f8c:	ac431070 	sw	v1,4208(v0)
  PMCON = 0;             // clear PMCON, like it is on reset
9d004f90:	3c02bf80 	lui	v0,0xbf80
9d004f94:	ac407000 	sw	zero,28672(v0)
  PMCONbits.PTWREN = 1;  // PMENB strobe enabled
9d004f98:	3c02bf80 	lui	v0,0xbf80
9d004f9c:	94437000 	lhu	v1,28672(v0)
9d004fa0:	24040001 	li	a0,1
9d004fa4:	7c834a44 	ins	v1,a0,0x9,0x1
9d004fa8:	a4437000 	sh	v1,28672(v0)
  PMCONbits.PTRDEN = 1;  // PMRD/PMWR enabled
9d004fac:	94437000 	lhu	v1,28672(v0)
9d004fb0:	7c834204 	ins	v1,a0,0x8,0x1
9d004fb4:	a4437000 	sh	v1,28672(v0)
  PMCONbits.WRSP = 1;    // Read/write strobe is active high
9d004fb8:	94437000 	lhu	v1,28672(v0)
9d004fbc:	7c830844 	ins	v1,a0,0x1,0x1
9d004fc0:	a4437000 	sh	v1,28672(v0)
  PMCONbits.RDSP = 1;    // Read/write strobe is active high
9d004fc4:	94437000 	lhu	v1,28672(v0)
9d004fc8:	7c830004 	ins	v1,a0,0x0,0x1
9d004fcc:	a4437000 	sh	v1,28672(v0)

  PMMODE = 0;            // clear PMMODE like it is on reset
9d004fd0:	3c03bf80 	lui	v1,0xbf80
9d004fd4:	ac607010 	sw	zero,28688(v1)
  PMMODEbits.MODE = 0x3; // set master mode 1, which uses a single strobe
9d004fd8:	3c03bf80 	lui	v1,0xbf80
9d004fdc:	94657010 	lhu	a1,28688(v1)
9d004fe0:	24060003 	li	a2,3
9d004fe4:	7cc54a04 	ins	a1,a2,0x8,0x2
9d004fe8:	a4657010 	sh	a1,28688(v1)
  // The cycle is started when reading from or writing to the PMDIN SFR.
  // Note that the wait states for writes start with minimum of 1 (except WAITE)
  // We add some extra wait states to make sure we meet the time and
  // account for variations in timing amongst different HD44780 compatible parts.
  // The timing we use here is for the KS066U which is faster than the HD44780.
  PMMODEbits.WAITB = 0x3;  // Tas in the LCD datasheet is 60 ns 
9d004fec:	94657010 	lhu	a1,28688(v1)
9d004ff0:	7cc53984 	ins	a1,a2,0x6,0x2
9d004ff4:	a4657010 	sh	a1,28688(v1)
  PMMODEbits.WAITM = 0xF;  // PWeh in the data sheet is 230 ns (we don't quite meet this)
9d004ff8:	94657010 	lhu	a1,28688(v1)
9d004ffc:	2406000f 	li	a2,15
9d005000:	7cc52884 	ins	a1,a2,0x2,0x4
9d005004:	a4657010 	sh	a1,28688(v1)
                           // If not working for your LCD you may need to reduce PBCLK
  PMMODEbits.WAITE = 0x1;  // after E is low wait Tah (10ns)
9d005008:	94657010 	lhu	a1,28688(v1)
9d00500c:	7c850804 	ins	a1,a0,0x0,0x2
9d005010:	a4657010 	sh	a1,28688(v1)

  PMAEN |= 1 << PMABIT;   // PMA is an address line
9d005014:	3c03bf80 	lui	v1,0xbf80
9d005018:	8c657050 	lw	a1,28752(v1)
9d00501c:	34a50400 	ori	a1,a1,0x400
9d005020:	ac657050 	sw	a1,28752(v1)
  
  PMCONbits.ON = 1;        // enable the PMP peripheral
9d005024:	94437000 	lhu	v1,28672(v0)
9d005028:	7c837bc4 	ins	v1,a0,0xf,0x1
9d00502c:	a4437000 	sh	v1,28672(v0)
// This controls some LCD settings
// You may want to clear the screen after calling this
// n : 0 one line, 1 two lines
// f : 0 small font, 1 large font (only if n == 0)
void LCD_Function(int n, int f) {
  LCD_Write(0, 0x30 | (n << 3) | (f << 2));
9d005030:	00002021 	move	a0,zero
9d005034:	0f4014a6 	jal	9d005298 <LCD_Write>
9d005038:	24050038 	li	a1,56
// Changes display settings
// d : 1 display on, 0 display off
// c : 1 cursor on, 0 cursor off
// b : 1 cursor blinks, 0 cursor doesn't blink
void LCD_Display(int d, int c, int b) {
  LCD_Write(0, 0x08 | (d << 2) | (c << 1) | b);
9d00503c:	00002021 	move	a0,zero
9d005040:	0f4014a6 	jal	9d005298 <LCD_Write>
9d005044:	2405000c 	li	a1,12
  
  PMCONbits.ON = 1;        // enable the PMP peripheral
  // perform the initialization sequence
  LCD_Function(1,0);       // 2 line mode, small font
  LCD_Display(1, 0, 0);    // Display control: display on, cursor off, blinking cursor off
  LCD_Clear();             // clear the LCD 
9d005048:	0f40141e 	jal	9d005078 <LCD_Clear>
9d00504c:	32100001 	andi	s0,s0,0x1
// Issue the LCD entry mode set command
// This tells the LCD what to do after writing a character
// id : 1 increment cursor, 0 decrement cursor
// s : 1 shift display right, 0 don't shift display
void LCD_Entry(int id, int s) {
  LCD_Write(0, 0x04 | (id << 1) | s);
9d005050:	00002021 	move	a0,zero
9d005054:	0f4014a6 	jal	9d005298 <LCD_Write>
9d005058:	24050006 	li	a1,6
  LCD_Function(1,0);       // 2 line mode, small font
  LCD_Display(1, 0, 0);    // Display control: display on, cursor off, blinking cursor off
  LCD_Clear();             // clear the LCD 
  LCD_Entry(1, 0);         // Cursor moves left to right. do not shift the display
  
  if(en & 0x1)             // if interrupts were enabled before, re-enable them
9d00505c:	12000003 	beqz	s0,9d00506c <LCD_Setup+0x100>
9d005060:	8fbf0014 	lw	ra,20(sp)
  {
    __builtin_enable_interrupts();
9d005064:	41626020 	ei	v0
  }
}
9d005068:	8fbf0014 	lw	ra,20(sp)
9d00506c:	8fb00010 	lw	s0,16(sp)
9d005070:	03e00008 	jr	ra
9d005074:	27bd0018 	addiu	sp,sp,24

9d005078 <LCD_Clear>:

// Clears the display and returns to the home position (0,0)
void LCD_Clear(void) {
9d005078:	27bdffe8 	addiu	sp,sp,-24
9d00507c:	afbf0014 	sw	ra,20(sp)
  LCD_Write(0,0x01); //clear the whole screen
9d005080:	00002021 	move	a0,zero
9d005084:	0f4014a6 	jal	9d005298 <LCD_Write>
9d005088:	24050001 	li	a1,1
}
9d00508c:	8fbf0014 	lw	ra,20(sp)
9d005090:	03e00008 	jr	ra
9d005094:	27bd0018 	addiu	sp,sp,24

9d005098 <LCD_Home>:

// Return the cursor and display to the home position (0,0)
void LCD_Home(void) {
9d005098:	27bdffe8 	addiu	sp,sp,-24
9d00509c:	afbf0014 	sw	ra,20(sp)
  LCD_Write(0,0x02);
9d0050a0:	00002021 	move	a0,zero
9d0050a4:	0f4014a6 	jal	9d005298 <LCD_Write>
9d0050a8:	24050002 	li	a1,2
}
9d0050ac:	8fbf0014 	lw	ra,20(sp)
9d0050b0:	03e00008 	jr	ra
9d0050b4:	27bd0018 	addiu	sp,sp,24

9d0050b8 <LCD_Entry>:

// Issue the LCD entry mode set command
// This tells the LCD what to do after writing a character
// id : 1 increment cursor, 0 decrement cursor
// s : 1 shift display right, 0 don't shift display
void LCD_Entry(int id, int s) {
9d0050b8:	27bdffe8 	addiu	sp,sp,-24
9d0050bc:	afbf0014 	sw	ra,20(sp)
  LCD_Write(0, 0x04 | (id << 1) | s);
9d0050c0:	34a50004 	ori	a1,a1,0x4
9d0050c4:	00042040 	sll	a0,a0,0x1
9d0050c8:	00a42825 	or	a1,a1,a0
9d0050cc:	00002021 	move	a0,zero
9d0050d0:	0f4014a6 	jal	9d005298 <LCD_Write>
9d0050d4:	30a500ff 	andi	a1,a1,0xff
}
9d0050d8:	8fbf0014 	lw	ra,20(sp)
9d0050dc:	03e00008 	jr	ra
9d0050e0:	27bd0018 	addiu	sp,sp,24

9d0050e4 <LCD_Display>:
// Issue the LCD Display command
// Changes display settings
// d : 1 display on, 0 display off
// c : 1 cursor on, 0 cursor off
// b : 1 cursor blinks, 0 cursor doesn't blink
void LCD_Display(int d, int c, int b) {
9d0050e4:	27bdffe8 	addiu	sp,sp,-24
9d0050e8:	afbf0014 	sw	ra,20(sp)
  LCD_Write(0, 0x08 | (d << 2) | (c << 1) | b);
9d0050ec:	34c60008 	ori	a2,a2,0x8
9d0050f0:	00052840 	sll	a1,a1,0x1
9d0050f4:	00c53025 	or	a2,a2,a1
9d0050f8:	00042080 	sll	a0,a0,0x2
9d0050fc:	00c42825 	or	a1,a2,a0
9d005100:	00002021 	move	a0,zero
9d005104:	0f4014a6 	jal	9d005298 <LCD_Write>
9d005108:	30a500ff 	andi	a1,a1,0xff
}
9d00510c:	8fbf0014 	lw	ra,20(sp)
9d005110:	03e00008 	jr	ra
9d005114:	27bd0018 	addiu	sp,sp,24

9d005118 <LCD_Shift>:

// Issue the LCD display shift command
// Move the cursor or the display right or left
// sc : 0 shift cursor, 1 shift display
// rl : 0 to the left, 1 to the right
void LCD_Shift(int sc, int rl) {
9d005118:	27bdffe8 	addiu	sp,sp,-24
9d00511c:	afbf0014 	sw	ra,20(sp)
  LCD_Write(0,0x1 | (sc << 3) | (rl << 2));
9d005120:	00052880 	sll	a1,a1,0x2
9d005124:	34a50001 	ori	a1,a1,0x1
9d005128:	000420c0 	sll	a0,a0,0x3
9d00512c:	00a42825 	or	a1,a1,a0
9d005130:	00002021 	move	a0,zero
9d005134:	0f4014a6 	jal	9d005298 <LCD_Write>
9d005138:	30a500fd 	andi	a1,a1,0xfd
}
9d00513c:	8fbf0014 	lw	ra,20(sp)
9d005140:	03e00008 	jr	ra
9d005144:	27bd0018 	addiu	sp,sp,24

9d005148 <LCD_Function>:
// Issue the LCD Functions set command
// This controls some LCD settings
// You may want to clear the screen after calling this
// n : 0 one line, 1 two lines
// f : 0 small font, 1 large font (only if n == 0)
void LCD_Function(int n, int f) {
9d005148:	27bdffe8 	addiu	sp,sp,-24
9d00514c:	afbf0014 	sw	ra,20(sp)
  LCD_Write(0, 0x30 | (n << 3) | (f << 2));
9d005150:	00052880 	sll	a1,a1,0x2
9d005154:	34a50030 	ori	a1,a1,0x30
9d005158:	000420c0 	sll	a0,a0,0x3
9d00515c:	00a42825 	or	a1,a1,a0
9d005160:	00002021 	move	a0,zero
9d005164:	0f4014a6 	jal	9d005298 <LCD_Write>
9d005168:	30a500fc 	andi	a1,a1,0xfc
}
9d00516c:	8fbf0014 	lw	ra,20(sp)
9d005170:	03e00008 	jr	ra
9d005174:	27bd0018 	addiu	sp,sp,24

9d005178 <LCD_Move>:

// Move the cursor to the desired line and column
// Does this by issuing a DDRAM Move instruction
// line : line 0 or line 1
// col  : the desired column
void LCD_Move(int line, int col) {
9d005178:	27bdffe8 	addiu	sp,sp,-24
9d00517c:	afbf0014 	sw	ra,20(sp)
  LCD_Write(0, 0x80 | (line << 6) | col);
9d005180:	2402ff80 	li	v0,-128
9d005184:	00a22825 	or	a1,a1,v0
9d005188:	00042180 	sll	a0,a0,0x6
9d00518c:	00a42825 	or	a1,a1,a0
9d005190:	00002021 	move	a0,zero
9d005194:	0f4014a6 	jal	9d005298 <LCD_Write>
9d005198:	30a500ff 	andi	a1,a1,0xff
}
9d00519c:	8fbf0014 	lw	ra,20(sp)
9d0051a0:	03e00008 	jr	ra
9d0051a4:	27bd0018 	addiu	sp,sp,24

9d0051a8 <LCD_CMove>:

// Sets the CGRAM address, used for creating custom
// characters
// addr address in the CGRAM to make current
void LCD_CMove(unsigned char addr) {
9d0051a8:	27bdffe8 	addiu	sp,sp,-24
9d0051ac:	afbf0014 	sw	ra,20(sp)
9d0051b0:	308500ff 	andi	a1,a0,0xff
  LCD_Write(0, 0x40 | addr);
9d0051b4:	00002021 	move	a0,zero
9d0051b8:	0f4014a6 	jal	9d005298 <LCD_Write>
9d0051bc:	34a50040 	ori	a1,a1,0x40
}
9d0051c0:	8fbf0014 	lw	ra,20(sp)
9d0051c4:	03e00008 	jr	ra
9d0051c8:	27bd0018 	addiu	sp,sp,24

9d0051cc <LCD_WriteChar>:

// Writes the character to the LCD at the current position
void LCD_WriteChar(char c) {         
9d0051cc:	27bdffe8 	addiu	sp,sp,-24
9d0051d0:	afbf0014 	sw	ra,20(sp)
  LCD_Write(1, c); 
9d0051d4:	308500ff 	andi	a1,a0,0xff
9d0051d8:	0f4014a6 	jal	9d005298 <LCD_Write>
9d0051dc:	24040001 	li	a0,1
}
9d0051e0:	8fbf0014 	lw	ra,20(sp)
9d0051e4:	03e00008 	jr	ra
9d0051e8:	27bd0018 	addiu	sp,sp,24

9d0051ec <LCD_WriteString>:

// Write a string to the LCD starting at the current cursor
void LCD_WriteString(const char *str) {
9d0051ec:	27bdffe8 	addiu	sp,sp,-24
9d0051f0:	afbf0014 	sw	ra,20(sp)
9d0051f4:	afb00010 	sw	s0,16(sp)
9d0051f8:	00808021 	move	s0,a0
  while(*str) {
9d0051fc:	80840000 	lb	a0,0(a0)
9d005200:	10800006 	beqz	a0,9d00521c <LCD_WriteString+0x30>
9d005204:	8fbf0014 	lw	ra,20(sp)
    LCD_WriteChar(*str); // increment string pointer after char sent
9d005208:	0f401473 	jal	9d0051cc <LCD_WriteChar>
9d00520c:	26100001 	addiu	s0,s0,1
  LCD_Write(1, c); 
}

// Write a string to the LCD starting at the current cursor
void LCD_WriteString(const char *str) {
  while(*str) {
9d005210:	82040000 	lb	a0,0(s0)
9d005214:	1480fffc 	bnez	a0,9d005208 <LCD_WriteString+0x1c>
9d005218:	8fbf0014 	lw	ra,20(sp)
    LCD_WriteChar(*str); // increment string pointer after char sent
    ++str;
  }
}
9d00521c:	8fb00010 	lw	s0,16(sp)
9d005220:	03e00008 	jr	ra
9d005224:	27bd0018 	addiu	sp,sp,24

9d005228 <LCD_CustomChar>:
// Make val a custom character.  This only implements 
// The small font version
// val : between 0 and 7
// data : 7 character array.  The first 5 bits of each character
//        determine whether that pixel is on or off
void LCD_CustomChar(unsigned char val, const char * data) {
9d005228:	27bdffd8 	addiu	sp,sp,-40
9d00522c:	afbf0024 	sw	ra,36(sp)
9d005230:	afb30020 	sw	s3,32(sp)
9d005234:	afb2001c 	sw	s2,28(sp)
9d005238:	afb10018 	sw	s1,24(sp)
9d00523c:	afb00014 	sw	s0,20(sp)
9d005240:	00a09821 	move	s3,a1
  int i = 0;
  for(i = 0; i < 7; ++i) {
    LCD_CMove(((val & 7) << 2) | i);
9d005244:	30840007 	andi	a0,a0,0x7
9d005248:	00049080 	sll	s2,a0,0x2
// val : between 0 and 7
// data : 7 character array.  The first 5 bits of each character
//        determine whether that pixel is on or off
void LCD_CustomChar(unsigned char val, const char * data) {
  int i = 0;
  for(i = 0; i < 7; ++i) {
9d00524c:	00008021 	move	s0,zero
9d005250:	24110007 	li	s1,7
    LCD_CMove(((val & 7) << 2) | i);
9d005254:	02502025 	or	a0,s2,s0
9d005258:	0f40146a 	jal	9d0051a8 <LCD_CMove>
9d00525c:	308400ff 	andi	a0,a0,0xff
9d005260:	02701021 	addu	v0,s3,s0
    LCD_Write(1, data[i]);
9d005264:	24040001 	li	a0,1
9d005268:	0f4014a6 	jal	9d005298 <LCD_Write>
9d00526c:	90450000 	lbu	a1,0(v0)
// val : between 0 and 7
// data : 7 character array.  The first 5 bits of each character
//        determine whether that pixel is on or off
void LCD_CustomChar(unsigned char val, const char * data) {
  int i = 0;
  for(i = 0; i < 7; ++i) {
9d005270:	26100001 	addiu	s0,s0,1
9d005274:	1611fff8 	bne	s0,s1,9d005258 <LCD_CustomChar+0x30>
9d005278:	02502025 	or	a0,s2,s0
    LCD_CMove(((val & 7) << 2) | i);
    LCD_Write(1, data[i]);
  }
}
9d00527c:	8fbf0024 	lw	ra,36(sp)
9d005280:	8fb30020 	lw	s3,32(sp)
9d005284:	8fb2001c 	lw	s2,28(sp)
9d005288:	8fb10018 	lw	s1,24(sp)
9d00528c:	8fb00014 	lw	s0,20(sp)
9d005290:	03e00008 	jr	ra
9d005294:	27bd0028 	addiu	sp,sp,40

9d005298 <LCD_Write>:

// Write data to the LCD and wait for it to finish by checking the busy flag. 
// rs : the value of the RS signal, 0 for an instruction 1 for data
// data : the byte to send
void LCD_Write(int rs, unsigned char data) {
9d005298:	27bdffd8 	addiu	sp,sp,-40
9d00529c:	afbf0024 	sw	ra,36(sp)
9d0052a0:	afb10020 	sw	s1,32(sp)
9d0052a4:	afb0001c 	sw	s0,28(sp)
9d0052a8:	00808021 	move	s0,a0
9d0052ac:	30b100ff 	andi	s1,a1,0xff
}

// wait for the LCD to finish its command.
// We check this by reading from the LCD
static void waitLCD() {
  volatile unsigned char val = 0x80;
9d0052b0:	2402ff80 	li	v0,-128
9d0052b4:	a3a20010 	sb	v0,16(sp)
  
  // Read from the LCD until the Busy flag (BF, 7th bit) is 0
  while (val & 0x80) {
9d0052b8:	93a20010 	lbu	v0,16(sp)
9d0052bc:	7c021420 	seb	v0,v0
9d0052c0:	04410008 	bgez	v0,9d0052e4 <LCD_Write+0x4c>
9d0052c4:	24020032 	li	v0,50
    val = LCD_Read(0);
9d0052c8:	0f4014ce 	jal	9d005338 <LCD_Read>
9d0052cc:	00002021 	move	a0,zero
9d0052d0:	a3a20010 	sb	v0,16(sp)
// We check this by reading from the LCD
static void waitLCD() {
  volatile unsigned char val = 0x80;
  
  // Read from the LCD until the Busy flag (BF, 7th bit) is 0
  while (val & 0x80) {
9d0052d4:	93a20010 	lbu	v0,16(sp)
9d0052d8:	7c021420 	seb	v0,v0
9d0052dc:	0440fffa 	bltz	v0,9d0052c8 <LCD_Write+0x30>
9d0052e0:	24020032 	li	v0,50
    val = LCD_Read(0);
  }
  int i = 0;
  for(i = 0; i < 50; ++i) { // slight delay
    _nop();
9d0052e4:	00000040 	ssnop
9d0052e8:	2442ffff 	addiu	v0,v0,-1
  // Read from the LCD until the Busy flag (BF, 7th bit) is 0
  while (val & 0x80) {
    val = LCD_Read(0);
  }
  int i = 0;
  for(i = 0; i < 50; ++i) { // slight delay
9d0052ec:	1440fffd 	bnez	v0,9d0052e4 <LCD_Write+0x4c>
9d0052f0:	00000000 	nop
// Write data to the LCD and wait for it to finish by checking the busy flag. 
// rs : the value of the RS signal, 0 for an instruction 1 for data
// data : the byte to send
void LCD_Write(int rs, unsigned char data) {
  waitLCD();           // wait for the LCD to be ready
  if(rs) { // 1 for data
9d0052f4:	12000004 	beqz	s0,9d005308 <LCD_Write+0x70>
9d0052f8:	24030400 	li	v1,1024
    PMADDRSET = 1 << PMABIT;
9d0052fc:	3c02bf80 	lui	v0,0xbf80
9d005300:	0b4014c4 	j	9d005310 <LCD_Write+0x78>
9d005304:	ac437028 	sw	v1,28712(v0)
  } else { // 0 for command
    PMADDRCLR = 1 << PMABIT; 
9d005308:	3c02bf80 	lui	v0,0xbf80
9d00530c:	ac437024 	sw	v1,28708(v0)
  }
  waitPMP();           // Wait for the PMP to be ready
9d005310:	0f4013d4 	jal	9d004f50 <__umoddi3+0x464>
9d005314:	00000000 	nop
  PMDIN = data;        // send the data
9d005318:	3c02bf80 	lui	v0,0xbf80
9d00531c:	ac517040 	sw	s1,28736(v0)
}
9d005320:	0b4014ca 	j	9d005328 <LCD_Write+0x90>
9d005324:	8fbf0024 	lw	ra,36(sp)
9d005328:	8fb10020 	lw	s1,32(sp)
9d00532c:	8fb0001c 	lw	s0,28(sp)
9d005330:	03e00008 	jr	ra
9d005334:	27bd0028 	addiu	sp,sp,40

9d005338 <LCD_Read>:

// read data from the LCD.  
// rs : the value of the RS signal 0 for instructions status, 1 for data
unsigned char LCD_Read(int rs) {
9d005338:	27bdffe0 	addiu	sp,sp,-32
9d00533c:	afbf001c 	sw	ra,28(sp)
9d005340:	afb00018 	sw	s0,24(sp)
  volatile unsigned char val = 0; // volatile so 1st read doesn't get optimized away
9d005344:	a3a00010 	sb	zero,16(sp)
  if(rs) { // 1 to read data
9d005348:	10800005 	beqz	a0,9d005360 <LCD_Read+0x28>
9d00534c:	24030400 	li	v1,1024
    PMADDRSET = 1 << PMABIT;
9d005350:	3c02bf80 	lui	v0,0xbf80
9d005354:	ac437028 	sw	v1,28712(v0)
9d005358:	0b4014da 	j	9d005368 <LCD_Read+0x30>
9d00535c:	00000000 	nop
  } else { // 0 to read command status
    PMADDRCLR = 1 << PMABIT;
9d005360:	3c02bf80 	lui	v0,0xbf80
9d005364:	ac437024 	sw	v1,28708(v0)
  }
  // from the PIC32 reference manual, you must read twice to actually get the data
  waitPMP();                  // wait for the PMP to be ready
9d005368:	0f4013d4 	jal	9d004f50 <__umoddi3+0x464>
9d00536c:	3c10bf80 	lui	s0,0xbf80
  val = PMDIN;
9d005370:	8e027040 	lw	v0,28736(s0)
9d005374:	304200ff 	andi	v0,v0,0xff
9d005378:	a3a20010 	sb	v0,16(sp)
  waitPMP();
9d00537c:	0f4013d4 	jal	9d004f50 <__umoddi3+0x464>
9d005380:	00000000 	nop
  val = PMDIN;
9d005384:	8e027040 	lw	v0,28736(s0)
9d005388:	304200ff 	andi	v0,v0,0xff
9d00538c:	a3a20010 	sb	v0,16(sp)
  return val;
9d005390:	93a20010 	lbu	v0,16(sp)
}
9d005394:	304200ff 	andi	v0,v0,0xff
9d005398:	8fbf001c 	lw	ra,28(sp)
9d00539c:	8fb00018 	lw	s0,24(sp)
9d0053a0:	03e00008 	jr	ra
9d0053a4:	27bd0020 	addiu	sp,sp,32

9d0053a8 <__udivdi3>:
9d0053a8:	00c04021 	move	t0,a2
9d0053ac:	00801021 	move	v0,a0
9d0053b0:	14e0003f 	bnez	a3,9d0054b0 <__udivdi3+0x108>
9d0053b4:	00a04821 	move	t1,a1
9d0053b8:	00a6182b 	sltu	v1,a1,a2
9d0053bc:	10600047 	beqz	v1,9d0054dc <__udivdi3+0x134>
9d0053c0:	70c31820 	clz	v1,a2
9d0053c4:	50600008 	beqzl	v1,9d0053e8 <__udivdi3+0x40>
9d0053c8:	00081c02 	srl	v1,t0,0x10
9d0053cc:	00034823 	negu	t1,v1
9d0053d0:	00652804 	sllv	a1,a1,v1
9d0053d4:	01244806 	srlv	t1,a0,t1
9d0053d8:	00664004 	sllv	t0,a2,v1
9d0053dc:	01254825 	or	t1,t1,a1
9d0053e0:	00641004 	sllv	v0,a0,v1
9d0053e4:	00081c02 	srl	v1,t0,0x10
9d0053e8:	0123001b 	divu	zero,t1,v1
9d0053ec:	006001f4 	teq	v1,zero,0x7
9d0053f0:	00006010 	mfhi	t4
9d0053f4:	00005812 	mflo	t3
9d0053f8:	310affff 	andi	t2,t0,0xffff
9d0053fc:	00022402 	srl	a0,v0,0x10
9d005400:	00003012 	mflo	a2
9d005404:	716a3802 	mul	a3,t3,t2
9d005408:	000c6400 	sll	t4,t4,0x10
9d00540c:	01842025 	or	a0,t4,a0
9d005410:	0087602b 	sltu	t4,a0,a3
9d005414:	0123001b 	divu	zero,t1,v1
9d005418:	006001f4 	teq	v1,zero,0x7
9d00541c:	1180000b 	beqz	t4,9d00544c <__udivdi3+0xa4>
9d005420:	00872823 	subu	a1,a0,a3
9d005424:	00882021 	addu	a0,a0,t0
9d005428:	0088282b 	sltu	a1,a0,t0
9d00542c:	14a00006 	bnez	a1,9d005448 <__udivdi3+0xa0>
9d005430:	2566ffff 	addiu	a2,t3,-1
9d005434:	0087282b 	sltu	a1,a0,a3
9d005438:	10a00004 	beqz	a1,9d00544c <__udivdi3+0xa4>
9d00543c:	00872823 	subu	a1,a0,a3
9d005440:	2566fffe 	addiu	a2,t3,-2
9d005444:	00882021 	addu	a0,a0,t0
9d005448:	00872823 	subu	a1,a0,a3
9d00544c:	3042ffff 	andi	v0,v0,0xffff
9d005450:	00a3001b 	divu	zero,a1,v1
9d005454:	006001f4 	teq	v1,zero,0x7
9d005458:	00004810 	mfhi	t1
9d00545c:	00003812 	mflo	a3
9d005460:	00002012 	mflo	a0
9d005464:	70ea5002 	mul	t2,a3,t2
9d005468:	00094c00 	sll	t1,t1,0x10
9d00546c:	01221025 	or	v0,t1,v0
9d005470:	004a482b 	sltu	t1,v0,t2
9d005474:	00a3001b 	divu	zero,a1,v1
9d005478:	006001f4 	teq	v1,zero,0x7
9d00547c:	51200009 	beqzl	t1,9d0054a4 <__udivdi3+0xfc>
9d005480:	00061400 	sll	v0,a2,0x10
9d005484:	00481021 	addu	v0,v0,t0
9d005488:	0048402b 	sltu	t0,v0,t0
9d00548c:	15000004 	bnez	t0,9d0054a0 <__udivdi3+0xf8>
9d005490:	24e4ffff 	addiu	a0,a3,-1
9d005494:	004a502b 	sltu	t2,v0,t2
9d005498:	24e7fffe 	addiu	a3,a3,-2
9d00549c:	00ea200b 	movn	a0,a3,t2
9d0054a0:	00061400 	sll	v0,a2,0x10
9d0054a4:	00821025 	or	v0,a0,v0
9d0054a8:	03e00008 	jr	ra
9d0054ac:	00001821 	move	v1,zero
9d0054b0:	00a7102b 	sltu	v0,a1,a3
9d0054b4:	14400044 	bnez	v0,9d0055c8 <__udivdi3+0x220>
9d0054b8:	70e84020 	clz	t0,a3
9d0054bc:	55000045 	bnezl	t0,9d0055d4 <__udivdi3+0x22c>
9d0054c0:	24020020 	li	v0,32
9d0054c4:	00e5282b 	sltu	a1,a3,a1
9d0054c8:	14a000c8 	bnez	a1,9d0057ec <__udivdi3+0x444>
9d0054cc:	0086302b 	sltu	a2,a0,a2
9d0054d0:	38c20001 	xori	v0,a2,0x1
9d0054d4:	03e00008 	jr	ra
9d0054d8:	00001821 	move	v1,zero
9d0054dc:	14c00006 	bnez	a2,9d0054f8 <__udivdi3+0x150>
9d0054e0:	71031820 	clz	v1,t0
9d0054e4:	24030001 	li	v1,1
9d0054e8:	0066001b 	divu	zero,v1,a2
9d0054ec:	00c001f4 	teq	a2,zero,0x7
9d0054f0:	00004012 	mflo	t0
9d0054f4:	71031820 	clz	v1,t0
9d0054f8:	5460007b 	bnezl	v1,9d0056e8 <__udivdi3+0x340>
9d0054fc:	00684004 	sllv	t0,t0,v1
9d005500:	00a82023 	subu	a0,a1,t0
9d005504:	00083c02 	srl	a3,t0,0x10
9d005508:	310bffff 	andi	t3,t0,0xffff
9d00550c:	24030001 	li	v1,1
9d005510:	00023402 	srl	a2,v0,0x10
9d005514:	0087001b 	divu	zero,a0,a3
9d005518:	00e001f4 	teq	a3,zero,0x7
9d00551c:	00006810 	mfhi	t5
9d005520:	00006012 	mflo	t4
9d005524:	00004812 	mflo	t1
9d005528:	718b5002 	mul	t2,t4,t3
9d00552c:	000d6c00 	sll	t5,t5,0x10
9d005530:	01a63025 	or	a2,t5,a2
9d005534:	00ca682b 	sltu	t5,a2,t2
9d005538:	0087001b 	divu	zero,a0,a3
9d00553c:	00e001f4 	teq	a3,zero,0x7
9d005540:	11a00009 	beqz	t5,9d005568 <__udivdi3+0x1c0>
9d005544:	00ca2823 	subu	a1,a2,t2
9d005548:	00c83021 	addu	a2,a2,t0
9d00554c:	00c8202b 	sltu	a0,a2,t0
9d005550:	14800004 	bnez	a0,9d005564 <__udivdi3+0x1bc>
9d005554:	2589ffff 	addiu	t1,t4,-1
9d005558:	00ca202b 	sltu	a0,a2,t2
9d00555c:	548000a6 	bnezl	a0,9d0057f8 <__udivdi3+0x450>
9d005560:	2589fffe 	addiu	t1,t4,-2
9d005564:	00ca2823 	subu	a1,a2,t2
9d005568:	3042ffff 	andi	v0,v0,0xffff
9d00556c:	00a7001b 	divu	zero,a1,a3
9d005570:	00e001f4 	teq	a3,zero,0x7
9d005574:	00005010 	mfhi	t2
9d005578:	00003012 	mflo	a2
9d00557c:	00002012 	mflo	a0
9d005580:	70cb5802 	mul	t3,a2,t3
9d005584:	000a5400 	sll	t2,t2,0x10
9d005588:	01421025 	or	v0,t2,v0
9d00558c:	004b502b 	sltu	t2,v0,t3
9d005590:	00a7001b 	divu	zero,a1,a3
9d005594:	00e001f4 	teq	a3,zero,0x7
9d005598:	51400009 	beqzl	t2,9d0055c0 <__udivdi3+0x218>
9d00559c:	00091400 	sll	v0,t1,0x10
9d0055a0:	00481021 	addu	v0,v0,t0
9d0055a4:	0048402b 	sltu	t0,v0,t0
9d0055a8:	15000004 	bnez	t0,9d0055bc <__udivdi3+0x214>
9d0055ac:	24c4ffff 	addiu	a0,a2,-1
9d0055b0:	004b582b 	sltu	t3,v0,t3
9d0055b4:	24c6fffe 	addiu	a2,a2,-2
9d0055b8:	00cb200b 	movn	a0,a2,t3
9d0055bc:	00091400 	sll	v0,t1,0x10
9d0055c0:	03e00008 	jr	ra
9d0055c4:	00821025 	or	v0,a0,v0
9d0055c8:	00001821 	move	v1,zero
9d0055cc:	03e00008 	jr	ra
9d0055d0:	00001021 	move	v0,zero
9d0055d4:	00481023 	subu	v0,v0,t0
9d0055d8:	01073804 	sllv	a3,a3,t0
9d0055dc:	00461806 	srlv	v1,a2,v0
9d0055e0:	00673825 	or	a3,v1,a3
9d0055e4:	00455006 	srlv	t2,a1,v0
9d0055e8:	00071c02 	srl	v1,a3,0x10
9d0055ec:	0143001b 	divu	zero,t2,v1
9d0055f0:	006001f4 	teq	v1,zero,0x7
9d0055f4:	00004810 	mfhi	t1
9d0055f8:	00006812 	mflo	t5
9d0055fc:	30ebffff 	andi	t3,a3,0xffff
9d005600:	01052804 	sllv	a1,a1,t0
9d005604:	00441006 	srlv	v0,a0,v0
9d005608:	00452825 	or	a1,v0,a1
9d00560c:	00057402 	srl	t6,a1,0x10
9d005610:	00001012 	mflo	v0
9d005614:	71ab6002 	mul	t4,t5,t3
9d005618:	00094c00 	sll	t1,t1,0x10
9d00561c:	012e4825 	or	t1,t1,t6
9d005620:	012c702b 	sltu	t6,t1,t4
9d005624:	0143001b 	divu	zero,t2,v1
9d005628:	006001f4 	teq	v1,zero,0x7
9d00562c:	11c0000a 	beqz	t6,9d005658 <__udivdi3+0x2b0>
9d005630:	01063004 	sllv	a2,a2,t0
9d005634:	01274821 	addu	t1,t1,a3
9d005638:	0127502b 	sltu	t2,t1,a3
9d00563c:	15400006 	bnez	t2,9d005658 <__udivdi3+0x2b0>
9d005640:	25a2ffff 	addiu	v0,t5,-1
9d005644:	012c502b 	sltu	t2,t1,t4
9d005648:	51400004 	beqzl	t2,9d00565c <__udivdi3+0x2b4>
9d00564c:	012c4823 	subu	t1,t1,t4
9d005650:	25a2fffe 	addiu	v0,t5,-2
9d005654:	01274821 	addu	t1,t1,a3
9d005658:	012c4823 	subu	t1,t1,t4
9d00565c:	30a5ffff 	andi	a1,a1,0xffff
9d005660:	0123001b 	divu	zero,t1,v1
9d005664:	006001f4 	teq	v1,zero,0x7
9d005668:	00006810 	mfhi	t5
9d00566c:	00006012 	mflo	t4
9d005670:	00005012 	mflo	t2
9d005674:	718b5802 	mul	t3,t4,t3
9d005678:	000d6c00 	sll	t5,t5,0x10
9d00567c:	01a52825 	or	a1,t5,a1
9d005680:	00ab682b 	sltu	t5,a1,t3
9d005684:	0123001b 	divu	zero,t1,v1
9d005688:	006001f4 	teq	v1,zero,0x7
9d00568c:	51a0000b 	beqzl	t5,9d0056bc <__udivdi3+0x314>
9d005690:	00021400 	sll	v0,v0,0x10
9d005694:	00a72821 	addu	a1,a1,a3
9d005698:	00a7182b 	sltu	v1,a1,a3
9d00569c:	14600006 	bnez	v1,9d0056b8 <__udivdi3+0x310>
9d0056a0:	258affff 	addiu	t2,t4,-1
9d0056a4:	00ab182b 	sltu	v1,a1,t3
9d0056a8:	50600004 	beqzl	v1,9d0056bc <__udivdi3+0x314>
9d0056ac:	00021400 	sll	v0,v0,0x10
9d0056b0:	258afffe 	addiu	t2,t4,-2
9d0056b4:	00a72821 	addu	a1,a1,a3
9d0056b8:	00021400 	sll	v0,v0,0x10
9d0056bc:	01421025 	or	v0,t2,v0
9d0056c0:	00ab2823 	subu	a1,a1,t3
9d0056c4:	00460019 	multu	v0,a2
9d0056c8:	00003810 	mfhi	a3
9d0056cc:	00a7182b 	sltu	v1,a1,a3
9d0056d0:	14600044 	bnez	v1,9d0057e4 <__udivdi3+0x43c>
9d0056d4:	00003012 	mflo	a2
9d0056d8:	10a7003f 	beq	a1,a3,9d0057d8 <__udivdi3+0x430>
9d0056dc:	01042004 	sllv	a0,a0,t0
9d0056e0:	03e00008 	jr	ra
9d0056e4:	00001821 	move	v1,zero
9d0056e8:	24020020 	li	v0,32
9d0056ec:	00431023 	subu	v0,v0,v1
9d0056f0:	00454806 	srlv	t1,a1,v0
9d0056f4:	00083c02 	srl	a3,t0,0x10
9d0056f8:	0127001b 	divu	zero,t1,a3
9d0056fc:	00e001f4 	teq	a3,zero,0x7
9d005700:	00003010 	mfhi	a2
9d005704:	00006012 	mflo	t4
9d005708:	310bffff 	andi	t3,t0,0xffff
9d00570c:	00652804 	sllv	a1,a1,v1
9d005710:	00441006 	srlv	v0,a0,v0
9d005714:	00452825 	or	a1,v0,a1
9d005718:	00056c02 	srl	t5,a1,0x10
9d00571c:	00641004 	sllv	v0,a0,v1
9d005720:	00001812 	mflo	v1
9d005724:	718b5002 	mul	t2,t4,t3
9d005728:	00063400 	sll	a2,a2,0x10
9d00572c:	01a63025 	or	a2,t5,a2
9d005730:	00ca202b 	sltu	a0,a2,t2
9d005734:	0127001b 	divu	zero,t1,a3
9d005738:	00e001f4 	teq	a3,zero,0x7
9d00573c:	5080000b 	beqzl	a0,9d00576c <__udivdi3+0x3c4>
9d005740:	00ca3023 	subu	a2,a2,t2
9d005744:	00c83021 	addu	a2,a2,t0
9d005748:	00c8202b 	sltu	a0,a2,t0
9d00574c:	14800006 	bnez	a0,9d005768 <__udivdi3+0x3c0>
9d005750:	2583ffff 	addiu	v1,t4,-1
9d005754:	00ca202b 	sltu	a0,a2,t2
9d005758:	50800004 	beqzl	a0,9d00576c <__udivdi3+0x3c4>
9d00575c:	00ca3023 	subu	a2,a2,t2
9d005760:	2583fffe 	addiu	v1,t4,-2
9d005764:	00c83021 	addu	a2,a2,t0
9d005768:	00ca3023 	subu	a2,a2,t2
9d00576c:	30acffff 	andi	t4,a1,0xffff
9d005770:	00c7001b 	divu	zero,a2,a3
9d005774:	00e001f4 	teq	a3,zero,0x7
9d005778:	00002010 	mfhi	a0
9d00577c:	00005012 	mflo	t2
9d005780:	00004812 	mflo	t1
9d005784:	714b2802 	mul	a1,t2,t3
9d005788:	00042400 	sll	a0,a0,0x10
9d00578c:	008c2025 	or	a0,a0,t4
9d005790:	0085602b 	sltu	t4,a0,a1
9d005794:	00c7001b 	divu	zero,a2,a3
9d005798:	00e001f4 	teq	a3,zero,0x7
9d00579c:	5180000b 	beqzl	t4,9d0057cc <__udivdi3+0x424>
9d0057a0:	00031c00 	sll	v1,v1,0x10
9d0057a4:	00882021 	addu	a0,a0,t0
9d0057a8:	0088302b 	sltu	a2,a0,t0
9d0057ac:	14c00006 	bnez	a2,9d0057c8 <__udivdi3+0x420>
9d0057b0:	2549ffff 	addiu	t1,t2,-1
9d0057b4:	0085302b 	sltu	a2,a0,a1
9d0057b8:	50c00004 	beqzl	a2,9d0057cc <__udivdi3+0x424>
9d0057bc:	00031c00 	sll	v1,v1,0x10
9d0057c0:	2549fffe 	addiu	t1,t2,-2
9d0057c4:	00882021 	addu	a0,a0,t0
9d0057c8:	00031c00 	sll	v1,v1,0x10
9d0057cc:	00852023 	subu	a0,a0,a1
9d0057d0:	0b401544 	j	9d005510 <__udivdi3+0x168>
9d0057d4:	01231825 	or	v1,t1,v1
9d0057d8:	0086302b 	sltu	a2,a0,a2
9d0057dc:	10c0ffc0 	beqz	a2,9d0056e0 <__udivdi3+0x338>
9d0057e0:	00000000 	nop
9d0057e4:	0b4015b8 	j	9d0056e0 <__udivdi3+0x338>
9d0057e8:	2442ffff 	addiu	v0,v0,-1
9d0057ec:	00001821 	move	v1,zero
9d0057f0:	03e00008 	jr	ra
9d0057f4:	24020001 	li	v0,1
9d0057f8:	0b401559 	j	9d005564 <__udivdi3+0x1bc>
9d0057fc:	00c83021 	addu	a2,a2,t0

Disassembly of section .text.dp32subadd:

9d005800 <__subdf3>:
9d005800:	3c018000 00e13826                       ...<&8..

9d005808 <__adddf3>:
9d005808:	00055840 000b5d42 000552c0 00047d42     @X..B]...R..B}..
9d005818:	014f5025 00044ac0 3c088000 01485025     %PO..J.....<%PH.
9d005828:	00077040 000e7542 00076ac0 00067d42     @p..Bu...j..B}..
9d005838:	01af6825 000662c0 01a86825 256fffff     %h...b..%h....o%
9d005848:	2de107fe 1020008d 00000000              ...-.. .....

9d005854 <Blab1>:
9d005854:	25cfffff 	addiu	t7,t6,-1
9d005858:	2de107fe 	sltiu	at,t7,2046
9d00585c:	102000bb 	beqz	at,9d005b4c <BspecB>
9d005860:	00000000 	nop

9d005864 <Blab2>:
9d005864:	3c018000 	lui	at,0x8000
9d005868:	00a12824 	and	a1,a1,at
9d00586c:	016e4023 	subu	t0,t3,t6
9d005870:	1100002c 	beqz	t0,9d005924 <Badd3>
9d005874:	00000000 	nop
9d005878:	19000015 	blez	t0,9d0058d0 <i1>
9d00587c:	00000000 	nop

9d005880 <L1>:
9d005880:	2d010020 	sltiu	at,t0,32
9d005884:	14200007 	bnez	at,9d0058a4 <L2>
9d005888:	00000000 	nop
9d00588c:	2108ffe0 	addi	t0,t0,-32
9d005890:	000c302b 	sltu	a2,zero,t4
9d005894:	100d0023 	beq	zero,t5,9d005924 <Badd3>
9d005898:	01a66025 	or	t4,t5,a2
9d00589c:	1000fff8 	b	9d005880 <L1>
9d0058a0:	340d0000 	li	t5,0x0

9d0058a4 <L2>:
9d0058a4:	1100001f 	beqz	t0,9d005924 <Badd3>
9d0058a8:	00000000 	nop
9d0058ac:	00082022 	neg	a0,t0
9d0058b0:	008c3004 	sllv	a2,t4,a0
9d0058b4:	008d2004 	sllv	a0,t5,a0
9d0058b8:	010c6006 	srlv	t4,t4,t0
9d0058bc:	010d6806 	srlv	t5,t5,t0
9d0058c0:	10c00018 	beqz	a2,9d005924 <Badd3>
9d0058c4:	008c6025 	or	t4,a0,t4
9d0058c8:	10000016 	b	9d005924 <Badd3>
9d0058cc:	358c0002 	ori	t4,t4,0x2

9d0058d0 <i1>:
9d0058d0:	000e5825 	or	t3,zero,t6
9d0058d4:	00084023 	negu	t0,t0

9d0058d8 <L4>:
9d0058d8:	2d010020 	sltiu	at,t0,32
9d0058dc:	14200007 	bnez	at,9d0058fc <L5>
9d0058e0:	00000000 	nop
9d0058e4:	2108ffe0 	addi	t0,t0,-32
9d0058e8:	0009302b 	sltu	a2,zero,t1
9d0058ec:	100a000d 	beq	zero,t2,9d005924 <Badd3>
9d0058f0:	01464825 	or	t1,t2,a2
9d0058f4:	1000fff8 	b	9d0058d8 <L4>
9d0058f8:	340a0000 	li	t2,0x0

9d0058fc <L5>:
9d0058fc:	11000009 	beqz	t0,9d005924 <Badd3>
9d005900:	00000000 	nop
9d005904:	00082022 	neg	a0,t0
9d005908:	00893004 	sllv	a2,t1,a0
9d00590c:	008a2004 	sllv	a0,t2,a0
9d005910:	01094806 	srlv	t1,t1,t0
9d005914:	010a5006 	srlv	t2,t2,t0
9d005918:	10c00002 	beqz	a2,9d005924 <Badd3>
9d00591c:	00894825 	or	t1,a0,t1
9d005920:	35290002 	ori	t1,t1,0x2

9d005924 <Badd3>:
9d005924:	00a77826 	xor	t7,a1,a3
9d005928:	05e0001c 	bltz	t7,9d00599c <Bsub1>
9d00592c:	00000000 	nop
9d005930:	012c4821 	addu	t1,t1,t4
9d005934:	012c782b 	sltu	t7,t1,t4
9d005938:	014d5021 	addu	t2,t2,t5
9d00593c:	014f5021 	addu	t2,t2,t7
9d005940:	114d0002 	beq	t2,t5,9d00594c <L7>
9d005944:	00000000 	nop
9d005948:	014d782b 	sltu	t7,t2,t5

9d00594c <L7>:
9d00594c:	11e00037 	beqz	t7,9d005a2c <Bres>
9d005950:	00000000 	nop
9d005954:	312f0001 	andi	t7,t1,0x1
9d005958:	11e00002 	beqz	t7,9d005964 <i3>
9d00595c:	00000000 	nop
9d005960:	35290002 	ori	t1,t1,0x2

9d005964 <i3>:
9d005964:	00094842 	srl	t1,t1,0x1
9d005968:	000a7fc0 	sll	t7,t2,0x1f
9d00596c:	012f4825 	or	t1,t1,t7
9d005970:	000a5042 	srl	t2,t2,0x1
9d005974:	3c018000 	lui	at,0x8000
9d005978:	01415025 	or	t2,t2,at
9d00597c:	256b0001 	addiu	t3,t3,1
9d005980:	240107ff 	li	at,2047
9d005984:	15610029 	bne	t3,at,9d005a2c <Bres>
9d005988:	00000000 	nop
9d00598c:	3c017ff0 	lui	at,0x7ff0
9d005990:	00a12825 	or	a1,a1,at
9d005994:	10000037 	b	9d005a74 <BretA>
9d005998:	24040000 	li	a0,0

9d00599c <Bsub1>:
9d00599c:	012c782b 	sltu	t7,t1,t4
9d0059a0:	012c4823 	subu	t1,t1,t4
9d0059a4:	014f102b 	sltu	v0,t2,t7
9d0059a8:	014f5023 	subu	t2,t2,t7
9d0059ac:	014d782b 	sltu	t7,t2,t5
9d0059b0:	01e27825 	or	t7,t7,v0
9d0059b4:	11e00007 	beqz	t7,9d0059d4 <i5>
9d0059b8:	014d5023 	subu	t2,t2,t5
9d0059bc:	3c018000 	lui	at,0x8000
9d0059c0:	00a12826 	xor	a1,a1,at
9d0059c4:	0009782b 	sltu	t7,zero,t1
9d0059c8:	00094823 	negu	t1,t1
9d0059cc:	000a5023 	negu	t2,t2
9d0059d0:	014f5023 	subu	t2,t2,t7

9d0059d4 <i5>:
9d0059d4:	15400008 	bnez	t2,9d0059f8 <L8>
9d0059d8:	00000000 	nop
9d0059dc:	15200003 	bnez	t1,9d0059ec <L9>
9d0059e0:	00000000 	nop
9d0059e4:	1000000d 	b	9d005a1c <L10>
9d0059e8:	240b0000 	li	t3,0

9d0059ec <L9>:
9d0059ec:	01205025 	move	t2,t1
9d0059f0:	24090000 	li	t1,0
9d0059f4:	256bffe0 	addiu	t3,t3,-32

9d0059f8 <L8>:
9d0059f8:	71484020 	clz	t0,t2
9d0059fc:	11000007 	beqz	t0,9d005a1c <L10>
9d005a00:	00000000 	nop
9d005a04:	01685823 	subu	t3,t3,t0
9d005a08:	00082022 	neg	a0,t0
9d005a0c:	00892006 	srlv	a0,t1,a0
9d005a10:	01094804 	sllv	t1,t1,t0
9d005a14:	010a5004 	sllv	t2,t2,t0
9d005a18:	01445025 	or	t2,t2,a0

9d005a1c <L10>:
9d005a1c:	01497825 	or	t7,t2,t1
9d005a20:	15e00002 	bnez	t7,9d005a2c <Bres>
9d005a24:	00000000 	nop
9d005a28:	24050000 	li	a1,0

9d005a2c <Bres>:
9d005a2c:	19600068 	blez	t3,9d005bd0 <Bund>
9d005a30:	00000000 	nop

9d005a34 <Blab8>:
9d005a34:	25290400 	addiu	t1,t1,1024
9d005a38:	2d2f0400 	sltiu	t7,t1,1024
9d005a3c:	014f5021 	addu	t2,t2,t7
9d005a40:	014f782b 	sltu	t7,t2,t7
9d005a44:	016f5821 	addu	t3,t3,t7
9d005a48:	00097ac2 	srl	t7,t1,0xb
9d005a4c:	31ef0001 	andi	t7,t7,0x1
9d005a50:	012f4823 	subu	t1,t1,t7
9d005a54:	000922c2 	srl	a0,t1,0xb
9d005a58:	000a7d40 	sll	t7,t2,0x15
9d005a5c:	008f2025 	or	a0,a0,t7
9d005a60:	000a7840 	sll	t7,t2,0x1
9d005a64:	000f7b02 	srl	t7,t7,0xc
9d005a68:	00af2825 	or	a1,a1,t7
9d005a6c:	000b7d00 	sll	t7,t3,0x14
9d005a70:	00af2825 	or	a1,a1,t7

9d005a74 <BretA>:
9d005a74:	00041025 	or	v0,zero,a0
9d005a78:	00051825 	or	v1,zero,a1

9d005a7c <B999>:
9d005a7c:	03e00008 	jr	ra
9d005a80:	00000000 	nop

9d005a84 <BspecA>:
9d005a84:	0120782a 	slt	t7,t1,zero
9d005a88:	01294821 	addu	t1,t1,t1
9d005a8c:	014a5021 	addu	t2,t2,t2
9d005a90:	15600023 	bnez	t3,9d005b20 <i7>
9d005a94:	014f5021 	addu	t2,t2,t7
9d005a98:	01497825 	or	t7,t2,t1
9d005a9c:	11e00014 	beqz	t7,9d005af0 <i8>
9d005aa0:	00000000 	nop
9d005aa4:	15400008 	bnez	t2,9d005ac8 <L11>
9d005aa8:	00000000 	nop
9d005aac:	15200003 	bnez	t1,9d005abc <L12>
9d005ab0:	00000000 	nop
9d005ab4:	1000ff67 	b	9d005854 <Blab1>
9d005ab8:	240b0000 	li	t3,0

9d005abc <L12>:
9d005abc:	01205025 	move	t2,t1
9d005ac0:	24090000 	li	t1,0
9d005ac4:	256bffe0 	addiu	t3,t3,-32

9d005ac8 <L11>:
9d005ac8:	71484020 	clz	t0,t2
9d005acc:	1100ff61 	beqz	t0,9d005854 <Blab1>
9d005ad0:	00000000 	nop
9d005ad4:	01685823 	subu	t3,t3,t0
9d005ad8:	00082022 	neg	a0,t0
9d005adc:	00892006 	srlv	a0,t1,a0
9d005ae0:	01094804 	sllv	t1,t1,t0
9d005ae4:	010a5004 	sllv	t2,t2,t0
9d005ae8:	1000ff5a 	b	9d005854 <Blab1>
9d005aec:	01445025 	or	t2,t2,a0

9d005af0 <i8>:
9d005af0:	240107ff 	li	at,2047
9d005af4:	11c10015 	beq	t6,at,9d005b4c <BspecB>
9d005af8:	00000000 	nop
9d005afc:	00e74021 	addu	t0,a3,a3
9d005b00:	01067825 	or	t7,t0,a2
9d005b04:	15e00003 	bnez	t7,9d005b14 <BretB>
9d005b08:	00000000 	nop
9d005b0c:	04e0ffd9 	bltz	a3,9d005a74 <BretA>
9d005b10:	00000000 	nop

9d005b14 <BretB>:
9d005b14:	00061025 	or	v0,zero,a2
9d005b18:	1000ffd8 	b	9d005a7c <B999>
9d005b1c:	00071825 	or	v1,zero,a3

9d005b20 <i7>:
9d005b20:	01497825 	or	t7,t2,t1
9d005b24:	15e00027 	bnez	t7,9d005bc4 <Bnan>
9d005b28:	00000000 	nop
9d005b2c:	240107ff 	li	at,2047
9d005b30:	15c1ffd0 	bne	t6,at,9d005a74 <BretA>
9d005b34:	00000000 	nop
9d005b38:	00a77826 	xor	t7,a1,a3
9d005b3c:	05e00021 	bltz	t7,9d005bc4 <Bnan>
9d005b40:	00000000 	nop
9d005b44:	1000fff3 	b	9d005b14 <BretB>
9d005b48:	00000000 	nop

9d005b4c <BspecB>:
9d005b4c:	0180782a 	slt	t7,t4,zero
9d005b50:	018c6021 	addu	t4,t4,t4
9d005b54:	01ad6821 	addu	t5,t5,t5
9d005b58:	15c00017 	bnez	t6,9d005bb8 <i11>
9d005b5c:	01af6821 	addu	t5,t5,t7
9d005b60:	01ac7825 	or	t7,t5,t4
9d005b64:	11e0ffc3 	beqz	t7,9d005a74 <BretA>
9d005b68:	00000000 	nop
9d005b6c:	15a00008 	bnez	t5,9d005b90 <L14>
9d005b70:	00000000 	nop
9d005b74:	15800003 	bnez	t4,9d005b84 <L15>
9d005b78:	00000000 	nop
9d005b7c:	1000ff39 	b	9d005864 <Blab2>
9d005b80:	240e0000 	li	t6,0

9d005b84 <L15>:
9d005b84:	01806825 	move	t5,t4
9d005b88:	240c0000 	li	t4,0
9d005b8c:	25ceffe0 	addiu	t6,t6,-32

9d005b90 <L14>:
9d005b90:	71a84020 	clz	t0,t5
9d005b94:	1100ff33 	beqz	t0,9d005864 <Blab2>
9d005b98:	00000000 	nop
9d005b9c:	01c87023 	subu	t6,t6,t0
9d005ba0:	00082022 	neg	a0,t0
9d005ba4:	008c2006 	srlv	a0,t4,a0
9d005ba8:	010c6004 	sllv	t4,t4,t0
9d005bac:	010d6804 	sllv	t5,t5,t0
9d005bb0:	1000ff2c 	b	9d005864 <Blab2>
9d005bb4:	01a46825 	or	t5,t5,a0

9d005bb8 <i11>:
9d005bb8:	01ac7825 	or	t7,t5,t4
9d005bbc:	11e0ffd5 	beqz	t7,9d005b14 <BretB>
9d005bc0:	00000000 	nop

9d005bc4 <Bnan>:
9d005bc4:	3c05fff8 	lui	a1,0xfff8
9d005bc8:	1000ffaa 	b	9d005a74 <BretA>
9d005bcc:	24040000 	li	a0,0

9d005bd0 <Bund>:
9d005bd0:	24080001 	li	t0,1
9d005bd4:	010b4023 	subu	t0,t0,t3

9d005bd8 <L17>:
9d005bd8:	2d010020 	sltiu	at,t0,32
9d005bdc:	14200007 	bnez	at,9d005bfc <L18>
9d005be0:	00000000 	nop
9d005be4:	2108ffe0 	addi	t0,t0,-32
9d005be8:	0009302b 	sltu	a2,zero,t1
9d005bec:	100a000d 	beq	zero,t2,9d005c24 <L19>
9d005bf0:	01464825 	or	t1,t2,a2
9d005bf4:	1000fff8 	b	9d005bd8 <L17>
9d005bf8:	340a0000 	li	t2,0x0

9d005bfc <L18>:
9d005bfc:	11000009 	beqz	t0,9d005c24 <L19>
9d005c00:	00000000 	nop
9d005c04:	00082022 	neg	a0,t0
9d005c08:	00893004 	sllv	a2,t1,a0
9d005c0c:	008a2004 	sllv	a0,t2,a0
9d005c10:	01094806 	srlv	t1,t1,t0
9d005c14:	010a5006 	srlv	t2,t2,t0
9d005c18:	10c00002 	beqz	a2,9d005c24 <L19>
9d005c1c:	00894825 	or	t1,a0,t1
9d005c20:	35290002 	ori	t1,t1,0x2

9d005c24 <L19>:
9d005c24:	1000ff83 	b	9d005a34 <Blab8>
9d005c28:	240b0000 	li	t3,0
9d005c2c:	00000000 	nop

Disassembly of section .text.__strtod:

9d005c30 <__strtod>:
9d005c30:	27bdffc8 	addiu	sp,sp,-56
9d005c34:	afbf0034 	sw	ra,52(sp)
9d005c38:	afbe0030 	sw	s8,48(sp)
9d005c3c:	afb7002c 	sw	s7,44(sp)
9d005c40:	afb60028 	sw	s6,40(sp)
9d005c44:	afb50024 	sw	s5,36(sp)
9d005c48:	afb40020 	sw	s4,32(sp)
9d005c4c:	afb3001c 	sw	s3,28(sp)
9d005c50:	afb20018 	sw	s2,24(sp)
9d005c54:	afb10014 	sw	s1,20(sp)
9d005c58:	afb00010 	sw	s0,16(sp)
9d005c5c:	0080b821 	move	s7,a0
9d005c60:	80820000 	lb	v0,0(a0)
9d005c64:	3c1e9d00 	lui	s8,0x9d00
9d005c68:	27de7f99 	addiu	s8,s8,32665
9d005c6c:	03c21821 	addu	v1,s8,v0
9d005c70:	80630000 	lb	v1,0(v1)
9d005c74:	00a0a821 	move	s5,a1
9d005c78:	30630088 	andi	v1,v1,0x88
9d005c7c:	10600008 	beqz	v1,9d005ca0 <__strtod+0x70>
9d005c80:	0080a021 	move	s4,a0
9d005c84:	26940001 	addiu	s4,s4,1
9d005c88:	82820000 	lb	v0,0(s4)
9d005c8c:	03c21821 	addu	v1,s8,v0
9d005c90:	80630000 	lb	v1,0(v1)
9d005c94:	30630088 	andi	v1,v1,0x88
9d005c98:	5460fffb 	bnezl	v1,9d005c88 <__strtod+0x58>
9d005c9c:	26940001 	addiu	s4,s4,1
9d005ca0:	2403002d 	li	v1,45
9d005ca4:	10430098 	beq	v0,v1,9d005f08 <__strtod+0x2d8>
9d005ca8:	3842002b 	xori	v0,v0,0x2b
9d005cac:	2c420001 	sltiu	v0,v0,1
9d005cb0:	00009821 	move	s3,zero
9d005cb4:	0282a021 	addu	s4,s4,v0
9d005cb8:	82860000 	lb	a2,0(s4)
9d005cbc:	03c61021 	addu	v0,s8,a2
9d005cc0:	90420000 	lbu	v0,0(v0)
9d005cc4:	30420004 	andi	v0,v0,0x4
9d005cc8:	00008821 	move	s1,zero
9d005ccc:	104000bc 	beqz	v0,9d005fc0 <__strtod+0x390>
9d005cd0:	00008021 	move	s0,zero
9d005cd4:	00009021 	move	s2,zero
9d005cd8:	24d6ffd0 	addiu	s6,a2,-48
9d005cdc:	02002821 	move	a1,s0
9d005ce0:	02202021 	move	a0,s1
9d005ce4:	00003021 	move	a2,zero
9d005ce8:	0f4018d6 	jal	9d006358 <.LFE23>
9d005cec:	3c074024 	lui	a3,0x4024
9d005cf0:	00408021 	move	s0,v0
9d005cf4:	00608821 	move	s1,v1
9d005cf8:	0f4022a2 	jal	9d008a88 <__floatsidf>
9d005cfc:	02c02021 	move	a0,s6
9d005d00:	02002021 	move	a0,s0
9d005d04:	02202821 	move	a1,s1
9d005d08:	00403021 	move	a2,v0
9d005d0c:	00603821 	move	a3,v1
9d005d10:	0f401602 	jal	9d005808 <__adddf3>
9d005d14:	26940001 	addiu	s4,s4,1
9d005d18:	00408821 	move	s1,v0
9d005d1c:	00608021 	move	s0,v1
9d005d20:	82860000 	lb	a2,0(s4)
9d005d24:	03c61021 	addu	v0,s8,a2
9d005d28:	90420000 	lbu	v0,0(v0)
9d005d2c:	30420004 	andi	v0,v0,0x4
9d005d30:	1440ffe9 	bnez	v0,9d005cd8 <__strtod+0xa8>
9d005d34:	02569025 	or	s2,s2,s6
9d005d38:	24030001 	li	v1,1
9d005d3c:	2402002e 	li	v0,46
9d005d40:	50c20048 	beql	a2,v0,9d005e64 <__strtod+0x234>
9d005d44:	82820001 	lb	v0,1(s4)
9d005d48:	54600072 	bnezl	v1,9d005f14 <__strtod+0x2e4>
9d005d4c:	82820000 	lb	v0,0(s4)
9d005d50:	12a0002a 	beqz	s5,9d005dfc <__strtod+0x1cc>
9d005d54:	00000000 	nop
9d005d58:	02e0a021 	move	s4,s7
9d005d5c:	0000b821 	move	s7,zero
9d005d60:	aeb40000 	sw	s4,0(s5)
9d005d64:	12e00025 	beqz	s7,9d005dfc <__strtod+0x1cc>
9d005d68:	00004021 	move	t0,zero
9d005d6c:	001717c3 	sra	v0,s7,0x1f
9d005d70:	0057b026 	xor	s6,v0,s7
9d005d74:	02c2b023 	subu	s6,s6,v0
9d005d78:	3c159d01 	lui	s5,0x9d01
9d005d7c:	26b58f5c 	addiu	s5,s5,-28836
9d005d80:	3c093ff0 	lui	t1,0x3ff0
9d005d84:	0b401765 	j	9d005d94 <__strtod+0x164>
9d005d88:	24140009 	li	s4,9
9d005d8c:	1280000e 	beqz	s4,9d005dc8 <__strtod+0x198>
9d005d90:	26b5fff8 	addiu	s5,s5,-8
9d005d94:	2694ffff 	addiu	s4,s4,-1
9d005d98:	02961007 	srav	v0,s6,s4
9d005d9c:	30420001 	andi	v0,v0,0x1
9d005da0:	1040fffa 	beqz	v0,9d005d8c <__strtod+0x15c>
9d005da4:	01002021 	move	a0,t0
9d005da8:	8ea60000 	lw	a2,0(s5)
9d005dac:	8ea70004 	lw	a3,4(s5)
9d005db0:	0f4018d6 	jal	9d006358 <.LFE23>
9d005db4:	01202821 	move	a1,t1
9d005db8:	00404021 	move	t0,v0
9d005dbc:	00604821 	move	t1,v1
9d005dc0:	1680fff4 	bnez	s4,9d005d94 <__strtod+0x164>
9d005dc4:	26b5fff8 	addiu	s5,s5,-8
9d005dc8:	02202021 	move	a0,s1
9d005dcc:	02002821 	move	a1,s0
9d005dd0:	01003021 	move	a2,t0
9d005dd4:	06e00075 	bltz	s7,9d005fac <__strtod+0x37c>
9d005dd8:	01203821 	move	a3,t1
9d005ddc:	0f4018d6 	jal	9d006358 <.LFE23>
9d005de0:	00000000 	nop
9d005de4:	00402021 	move	a0,v0
9d005de8:	00602821 	move	a1,v1
9d005dec:	0f401cb7 	jal	9d0072dc <__ldexp>
9d005df0:	02e03021 	move	a2,s7
9d005df4:	00408821 	move	s1,v0
9d005df8:	00608021 	move	s0,v1
9d005dfc:	1220007b 	beqz	s1,9d005fec <__strtod+0x3bc>
9d005e00:	7e02f000 	ext	v0,s0,0x0,0x1f
9d005e04:	02301025 	or	v0,s1,s0
9d005e08:	10400073 	beqz	v0,9d005fd8 <__strtod+0x3a8>
9d005e0c:	00000000 	nop
9d005e10:	12600007 	beqz	s3,9d005e30 <__strtod+0x200>
9d005e14:	02201021 	move	v0,s1
9d005e18:	02202021 	move	a0,s1
9d005e1c:	0f40243b 	jal	9d0090ec <.LFE1>
9d005e20:	02002821 	move	a1,s0
9d005e24:	00408821 	move	s1,v0
9d005e28:	00608021 	move	s0,v1
9d005e2c:	02201021 	move	v0,s1
9d005e30:	02001821 	move	v1,s0
9d005e34:	8fbf0034 	lw	ra,52(sp)
9d005e38:	8fbe0030 	lw	s8,48(sp)
9d005e3c:	8fb7002c 	lw	s7,44(sp)
9d005e40:	8fb60028 	lw	s6,40(sp)
9d005e44:	8fb50024 	lw	s5,36(sp)
9d005e48:	8fb40020 	lw	s4,32(sp)
9d005e4c:	8fb3001c 	lw	s3,28(sp)
9d005e50:	8fb20018 	lw	s2,24(sp)
9d005e54:	8fb10014 	lw	s1,20(sp)
9d005e58:	8fb00010 	lw	s0,16(sp)
9d005e5c:	03e00008 	jr	ra
9d005e60:	27bd0038 	addiu	sp,sp,56
9d005e64:	03c22021 	addu	a0,s8,v0
9d005e68:	90840000 	lbu	a0,0(a0)
9d005e6c:	30840004 	andi	a0,a0,0x4
9d005e70:	1080ffb5 	beqz	a0,9d005d48 <__strtod+0x118>
9d005e74:	26940001 	addiu	s4,s4,1
9d005e78:	0000b821 	move	s7,zero
9d005e7c:	2456ffd0 	addiu	s6,v0,-48
9d005e80:	02002821 	move	a1,s0
9d005e84:	02202021 	move	a0,s1
9d005e88:	00003021 	move	a2,zero
9d005e8c:	0f4018d6 	jal	9d006358 <.LFE23>
9d005e90:	3c074024 	lui	a3,0x4024
9d005e94:	00408021 	move	s0,v0
9d005e98:	00608821 	move	s1,v1
9d005e9c:	0f4022a2 	jal	9d008a88 <__floatsidf>
9d005ea0:	02c02021 	move	a0,s6
9d005ea4:	02002021 	move	a0,s0
9d005ea8:	02202821 	move	a1,s1
9d005eac:	00403021 	move	a2,v0
9d005eb0:	00603821 	move	a3,v1
9d005eb4:	0f401602 	jal	9d005808 <__adddf3>
9d005eb8:	26940001 	addiu	s4,s4,1
9d005ebc:	00408821 	move	s1,v0
9d005ec0:	00608021 	move	s0,v1
9d005ec4:	82820000 	lb	v0,0(s4)
9d005ec8:	02569025 	or	s2,s2,s6
9d005ecc:	03c21821 	addu	v1,s8,v0
9d005ed0:	90630000 	lbu	v1,0(v1)
9d005ed4:	30630004 	andi	v1,v1,0x4
9d005ed8:	1460ffe8 	bnez	v1,9d005e7c <__strtod+0x24c>
9d005edc:	26f7ffff 	addiu	s7,s7,-1
9d005ee0:	2403ffdf 	li	v1,-33
9d005ee4:	00431824 	and	v1,v0,v1
9d005ee8:	7c031c20 	seb	v1,v1
9d005eec:	24020045 	li	v0,69
9d005ef0:	5062000f 	beql	v1,v0,9d005f30 <__strtod+0x300>
9d005ef4:	82830001 	lb	v1,1(s4)
9d005ef8:	56a0ff9a 	bnezl	s5,9d005d64 <__strtod+0x134>
9d005efc:	aeb40000 	sw	s4,0(s5)
9d005f00:	0b401759 	j	9d005d64 <__strtod+0x134>
9d005f04:	00000000 	nop
9d005f08:	26940001 	addiu	s4,s4,1
9d005f0c:	0b40172e 	j	9d005cb8 <__strtod+0x88>
9d005f10:	24130001 	li	s3,1
9d005f14:	2403ffdf 	li	v1,-33
9d005f18:	00431824 	and	v1,v0,v1
9d005f1c:	7c031c20 	seb	v1,v1
9d005f20:	24020045 	li	v0,69
9d005f24:	1462fff4 	bne	v1,v0,9d005ef8 <__strtod+0x2c8>
9d005f28:	0000b821 	move	s7,zero
9d005f2c:	82830001 	lb	v1,1(s4)
9d005f30:	2402002d 	li	v0,45
9d005f34:	10620019 	beq	v1,v0,9d005f9c <__strtod+0x36c>
9d005f38:	2402002b 	li	v0,43
9d005f3c:	50620023 	beql	v1,v0,9d005fcc <__strtod+0x39c>
9d005f40:	82830002 	lb	v1,2(s4)
9d005f44:	26940001 	addiu	s4,s4,1
9d005f48:	00003821 	move	a3,zero
9d005f4c:	03c31021 	addu	v0,s8,v1
9d005f50:	90420000 	lbu	v0,0(v0)
9d005f54:	30420004 	andi	v0,v0,0x4
9d005f58:	1040000c 	beqz	v0,9d005f8c <__strtod+0x35c>
9d005f5c:	00001021 	move	v0,zero
9d005f60:	26940001 	addiu	s4,s4,1
9d005f64:	2465ffd0 	addiu	a1,v1,-48
9d005f68:	82830000 	lb	v1,0(s4)
9d005f6c:	00023040 	sll	a2,v0,0x1
9d005f70:	000210c0 	sll	v0,v0,0x3
9d005f74:	03c32021 	addu	a0,s8,v1
9d005f78:	90840000 	lbu	a0,0(a0)
9d005f7c:	00c21021 	addu	v0,a2,v0
9d005f80:	30840004 	andi	a0,a0,0x4
9d005f84:	1480fff6 	bnez	a0,9d005f60 <__strtod+0x330>
9d005f88:	00451021 	addu	v0,v0,a1
9d005f8c:	00021823 	negu	v1,v0
9d005f90:	0067100b 	movn	v0,v1,a3
9d005f94:	0b4017be 	j	9d005ef8 <__strtod+0x2c8>
9d005f98:	02e2b821 	addu	s7,s7,v0
9d005f9c:	82830002 	lb	v1,2(s4)
9d005fa0:	24070001 	li	a3,1
9d005fa4:	0b4017d3 	j	9d005f4c <__strtod+0x31c>
9d005fa8:	26940002 	addiu	s4,s4,2
9d005fac:	0f40118d 	jal	9d004634 <.LFE10>
9d005fb0:	00000000 	nop
9d005fb4:	00402021 	move	a0,v0
9d005fb8:	0b40177b 	j	9d005dec <__strtod+0x1bc>
9d005fbc:	00602821 	move	a1,v1
9d005fc0:	00001821 	move	v1,zero
9d005fc4:	0b40174f 	j	9d005d3c <__strtod+0x10c>
9d005fc8:	00009021 	move	s2,zero
9d005fcc:	00003821 	move	a3,zero
9d005fd0:	0b4017d3 	j	9d005f4c <__strtod+0x31c>
9d005fd4:	26940002 	addiu	s4,s4,2
9d005fd8:	1240ff8d 	beqz	s2,9d005e10 <__strtod+0x1e0>
9d005fdc:	24030022 	li	v1,34
9d005fe0:	3c02a000 	lui	v0,0xa000
9d005fe4:	0b401784 	j	9d005e10 <__strtod+0x1e0>
9d005fe8:	ac431a48 	sw	v1,6728(v0)
9d005fec:	3c037ff0 	lui	v1,0x7ff0
9d005ff0:	1443ff85 	bne	v0,v1,9d005e08 <__strtod+0x1d8>
9d005ff4:	02301025 	or	v0,s1,s0
9d005ff8:	0b4017f8 	j	9d005fe0 <__strtod+0x3b0>
9d005ffc:	24030022 	li	v1,34

Disassembly of section .text.__strtof:

9d006000 <__strtof>:
9d006000:	27bdffc8 	addiu	sp,sp,-56
9d006004:	afbf0034 	sw	ra,52(sp)
9d006008:	afb70030 	sw	s7,48(sp)
9d00600c:	afb6002c 	sw	s6,44(sp)
9d006010:	afb50028 	sw	s5,40(sp)
9d006014:	afb40024 	sw	s4,36(sp)
9d006018:	afb30020 	sw	s3,32(sp)
9d00601c:	afb2001c 	sw	s2,28(sp)
9d006020:	afb10018 	sw	s1,24(sp)
9d006024:	afb00014 	sw	s0,20(sp)
9d006028:	0080a821 	move	s5,a0
9d00602c:	80820000 	lb	v0,0(a0)
9d006030:	3c139d00 	lui	s3,0x9d00
9d006034:	26737f99 	addiu	s3,s3,32665
9d006038:	02621821 	addu	v1,s3,v0
9d00603c:	80630000 	lb	v1,0(v1)
9d006040:	00a0b021 	move	s6,a1
9d006044:	30630088 	andi	v1,v1,0x88
9d006048:	10600008 	beqz	v1,9d00606c <__strtof+0x6c>
9d00604c:	00808021 	move	s0,a0
9d006050:	26100001 	addiu	s0,s0,1
9d006054:	82020000 	lb	v0,0(s0)
9d006058:	02621821 	addu	v1,s3,v0
9d00605c:	80630000 	lb	v1,0(v1)
9d006060:	30630088 	andi	v1,v1,0x88
9d006064:	5460fffb 	bnezl	v1,9d006054 <__strtof+0x54>
9d006068:	26100001 	addiu	s0,s0,1
9d00606c:	2403002d 	li	v1,45
9d006070:	10430081 	beq	v0,v1,9d006278 <__strtof+0x278>
9d006074:	3842002b 	xori	v0,v0,0x2b
9d006078:	2c420001 	sltiu	v0,v0,1
9d00607c:	0000b821 	move	s7,zero
9d006080:	02028021 	addu	s0,s0,v0
9d006084:	82030000 	lb	v1,0(s0)
9d006088:	02631021 	addu	v0,s3,v1
9d00608c:	90420000 	lbu	v0,0(v0)
9d006090:	30420004 	andi	v0,v0,0x4
9d006094:	104000a5 	beqz	v0,9d00632c <__strtof+0x32c>
9d006098:	00008821 	move	s1,zero
9d00609c:	0000a021 	move	s4,zero
9d0060a0:	2472ffd0 	addiu	s2,v1,-48
9d0060a4:	02202021 	move	a0,s1
9d0060a8:	0f401c48 	jal	9d007120 <.LFE4>
9d0060ac:	3c054120 	lui	a1,0x4120
9d0060b0:	00408821 	move	s1,v0
9d0060b4:	0f402311 	jal	9d008c44 <__floatsisf>
9d0060b8:	02402021 	move	a0,s2
9d0060bc:	02202021 	move	a0,s1
9d0060c0:	00402821 	move	a1,v0
9d0060c4:	0f4019a3 	jal	9d00668c <__addsf3>
9d0060c8:	26100001 	addiu	s0,s0,1
9d0060cc:	00408821 	move	s1,v0
9d0060d0:	82030000 	lb	v1,0(s0)
9d0060d4:	02631021 	addu	v0,s3,v1
9d0060d8:	90420000 	lbu	v0,0(v0)
9d0060dc:	30420004 	andi	v0,v0,0x4
9d0060e0:	1440ffef 	bnez	v0,9d0060a0 <__strtof+0xa0>
9d0060e4:	0292a025 	or	s4,s4,s2
9d0060e8:	24040001 	li	a0,1
9d0060ec:	2402002e 	li	v0,46
9d0060f0:	5062003e 	beql	v1,v0,9d0061ec <__strtof+0x1ec>
9d0060f4:	82020001 	lb	v0,1(s0)
9d0060f8:	54800062 	bnezl	a0,9d006284 <__strtof+0x284>
9d0060fc:	82020000 	lb	v0,0(s0)
9d006100:	12c00024 	beqz	s6,9d006194 <__strtof+0x194>
9d006104:	00111840 	sll	v1,s1,0x1
9d006108:	02a08021 	move	s0,s5
9d00610c:	00009021 	move	s2,zero
9d006110:	aed00000 	sw	s0,0(s6)
9d006114:	1240001f 	beqz	s2,9d006194 <__strtof+0x194>
9d006118:	00111840 	sll	v1,s1,0x1
9d00611c:	001217c3 	sra	v0,s2,0x1f
9d006120:	0052a826 	xor	s5,v0,s2
9d006124:	02a2a823 	subu	s5,s5,v0
9d006128:	3c139d01 	lui	s3,0x9d01
9d00612c:	2673923c 	addiu	s3,s3,-28100
9d006130:	24100006 	li	s0,6
9d006134:	0b401851 	j	9d006144 <__strtof+0x144>
9d006138:	3c023f80 	lui	v0,0x3f80
9d00613c:	1200000b 	beqz	s0,9d00616c <__strtof+0x16c>
9d006140:	2673fffc 	addiu	s3,s3,-4
9d006144:	2610ffff 	addiu	s0,s0,-1
9d006148:	02151807 	srav	v1,s5,s0
9d00614c:	30630001 	andi	v1,v1,0x1
9d006150:	1060fffa 	beqz	v1,9d00613c <__strtof+0x13c>
9d006154:	00000000 	nop
9d006158:	8e650000 	lw	a1,0(s3)
9d00615c:	0f401c48 	jal	9d007120 <.LFE4>
9d006160:	00402021 	move	a0,v0
9d006164:	1600fff7 	bnez	s0,9d006144 <__strtof+0x144>
9d006168:	2673fffc 	addiu	s3,s3,-4
9d00616c:	02202021 	move	a0,s1
9d006170:	0640006a 	bltz	s2,9d00631c <__strtof+0x31c>
9d006174:	00402821 	move	a1,v0
9d006178:	0f401c48 	jal	9d007120 <.LFE4>
9d00617c:	00000000 	nop
9d006180:	00402021 	move	a0,v0
9d006184:	0f402027 	jal	9d00809c <__ldexpf>
9d006188:	02402821 	move	a1,s2
9d00618c:	00408821 	move	s1,v0
9d006190:	00111840 	sll	v1,s1,0x1
9d006194:	3c02ff00 	lui	v0,0xff00
9d006198:	5062006c 	beql	v1,v0,9d00634c <__strtof+0x34c>
9d00619c:	24030022 	li	v1,34
9d0061a0:	12200068 	beqz	s1,9d006344 <__strtof+0x344>
9d0061a4:	00000000 	nop
9d0061a8:	12e00005 	beqz	s7,9d0061c0 <__strtof+0x1c0>
9d0061ac:	02201021 	move	v0,s1
9d0061b0:	0f402490 	jal	9d009240 <__negsf2>
9d0061b4:	02202021 	move	a0,s1
9d0061b8:	00408821 	move	s1,v0
9d0061bc:	02201021 	move	v0,s1
9d0061c0:	8fbf0034 	lw	ra,52(sp)
9d0061c4:	8fb70030 	lw	s7,48(sp)
9d0061c8:	8fb6002c 	lw	s6,44(sp)
9d0061cc:	8fb50028 	lw	s5,40(sp)
9d0061d0:	8fb40024 	lw	s4,36(sp)
9d0061d4:	8fb30020 	lw	s3,32(sp)
9d0061d8:	8fb2001c 	lw	s2,28(sp)
9d0061dc:	8fb10018 	lw	s1,24(sp)
9d0061e0:	8fb00014 	lw	s0,20(sp)
9d0061e4:	03e00008 	jr	ra
9d0061e8:	27bd0038 	addiu	sp,sp,56
9d0061ec:	02621821 	addu	v1,s3,v0
9d0061f0:	90630000 	lbu	v1,0(v1)
9d0061f4:	30630004 	andi	v1,v1,0x4
9d0061f8:	1060ffbf 	beqz	v1,9d0060f8 <__strtof+0xf8>
9d0061fc:	26100001 	addiu	s0,s0,1
9d006200:	00009021 	move	s2,zero
9d006204:	2455ffd0 	addiu	s5,v0,-48
9d006208:	02202021 	move	a0,s1
9d00620c:	0f401c48 	jal	9d007120 <.LFE4>
9d006210:	3c054120 	lui	a1,0x4120
9d006214:	00408821 	move	s1,v0
9d006218:	0f402311 	jal	9d008c44 <__floatsisf>
9d00621c:	02a02021 	move	a0,s5
9d006220:	02202021 	move	a0,s1
9d006224:	00402821 	move	a1,v0
9d006228:	0f4019a3 	jal	9d00668c <__addsf3>
9d00622c:	26100001 	addiu	s0,s0,1
9d006230:	00408821 	move	s1,v0
9d006234:	82020000 	lb	v0,0(s0)
9d006238:	0295a025 	or	s4,s4,s5
9d00623c:	02621821 	addu	v1,s3,v0
9d006240:	90630000 	lbu	v1,0(v1)
9d006244:	30630004 	andi	v1,v1,0x4
9d006248:	1460ffee 	bnez	v1,9d006204 <__strtof+0x204>
9d00624c:	2652ffff 	addiu	s2,s2,-1
9d006250:	2403ffdf 	li	v1,-33
9d006254:	00431824 	and	v1,v0,v1
9d006258:	7c031c20 	seb	v1,v1
9d00625c:	24020045 	li	v0,69
9d006260:	5062000f 	beql	v1,v0,9d0062a0 <__strtof+0x2a0>
9d006264:	82030001 	lb	v1,1(s0)
9d006268:	56c0ffaa 	bnezl	s6,9d006114 <__strtof+0x114>
9d00626c:	aed00000 	sw	s0,0(s6)
9d006270:	0b401845 	j	9d006114 <__strtof+0x114>
9d006274:	00000000 	nop
9d006278:	26100001 	addiu	s0,s0,1
9d00627c:	0b401821 	j	9d006084 <__strtof+0x84>
9d006280:	24170001 	li	s7,1
9d006284:	2403ffdf 	li	v1,-33
9d006288:	00431824 	and	v1,v0,v1
9d00628c:	7c031c20 	seb	v1,v1
9d006290:	24020045 	li	v0,69
9d006294:	1462fff4 	bne	v1,v0,9d006268 <__strtof+0x268>
9d006298:	00009021 	move	s2,zero
9d00629c:	82030001 	lb	v1,1(s0)
9d0062a0:	2402002d 	li	v0,45
9d0062a4:	10620019 	beq	v1,v0,9d00630c <__strtof+0x30c>
9d0062a8:	2402002b 	li	v0,43
9d0062ac:	50620022 	beql	v1,v0,9d006338 <__strtof+0x338>
9d0062b0:	82030002 	lb	v1,2(s0)
9d0062b4:	26100001 	addiu	s0,s0,1
9d0062b8:	00003821 	move	a3,zero
9d0062bc:	02631021 	addu	v0,s3,v1
9d0062c0:	90420000 	lbu	v0,0(v0)
9d0062c4:	30420004 	andi	v0,v0,0x4
9d0062c8:	1040000c 	beqz	v0,9d0062fc <__strtof+0x2fc>
9d0062cc:	00001021 	move	v0,zero
9d0062d0:	26100001 	addiu	s0,s0,1
9d0062d4:	2465ffd0 	addiu	a1,v1,-48
9d0062d8:	82030000 	lb	v1,0(s0)
9d0062dc:	00023040 	sll	a2,v0,0x1
9d0062e0:	000210c0 	sll	v0,v0,0x3
9d0062e4:	02632021 	addu	a0,s3,v1
9d0062e8:	90840000 	lbu	a0,0(a0)
9d0062ec:	00c21021 	addu	v0,a2,v0
9d0062f0:	30840004 	andi	a0,a0,0x4
9d0062f4:	1480fff6 	bnez	a0,9d0062d0 <__strtof+0x2d0>
9d0062f8:	00451021 	addu	v0,v0,a1
9d0062fc:	00021823 	negu	v1,v0
9d006300:	0067100b 	movn	v0,v1,a3
9d006304:	0b40189a 	j	9d006268 <__strtof+0x268>
9d006308:	02429021 	addu	s2,s2,v0
9d00630c:	82030002 	lb	v1,2(s0)
9d006310:	24070001 	li	a3,1
9d006314:	0b4018af 	j	9d0062bc <__strtof+0x2bc>
9d006318:	26100002 	addiu	s0,s0,2
9d00631c:	0f401a3f 	jal	9d0068fc <__divsf3>
9d006320:	00000000 	nop
9d006324:	0b401861 	j	9d006184 <__strtof+0x184>
9d006328:	00402021 	move	a0,v0
9d00632c:	00002021 	move	a0,zero
9d006330:	0b40183b 	j	9d0060ec <__strtof+0xec>
9d006334:	0000a021 	move	s4,zero
9d006338:	00003821 	move	a3,zero
9d00633c:	0b4018af 	j	9d0062bc <__strtof+0x2bc>
9d006340:	26100002 	addiu	s0,s0,2
9d006344:	1280ff98 	beqz	s4,9d0061a8 <__strtof+0x1a8>
9d006348:	24030022 	li	v1,34
9d00634c:	3c02a000 	lui	v0,0xa000
9d006350:	0b40186a 	j	9d0061a8 <__strtof+0x1a8>
9d006354:	ac431a48 	sw	v1,6728(v0)

Disassembly of section .text.dp32mul:

9d006358 <__muldf3>:
9d006358:	00055040 000a5542 00054ac0 00047d42     @P..BU...J..B}..
9d006368:	012f4825 000442c0 3c0e8000 012e4825     %H/..B.....<%H..
9d006378:	00076840 000d6d42 000762c0 00067d42     @h..Bm...b..B}..
9d006388:	018f6025 00065ac0 018e6025 00a72826     %`...Z..%`..&(..
9d006398:	00ae2824 254fffff 2de107fe 10200047     $(....O%...-G. .
9d0063a8:	00000000                                ....

9d0063ac <Clab1>:
9d0063ac:	25afffff 	addiu	t7,t5,-1
9d0063b0:	2de107fe 	sltiu	at,t7,2046
9d0063b4:	1020006f 	beqz	at,9d006574 <CspecB>
9d0063b8:	00000000 	nop

9d0063bc <Clab2>:
9d0063bc:	25affc02 	addiu	t7,t5,-1022
9d0063c0:	014f5021 	addu	t2,t2,t7
9d0063c4:	012c0019 	multu	t1,t4
9d0063c8:	00003812 	mflo	a3
9d0063cc:	00007010 	mfhi	t6
9d0063d0:	010b0019 	multu	t0,t3
9d0063d4:	00002012 	mflo	a0
9d0063d8:	00003010 	mfhi	a2
9d0063dc:	012b0019 	multu	t1,t3
9d0063e0:	00005812 	mflo	t3
9d0063e4:	00006810 	mfhi	t5
9d0063e8:	00cb3021 	addu	a2,a2,t3
9d0063ec:	00cb782b 	sltu	t7,a2,t3
9d0063f0:	00ed3821 	addu	a3,a3,t5
9d0063f4:	00ef3821 	addu	a3,a3,t7
9d0063f8:	10ed0002 	beq	a3,t5,9d006404 <L20>
9d0063fc:	00000000 	nop
9d006400:	00ed782b 	sltu	t7,a3,t5

9d006404 <L20>:
9d006404:	01cf7021 	addu	t6,t6,t7
9d006408:	010c0019 	multu	t0,t4
9d00640c:	00004012 	mflo	t0
9d006410:	00004810 	mfhi	t1
9d006414:	00c83021 	addu	a2,a2,t0
9d006418:	00c8782b 	sltu	t7,a2,t0
9d00641c:	00e93821 	addu	a3,a3,t1
9d006420:	00ef3821 	addu	a3,a3,t7
9d006424:	10e90002 	beq	a3,t1,9d006430 <L21>
9d006428:	00000000 	nop
9d00642c:	00e9782b 	sltu	t7,a3,t1

9d006430 <L21>:
9d006430:	01cf7021 	addu	t6,t6,t7
9d006434:	00867825 	or	t7,a0,a2
9d006438:	11e00002 	beqz	t7,9d006444 <i13>
9d00643c:	00000000 	nop
9d006440:	34e70001 	ori	a3,a3,0x1

9d006444 <i13>:
9d006444:	000e4825 	or	t1,zero,t6
9d006448:	05200006 	bltz	t1,9d006464 <i14>
9d00644c:	00074025 	or	t0,zero,a3
9d006450:	0100782a 	slt	t7,t0,zero
9d006454:	01084021 	addu	t0,t0,t0
9d006458:	01294821 	addu	t1,t1,t1
9d00645c:	012f4821 	addu	t1,t1,t7
9d006460:	254affff 	addiu	t2,t2,-1

9d006464 <i14>:
9d006464:	254fffff 	addiu	t7,t2,-1
9d006468:	2de107fe 	sltiu	at,t7,2046
9d00646c:	10200068 	beqz	at,9d006610 <Coveund>
9d006470:	00000000 	nop
9d006474:	25080400 	addiu	t0,t0,1024
9d006478:	2d0f0400 	sltiu	t7,t0,1024
9d00647c:	012f4821 	addu	t1,t1,t7
9d006480:	012f782b 	sltu	t7,t1,t7
9d006484:	014f5021 	addu	t2,t2,t7

9d006488 <Clab8>:
9d006488:	00087ac2 	srl	t7,t0,0xb
9d00648c:	31ef0001 	andi	t7,t7,0x1
9d006490:	010f4023 	subu	t0,t0,t7
9d006494:	000822c2 	srl	a0,t0,0xb
9d006498:	00097d40 	sll	t7,t1,0x15
9d00649c:	008f2025 	or	a0,a0,t7
9d0064a0:	00097840 	sll	t7,t1,0x1
9d0064a4:	000f7b02 	srl	t7,t7,0xc
9d0064a8:	00af2825 	or	a1,a1,t7
9d0064ac:	000a7d00 	sll	t7,t2,0x14
9d0064b0:	00af2825 	or	a1,a1,t7

9d0064b4 <Cret>:
9d0064b4:	00041025 	or	v0,zero,a0
9d0064b8:	00051825 	or	v1,zero,a1

9d0064bc <C999>:
9d0064bc:	03e00008 	jr	ra
9d0064c0:	00000000 	nop

9d0064c4 <CspecA>:
9d0064c4:	0100782a 	slt	t7,t0,zero
9d0064c8:	01084021 	addu	t0,t0,t0
9d0064cc:	01294821 	addu	t1,t1,t1
9d0064d0:	1540001c 	bnez	t2,9d006544 <i15>
9d0064d4:	012f4821 	addu	t1,t1,t7
9d0064d8:	01287825 	or	t7,t1,t0
9d0064dc:	11e00014 	beqz	t7,9d006530 <i16>
9d0064e0:	00000000 	nop
9d0064e4:	15200008 	bnez	t1,9d006508 <L22>
9d0064e8:	00000000 	nop
9d0064ec:	15000003 	bnez	t0,9d0064fc <L23>
9d0064f0:	00000000 	nop
9d0064f4:	1000ffad 	b	9d0063ac <Clab1>
9d0064f8:	240a0000 	li	t2,0

9d0064fc <L23>:
9d0064fc:	01004825 	move	t1,t0
9d006500:	24080000 	li	t0,0
9d006504:	254affe0 	addiu	t2,t2,-32

9d006508 <L22>:
9d006508:	712e7020 	clz	t6,t1
9d00650c:	11c0ffa7 	beqz	t6,9d0063ac <Clab1>
9d006510:	00000000 	nop
9d006514:	014e5023 	subu	t2,t2,t6
9d006518:	000e3822 	neg	a3,t6
9d00651c:	00e83806 	srlv	a3,t0,a3
9d006520:	01c84004 	sllv	t0,t0,t6
9d006524:	01c94804 	sllv	t1,t1,t6
9d006528:	1000ffa0 	b	9d0063ac <Clab1>
9d00652c:	01274825 	or	t1,t1,a3

9d006530 <i16>:
9d006530:	240107ff 	li	at,2047
9d006534:	11a10033 	beq	t5,at,9d006604 <Cnan>
9d006538:	00000000 	nop
9d00653c:	1000ffdd 	b	9d0064b4 <Cret>
9d006540:	00000000 	nop

9d006544 <i15>:
9d006544:	01287825 	or	t7,t1,t0
9d006548:	15e0002e 	bnez	t7,9d006604 <Cnan>
9d00654c:	00000000 	nop
9d006550:	15a00005 	bnez	t5,9d006568 <i17>
9d006554:	00000000 	nop
9d006558:	000c7840 	sll	t7,t4,0x1
9d00655c:	01eb7825 	or	t7,t7,t3
9d006560:	11e00028 	beqz	t7,9d006604 <Cnan>
9d006564:	00000000 	nop

9d006568 <i17>:
9d006568:	240107ff 	li	at,2047
9d00656c:	15a10021 	bne	t5,at,9d0065f4 <Cinf>
9d006570:	00000000 	nop

9d006574 <CspecB>:
9d006574:	0160782a 	slt	t7,t3,zero
9d006578:	016b5821 	addu	t3,t3,t3
9d00657c:	018c6021 	addu	t4,t4,t4
9d006580:	15a00019 	bnez	t5,9d0065e8 <i18>
9d006584:	018f6021 	addu	t4,t4,t7
9d006588:	018b7825 	or	t7,t4,t3
9d00658c:	11e00014 	beqz	t7,9d0065e0 <i19>
9d006590:	00000000 	nop
9d006594:	15800008 	bnez	t4,9d0065b8 <L25>
9d006598:	00000000 	nop
9d00659c:	15600003 	bnez	t3,9d0065ac <L26>
9d0065a0:	00000000 	nop
9d0065a4:	1000ff85 	b	9d0063bc <Clab2>
9d0065a8:	240d0000 	li	t5,0

9d0065ac <L26>:
9d0065ac:	01606025 	move	t4,t3
9d0065b0:	240b0000 	li	t3,0
9d0065b4:	25adffe0 	addiu	t5,t5,-32

9d0065b8 <L25>:
9d0065b8:	71863020 	clz	a2,t4
9d0065bc:	10c0ff7f 	beqz	a2,9d0063bc <Clab2>
9d0065c0:	00000000 	nop
9d0065c4:	01a66823 	subu	t5,t5,a2
9d0065c8:	00067022 	neg	t6,a2
9d0065cc:	01cb7006 	srlv	t6,t3,t6
9d0065d0:	00cb5804 	sllv	t3,t3,a2
9d0065d4:	00cc6004 	sllv	t4,t4,a2
9d0065d8:	1000ff78 	b	9d0063bc <Clab2>
9d0065dc:	018e6025 	or	t4,t4,t6

9d0065e0 <i19>:
9d0065e0:	1000ffb4 	b	9d0064b4 <Cret>
9d0065e4:	24040000 	li	a0,0

9d0065e8 <i18>:
9d0065e8:	018b7825 	or	t7,t4,t3
9d0065ec:	15e00005 	bnez	t7,9d006604 <Cnan>
9d0065f0:	00000000 	nop

9d0065f4 <Cinf>:
9d0065f4:	3c017ff0 	lui	at,0x7ff0
9d0065f8:	00a12825 	or	a1,a1,at
9d0065fc:	1000ffad 	b	9d0064b4 <Cret>
9d006600:	24040000 	li	a0,0

9d006604 <Cnan>:
9d006604:	3c05fff8 	lui	a1,0xfff8
9d006608:	1000ffaa 	b	9d0064b4 <Cret>
9d00660c:	24040000 	li	a0,0

9d006610 <Coveund>:
9d006610:	1d40fff8 	bgtz	t2,9d0065f4 <Cinf>
9d006614:	00000000 	nop
9d006618:	240e0001 	li	t6,1
9d00661c:	01ca7023 	subu	t6,t6,t2

9d006620 <L28>:
9d006620:	2dc10020 	sltiu	at,t6,32
9d006624:	14200007 	bnez	at,9d006644 <L29>
9d006628:	00000000 	nop
9d00662c:	21ceffe0 	addi	t6,t6,-32
9d006630:	0008302b 	sltu	a2,zero,t0
9d006634:	1009000d 	beq	zero,t1,9d00666c <L30>
9d006638:	01264025 	or	t0,t1,a2
9d00663c:	1000fff8 	b	9d006620 <L28>
9d006640:	34090000 	li	t1,0x0

9d006644 <L29>:
9d006644:	11c00009 	beqz	t6,9d00666c <L30>
9d006648:	00000000 	nop
9d00664c:	000e3822 	neg	a3,t6
9d006650:	00e83004 	sllv	a2,t0,a3
9d006654:	00e93804 	sllv	a3,t1,a3
9d006658:	01c84006 	srlv	t0,t0,t6
9d00665c:	01c94806 	srlv	t1,t1,t6
9d006660:	10c00002 	beqz	a2,9d00666c <L30>
9d006664:	00e84025 	or	t0,a3,t0
9d006668:	35080002 	ori	t0,t0,0x2

9d00666c <L30>:
9d00666c:	25080400 	addiu	t0,t0,1024
9d006670:	2d0f0400 	sltiu	t7,t0,1024
9d006674:	012f4821 	addu	t1,t1,t7
9d006678:	1000ff83 	b	9d006488 <Clab8>
9d00667c:	000957c2 	srl	t2,t1,0x1f
9d006680:	00000000 	nop

Disassembly of section .text.fpsubadd:

9d006684 <__subsf3>:
9d006684:	3c018000 00a12826                       ...<&(..

9d00668c <__addsf3>:
9d00668c:	00044dc2 312900ff 00055dc2 316b00ff     .M....)1.]....k1
9d00669c:	3c078000 00044200 01074025 00055200     ...<.B..%@...R..
9d0066ac:	01475025 252dffff 2da100fe 10200061     %PG...-%...-a. .
9d0066bc:	00000000                                ....

9d0066c0 <Blab1>:
9d0066c0:	256dffff 	addiu	t5,t3,-1
9d0066c4:	2da100fe 	sltiu	at,t5,254
9d0066c8:	10200077 	beqz	at,9d0068a8 <BspecB>
9d0066cc:	00000000 	nop

9d0066d0 <Blab2>:
9d0066d0:	012b6023 	subu	t4,t1,t3
9d0066d4:	0580000d 	bltz	t4,9d00670c <i1>
9d0066d8:	00000000 	nop
9d0066dc:	29810020 	slti	at,t4,32
9d0066e0:	14200003 	bnez	at,9d0066f0 <i2>
9d0066e4:	00000000 	nop
9d0066e8:	10000015 	b	9d006740 <e1>
9d0066ec:	240a0002 	li	t2,2

9d0066f0 <i2>:
9d0066f0:	000a3025 	or	a2,zero,t2
9d0066f4:	018a5006 	srlv	t2,t2,t4
9d0066f8:	018a6804 	sllv	t5,t2,t4
9d0066fc:	11a60010 	beq	t5,a2,9d006740 <e1>
9d006700:	00000000 	nop
9d006704:	1000000e 	b	9d006740 <e1>
9d006708:	354a0002 	ori	t2,t2,0x2

9d00670c <i1>:
9d00670c:	000b4825 	or	t1,zero,t3
9d006710:	000c6023 	negu	t4,t4
9d006714:	29810020 	slti	at,t4,32
9d006718:	14200003 	bnez	at,9d006728 <i4>
9d00671c:	00000000 	nop
9d006720:	10000007 	b	9d006740 <e1>
9d006724:	24080002 	li	t0,2

9d006728 <i4>:
9d006728:	00083025 	or	a2,zero,t0
9d00672c:	01884006 	srlv	t0,t0,t4
9d006730:	01886804 	sllv	t5,t0,t4
9d006734:	11a60002 	beq	t5,a2,9d006740 <e1>
9d006738:	00000000 	nop
9d00673c:	35080002 	ori	t0,t0,0x2

9d006740 <e1>:
9d006740:	00876024 	and	t4,a0,a3
9d006744:	01856826 	xor	t5,t4,a1
9d006748:	05a00010 	bltz	t5,9d00678c <Bsub1>
9d00674c:	00000000 	nop
9d006750:	010a4021 	addu	t0,t0,t2
9d006754:	010a682b 	sltu	t5,t0,t2
9d006758:	11a00017 	beqz	t5,9d0067b8 <Bres>
9d00675c:	00000000 	nop
9d006760:	310d0001 	andi	t5,t0,0x1
9d006764:	11a00002 	beqz	t5,9d006770 <i7>
9d006768:	00000000 	nop
9d00676c:	35080002 	ori	t0,t0,0x2

9d006770 <i7>:
9d006770:	00084042 	srl	t0,t0,0x1
9d006774:	25290001 	addiu	t1,t1,1
9d006778:	240100ff 	li	at,255
9d00677c:	1521000e 	bne	t1,at,9d0067b8 <Bres>
9d006780:	00000000 	nop
9d006784:	1000000c 	b	9d0067b8 <Bres>
9d006788:	24080000 	li	t0,0

9d00678c <Bsub1>:
9d00678c:	010a682b 	sltu	t5,t0,t2
9d006790:	11a00004 	beqz	t5,9d0067a4 <i9>
9d006794:	010a4023 	subu	t0,t0,t2
9d006798:	00084023 	negu	t0,t0
9d00679c:	10000003 	b	9d0067ac <e9>
9d0067a0:	01876026 	xor	t4,t4,a3

9d0067a4 <i9>:
9d0067a4:	11000050 	beqz	t0,9d0068e8 <Bzer>
9d0067a8:	00000000 	nop

9d0067ac <e9>:
9d0067ac:	71063020 	clz	a2,t0
9d0067b0:	01264823 	subu	t1,t1,a2
9d0067b4:	00c84004 	sllv	t0,t0,a2

9d0067b8 <Bres>:
9d0067b8:	1920000e 	blez	t1,9d0067f4 <Bund>
9d0067bc:	00000000 	nop

9d0067c0 <Blab12>:
9d0067c0:	25080080 	addiu	t0,t0,128
9d0067c4:	2d0d0080 	sltiu	t5,t0,128
9d0067c8:	012d4821 	addu	t1,t1,t5
9d0067cc:	00086a02 	srl	t5,t0,0x8
9d0067d0:	31ad0001 	andi	t5,t5,0x1
9d0067d4:	010d4023 	subu	t0,t0,t5
9d0067d8:	00084040 	sll	t0,t0,0x1
9d0067dc:	00084242 	srl	t0,t0,0x9
9d0067e0:	00096dc0 	sll	t5,t1,0x17
9d0067e4:	010d4025 	or	t0,t0,t5
9d0067e8:	010c1025 	or	v0,t0,t4

9d0067ec <B999>:
9d0067ec:	03e00008 	jr	ra
9d0067f0:	00000000 	nop

9d0067f4 <Bund>:
9d0067f4:	24060001 	li	a2,1
9d0067f8:	00c93023 	subu	a2,a2,t1
9d0067fc:	2cc10020 	sltiu	at,a2,32
9d006800:	10200039 	beqz	at,9d0068e8 <Bzer>
9d006804:	00000000 	nop
9d006808:	3c018000 	lui	at,0x8000
9d00680c:	01014025 	or	t0,t0,at
9d006810:	240d0020 	li	t5,32
9d006814:	01a66823 	subu	t5,t5,a2
9d006818:	01a84804 	sllv	t1,t0,t5
9d00681c:	11200002 	beqz	t1,9d006828 <i10>
9d006820:	00c84006 	srlv	t0,t0,a2
9d006824:	35080001 	ori	t0,t0,0x1

9d006828 <i10>:
9d006828:	24090000 	li	t1,0
9d00682c:	250d0080 	addiu	t5,t0,128
9d006830:	05a1ffe3 	bgez	t5,9d0067c0 <Blab12>
9d006834:	00000000 	nop
9d006838:	1000ffe1 	b	9d0067c0 <Blab12>
9d00683c:	24090001 	li	t1,1

9d006840 <BspecA>:
9d006840:	1520000e 	bnez	t1,9d00687c <i12>
9d006844:	00000000 	nop
9d006848:	01084021 	addu	t0,t0,t0
9d00684c:	11000005 	beqz	t0,9d006864 <i13>
9d006850:	00000000 	nop
9d006854:	710c6020 	clz	t4,t0
9d006858:	012c4823 	subu	t1,t1,t4
9d00685c:	1000ff98 	b	9d0066c0 <Blab1>
9d006860:	01884004 	sllv	t0,t0,t4

9d006864 <i13>:
9d006864:	240100ff 	li	at,255
9d006868:	1161000f 	beq	t3,at,9d0068a8 <BspecB>
9d00686c:	00000000 	nop
9d006870:	3c018000 	lui	at,0x8000
9d006874:	14a10018 	bne	a1,at,9d0068d8 <BretB>
9d006878:	00000000 	nop

9d00687c <i12>:
9d00687c:	01086821 	addu	t5,t0,t0
9d006880:	15a0001b 	bnez	t5,9d0068f0 <Bnan>
9d006884:	00000000 	nop
9d006888:	240100ff 	li	at,255
9d00688c:	15610014 	bne	t3,at,9d0068e0 <BretA>
9d006890:	00000000 	nop
9d006894:	00856826 	xor	t5,a0,a1
9d006898:	05a00015 	bltz	t5,9d0068f0 <Bnan>
9d00689c:	00000000 	nop
9d0068a0:	1000000d 	b	9d0068d8 <BretB>
9d0068a4:	00000000 	nop

9d0068a8 <BspecB>:
9d0068a8:	15600008 	bnez	t3,9d0068cc <i15>
9d0068ac:	00000000 	nop
9d0068b0:	014a5021 	addu	t2,t2,t2
9d0068b4:	1140000a 	beqz	t2,9d0068e0 <BretA>
9d0068b8:	00000000 	nop
9d0068bc:	714c6020 	clz	t4,t2
9d0068c0:	016c5823 	subu	t3,t3,t4
9d0068c4:	1000ff82 	b	9d0066d0 <Blab2>
9d0068c8:	018a5004 	sllv	t2,t2,t4

9d0068cc <i15>:
9d0068cc:	014a6821 	addu	t5,t2,t2
9d0068d0:	15a00007 	bnez	t5,9d0068f0 <Bnan>
9d0068d4:	00000000 	nop

9d0068d8 <BretB>:
9d0068d8:	1000ffc4 	b	9d0067ec <B999>
9d0068dc:	00051025 	or	v0,zero,a1

9d0068e0 <BretA>:
9d0068e0:	1000ffc2 	b	9d0067ec <B999>
9d0068e4:	00041025 	or	v0,zero,a0

9d0068e8 <Bzer>:
9d0068e8:	1000ffc0 	b	9d0067ec <B999>
9d0068ec:	24020000 	li	v0,0

9d0068f0 <Bnan>:
9d0068f0:	1000ffbe 	b	9d0067ec <B999>
9d0068f4:	3c02ffc0 	lui	v0,0xffc0
9d0068f8:	00000000 	nop

Disassembly of section .text.fp32div:

9d0068fc <__divsf3>:
9d0068fc:	3c0b8000 000445c2 310800ff 000555c2     ...<.E.....1.U..
9d00690c:	314a00ff 00043a00 00eb3825 00054a00     ..J1.:..%8...J..
9d00691c:	012b4825 00857026 016e5824 250effff     %H+.&p..$Xn....%
9d00692c:	2dc100fe 1020003f 00000000              ...-?. .....

9d006938 <Dlab1>:
9d006938:	254effff 	addiu	t6,t2,-1
9d00693c:	2dc100fe 	sltiu	at,t6,254
9d006940:	10200053 	beqz	at,9d006a90 <DspecB>
9d006944:	00000000 	nop

9d006948 <Dlab2>:
9d006948:	00e9082b 	sltu	at,a3,t1
9d00694c:	14200003 	bnez	at,9d00695c <i27>
9d006950:	00000000 	nop
9d006954:	00073842 	srl	a3,a3,0x1
9d006958:	25080001 	addiu	t0,t0,1

9d00695c <i27>:
9d00695c:	00096382 	srl	t4,t1,0xe
9d006960:	018001f4 	teq	t4,zero,0x7
9d006964:	00ec001b 	divu	zero,a3,t4
9d006968:	00002012 	mflo	a0
9d00696c:	00003010 	mfhi	a2
9d006970:	312d3fff 	andi	t5,t1,0x3fff
9d006974:	01a40019 	multu	t5,a0
9d006978:	00002812 	mflo	a1
9d00697c:	00063380 	sll	a2,a2,0xe
9d006980:	00c5702b 	sltu	t6,a2,a1
9d006984:	11c00004 	beqz	t6,9d006998 <i28>
9d006988:	00c53023 	subu	a2,a2,a1
9d00698c:	2484ffff 	addiu	a0,a0,-1
9d006990:	00c93021 	addu	a2,a2,t1
9d006994:	00c9702b 	sltu	t6,a2,t1

9d006998 <i28>:
9d006998:	018001f4 	teq	t4,zero,0x7
9d00699c:	00cc001b 	divu	zero,a2,t4
9d0069a0:	00003812 	mflo	a3
9d0069a4:	00003010 	mfhi	a2
9d0069a8:	01a70019 	multu	t5,a3
9d0069ac:	00002812 	mflo	a1
9d0069b0:	00063380 	sll	a2,a2,0xe
9d0069b4:	00c5702b 	sltu	t6,a2,a1
9d0069b8:	11c00004 	beqz	t6,9d0069cc <i29>
9d0069bc:	00c53023 	subu	a2,a2,a1
9d0069c0:	24e7ffff 	addiu	a3,a3,-1
9d0069c4:	00c93021 	addu	a2,a2,t1
9d0069c8:	00c9702b 	sltu	t6,a2,t1

9d0069cc <i29>:
9d0069cc:	00047380 	sll	t6,a0,0xe
9d0069d0:	00ee3821 	addu	a3,a3,t6
9d0069d4:	10c00002 	beqz	a2,9d0069e0 <i30>
9d0069d8:	00073900 	sll	a3,a3,0x4
9d0069dc:	34e70001 	ori	a3,a3,0x1

9d0069e0 <i30>:
9d0069e0:	240e007e 	li	t6,126
9d0069e4:	01ca7023 	subu	t6,t6,t2
9d0069e8:	010e4021 	addu	t0,t0,t6
9d0069ec:	250effff 	addiu	t6,t0,-1
9d0069f0:	2dc100fe 	sltiu	at,t6,254
9d0069f4:	10200034 	beqz	at,9d006ac8 <Doveund>
9d0069f8:	00000000 	nop

9d0069fc <Dlab8>:
9d0069fc:	24e70080 	addiu	a3,a3,128
9d006a00:	2cee0080 	sltiu	t6,a3,128
9d006a04:	010e4021 	addu	t0,t0,t6
9d006a08:	00077202 	srl	t6,a3,0x8
9d006a0c:	31ce0001 	andi	t6,t6,0x1
9d006a10:	00ee3823 	subu	a3,a3,t6
9d006a14:	00073840 	sll	a3,a3,0x1
9d006a18:	00073a42 	srl	a3,a3,0x9
9d006a1c:	000875c0 	sll	t6,t0,0x17
9d006a20:	00ee3825 	or	a3,a3,t6
9d006a24:	00eb1025 	or	v0,a3,t3

9d006a28 <D999>:
9d006a28:	03e00008 	jr	ra
9d006a2c:	00000000 	nop

9d006a30 <DspecA>:
9d006a30:	15000008 	bnez	t0,9d006a54 <i31>
9d006a34:	00000000 	nop
9d006a38:	00e73821 	addu	a3,a3,a3
9d006a3c:	10e00005 	beqz	a3,9d006a54 <i31>
9d006a40:	00000000 	nop
9d006a44:	70ec6020 	clz	t4,a3
9d006a48:	010c4023 	subu	t0,t0,t4
9d006a4c:	1000ffba 	b	9d006938 <Dlab1>
9d006a50:	01873804 	sllv	a3,a3,t4

9d006a54 <i31>:
9d006a54:	15480004 	bne	t2,t0,9d006a68 <i33>
9d006a58:	00000000 	nop
9d006a5c:	01297021 	addu	t6,t1,t1
9d006a60:	11c0002f 	beqz	t6,9d006b20 <Dnan>
9d006a64:	00000000 	nop

9d006a68 <i33>:
9d006a68:	240100ff 	li	at,255
9d006a6c:	11410008 	beq	t2,at,9d006a90 <DspecB>
9d006a70:	00000000 	nop
9d006a74:	11000012 	beqz	t0,9d006ac0 <Dzer>
9d006a78:	00000000 	nop
9d006a7c:	00e77021 	addu	t6,a3,a3
9d006a80:	15c00027 	bnez	t6,9d006b20 <Dnan>
9d006a84:	00000000 	nop
9d006a88:	10000022 	b	9d006b14 <Dinf>
9d006a8c:	00000000 	nop

9d006a90 <DspecB>:
9d006a90:	15400008 	bnez	t2,9d006ab4 <i34>
9d006a94:	00000000 	nop
9d006a98:	01294821 	addu	t1,t1,t1
9d006a9c:	1120001d 	beqz	t1,9d006b14 <Dinf>
9d006aa0:	00000000 	nop
9d006aa4:	712c6020 	clz	t4,t1
9d006aa8:	014c5023 	subu	t2,t2,t4
9d006aac:	1000ffa6 	b	9d006948 <Dlab2>
9d006ab0:	01894804 	sllv	t1,t1,t4

9d006ab4 <i34>:
9d006ab4:	01297021 	addu	t6,t1,t1
9d006ab8:	15c00019 	bnez	t6,9d006b20 <Dnan>
9d006abc:	00000000 	nop

9d006ac0 <Dzer>:
9d006ac0:	1000ffd9 	b	9d006a28 <D999>
9d006ac4:	000b1025 	or	v0,zero,t3

9d006ac8 <Doveund>:
9d006ac8:	1d000012 	bgtz	t0,9d006b14 <Dinf>
9d006acc:	00000000 	nop
9d006ad0:	240c0001 	li	t4,1
9d006ad4:	01886023 	subu	t4,t4,t0
9d006ad8:	2d810020 	sltiu	at,t4,32
9d006adc:	1020fff8 	beqz	at,9d006ac0 <Dzer>
9d006ae0:	00000000 	nop
9d006ae4:	240e0020 	li	t6,32
9d006ae8:	01cc7023 	subu	t6,t6,t4
9d006aec:	01c74004 	sllv	t0,a3,t6
9d006af0:	11000002 	beqz	t0,9d006afc <i37>
9d006af4:	01873806 	srlv	a3,a3,t4
9d006af8:	34e70002 	ori	a3,a3,0x2

9d006afc <i37>:
9d006afc:	24080000 	li	t0,0
9d006b00:	24ee0080 	addiu	t6,a3,128
9d006b04:	05c1ffbd 	bgez	t6,9d0069fc <Dlab8>
9d006b08:	00000000 	nop
9d006b0c:	1000ffbb 	b	9d0069fc <Dlab8>
9d006b10:	24080001 	li	t0,1

9d006b14 <Dinf>:
9d006b14:	3c017f80 	lui	at,0x7f80
9d006b18:	1000ffc3 	b	9d006a28 <D999>
9d006b1c:	01611025 	or	v0,t3,at

9d006b20 <Dnan>:
9d006b20:	1000ffc1 	b	9d006a28 <D999>
9d006b24:	3c02ffc0 	lui	v0,0xffc0
9d006b28:	00000000 	nop

Disassembly of section .text.scale:

9d006b2c <scale>:
9d006b2c:	27bdffd8 	addiu	sp,sp,-40
9d006b30:	afbf0024 	sw	ra,36(sp)
9d006b34:	afb30020 	sw	s3,32(sp)
9d006b38:	afb2001c 	sw	s2,28(sp)
9d006b3c:	afb10018 	sw	s1,24(sp)
9d006b40:	afb00014 	sw	s0,20(sp)
9d006b44:	04800045 	bltz	a0,9d006c5c <scale+0x130>
9d006b48:	00808021 	move	s0,a0
9d006b4c:	2882006e 	slti	v0,a0,110
9d006b50:	1040000f 	beqz	v0,9d006b90 <scale+0x64>
9d006b54:	2882000b 	slti	v0,a0,11
9d006b58:	1040006f 	beqz	v0,9d006d18 <scale+0x1ec>
9d006b5c:	3c026666 	lui	v0,0x6666
9d006b60:	00048080 	sll	s0,a0,0x2
9d006b64:	3c029d01 	lui	v0,0x9d01
9d006b68:	24428bdc 	addiu	v0,v0,-29732
9d006b6c:	02028021 	addu	s0,s0,v0
9d006b70:	8e020000 	lw	v0,0(s0)
9d006b74:	8fbf0024 	lw	ra,36(sp)
9d006b78:	8fb30020 	lw	s3,32(sp)
9d006b7c:	8fb2001c 	lw	s2,28(sp)
9d006b80:	8fb10018 	lw	s1,24(sp)
9d006b84:	8fb00014 	lw	s0,20(sp)
9d006b88:	03e00008 	jr	ra
9d006b8c:	27bd0028 	addiu	sp,sp,40
9d006b90:	3c0351eb 	lui	v1,0x51eb
9d006b94:	3463851f 	ori	v1,v1,0x851f
9d006b98:	00830018 	mult	a0,v1
9d006b9c:	00001810 	mfhi	v1
9d006ba0:	000497c3 	sra	s2,a0,0x1f
9d006ba4:	3c136666 	lui	s3,0x6666
9d006ba8:	26736667 	addiu	s3,s3,26215
9d006bac:	3c119d01 	lui	s1,0x9d01
9d006bb0:	26318bdc 	addiu	s1,s1,-29732
9d006bb4:	8e24004c 	lw	a0,76(s1)
9d006bb8:	00031943 	sra	v1,v1,0x5
9d006bbc:	00721823 	subu	v1,v1,s2
9d006bc0:	00031080 	sll	v0,v1,0x2
9d006bc4:	00031900 	sll	v1,v1,0x4
9d006bc8:	00431021 	addu	v0,v0,v1
9d006bcc:	00021880 	sll	v1,v0,0x2
9d006bd0:	00431021 	addu	v0,v0,v1
9d006bd4:	02021023 	subu	v0,s0,v0
9d006bd8:	7c021420 	seb	v0,v0
9d006bdc:	00530018 	mult	v0,s3
9d006be0:	00001810 	mfhi	v1
9d006be4:	000217c3 	sra	v0,v0,0x1f
9d006be8:	00031883 	sra	v1,v1,0x2
9d006bec:	00621023 	subu	v0,v1,v0
9d006bf0:	7c021420 	seb	v0,v0
9d006bf4:	24420009 	addiu	v0,v0,9
9d006bf8:	00021080 	sll	v0,v0,0x2
9d006bfc:	00511021 	addu	v0,v0,s1
9d006c00:	0f401c48 	jal	9d007120 <.LFE4>
9d006c04:	8c450000 	lw	a1,0(v0)
9d006c08:	02130018 	mult	s0,s3
9d006c0c:	00009810 	mfhi	s3
9d006c10:	00402021 	move	a0,v0
9d006c14:	00139883 	sra	s3,s3,0x2
9d006c18:	02729023 	subu	s2,s3,s2
9d006c1c:	00121040 	sll	v0,s2,0x1
9d006c20:	001290c0 	sll	s2,s2,0x3
9d006c24:	00529021 	addu	s2,v0,s2
9d006c28:	02128023 	subu	s0,s0,s2
9d006c2c:	7c108420 	seb	s0,s0
9d006c30:	00108080 	sll	s0,s0,0x2
9d006c34:	02118821 	addu	s1,s0,s1
9d006c38:	0f401c48 	jal	9d007120 <.LFE4>
9d006c3c:	8e250000 	lw	a1,0(s1)
9d006c40:	8fbf0024 	lw	ra,36(sp)
9d006c44:	8fb30020 	lw	s3,32(sp)
9d006c48:	8fb2001c 	lw	s2,28(sp)
9d006c4c:	8fb10018 	lw	s1,24(sp)
9d006c50:	8fb00014 	lw	s0,20(sp)
9d006c54:	03e00008 	jr	ra
9d006c58:	27bd0028 	addiu	sp,sp,40
9d006c5c:	00048023 	negu	s0,a0
9d006c60:	7c108420 	seb	s0,s0
9d006c64:	2a02006e 	slti	v0,s0,110
9d006c68:	10400021 	beqz	v0,9d006cf0 <scale+0x1c4>
9d006c6c:	2a02000b 	slti	v0,s0,11
9d006c70:	54400030 	bnezl	v0,9d006d34 <scale+0x208>
9d006c74:	00108080 	sll	s0,s0,0x2
9d006c78:	3c026666 	lui	v0,0x6666
9d006c7c:	24426667 	addiu	v0,v0,26215
9d006c80:	02020018 	mult	s0,v0
9d006c84:	00001010 	mfhi	v0
9d006c88:	001027c3 	sra	a0,s0,0x1f
9d006c8c:	3c039d01 	lui	v1,0x9d01
9d006c90:	24638c10 	addiu	v1,v1,-29680
9d006c94:	00021083 	sra	v0,v0,0x2
9d006c98:	00441023 	subu	v0,v0,a0
9d006c9c:	00022840 	sll	a1,v0,0x1
9d006ca0:	000220c0 	sll	a0,v0,0x3
9d006ca4:	00a42021 	addu	a0,a1,a0
9d006ca8:	7c021420 	seb	v0,v0
9d006cac:	02048023 	subu	s0,s0,a0
9d006cb0:	24420009 	addiu	v0,v0,9
9d006cb4:	7c108420 	seb	s0,s0
9d006cb8:	00021080 	sll	v0,v0,0x2
9d006cbc:	00108080 	sll	s0,s0,0x2
9d006cc0:	00431021 	addu	v0,v0,v1
9d006cc4:	02031821 	addu	v1,s0,v1
9d006cc8:	8c440000 	lw	a0,0(v0)
9d006ccc:	0f401c48 	jal	9d007120 <.LFE4>
9d006cd0:	8c650000 	lw	a1,0(v1)
9d006cd4:	8fbf0024 	lw	ra,36(sp)
9d006cd8:	8fb30020 	lw	s3,32(sp)
9d006cdc:	8fb2001c 	lw	s2,28(sp)
9d006ce0:	8fb10018 	lw	s1,24(sp)
9d006ce4:	8fb00014 	lw	s0,20(sp)
9d006ce8:	03e00008 	jr	ra
9d006cec:	27bd0028 	addiu	sp,sp,40
9d006cf0:	3c0351eb 	lui	v1,0x51eb
9d006cf4:	3463851f 	ori	v1,v1,0x851f
9d006cf8:	02030018 	mult	s0,v1
9d006cfc:	00001810 	mfhi	v1
9d006d00:	001097c3 	sra	s2,s0,0x1f
9d006d04:	3c136666 	lui	s3,0x6666
9d006d08:	26736667 	addiu	s3,s3,26215
9d006d0c:	3c119d01 	lui	s1,0x9d01
9d006d10:	0b401aed 	j	9d006bb4 <scale+0x88>
9d006d14:	26318c10 	addiu	s1,s1,-29680
9d006d18:	24426667 	addiu	v0,v0,26215
9d006d1c:	00820018 	mult	a0,v0
9d006d20:	00001010 	mfhi	v0
9d006d24:	000427c3 	sra	a0,a0,0x1f
9d006d28:	3c039d01 	lui	v1,0x9d01
9d006d2c:	0b401b25 	j	9d006c94 <scale+0x168>
9d006d30:	24638bdc 	addiu	v1,v1,-29732
9d006d34:	3c029d01 	lui	v0,0x9d01
9d006d38:	24428c10 	addiu	v0,v0,-29680
9d006d3c:	02028021 	addu	s0,s0,v0
9d006d40:	0b401add 	j	9d006b74 <scale+0x48>
9d006d44:	8e020000 	lw	v0,0(s0)

Disassembly of section .text.__floatdisf:

9d006d48 <__floatdisf>:
9d006d48:	00851825 	or	v1,a0,a1
9d006d4c:	10600045 	beqz	v1,9d006e64 <__floatdisf+0x11c>
9d006d50:	00001021 	move	v0,zero
9d006d54:	24020001 	li	v0,1
9d006d58:	10820044 	beq	a0,v0,9d006e6c <__floatdisf+0x124>
9d006d5c:	00053fc2 	srl	a3,a1,0x1f
9d006d60:	2402ffff 	li	v0,-1
9d006d64:	10820062 	beq	a0,v0,9d006ef0 <__floatdisf+0x1a8>
9d006d68:	2402000a 	li	v0,10
9d006d6c:	10820064 	beq	a0,v0,9d006f00 <__floatdisf+0x1b8>
9d006d70:	2402fff6 	li	v0,-10
9d006d74:	10820057 	beq	a0,v0,9d006ed4 <__floatdisf+0x18c>
9d006d78:	2402ffff 	li	v0,-1
9d006d7c:	10e00008 	beqz	a3,9d006da0 <__floatdisf+0x58>
9d006d80:	00051940 	sll	v1,a1,0x5
9d006d84:	1080003f 	beqz	a0,9d006e84 <__floatdisf+0x13c>
9d006d88:	3c028000 	lui	v0,0x8000
9d006d8c:	00042023 	negu	a0,a0
9d006d90:	0004102b 	sltu	v0,zero,a0
9d006d94:	00052823 	negu	a1,a1
9d006d98:	00a22823 	subu	a1,a1,v0
9d006d9c:	00051940 	sll	v1,a1,0x5
9d006da0:	000416c2 	srl	v0,a0,0x1b
9d006da4:	00621025 	or	v0,v1,v0
9d006da8:	00051ec2 	srl	v1,a1,0x1b
9d006dac:	00431025 	or	v0,v0,v1
9d006db0:	14400038 	bnez	v0,9d006e94 <__floatdisf+0x14c>
9d006db4:	00051980 	sll	v1,a1,0x6
9d006db8:	00041682 	srl	v0,a0,0x1a
9d006dbc:	00621025 	or	v0,v1,v0
9d006dc0:	00051e82 	srl	v1,a1,0x1a
9d006dc4:	00431825 	or	v1,v0,v1
9d006dc8:	14600051 	bnez	v1,9d006f10 <__floatdisf+0x1c8>
9d006dcc:	2402001a 	li	v0,26
9d006dd0:	00041fc2 	srl	v1,a0,0x1f
9d006dd4:	00052840 	sll	a1,a1,0x1
9d006dd8:	00652825 	or	a1,v1,a1
9d006ddc:	00042040 	sll	a0,a0,0x1
9d006de0:	00053180 	sll	a2,a1,0x6
9d006de4:	00041e82 	srl	v1,a0,0x1a
9d006de8:	00c31825 	or	v1,a2,v1
9d006dec:	00053682 	srl	a2,a1,0x1a
9d006df0:	00661825 	or	v1,v1,a2
9d006df4:	1060fff6 	beqz	v1,9d006dd0 <__floatdisf+0x88>
9d006df8:	2442ffff 	addiu	v0,v0,-1
9d006dfc:	2443007f 	addiu	v1,v0,127
9d006e00:	58600049 	blezl	v1,9d006f28 <__floatdisf+0x1e0>
9d006e04:	2403ff82 	li	v1,-126
9d006e08:	30820007 	andi	v0,a0,0x7
9d006e0c:	1040000a 	beqz	v0,9d006e38 <__floatdisf+0xf0>
9d006e10:	286200ff 	slti	v0,v1,255
9d006e14:	7c8500c0 	ext	a1,a0,0x3,0x1
9d006e18:	24840003 	addiu	a0,a0,3
9d006e1c:	00852021 	addu	a0,a0,a1
9d006e20:	000416c2 	srl	v0,a0,0x1b
9d006e24:	10400004 	beqz	v0,9d006e38 <__floatdisf+0xf0>
9d006e28:	286200ff 	slti	v0,v1,255
9d006e2c:	00042042 	srl	a0,a0,0x1
9d006e30:	24630001 	addiu	v1,v1,1
9d006e34:	286200ff 	slti	v0,v1,255
9d006e38:	10400037 	beqz	v0,9d006f18 <__floatdisf+0x1d0>
9d006e3c:	000420c2 	srl	a0,a0,0x3
9d006e40:	7c8205c0 	ext	v0,a0,0x17,0x1
9d006e44:	50400002 	beqzl	v0,9d006e50 <__floatdisf+0x108>
9d006e48:	00001821 	move	v1,zero
9d006e4c:	7c84b000 	ext	a0,a0,0x0,0x17
9d006e50:	00071200 	sll	v0,a3,0x8
9d006e54:	00621025 	or	v0,v1,v0
9d006e58:	000215c0 	sll	v0,v0,0x17
9d006e5c:	03e00008 	jr	ra
9d006e60:	00441025 	or	v0,v0,a0
9d006e64:	03e00008 	jr	ra
9d006e68:	00000000 	nop
9d006e6c:	54a0ffbd 	bnezl	a1,9d006d64 <__floatdisf+0x1c>
9d006e70:	2402ffff 	li	v0,-1
9d006e74:	00071200 	sll	v0,a3,0x8
9d006e78:	3442007f 	ori	v0,v0,0x7f
9d006e7c:	03e00008 	jr	ra
9d006e80:	000215c0 	sll	v0,v0,0x17
9d006e84:	14a2ffc2 	bne	a1,v0,9d006d90 <__floatdisf+0x48>
9d006e88:	00042023 	negu	a0,a0
9d006e8c:	00002021 	move	a0,zero
9d006e90:	3c058000 	lui	a1,0x8000
9d006e94:	2402001a 	li	v0,26
9d006e98:	000537c0 	sll	a2,a1,0x1f
9d006e9c:	00041842 	srl	v1,a0,0x1
9d006ea0:	00c31825 	or	v1,a2,v1
9d006ea4:	30840001 	andi	a0,a0,0x1
9d006ea8:	00052842 	srl	a1,a1,0x1
9d006eac:	00832025 	or	a0,a0,v1
9d006eb0:	00053140 	sll	a2,a1,0x5
9d006eb4:	00041ec2 	srl	v1,a0,0x1b
9d006eb8:	00c31825 	or	v1,a2,v1
9d006ebc:	000536c2 	srl	a2,a1,0x1b
9d006ec0:	00661825 	or	v1,v1,a2
9d006ec4:	1460fff4 	bnez	v1,9d006e98 <__floatdisf+0x150>
9d006ec8:	24420001 	addiu	v0,v0,1
9d006ecc:	0b401b80 	j	9d006e00 <__floatdisf+0xb8>
9d006ed0:	2443007f 	addiu	v1,v0,127
9d006ed4:	14a2ffa9 	bne	a1,v0,9d006d7c <__floatdisf+0x34>
9d006ed8:	00071200 	sll	v0,a3,0x8
9d006edc:	34420082 	ori	v0,v0,0x82
9d006ee0:	000215c0 	sll	v0,v0,0x17
9d006ee4:	3c030020 	lui	v1,0x20
9d006ee8:	03e00008 	jr	ra
9d006eec:	00431025 	or	v0,v0,v1
9d006ef0:	54a4ff9e 	bnel	a1,a0,9d006d6c <__floatdisf+0x24>
9d006ef4:	2402000a 	li	v0,10
9d006ef8:	0b401b9e 	j	9d006e78 <__floatdisf+0x130>
9d006efc:	00071200 	sll	v0,a3,0x8
9d006f00:	54a0ff9c 	bnezl	a1,9d006d74 <__floatdisf+0x2c>
9d006f04:	2402fff6 	li	v0,-10
9d006f08:	0b401bb7 	j	9d006edc <__floatdisf+0x194>
9d006f0c:	00071200 	sll	v0,a3,0x8
9d006f10:	0b401b82 	j	9d006e08 <__floatdisf+0xc0>
9d006f14:	24030099 	li	v1,153
9d006f18:	00071200 	sll	v0,a3,0x8
9d006f1c:	344200ff 	ori	v0,v0,0xff
9d006f20:	03e00008 	jr	ra
9d006f24:	000215c0 	sll	v0,v0,0x17
9d006f28:	00621823 	subu	v1,v1,v0
9d006f2c:	2865001b 	slti	a1,v1,27
9d006f30:	50a00008 	beqzl	a1,9d006f54 <__floatdisf+0x20c>
9d006f34:	00002021 	move	a0,zero
9d006f38:	2442009e 	addiu	v0,v0,158
9d006f3c:	00441004 	sllv	v0,a0,v0
9d006f40:	00642006 	srlv	a0,a0,v1
9d006f44:	0002102b 	sltu	v0,zero,v0
9d006f48:	00442025 	or	a0,v0,a0
9d006f4c:	0b401b82 	j	9d006e08 <__floatdisf+0xc0>
9d006f50:	24030001 	li	v1,1
9d006f54:	0b401b94 	j	9d006e50 <__floatdisf+0x108>
9d006f58:	00001821 	move	v1,zero

Disassembly of section .text:

9d006f5c <NU32_Startup>:

// Perform startup routines:
//  Make NU32_LED1 and NU32_LED2 pins outputs (NU32_USER is by default an input)
//  Initialize the serial port - UART3 (no interrupt) 
//  Enable interrupts
void NU32_Startup() {
9d006f5c:	27bdfff8 	addiu	sp,sp,-8
9d006f60:	afbf0004 	sw	ra,4(sp)
  // disable interrupts
  __builtin_disable_interrupts();
9d006f64:	41626000 	di	v0
9d006f68:	000000c0 	ehb
  // see Chapter 2 "CPU for Devices with M4K Core" of the PIC32 reference manual
  // most of the other bits have prescribed values
  // microchip does not provide a _CP0_SET_CONFIG macro, so we directly use
  // the compiler built-in command _mtc0
  // to disable cache, use 0xa4210582 
  __builtin_mtc0(_CP0_CONFIG, _CP0_CONFIG_SELECT, 0xa4210583); 
9d006f6c:	3c02a421 	lui	v0,0xa421
9d006f70:	24420583 	addiu	v0,v0,1411
9d006f74:	40828000 	mtc0	v0,c0_config
9d006f78:	000000c0 	ehb
  
  // set the prefectch cache wait state to 2, as per the
  // electrical characteristics data sheet
  CHECONbits.PFMWS = 0x2;   
9d006f7c:	3c02bf88 	lui	v0,0xbf88
9d006f80:	8c434000 	lw	v1,16384(v0)
9d006f84:	24050002 	li	a1,2
9d006f88:	7ca31004 	ins	v1,a1,0x0,0x3
9d006f8c:	ac434000 	sw	v1,16384(v0)

  //enable prefetch for cacheable and noncacheable memory
  CHECONbits.PREFEN = 0x3; 
9d006f90:	8c434000 	lw	v1,16384(v0)
9d006f94:	24040003 	li	a0,3
9d006f98:	7c832904 	ins	v1,a0,0x4,0x2
9d006f9c:	ac434000 	sw	v1,16384(v0)

  // 0 data RAM access wait states
  BMXCONbits.BMXWSDRM = 0x0;
9d006fa0:	3c02bf88 	lui	v0,0xbf88
9d006fa4:	8c432000 	lw	v1,8192(v0)
9d006fa8:	7c033184 	ins	v1,zero,0x6,0x1
9d006fac:	ac432000 	sw	v1,8192(v0)
  
  // enable multi vector interrupts
  INTCONbits.MVEC = 0x1;
9d006fb0:	3c02bf88 	lui	v0,0xbf88
9d006fb4:	8c461000 	lw	a2,4096(v0)
9d006fb8:	24030001 	li	v1,1
9d006fbc:	7c666304 	ins	a2,v1,0xc,0x1
9d006fc0:	ac461000 	sw	a2,4096(v0)

  // disable JTAG to get B10, B11, B12 and B13 back
  DDPCONbits.JTAGEN = 0;
9d006fc4:	3c02bf81 	lui	v0,0xbf81
9d006fc8:	9046f200 	lbu	a2,-3584(v0)
9d006fcc:	7c0618c4 	ins	a2,zero,0x3,0x1
9d006fd0:	a046f200 	sb	a2,-3584(v0)

  TRISFCLR = 0x0003;  // Make F0 and F1 outputs (LED1 and LED2)
9d006fd4:	3c02bf88 	lui	v0,0xbf88
9d006fd8:	ac446144 	sw	a0,24900(v0)
  NU32_LED1 = 1;      // LED1 is off
9d006fdc:	3c02bf88 	lui	v0,0xbf88
9d006fe0:	90446160 	lbu	a0,24928(v0)
9d006fe4:	7c640004 	ins	a0,v1,0x0,0x1
9d006fe8:	a0446160 	sb	a0,24928(v0)
  NU32_LED2 = 0;      // LED2 is on
9d006fec:	90446160 	lbu	a0,24928(v0)
9d006ff0:	7c040844 	ins	a0,zero,0x1,0x1
9d006ff4:	a0446160 	sb	a0,24928(v0)

  // turn on UART3 without an interrupt
  U3MODEbits.BRGH = 0; // set baud to NU32_DESIRED_BAUD
9d006ff8:	3c02bf80 	lui	v0,0xbf80
9d006ffc:	94446400 	lhu	a0,25600(v0)
9d007000:	7c0418c4 	ins	a0,zero,0x3,0x1
9d007004:	a4446400 	sh	a0,25600(v0)
  U3BRG = ((NU32_SYS_FREQ / NU32_DESIRED_BAUD) / 16) - 1;
9d007008:	24060014 	li	a2,20
9d00700c:	3c04bf80 	lui	a0,0xbf80
9d007010:	ac866440 	sw	a2,25664(a0)

  // 8 bit, no parity bit, and 1 stop bit (8N1 setup)
  U3MODEbits.PDSEL = 0;
9d007014:	94446400 	lhu	a0,25600(v0)
9d007018:	7c041044 	ins	a0,zero,0x1,0x2
9d00701c:	a4446400 	sh	a0,25600(v0)
  U3MODEbits.STSEL = 0;
9d007020:	94446400 	lhu	a0,25600(v0)
9d007024:	7c040004 	ins	a0,zero,0x0,0x1
9d007028:	a4446400 	sh	a0,25600(v0)

  // configure TX & RX pins as output & input pins
  U3STAbits.UTXEN = 1;
9d00702c:	3c04bf80 	lui	a0,0xbf80
9d007030:	8c866410 	lw	a2,25616(a0)
9d007034:	7c665284 	ins	a2,v1,0xa,0x1
9d007038:	ac866410 	sw	a2,25616(a0)
  U3STAbits.URXEN = 1;
9d00703c:	8c866410 	lw	a2,25616(a0)
9d007040:	7c666304 	ins	a2,v1,0xc,0x1
9d007044:	ac866410 	sw	a2,25616(a0)
  // configure hardware flow control using RTS and CTS
  U3MODEbits.UEN = 2;
9d007048:	94446400 	lhu	a0,25600(v0)
9d00704c:	7ca44a04 	ins	a0,a1,0x8,0x2
9d007050:	a4446400 	sh	a0,25600(v0)

  // enable the uart
  U3MODEbits.ON = 1;
9d007054:	94446400 	lhu	a0,25600(v0)
9d007058:	7c647bc4 	ins	a0,v1,0xf,0x1
9d00705c:	a4446400 	sh	a0,25600(v0)

  __builtin_enable_interrupts();
9d007060:	41626020 	ei	v0
}
9d007064:	8fbf0004 	lw	ra,4(sp)
9d007068:	03e00008 	jr	ra
9d00706c:	27bd0008 	addiu	sp,sp,8

9d007070 <NU32_ReadUART3>:
// Read from UART3
// block other functions until you get a '\r' or '\n'
// send the pointer to your char array and the number of elements in the array
void NU32_ReadUART3(char * message, int maxLength) {
  char data = 0;
  int complete = 0, num_bytes = 0;
9d007070:	00003021 	move	a2,zero
  // loop until you get a '\r' or '\n'
  while (!complete) {
    if (U3STAbits.URXDA) { // if data is available
9d007074:	3c03bf80 	lui	v1,0xbf80
      data = U3RXREG;      // read the data
9d007078:	3c08bf80 	lui	t0,0xbf80
      if ((data == '\n') || (data == '\r')) {
9d00707c:	2407000a 	li	a3,10
9d007080:	0b401c30 	j	9d0070c0 <NU32_ReadUART3+0x50>
9d007084:	2409000d 	li	t1,13
void NU32_ReadUART3(char * message, int maxLength) {
  char data = 0;
  int complete = 0, num_bytes = 0;
  // loop until you get a '\r' or '\n'
  while (!complete) {
    if (U3STAbits.URXDA) { // if data is available
9d007088:	8c626410 	lw	v0,25616(v1)
9d00708c:	30420001 	andi	v0,v0,0x1
9d007090:	1040fffd 	beqz	v0,9d007088 <NU32_ReadUART3+0x18>
9d007094:	00000000 	nop
      data = U3RXREG;      // read the data
9d007098:	8d026430 	lw	v0,25648(t0)
9d00709c:	7c021420 	seb	v0,v0
      if ((data == '\n') || (data == '\r')) {
9d0070a0:	5047000e 	beql	v0,a3,9d0070dc <NU32_ReadUART3+0x6c>
9d0070a4:	00862021 	addu	a0,a0,a2
9d0070a8:	1049000b 	beq	v0,t1,9d0070d8 <NU32_ReadUART3+0x68>
9d0070ac:	00865021 	addu	t2,a0,a2
        complete = 1;
      } else {
        message[num_bytes] = data;
9d0070b0:	a1420000 	sb	v0,0(t2)
        ++num_bytes;
9d0070b4:	24c60001 	addiu	a2,a2,1
        // roll over if the array is too small
        if (num_bytes >= maxLength) {
9d0070b8:	00c5102a 	slt	v0,a2,a1
          num_bytes = 0;
9d0070bc:	0002300a 	movz	a2,zero,v0
void NU32_ReadUART3(char * message, int maxLength) {
  char data = 0;
  int complete = 0, num_bytes = 0;
  // loop until you get a '\r' or '\n'
  while (!complete) {
    if (U3STAbits.URXDA) { // if data is available
9d0070c0:	8c626410 	lw	v0,25616(v1)
9d0070c4:	30420001 	andi	v0,v0,0x1
9d0070c8:	1040ffef 	beqz	v0,9d007088 <NU32_ReadUART3+0x18>
9d0070cc:	00000000 	nop
9d0070d0:	0b401c26 	j	9d007098 <NU32_ReadUART3+0x28>
9d0070d4:	00000000 	nop
        }
      }
    }
  }
  // end the string
  message[num_bytes] = '\0';
9d0070d8:	00862021 	addu	a0,a0,a2
9d0070dc:	03e00008 	jr	ra
9d0070e0:	a0800000 	sb	zero,0(a0)

9d0070e4 <NU32_WriteUART3>:
}

// Write a character array using UART3
void NU32_WriteUART3(const char * string) {
  while (*string != '\0') {
9d0070e4:	80850000 	lb	a1,0(a0)
9d0070e8:	10a0000b 	beqz	a1,9d007118 <NU32_WriteUART3+0x34>
9d0070ec:	3c03bf80 	lui	v1,0xbf80
    while (U3STAbits.UTXBF) {
      ; // wait until tx buffer isn't full
    }
    U3TXREG = *string;
9d0070f0:	3c06bf80 	lui	a2,0xbf80
}

// Write a character array using UART3
void NU32_WriteUART3(const char * string) {
  while (*string != '\0') {
    while (U3STAbits.UTXBF) {
9d0070f4:	8c626410 	lw	v0,25616(v1)
9d0070f8:	30420200 	andi	v0,v0,0x200
9d0070fc:	1440fffd 	bnez	v0,9d0070f4 <NU32_WriteUART3+0x10>
9d007100:	00000000 	nop
      ; // wait until tx buffer isn't full
    }
    U3TXREG = *string;
9d007104:	acc56420 	sw	a1,25632(a2)
    ++string;
9d007108:	24840001 	addiu	a0,a0,1
  message[num_bytes] = '\0';
}

// Write a character array using UART3
void NU32_WriteUART3(const char * string) {
  while (*string != '\0') {
9d00710c:	80850000 	lb	a1,0(a0)
9d007110:	14a0fff8 	bnez	a1,9d0070f4 <NU32_WriteUART3+0x10>
9d007114:	00000000 	nop
9d007118:	03e00008 	jr	ra
9d00711c:	00000000 	nop

Disassembly of section .text.fp32mul:

9d007120 <__mulsf3>:
9d007120:	00043dc2 30e700ff 00054dc2 312900ff     .=.....0.M....)1
9d007130:	3c0a8000 00043200 00ca3025 00054200     ...<.2..%0...B..
9d007140:	010a4025 00856026 014c5024 24ecffff     %@..&`..$PL....$
9d007150:	2d8100fe 10200021 00000000              ...-!. .....

9d00715c <Clab1>:
9d00715c:	252cffff 	addiu	t4,t1,-1
9d007160:	2d8100fe 	sltiu	at,t4,254
9d007164:	10200036 	beqz	at,9d007240 <CspecB>
9d007168:	00000000 	nop

9d00716c <Clab2>:
9d00716c:	00c80019 	multu	a2,t0
9d007170:	00005812 	mflo	t3
9d007174:	11600002 	beqz	t3,9d007180 <i17>
9d007178:	00003010 	mfhi	a2
9d00717c:	34c60001 	ori	a2,a2,0x1

9d007180 <i17>:
9d007180:	04c00003 	bltz	a2,9d007190 <i18>
9d007184:	00000000 	nop
9d007188:	00063040 	sll	a2,a2,0x1
9d00718c:	24e7ffff 	addiu	a3,a3,-1

9d007190 <i18>:
9d007190:	252cff82 	addiu	t4,t1,-126
9d007194:	00ec3821 	addu	a3,a3,t4
9d007198:	24ecffff 	addiu	t4,a3,-1
9d00719c:	2d8100fe 	sltiu	at,t4,254
9d0071a0:	1020003a 	beqz	at,9d00728c <Coveund>
9d0071a4:	00000000 	nop

9d0071a8 <Clab8>:
9d0071a8:	24c60080 	addiu	a2,a2,128
9d0071ac:	2ccc0080 	sltiu	t4,a2,128
9d0071b0:	00ec3821 	addu	a3,a3,t4
9d0071b4:	00066202 	srl	t4,a2,0x8
9d0071b8:	318c0001 	andi	t4,t4,0x1
9d0071bc:	00cc3023 	subu	a2,a2,t4
9d0071c0:	00063040 	sll	a2,a2,0x1
9d0071c4:	00063242 	srl	a2,a2,0x9
9d0071c8:	000765c0 	sll	t4,a3,0x17
9d0071cc:	00cc3025 	or	a2,a2,t4
9d0071d0:	00ca1025 	or	v0,a2,t2

9d0071d4 <C999>:
9d0071d4:	03e00008 	jr	ra
9d0071d8:	00000000 	nop

9d0071dc <CspecA>:
9d0071dc:	14e0000d 	bnez	a3,9d007214 <i19>
9d0071e0:	00000000 	nop
9d0071e4:	00c63021 	addu	a2,a2,a2
9d0071e8:	10c00005 	beqz	a2,9d007200 <i20>
9d0071ec:	00000000 	nop
9d0071f0:	70cb5820 	clz	t3,a2
9d0071f4:	00eb3823 	subu	a3,a3,t3
9d0071f8:	1000ffd8 	b	9d00715c <Clab1>
9d0071fc:	01663004 	sllv	a2,a2,t3

9d007200 <i20>:
9d007200:	240100ff 	li	at,255
9d007204:	1121001f 	beq	t1,at,9d007284 <Cnan>
9d007208:	00000000 	nop
9d00720c:	10000015 	b	9d007264 <Czer>
9d007210:	00000000 	nop

9d007214 <i19>:
9d007214:	00c66021 	addu	t4,a2,a2
9d007218:	1580001a 	bnez	t4,9d007284 <Cnan>
9d00721c:	00000000 	nop
9d007220:	15200004 	bnez	t1,9d007234 <i21>
9d007224:	00000000 	nop
9d007228:	01086021 	addu	t4,t0,t0
9d00722c:	11800015 	beqz	t4,9d007284 <Cnan>
9d007230:	00000000 	nop

9d007234 <i21>:
9d007234:	240100ff 	li	at,255
9d007238:	1521000f 	bne	t1,at,9d007278 <Cinf>
9d00723c:	00000000 	nop

9d007240 <CspecB>:
9d007240:	1520000a 	bnez	t1,9d00726c <i22>
9d007244:	00000000 	nop
9d007248:	01084021 	addu	t0,t0,t0
9d00724c:	11000005 	beqz	t0,9d007264 <Czer>
9d007250:	00000000 	nop
9d007254:	710b5820 	clz	t3,t0
9d007258:	012b4823 	subu	t1,t1,t3
9d00725c:	1000ffc3 	b	9d00716c <Clab2>
9d007260:	01684004 	sllv	t0,t0,t3

9d007264 <Czer>:
9d007264:	1000ffdb 	b	9d0071d4 <C999>
9d007268:	000a1025 	or	v0,zero,t2

9d00726c <i22>:
9d00726c:	01086021 	addu	t4,t0,t0
9d007270:	15800004 	bnez	t4,9d007284 <Cnan>
9d007274:	00000000 	nop

9d007278 <Cinf>:
9d007278:	3c017f80 	lui	at,0x7f80
9d00727c:	1000ffd5 	b	9d0071d4 <C999>
9d007280:	01411025 	or	v0,t2,at

9d007284 <Cnan>:
9d007284:	1000ffd3 	b	9d0071d4 <C999>
9d007288:	3c02ffc0 	lui	v0,0xffc0

9d00728c <Coveund>:
9d00728c:	1ce0fffa 	bgtz	a3,9d007278 <Cinf>
9d007290:	00000000 	nop
9d007294:	240b0001 	li	t3,1
9d007298:	01675823 	subu	t3,t3,a3
9d00729c:	2d610020 	sltiu	at,t3,32
9d0072a0:	1020fff0 	beqz	at,9d007264 <Czer>
9d0072a4:	00000000 	nop
9d0072a8:	240c0020 	li	t4,32
9d0072ac:	018b6023 	subu	t4,t4,t3
9d0072b0:	01863804 	sllv	a3,a2,t4
9d0072b4:	10e00002 	beqz	a3,9d0072c0 <i25>
9d0072b8:	01663006 	srlv	a2,a2,t3
9d0072bc:	34c60002 	ori	a2,a2,0x2

9d0072c0 <i25>:
9d0072c0:	24070000 	li	a3,0
9d0072c4:	24cc0080 	addiu	t4,a2,128
9d0072c8:	0581ffb7 	bgez	t4,9d0071a8 <Clab8>
9d0072cc:	00000000 	nop
9d0072d0:	1000ffb5 	b	9d0071a8 <Clab8>
9d0072d4:	24070001 	li	a3,1
9d0072d8:	00000000 	nop

Disassembly of section .text.__ldexp:

9d0072dc <__ldexp>:
9d0072dc:	27bdffe0 	addiu	sp,sp,-32
9d0072e0:	afbf001c 	sw	ra,28(sp)
9d0072e4:	afb20018 	sw	s2,24(sp)
9d0072e8:	afb10014 	sw	s1,20(sp)
9d0072ec:	afb00010 	sw	s0,16(sp)
9d0072f0:	7ca75500 	ext	a3,a1,0x14,0xb
9d0072f4:	24e2ffff 	addiu	v0,a3,-1
9d0072f8:	7ca89800 	ext	t0,a1,0x0,0x14
9d0072fc:	2c4907fe 	sltiu	t1,v0,2046
9d007300:	00c08821 	move	s1,a2
9d007304:	000587c2 	srl	s0,a1,0x1f
9d007308:	00801021 	move	v0,a0
9d00730c:	11200041 	beqz	t1,9d007414 <__ldexp+0x138>
9d007310:	01001821 	move	v1,t0
9d007314:	24e7fc01 	addiu	a3,a3,-1023
9d007318:	3c040010 	lui	a0,0x10
9d00731c:	01041825 	or	v1,t0,a0
9d007320:	00f13821 	addu	a3,a3,s1
9d007324:	00022f42 	srl	a1,v0,0x1d
9d007328:	000318c0 	sll	v1,v1,0x3
9d00732c:	24e403ff 	addiu	a0,a3,1023
9d007330:	00a31825 	or	v1,a1,v1
9d007334:	18800025 	blez	a0,9d0073cc <__ldexp+0xf0>
9d007338:	000210c0 	sll	v0,v0,0x3
9d00733c:	30450007 	andi	a1,v0,0x7
9d007340:	14a00015 	bnez	a1,9d007398 <__ldexp+0xbc>
9d007344:	7c4500c0 	ext	a1,v0,0x3,0x1
9d007348:	00033740 	sll	a2,v1,0x1d
9d00734c:	000210c2 	srl	v0,v0,0x3
9d007350:	288507ff 	slti	a1,a0,2047
9d007354:	00c21025 	or	v0,a2,v0
9d007358:	10a00036 	beqz	a1,9d007434 <__ldexp+0x158>
9d00735c:	000318c2 	srl	v1,v1,0x3
9d007360:	7c650500 	ext	a1,v1,0x14,0x1
9d007364:	50a00002 	beqzl	a1,9d007370 <__ldexp+0x94>
9d007368:	00002021 	move	a0,zero
9d00736c:	7c639800 	ext	v1,v1,0x0,0x14
9d007370:	001082c0 	sll	s0,s0,0xb
9d007374:	00902025 	or	a0,a0,s0
9d007378:	00042500 	sll	a0,a0,0x14
9d00737c:	00831825 	or	v1,a0,v1
9d007380:	8fbf001c 	lw	ra,28(sp)
9d007384:	8fb20018 	lw	s2,24(sp)
9d007388:	8fb10014 	lw	s1,20(sp)
9d00738c:	8fb00010 	lw	s0,16(sp)
9d007390:	03e00008 	jr	ra
9d007394:	27bd0020 	addiu	sp,sp,32
9d007398:	24a50003 	addiu	a1,a1,3
9d00739c:	00452821 	addu	a1,v0,a1
9d0073a0:	00a2102b 	sltu	v0,a1,v0
9d0073a4:	00431821 	addu	v1,v0,v1
9d0073a8:	7c660600 	ext	a2,v1,0x18,0x1
9d0073ac:	10c0ffe6 	beqz	a2,9d007348 <__ldexp+0x6c>
9d0073b0:	00a01021 	move	v0,a1
9d0073b4:	00032fc0 	sll	a1,v1,0x1f
9d0073b8:	00021042 	srl	v0,v0,0x1
9d0073bc:	00a21025 	or	v0,a1,v0
9d0073c0:	00031842 	srl	v1,v1,0x1
9d0073c4:	0b401cd2 	j	9d007348 <__ldexp+0x6c>
9d0073c8:	24840001 	addiu	a0,a0,1
9d0073cc:	2406fc02 	li	a2,-1022
9d0073d0:	00c73023 	subu	a2,a2,a3
9d0073d4:	28c40038 	slti	a0,a2,56
9d0073d8:	5080001b 	beqzl	a0,9d007448 <__ldexp+0x16c>
9d0073dc:	00001021 	move	v0,zero
9d0073e0:	00062023 	negu	a0,a2
9d0073e4:	30850020 	andi	a1,a0,0x20
9d0073e8:	14a00003 	bnez	a1,9d0073f8 <__ldexp+0x11c>
9d0073ec:	00828804 	sllv	s1,v0,a0
9d0073f0:	00832004 	sllv	a0,v1,a0
9d0073f4:	00828825 	or	s1,a0,v0
9d0073f8:	00402021 	move	a0,v0
9d0073fc:	0f4023ea 	jal	9d008fa8 <__lshrdi3>
9d007400:	00602821 	move	a1,v1
9d007404:	0011882b 	sltu	s1,zero,s1
9d007408:	02221025 	or	v0,s1,v0
9d00740c:	0b401ccf 	j	9d00733c <__ldexp+0x60>
9d007410:	24040001 	li	a0,1
9d007414:	54e00005 	bnezl	a3,9d00742c <__ldexp+0x150>
9d007418:	00801021 	move	v0,a0
9d00741c:	01043025 	or	a2,t0,a0
9d007420:	14c0000c 	bnez	a2,9d007454 <__ldexp+0x178>
9d007424:	00000000 	nop
9d007428:	00801021 	move	v0,a0
9d00742c:	0b401ce0 	j	9d007380 <__ldexp+0xa4>
9d007430:	00a01821 	move	v1,a1
9d007434:	00101ac0 	sll	v1,s0,0xb
9d007438:	346307ff 	ori	v1,v1,0x7ff
9d00743c:	00031d00 	sll	v1,v1,0x14
9d007440:	0b401ce0 	j	9d007380 <__ldexp+0xa4>
9d007444:	00001021 	move	v0,zero
9d007448:	00001821 	move	v1,zero
9d00744c:	0b401cdc 	j	9d007370 <__ldexp+0x94>
9d007450:	00002021 	move	a0,zero
9d007454:	15000003 	bnez	t0,9d007464 <__ldexp+0x188>
9d007458:	71129020 	clz	s2,t0
9d00745c:	70929020 	clz	s2,a0
9d007460:	26520020 	addiu	s2,s2,32
9d007464:	2646fff5 	addiu	a2,s2,-11
9d007468:	10c0ffad 	beqz	a2,9d007320 <__ldexp+0x44>
9d00746c:	2407fc02 	li	a3,-1022
9d007470:	0f4023fa 	jal	9d008fe8 <__ashldi3>
9d007474:	01002821 	move	a1,t0
9d007478:	2407fc0d 	li	a3,-1011
9d00747c:	0b401cc8 	j	9d007320 <__ldexp+0x44>
9d007480:	00f23823 	subu	a3,a3,s2

Disassembly of section .text._filbuf:

9d007484 <_filbuf>:
9d007484:	27bdffd0 	addiu	sp,sp,-48
9d007488:	afbf002c 	sw	ra,44(sp)
9d00748c:	afb40028 	sw	s4,40(sp)
9d007490:	afb30024 	sw	s3,36(sp)
9d007494:	afb20020 	sw	s2,32(sp)
9d007498:	afb1001c 	sw	s1,28(sp)
9d00749c:	afb00018 	sw	s0,24(sp)
9d0074a0:	00808821 	move	s1,a0
9d0074a4:	9482000c 	lhu	v0,12(a0)
9d0074a8:	30420001 	andi	v0,v0,0x1
9d0074ac:	1040004a 	beqz	v0,9d0075d8 <_filbuf+0x154>
9d0074b0:	ac800004 	sw	zero,4(a0)
9d0074b4:	3c14a000 	lui	s4,0xa000
9d0074b8:	828219dc 	lb	v0,6620(s4)
9d0074bc:	50400014 	beqzl	v0,9d007510 <_filbuf+0x8c>
9d0074c0:	8e260010 	lw	a2,16(s1)
9d0074c4:	3c10a000 	lui	s0,0xa000
9d0074c8:	26101938 	addiu	s0,s0,6456
9d0074cc:	3c13a000 	lui	s3,0xa000
9d0074d0:	267319d8 	addiu	s3,s3,6616
9d0074d4:	0b401d39 	j	9d0074e4 <_filbuf+0x60>
9d0074d8:	24120102 	li	s2,258
9d0074dc:	5213000b 	beql	s0,s3,9d00750c <_filbuf+0x88>
9d0074e0:	a28019dc 	sb	zero,6620(s4)
9d0074e4:	9602000c 	lhu	v0,12(s0)
9d0074e8:	30420102 	andi	v0,v0,0x102
9d0074ec:	5452fffb 	bnel	v0,s2,9d0074dc <_filbuf+0x58>
9d0074f0:	26100014 	addiu	s0,s0,20
9d0074f4:	0f4021cb 	jal	9d00872c <.LFE0>
9d0074f8:	02002021 	move	a0,s0
9d0074fc:	26100014 	addiu	s0,s0,20
9d007500:	5613fff9 	bnel	s0,s3,9d0074e8 <_filbuf+0x64>
9d007504:	9602000c 	lhu	v0,12(s0)
9d007508:	a28019dc 	sb	zero,6620(s4)
9d00750c:	8e260010 	lw	a2,16(s1)
9d007510:	10c00016 	beqz	a2,9d00756c <_filbuf+0xe8>
9d007514:	9624000e 	lhu	a0,14(s1)
9d007518:	0f401ddd 	jal	9d007774 <read>
9d00751c:	8e250008 	lw	a1,8(s1)
9d007520:	1040002f 	beqz	v0,9d0075e0 <_filbuf+0x15c>
9d007524:	ae220004 	sw	v0,4(s1)
9d007528:	2403ffff 	li	v1,-1
9d00752c:	50430034 	beql	v0,v1,9d007600 <_filbuf+0x17c>
9d007530:	9622000c 	lhu	v0,12(s1)
9d007534:	8e230008 	lw	v1,8(s1)
9d007538:	2442ffff 	addiu	v0,v0,-1
9d00753c:	ae220004 	sw	v0,4(s1)
9d007540:	24620001 	addiu	v0,v1,1
9d007544:	ae220000 	sw	v0,0(s1)
9d007548:	90620000 	lbu	v0,0(v1)
9d00754c:	8fbf002c 	lw	ra,44(sp)
9d007550:	8fb40028 	lw	s4,40(sp)
9d007554:	8fb30024 	lw	s3,36(sp)
9d007558:	8fb20020 	lw	s2,32(sp)
9d00755c:	8fb1001c 	lw	s1,28(sp)
9d007560:	8fb00018 	lw	s0,24(sp)
9d007564:	03e00008 	jr	ra
9d007568:	27bd0030 	addiu	sp,sp,48
9d00756c:	ae200004 	sw	zero,4(s1)
9d007570:	27a50010 	addiu	a1,sp,16
9d007574:	0f401ddd 	jal	9d007774 <read>
9d007578:	24060001 	li	a2,1
9d00757c:	24030001 	li	v1,1
9d007580:	1043000c 	beq	v0,v1,9d0075b4 <_filbuf+0x130>
9d007584:	2402ffff 	li	v0,-1
9d007588:	9623000c 	lhu	v1,12(s1)
9d00758c:	34630010 	ori	v1,v1,0x10
9d007590:	a623000c 	sh	v1,12(s1)
9d007594:	8fbf002c 	lw	ra,44(sp)
9d007598:	8fb40028 	lw	s4,40(sp)
9d00759c:	8fb30024 	lw	s3,36(sp)
9d0075a0:	8fb20020 	lw	s2,32(sp)
9d0075a4:	8fb1001c 	lw	s1,28(sp)
9d0075a8:	8fb00018 	lw	s0,24(sp)
9d0075ac:	03e00008 	jr	ra
9d0075b0:	27bd0030 	addiu	sp,sp,48
9d0075b4:	93a20010 	lbu	v0,16(sp)
9d0075b8:	8fbf002c 	lw	ra,44(sp)
9d0075bc:	8fb40028 	lw	s4,40(sp)
9d0075c0:	8fb30024 	lw	s3,36(sp)
9d0075c4:	8fb20020 	lw	s2,32(sp)
9d0075c8:	8fb1001c 	lw	s1,28(sp)
9d0075cc:	8fb00018 	lw	s0,24(sp)
9d0075d0:	03e00008 	jr	ra
9d0075d4:	27bd0030 	addiu	sp,sp,48
9d0075d8:	0b401d53 	j	9d00754c <_filbuf+0xc8>
9d0075dc:	2402ffff 	li	v0,-1
9d0075e0:	9622000c 	lhu	v0,12(s1)
9d0075e4:	34420010 	ori	v0,v0,0x10
9d0075e8:	a622000c 	sh	v0,12(s1)
9d0075ec:	8e230008 	lw	v1,8(s1)
9d0075f0:	ae200004 	sw	zero,4(s1)
9d0075f4:	2402ffff 	li	v0,-1
9d0075f8:	0b401d53 	j	9d00754c <_filbuf+0xc8>
9d0075fc:	ae230000 	sw	v1,0(s1)
9d007600:	34420030 	ori	v0,v0,0x30
9d007604:	0b401d7b 	j	9d0075ec <_filbuf+0x168>
9d007608:	a622000c 	sh	v0,12(s1)

Disassembly of section .text:

9d00760c <strlen>:
9d00760c:	908a0000 	lbu	t2,0(a0)
9d007610:	00801021 	move	v0,a0
9d007614:	15400003 	bnez	t2,9d007624 <strlen+0x18>
9d007618:	00000000 	nop
9d00761c:	03e00008 	jr	ra
9d007620:	24020000 	li	v0,0
9d007624:	908a0001 	lbu	t2,1(a0)
9d007628:	15400003 	bnez	t2,9d007638 <strlen+0x2c>
9d00762c:	00000000 	nop
9d007630:	03e00008 	jr	ra
9d007634:	24020001 	li	v0,1
9d007638:	908a0002 	lbu	t2,2(a0)
9d00763c:	15400003 	bnez	t2,9d00764c <strlen+0x40>
9d007640:	00000000 	nop
9d007644:	03e00008 	jr	ra
9d007648:	24020002 	li	v0,2
9d00764c:	908a0003 	lbu	t2,3(a0)
9d007650:	15400003 	bnez	t2,9d007660 <strlen+0x54>
9d007654:	00042082 	srl	a0,a0,0x2
9d007658:	03e00008 	jr	ra
9d00765c:	24020003 	li	v0,3
9d007660:	24840001 	addiu	a0,a0,1
9d007664:	00042080 	sll	a0,a0,0x2
9d007668:	8c8a0000 	lw	t2,0(a0)
9d00766c:	3c090101 	lui	t1,0x101
9d007670:	35290101 	ori	t1,t1,0x101
9d007674:	000979c0 	sll	t7,t1,0x7
9d007678:	01494023 	subu	t0,t2,t1
9d00767c:	010f4024 	and	t0,t0,t7
9d007680:	11000006 	beqz	t0,9d00769c <strlen+0x90>
9d007684:	010a6024 	and	t4,t0,t2
9d007688:	11880004 	beq	t4,t0,9d00769c <strlen+0x90>
9d00768c:	00000000 	nop
9d007690:	908a0000 	lbu	t2,0(a0)
9d007694:	10000022 	b	9d007720 <strlen+0x114>
9d007698:	24840000 	addiu	a0,a0,0
9d00769c:	8c8b0004 	lw	t3,4(a0)
9d0076a0:	01694023 	subu	t0,t3,t1
9d0076a4:	010f4024 	and	t0,t0,t7
9d0076a8:	11000006 	beqz	t0,9d0076c4 <strlen+0xb8>
9d0076ac:	010b6024 	and	t4,t0,t3
9d0076b0:	11880004 	beq	t4,t0,9d0076c4 <strlen+0xb8>
9d0076b4:	00000000 	nop
9d0076b8:	908a0004 	lbu	t2,4(a0)
9d0076bc:	10000018 	b	9d007720 <strlen+0x114>
9d0076c0:	24840004 	addiu	a0,a0,4
9d0076c4:	8c8a0008 	lw	t2,8(a0)
9d0076c8:	01494023 	subu	t0,t2,t1
9d0076cc:	010f4024 	and	t0,t0,t7
9d0076d0:	11000006 	beqz	t0,9d0076ec <strlen+0xe0>
9d0076d4:	010a6024 	and	t4,t0,t2
9d0076d8:	11880004 	beq	t4,t0,9d0076ec <strlen+0xe0>
9d0076dc:	00000000 	nop
9d0076e0:	908a0008 	lbu	t2,8(a0)
9d0076e4:	1000000e 	b	9d007720 <strlen+0x114>
9d0076e8:	24840008 	addiu	a0,a0,8
9d0076ec:	8c8b000c 	lw	t3,12(a0)
9d0076f0:	01694023 	subu	t0,t3,t1
9d0076f4:	010f4024 	and	t0,t0,t7
9d0076f8:	11000006 	beqz	t0,9d007714 <strlen+0x108>
9d0076fc:	010b6024 	and	t4,t0,t3
9d007700:	11880004 	beq	t4,t0,9d007714 <strlen+0x108>
9d007704:	00000000 	nop
9d007708:	908a000c 	lbu	t2,12(a0)
9d00770c:	10000004 	b	9d007720 <strlen+0x114>
9d007710:	2484000c 	addiu	a0,a0,12
9d007714:	8c8a0010 	lw	t2,16(a0)
9d007718:	1000ffd7 	b	9d007678 <strlen+0x6c>
9d00771c:	24840010 	addiu	a0,a0,16
9d007720:	15400004 	bnez	t2,9d007734 <strlen+0x128>
9d007724:	00000000 	nop
9d007728:	24840000 	addiu	a0,a0,0
9d00772c:	03e00008 	jr	ra
9d007730:	00821023 	subu	v0,a0,v0
9d007734:	908a0001 	lbu	t2,1(a0)
9d007738:	15400004 	bnez	t2,9d00774c <strlen+0x140>
9d00773c:	00000000 	nop
9d007740:	24840001 	addiu	a0,a0,1
9d007744:	03e00008 	jr	ra
9d007748:	00821023 	subu	v0,a0,v0
9d00774c:	908a0002 	lbu	t2,2(a0)
9d007750:	15400004 	bnez	t2,9d007764 <strlen+0x158>
9d007754:	00000000 	nop
9d007758:	24840002 	addiu	a0,a0,2
9d00775c:	03e00008 	jr	ra
9d007760:	00821023 	subu	v0,a0,v0
9d007764:	908a0003 	lbu	t2,3(a0)
9d007768:	24840003 	addiu	a0,a0,3
9d00776c:	03e00008 	jr	ra
9d007770:	00821023 	subu	v0,a0,v0

Disassembly of section .text.read:

9d007774 <read>:
9d007774:	27bdffe0 	addiu	sp,sp,-32
9d007778:	afbf001c 	sw	ra,28(sp)
9d00777c:	afb20018 	sw	s2,24(sp)
9d007780:	afb10014 	sw	s1,20(sp)
9d007784:	afb00010 	sw	s0,16(sp)
9d007788:	10a00017 	beqz	a1,9d0077e8 <read+0x74>
9d00778c:	00a08021 	move	s0,a1
9d007790:	00c09021 	move	s2,a2
9d007794:	10c0000e 	beqz	a2,9d0077d0 <read+0x5c>
9d007798:	00001021 	move	v0,zero
9d00779c:	1480000c 	bnez	a0,9d0077d0 <read+0x5c>
9d0077a0:	02401021 	move	v0,s2
9d0077a4:	3c020000 	lui	v0,0x0
9d0077a8:	24420000 	addiu	v0,v0,0
9d0077ac:	10400015 	beqz	v0,9d007804 <read+0x90>
9d0077b0:	00c08821 	move	s1,a2
9d0077b4:	24040001 	li	a0,1
9d0077b8:	0c000000 	jal	90000000 <_bmxdkpba_address+0x8ffe0000>
9d0077bc:	26100001 	addiu	s0,s0,1
9d0077c0:	2631ffff 	addiu	s1,s1,-1
9d0077c4:	1620fffb 	bnez	s1,9d0077b4 <read+0x40>
9d0077c8:	a202ffff 	sb	v0,-1(s0)
9d0077cc:	02401021 	move	v0,s2
9d0077d0:	8fbf001c 	lw	ra,28(sp)
9d0077d4:	8fb20018 	lw	s2,24(sp)
9d0077d8:	8fb10014 	lw	s1,20(sp)
9d0077dc:	8fb00010 	lw	s0,16(sp)
9d0077e0:	03e00008 	jr	ra
9d0077e4:	27bd0020 	addiu	sp,sp,32
9d0077e8:	00001021 	move	v0,zero
9d0077ec:	8fbf001c 	lw	ra,28(sp)
9d0077f0:	8fb20018 	lw	s2,24(sp)
9d0077f4:	8fb10014 	lw	s1,20(sp)
9d0077f8:	8fb00010 	lw	s0,16(sp)
9d0077fc:	03e00008 	jr	ra
9d007800:	27bd0020 	addiu	sp,sp,32
9d007804:	3c02a000 	lui	v0,0xa000
9d007808:	8c430000 	lw	v1,0(v0)
9d00780c:	24020002 	li	v0,2
9d007810:	10620025 	beq	v1,v0,9d0078a8 <read+0x134>
9d007814:	3c02bf80 	lui	v0,0xbf80
9d007818:	3c02bf80 	lui	v0,0xbf80
9d00781c:	8c426000 	lw	v0,24576(v0)
9d007820:	3c06bf80 	lui	a2,0xbf80
9d007824:	24c66030 	addiu	a2,a2,24624
9d007828:	3c05bf80 	lui	a1,0xbf80
9d00782c:	24a56010 	addiu	a1,a1,24592
9d007830:	30428000 	andi	v0,v0,0x8000
9d007834:	14400005 	bnez	v0,9d00784c <read+0xd8>
9d007838:	02401021 	move	v0,s2
9d00783c:	34038000 	li	v1,0x8000
9d007840:	3c02bf80 	lui	v0,0xbf80
9d007844:	ac436008 	sw	v1,24584(v0)
9d007848:	02401021 	move	v0,s2
9d00784c:	8ca30000 	lw	v1,0(a1)
9d007850:	30630001 	andi	v1,v1,0x1
9d007854:	14600009 	bnez	v1,9d00787c <read+0x108>
9d007858:	240300a0 	li	v1,160
9d00785c:	0b401e1b 	j	9d00786c <read+0xf8>
9d007860:	00000000 	nop
9d007864:	10600005 	beqz	v1,9d00787c <read+0x108>
9d007868:	00000000 	nop
9d00786c:	8ca40000 	lw	a0,0(a1)
9d007870:	30840001 	andi	a0,a0,0x1
9d007874:	1080fffb 	beqz	a0,9d007864 <read+0xf0>
9d007878:	2463ffff 	addiu	v1,v1,-1
9d00787c:	8ca30000 	lw	v1,0(a1)
9d007880:	30630001 	andi	v1,v1,0x1
9d007884:	5460ffd2 	bnezl	v1,9d0077d0 <read+0x5c>
9d007888:	02421023 	subu	v0,s2,v0
9d00788c:	8cc30000 	lw	v1,0(a2)
9d007890:	26100001 	addiu	s0,s0,1
9d007894:	2442ffff 	addiu	v0,v0,-1
9d007898:	1440ffec 	bnez	v0,9d00784c <read+0xd8>
9d00789c:	a203ffff 	sb	v1,-1(s0)
9d0078a0:	0b401df4 	j	9d0077d0 <read+0x5c>
9d0078a4:	02421023 	subu	v0,s2,v0
9d0078a8:	24426840 	addiu	v0,v0,26688
9d0078ac:	1040ffda 	beqz	v0,9d007818 <read+0xa4>
9d0078b0:	3c02bf80 	lui	v0,0xbf80
9d0078b4:	8c426800 	lw	v0,26624(v0)
9d0078b8:	3c06bf80 	lui	a2,0xbf80
9d0078bc:	24c66830 	addiu	a2,a2,26672
9d0078c0:	3c05bf80 	lui	a1,0xbf80
9d0078c4:	0b401e0c 	j	9d007830 <read+0xbc>
9d0078c8:	24a56810 	addiu	a1,a1,26640

Disassembly of section .text.fputc:

9d0078cc <fputc>:
9d0078cc:	27bdffe0 	addiu	sp,sp,-32
9d0078d0:	afbf001c 	sw	ra,28(sp)
9d0078d4:	afb10018 	sw	s1,24(sp)
9d0078d8:	afb00014 	sw	s0,20(sp)
9d0078dc:	94a2000c 	lhu	v0,12(a1)
9d0078e0:	30430002 	andi	v1,v0,0x2
9d0078e4:	10600048 	beqz	v1,9d007a08 <fputc+0x13c>
9d0078e8:	00a08021 	move	s0,a1
9d0078ec:	30430200 	andi	v1,v0,0x200
9d0078f0:	1060001c 	beqz	v1,9d007964 <fputc+0x98>
9d0078f4:	8ca30004 	lw	v1,4(a1)
9d0078f8:	34450200 	ori	a1,v0,0x200
9d0078fc:	a605000c 	sh	a1,12(s0)
9d007900:	1060001c 	beqz	v1,9d007974 <fputc+0xa8>
9d007904:	309100ff 	andi	s1,a0,0xff
9d007908:	2404000a 	li	a0,10
9d00790c:	1224001f 	beq	s1,a0,9d00798c <fputc+0xc0>
9d007910:	30420080 	andi	v0,v0,0x80
9d007914:	8e020010 	lw	v0,16(s0)
9d007918:	10620036 	beq	v1,v0,9d0079f4 <fputc+0x128>
9d00791c:	24630001 	addiu	v1,v1,1
9d007920:	8e020000 	lw	v0,0(s0)
9d007924:	24440001 	addiu	a0,v0,1
9d007928:	ae040000 	sw	a0,0(s0)
9d00792c:	ae030004 	sw	v1,4(s0)
9d007930:	a0510000 	sb	s1,0(v0)
9d007934:	24030001 	li	v1,1
9d007938:	3c02a000 	lui	v0,0xa000
9d00793c:	a04319dc 	sb	v1,6620(v0)
9d007940:	2402000a 	li	v0,10
9d007944:	52220018 	beql	s1,v0,9d0079a8 <fputc+0xdc>
9d007948:	9603000c 	lhu	v1,12(s0)
9d00794c:	02201021 	move	v0,s1
9d007950:	8fbf001c 	lw	ra,28(sp)
9d007954:	8fb10018 	lw	s1,24(sp)
9d007958:	8fb00014 	lw	s0,20(sp)
9d00795c:	03e00008 	jr	ra
9d007960:	27bd0020 	addiu	sp,sp,32
9d007964:	14600028 	bnez	v1,9d007a08 <fputc+0x13c>
9d007968:	34450200 	ori	a1,v0,0x200
9d00796c:	a605000c 	sh	a1,12(s0)
9d007970:	309100ff 	andi	s1,a0,0xff
9d007974:	8e040008 	lw	a0,8(s0)
9d007978:	ae040000 	sw	a0,0(s0)
9d00797c:	2404000a 	li	a0,10
9d007980:	5624ffe5 	bnel	s1,a0,9d007918 <fputc+0x4c>
9d007984:	8e020010 	lw	v0,16(s0)
9d007988:	30420080 	andi	v0,v0,0x80
9d00798c:	5440ffe2 	bnezl	v0,9d007918 <fputc+0x4c>
9d007990:	8e020010 	lw	v0,16(s0)
9d007994:	2404000d 	li	a0,13
9d007998:	0f401e33 	jal	9d0078cc <fputc>
9d00799c:	02002821 	move	a1,s0
9d0079a0:	0b401e45 	j	9d007914 <fputc+0x48>
9d0079a4:	8e030004 	lw	v1,4(s0)
9d0079a8:	30630100 	andi	v1,v1,0x100
9d0079ac:	1060ffe8 	beqz	v1,9d007950 <fputc+0x84>
9d0079b0:	2402000a 	li	v0,10
9d0079b4:	9604000e 	lhu	a0,14(s0)
9d0079b8:	8e050008 	lw	a1,8(s0)
9d0079bc:	0f40221a 	jal	9d008868 <write>
9d0079c0:	8e060004 	lw	a2,4(s0)
9d0079c4:	8e030004 	lw	v1,4(s0)
9d0079c8:	50430006 	beql	v0,v1,9d0079e4 <fputc+0x118>
9d0079cc:	8e030008 	lw	v1,8(s0)
9d0079d0:	9602000c 	lhu	v0,12(s0)
9d0079d4:	2411ffff 	li	s1,-1
9d0079d8:	34420030 	ori	v0,v0,0x30
9d0079dc:	a602000c 	sh	v0,12(s0)
9d0079e0:	8e030008 	lw	v1,8(s0)
9d0079e4:	ae000004 	sw	zero,4(s0)
9d0079e8:	02201021 	move	v0,s1
9d0079ec:	0b401e54 	j	9d007950 <fputc+0x84>
9d0079f0:	ae030000 	sw	v1,0(s0)
9d0079f4:	7c112420 	seb	a0,s1
9d0079f8:	0f401ed0 	jal	9d007b40 <_flsbuf>
9d0079fc:	02002821 	move	a1,s0
9d007a00:	0b401e55 	j	9d007954 <fputc+0x88>
9d007a04:	8fbf001c 	lw	ra,28(sp)
9d007a08:	0b401e54 	j	9d007950 <fputc+0x84>
9d007a0c:	2402ffff 	li	v0,-1

Disassembly of section .dinit:

9d007a10 <.dinit>:
9d007a10:	a0000038 	sb	zero,56(zero)
9d007a14:	00001900 	sll	v1,zero,0x4
9d007a18:	00000000 	nop
9d007a1c:	a0000004 	sb	zero,4(zero)
9d007a20:	00000034 	teq	zero,zero
9d007a24:	00000000 	nop
9d007a28:	a0001a20 	sb	zero,6688(zero)
9d007a2c:	00000024 	and	zero,zero,zero
9d007a30:	00000001 	movf	zero,zero,$fcc0
9d007a34:	00067677 	0x67677
9d007a38:	01111553 	0x1111553
9d007a3c:	15555724 	bne	t2,s5,9d01d6d0 <.LFE16+0x1444c>
9d007a40:	8000006e 	lb	zero,110(zero)
9d007a44:	0000ceb4 	teq	zero,zero,0x33a
9d007a48:	002d867d 	0x2d867d
9d007a4c:	05555837 	0x5555837
9d007a50:	40000089 	0x40000089
9d007a54:	80000044 	lb	zero,68(zero)
9d007a58:	a0001a44 	sb	zero,6724(zero)
9d007a5c:	00000004 	sllv	zero,zero,zero
9d007a60:	00000000 	nop
9d007a64:	a0001938 	sb	zero,6456(zero)
9d007a68:	000000a4 	0xa4
9d007a6c:	00000001 	movf	zero,zero,$fcc0
9d007a70:	a00019e0 	sb	zero,6624(zero)
9d007a74:	00000000 	nop
9d007a78:	a00019e0 	sb	zero,6624(zero)
9d007a7c:	00000009 	jalr	zero,zero
9d007a80:	00000020 	add	zero,zero,zero
9d007a84:	a0001a00 	sb	zero,6656(zero)
9d007a88:	00000000 	nop
9d007a8c:	a0001a00 	sb	zero,6656(zero)
9d007a90:	0001020e 	0x1020e
	...
9d007aa4:	00020206 	0x20206
	...
9d007b10:	a0001938 	sb	zero,6456(zero)
9d007b14:	a00019dc 	sb	zero,6620(zero)
9d007b18:	00000044 	0x44
9d007b1c:	00000000 	nop
9d007b20:	a0000000 	sb	zero,0(zero)
9d007b24:	00000004 	sllv	zero,zero,zero
9d007b28:	00000001 	movf	zero,zero,$fcc0
9d007b2c:	00000002 	srl	zero,zero,0x0
9d007b30:	a0001a48 	sb	zero,6728(zero)
9d007b34:	00000004 	sllv	zero,zero,zero
	...

Disassembly of section .text._flsbuf:

9d007b40 <_flsbuf>:
9d007b40:	27bdffe8 	addiu	sp,sp,-24
9d007b44:	afbf0014 	sw	ra,20(sp)
9d007b48:	afb00010 	sw	s0,16(sp)
9d007b4c:	00a08021 	move	s0,a1
9d007b50:	94a2000c 	lhu	v0,12(a1)
9d007b54:	30430040 	andi	v1,v0,0x40
9d007b58:	1460001c 	bnez	v1,9d007bcc <_flsbuf+0x8c>
9d007b5c:	a3a40018 	sb	a0,24(sp)
9d007b60:	30430002 	andi	v1,v0,0x2
9d007b64:	5060003d 	beqzl	v1,9d007c5c <_flsbuf+0x11c>
9d007b68:	34420030 	ori	v0,v0,0x30
9d007b6c:	8ca30010 	lw	v1,16(a1)
9d007b70:	5060001b 	beqzl	v1,9d007be0 <_flsbuf+0xa0>
9d007b74:	94a4000e 	lhu	a0,14(a1)
9d007b78:	8ca50008 	lw	a1,8(a1)
9d007b7c:	50a0002d 	beqzl	a1,9d007c34 <_flsbuf+0xf4>
9d007b80:	3c05a000 	lui	a1,0xa000
9d007b84:	8e060004 	lw	a2,4(s0)
9d007b88:	0f40221a 	jal	9d008868 <write>
9d007b8c:	9604000e 	lhu	a0,14(s0)
9d007b90:	8e020008 	lw	v0,8(s0)
9d007b94:	83a30018 	lb	v1,24(sp)
9d007b98:	24440001 	addiu	a0,v0,1
9d007b9c:	2405ffff 	li	a1,-1
9d007ba0:	ae050004 	sw	a1,4(s0)
9d007ba4:	ae040000 	sw	a0,0(s0)
9d007ba8:	a0430000 	sb	v1,0(v0)
9d007bac:	83a20018 	lb	v0,24(sp)
9d007bb0:	2403000a 	li	v1,10
9d007bb4:	50430013 	beql	v0,v1,9d007c04 <_flsbuf+0xc4>
9d007bb8:	9603000c 	lhu	v1,12(s0)
9d007bbc:	8fbf0014 	lw	ra,20(sp)
9d007bc0:	8fb00010 	lw	s0,16(sp)
9d007bc4:	03e00008 	jr	ra
9d007bc8:	27bd0018 	addiu	sp,sp,24
9d007bcc:	7c041420 	seb	v0,a0
9d007bd0:	8fbf0014 	lw	ra,20(sp)
9d007bd4:	8fb00010 	lw	s0,16(sp)
9d007bd8:	03e00008 	jr	ra
9d007bdc:	27bd0018 	addiu	sp,sp,24
9d007be0:	27a50018 	addiu	a1,sp,24
9d007be4:	0f40221a 	jal	9d008868 <write>
9d007be8:	24060001 	li	a2,1
9d007bec:	ae000004 	sw	zero,4(s0)
9d007bf0:	83a20018 	lb	v0,24(sp)
9d007bf4:	8fbf0014 	lw	ra,20(sp)
9d007bf8:	8fb00010 	lw	s0,16(sp)
9d007bfc:	03e00008 	jr	ra
9d007c00:	27bd0018 	addiu	sp,sp,24
9d007c04:	30630100 	andi	v1,v1,0x100
9d007c08:	1060ffed 	beqz	v1,9d007bc0 <_flsbuf+0x80>
9d007c0c:	8fbf0014 	lw	ra,20(sp)
9d007c10:	9604000e 	lhu	a0,14(s0)
9d007c14:	8e050008 	lw	a1,8(s0)
9d007c18:	0f40221a 	jal	9d008868 <write>
9d007c1c:	8e060004 	lw	a2,4(s0)
9d007c20:	8e030008 	lw	v1,8(s0)
9d007c24:	83a20018 	lb	v0,24(sp)
9d007c28:	ae000004 	sw	zero,4(s0)
9d007c2c:	0b401eef 	j	9d007bbc <_flsbuf+0x7c>
9d007c30:	ae030000 	sw	v1,0(s0)
9d007c34:	24a51a00 	addiu	a1,a1,6656
9d007c38:	24030020 	li	v1,32
9d007c3c:	34420008 	ori	v0,v0,0x8
9d007c40:	ae050008 	sw	a1,8(s0)
9d007c44:	ae050000 	sw	a1,0(s0)
9d007c48:	ae030010 	sw	v1,16(s0)
9d007c4c:	ae030004 	sw	v1,4(s0)
9d007c50:	a602000c 	sh	v0,12(s0)
9d007c54:	0b401ee2 	j	9d007b88 <_flsbuf+0x48>
9d007c58:	24060020 	li	a2,32
9d007c5c:	a4a2000c 	sh	v0,12(a1)
9d007c60:	aca00004 	sw	zero,4(a1)
9d007c64:	0b401eef 	j	9d007bbc <_flsbuf+0x7c>
9d007c68:	2402ffff 	li	v0,-1

Disassembly of section .text.libm:

9d007c6c <fpsin>:
9d007c6c:	27bdfff8 afbf0000 0f401f62 afa40004     ...'....b.@.....
9d007c7c:	00185025 00034825 00024025 05210003     %P..%H..%@....!.
9d007c8c:	8fa40004 10000039 00081025 000a6740     ....9...%...@g..
9d007c9c:	008c2026 3c018000 00812024 01080019     & .....<$ ......
9d007cac:	00003810 2405007e 00a92823 00052840     .8..~..$#(..@(..
9d007cbc:	2ca10020 14200002 00000000 34070000      ..,.. ........4
9d007ccc:	00a73806 254cffff 318c0002 11800013     .8....L%...1....
9d007cdc:	00000000 3c0ba000 256b1a20 8d650000     .......< .k%..e.
9d007cec:	256b0004 00e50019 00002810 8d660000     ..k%.....(....f.
9d007cfc:	256b0004 04c1fffb 00c52823 18a00003     ..k%....#(......
9d007d0c:	00000000 00052840 2529ffff 25290001     ....@(....)%..)%
9d007d1c:	01050019 1000000c 00004010 3c0ba000     .........@.....<
9d007d2c:	256b1a30 8d680000 256b0004 00e80019     0.k%..h...k%....
9d007d3c:	00004010 8d660000 256b0004 04c1fffb     .@....f...k%....
9d007d4c:	00c84023 2409007f 19000003 00000000     #@.....$........
9d007d5c:	00084040 2529ffff 00084040 00084242     @@....)%@@..BB..
9d007d6c:	000965c0 010c4025 01041025 8fbf0000     .e..%@..%.......
9d007d7c:	03e00008 27bd0008 00000000              .......'....

9d007d88 <fpreduct>:
9d007d88:	000435c2 30c600ff 00042a00 3c018000     .5.....0.*.....<
9d007d98:	00a12825 24070000 24c8ff82 05000032     %(.....$...$2...
9d007da8:	00000000 29010020 10200034 00000000     .... ..)4. .....
9d007db8:	00052882 24090000 3c0b10b4 356b611a     .(.....$...<.ak5
9d007dc8:	3c0a6487 354aed51 00073840 24e70001     .d.<Q.J5@8.....$
9d007dd8:	0120602a 01294821 00a52821 00ac2821     *` .!H).!(..!(..
9d007de8:	012b602b 012b4823 00ac682b 00ac2823     +`+.#H+.+h..#(..
9d007df8:	00aa602b 018d6025 11800006 00aa2823     +`..%`......#(..
9d007e08:	24e7ffff 012b4821 012b602b 00aa2821     ...$!H+.+`+.!(..
9d007e18:	00ac2821 2508ffff 0501ffeb 00000000     !(.....%........
9d007e28:	30ec0001 11800007 00000000 0169602b     ...0........+`i.
9d007e38:	01695823 014c5023 01455023 000b4825     #Xi.#PL.#PE.%H..
9d007e48:	000a2825 2406007f 04a00007 00000000     %(.....$........
9d007e58:	0120602a 01294821 00a52821 00ac2821     *` .!H).!(..!(..
9d007e68:	1000fff9 24c6ffff 00051025 00061825     .......$%...%...
9d007e78:	0007c025 03e00008 00000000 2406ffff     %..............$
9d007e88:	1000fff9 3c05ffc0 00000000              .......<....

Disassembly of section .text.fgetc:

9d007e94 <fgetc>:
9d007e94:	27bdffe0 	addiu	sp,sp,-32
9d007e98:	afbf001c 	sw	ra,28(sp)
9d007e9c:	afb20018 	sw	s2,24(sp)
9d007ea0:	afb10014 	sw	s1,20(sp)
9d007ea4:	afb00010 	sw	s0,16(sp)
9d007ea8:	00808021 	move	s0,a0
9d007eac:	9483000c 	lhu	v1,12(a0)
9d007eb0:	30640011 	andi	a0,v1,0x11
9d007eb4:	24020001 	li	v0,1
9d007eb8:	1482001c 	bne	a0,v0,9d007f2c <fgetc+0x98>
9d007ebc:	30620200 	andi	v0,v1,0x200
9d007ec0:	14400018 	bnez	v0,9d007f24 <fgetc+0x90>
9d007ec4:	8e020004 	lw	v0,4(s0)
9d007ec8:	3063fdff 	andi	v1,v1,0xfdff
9d007ecc:	a603000c 	sh	v1,12(s0)
9d007ed0:	2411001a 	li	s1,26
9d007ed4:	2412000d 	li	s2,13
9d007ed8:	1840001f 	blez	v0,9d007f58 <fgetc+0xc4>
9d007edc:	2444ffff 	addiu	a0,v0,-1
9d007ee0:	8e020000 	lw	v0,0(s0)
9d007ee4:	ae040004 	sw	a0,4(s0)
9d007ee8:	24440001 	addiu	a0,v0,1
9d007eec:	ae040000 	sw	a0,0(s0)
9d007ef0:	90420000 	lbu	v0,0(v0)
9d007ef4:	30640080 	andi	a0,v1,0x80
9d007ef8:	14800005 	bnez	a0,9d007f10 <fgetc+0x7c>
9d007efc:	8fbf001c 	lw	ra,28(sp)
9d007f00:	5051001c 	beql	v0,s1,9d007f74 <fgetc+0xe0>
9d007f04:	8e020008 	lw	v0,8(s0)
9d007f08:	50520011 	beql	v0,s2,9d007f50 <fgetc+0xbc>
9d007f0c:	8e020004 	lw	v0,4(s0)
9d007f10:	8fb20018 	lw	s2,24(sp)
9d007f14:	8fb10014 	lw	s1,20(sp)
9d007f18:	8fb00010 	lw	s0,16(sp)
9d007f1c:	03e00008 	jr	ra
9d007f20:	27bd0020 	addiu	sp,sp,32
9d007f24:	5040ffe9 	beqzl	v0,9d007ecc <fgetc+0x38>
9d007f28:	3063fdff 	andi	v1,v1,0xfdff
9d007f2c:	34630010 	ori	v1,v1,0x10
9d007f30:	a603000c 	sh	v1,12(s0)
9d007f34:	2402ffff 	li	v0,-1
9d007f38:	8fbf001c 	lw	ra,28(sp)
9d007f3c:	8fb20018 	lw	s2,24(sp)
9d007f40:	8fb10014 	lw	s1,20(sp)
9d007f44:	8fb00010 	lw	s0,16(sp)
9d007f48:	03e00008 	jr	ra
9d007f4c:	27bd0020 	addiu	sp,sp,32
9d007f50:	1c40ffe3 	bgtz	v0,9d007ee0 <fgetc+0x4c>
9d007f54:	2444ffff 	addiu	a0,v0,-1
9d007f58:	30620040 	andi	v0,v1,0x40
9d007f5c:	1440fff3 	bnez	v0,9d007f2c <fgetc+0x98>
9d007f60:	02002021 	move	a0,s0
9d007f64:	0f401d21 	jal	9d007484 <.LFE23>
9d007f68:	00000000 	nop
9d007f6c:	0b401fbd 	j	9d007ef4 <fgetc+0x60>
9d007f70:	9603000c 	lhu	v1,12(s0)
9d007f74:	5040ffee 	beqzl	v0,9d007f30 <fgetc+0x9c>
9d007f78:	34630010 	ori	v1,v1,0x10
9d007f7c:	8e040004 	lw	a0,4(s0)
9d007f80:	8e020000 	lw	v0,0(s0)
9d007f84:	24840001 	addiu	a0,a0,1
9d007f88:	2442ffff 	addiu	v0,v0,-1
9d007f8c:	ae040004 	sw	a0,4(s0)
9d007f90:	0b401fcb 	j	9d007f2c <fgetc+0x98>
9d007f94:	ae020000 	sw	v0,0(s0)

Disassembly of section .rodata:

9d007f98 <_ctype>:
9d007f98:	20202000 20202020 28282020 20282828     .         ((((( 
9d007fa8:	20202020 20202020 20202020 20202020                     
9d007fb8:	10108020 10101010 10101010 10101010      ...............
9d007fc8:	04040410 04040404 10040404 10101010     ................
9d007fd8:	41411010 41414141 01010101 01010101     ..AAAAAA........
9d007fe8:	01010101 01010101 01010101 10101010     ................
9d007ff8:	42421010 42424242 02020202 02020202     ..BBBBBB........
9d008008:	02020202 02020202 02020202 10101010     ................
9d008018:	00000020 00000000 00000000 00000000      ...............
	...

Disassembly of section .text.__ldexpf:

9d00809c <__ldexpf>:
9d00809c:	7c863dc0 	ext	a2,a0,0x17,0x8
9d0080a0:	24c8ffff 	addiu	t0,a2,-1
9d0080a4:	2d0800fe 	sltiu	t0,t0,254
9d0080a8:	00044fc2 	srl	t1,a0,0x1f
9d0080ac:	1100002b 	beqz	t0,9d00815c <__ldexpf+0xc0>
9d0080b0:	7c87b000 	ext	a3,a0,0x0,0x17
9d0080b4:	24c6ff81 	addiu	a2,a2,-127
9d0080b8:	3c020080 	lui	v0,0x80
9d0080bc:	00e21025 	or	v0,a3,v0
9d0080c0:	00c53021 	addu	a2,a2,a1
9d0080c4:	24c3007f 	addiu	v1,a2,127
9d0080c8:	18600018 	blez	v1,9d00812c <__ldexpf+0x90>
9d0080cc:	000210c0 	sll	v0,v0,0x3
9d0080d0:	30440007 	andi	a0,v0,0x7
9d0080d4:	1480000d 	bnez	a0,9d00810c <__ldexpf+0x70>
9d0080d8:	7c4400c0 	ext	a0,v0,0x3,0x1
9d0080dc:	286400ff 	slti	a0,v1,255
9d0080e0:	10800024 	beqz	a0,9d008174 <__ldexpf+0xd8>
9d0080e4:	000210c2 	srl	v0,v0,0x3
9d0080e8:	7c4405c0 	ext	a0,v0,0x17,0x1
9d0080ec:	50800002 	beqzl	a0,9d0080f8 <__ldexpf+0x5c>
9d0080f0:	00001821 	move	v1,zero
9d0080f4:	7c42b000 	ext	v0,v0,0x0,0x17
9d0080f8:	00094a00 	sll	t1,t1,0x8
9d0080fc:	00691825 	or	v1,v1,t1
9d008100:	00031dc0 	sll	v1,v1,0x17
9d008104:	03e00008 	jr	ra
9d008108:	00621025 	or	v0,v1,v0
9d00810c:	24420003 	addiu	v0,v0,3
9d008110:	00441021 	addu	v0,v0,a0
9d008114:	000226c2 	srl	a0,v0,0x1b
9d008118:	1080fff1 	beqz	a0,9d0080e0 <__ldexpf+0x44>
9d00811c:	286400ff 	slti	a0,v1,255
9d008120:	00021042 	srl	v0,v0,0x1
9d008124:	0b402037 	j	9d0080dc <__ldexpf+0x40>
9d008128:	24630001 	addiu	v1,v1,1
9d00812c:	2403ff82 	li	v1,-126
9d008130:	00661823 	subu	v1,v1,a2
9d008134:	2864001b 	slti	a0,v1,27
9d008138:	50800012 	beqzl	a0,9d008184 <__ldexpf+0xe8>
9d00813c:	00001021 	move	v0,zero
9d008140:	24c4009e 	addiu	a0,a2,158
9d008144:	00822004 	sllv	a0,v0,a0
9d008148:	00621006 	srlv	v0,v0,v1
9d00814c:	0004182b 	sltu	v1,zero,a0
9d008150:	00621025 	or	v0,v1,v0
9d008154:	0b402034 	j	9d0080d0 <__ldexpf+0x34>
9d008158:	24030001 	li	v1,1
9d00815c:	14c00003 	bnez	a2,9d00816c <__ldexpf+0xd0>
9d008160:	00000000 	nop
9d008164:	14e00009 	bnez	a3,9d00818c <__ldexpf+0xf0>
9d008168:	70e31820 	clz	v1,a3
9d00816c:	03e00008 	jr	ra
9d008170:	00801021 	move	v0,a0
9d008174:	00091200 	sll	v0,t1,0x8
9d008178:	344200ff 	ori	v0,v0,0xff
9d00817c:	03e00008 	jr	ra
9d008180:	000215c0 	sll	v0,v0,0x17
9d008184:	0b40203e 	j	9d0080f8 <__ldexpf+0x5c>
9d008188:	00001821 	move	v1,zero
9d00818c:	2462fff8 	addiu	v0,v1,-8
9d008190:	00471004 	sllv	v0,a3,v0
9d008194:	2406ff8a 	li	a2,-118
9d008198:	0b402030 	j	9d0080c0 <__ldexpf+0x24>
9d00819c:	00c33023 	subu	a2,a2,v1

Disassembly of section .text.dptofp:

9d0081a0 <__truncdfsf2>:
9d0081a0:	00053ac0 00045d42 00eb3825 000432c0     .:..B]..%8...2..
9d0081b0:	3c018000 00e13825 3c018000 00a14824     ...<%8.....<$H..
9d0081c0:	00054040 00084542 2508fc80 250bffff     @@..BE.....%...%
9d0081d0:	2d6100fe 10200012 00000000              ..a-.. .....

9d0081dc <Hlab1>:
9d0081dc:	10c00002 	beqz	a2,9d0081e8 <i45>
9d0081e0:	00000000 	nop
9d0081e4:	34e70001 	ori	a3,a3,0x1

9d0081e8 <i45>:
9d0081e8:	24e70080 	addiu	a3,a3,128
9d0081ec:	2ceb0080 	sltiu	t3,a3,128
9d0081f0:	010b4021 	addu	t0,t0,t3
9d0081f4:	00075a02 	srl	t3,a3,0x8
9d0081f8:	316b0001 	andi	t3,t3,0x1
9d0081fc:	00eb3823 	subu	a3,a3,t3
9d008200:	00073840 	sll	a3,a3,0x1
9d008204:	00073a42 	srl	a3,a3,0x9
9d008208:	00085dc0 	sll	t3,t0,0x17
9d00820c:	00eb3825 	or	a3,a3,t3
9d008210:	00e91025 	or	v0,a3,t1

9d008214 <H999>:
9d008214:	03e00008 	jr	ra
9d008218:	00000000 	nop
9d00821c:	00000000 	nop

9d008220 <Hspec>:
9d008220:	2401047f 	li	at,1151
9d008224:	15010007 	bne	t0,at,9d008244 <i46>
9d008228:	00000000 	nop
9d00822c:	00075840 	sll	t3,a3,0x1
9d008230:	01665825 	or	t3,t3,a2
9d008234:	11600003 	beqz	t3,9d008244 <i46>
9d008238:	00000000 	nop
9d00823c:	1000fff5 	b	9d008214 <H999>
9d008240:	3c02ffc0 	lui	v0,0xffc0

9d008244 <i46>:
9d008244:	290100ff 	slti	at,t0,255
9d008248:	14200004 	bnez	at,9d00825c <i48>
9d00824c:	00000000 	nop
9d008250:	3c017f80 	lui	at,0x7f80
9d008254:	1000ffef 	b	9d008214 <H999>
9d008258:	01211025 	or	v0,t1,at

9d00825c <i48>:
9d00825c:	240a0001 	li	t2,1
9d008260:	01485023 	subu	t2,t2,t0
9d008264:	2d410020 	sltiu	at,t2,32
9d008268:	14200003 	bnez	at,9d008278 <i49>
9d00826c:	00000000 	nop
9d008270:	1000ffe8 	b	9d008214 <H999>
9d008274:	00091025 	or	v0,zero,t1

9d008278 <i49>:
9d008278:	240c0020 	li	t4,32
9d00827c:	018a6023 	subu	t4,t4,t2
9d008280:	01875804 	sllv	t3,a3,t4
9d008284:	00cb3025 	or	a2,a2,t3
9d008288:	01473806 	srlv	a3,a3,t2
9d00828c:	24080000 	li	t0,0
9d008290:	3c018000 	lui	at,0x8000
9d008294:	1000ffd1 	b	9d0081dc <Hlab1>
9d008298:	00e13825 	or	a3,a3,at
9d00829c:	00000000 	nop

Disassembly of section .rodata:

9d0082a0 <dpowers>:
9d0082a0:	00000001 00000000 0000000a 00000000     ................
9d0082b0:	00000064 00000000 000003e8 00000000     d...............
9d0082c0:	00002710 00000000 000186a0 00000000     .'..............
9d0082d0:	000f4240 00000000 00989680 00000000     @B..............
9d0082e0:	05f5e100 00000000 3b9aca00 00000000     ...........;....
9d0082f0:	540be400 00000002 4876e800 00000017     ...T......vH....
9d008300:	d4a51000 000000e8 4e72a000 00000918     ..........rN....
9d008310:	107a4000 00005af3 a4c68000 00038d7e     .@z..Z......~...
9d008320:	6fc10000 002386f2 5d8a0000 01634578     ...o..#....]xEc.
9d008330:	a7640000 0de0b6b3 89e80000 8ac72304     ..d..........#..
9d008340:	6c756e28 0000296c 33323130 37363534     (null)..01234567
9d008350:	42413938 46454443 00000000 33323130     89ABCDEF....0123
9d008360:	37363534 62613938 66656463 00000000     456789abcdef....
9d008370:	3f800000 41200000 3f000000 4089705f     ...?.. A...?_p.@

Disassembly of section .text.general_exception:

9d008380 <_general_exception_context>:
9d008380:	27bdffa8 	addiu	sp,sp,-88
9d008384:	afa10004 	sw	at,4(sp)
9d008388:	afa20008 	sw	v0,8(sp)
9d00838c:	afa3000c 	sw	v1,12(sp)
9d008390:	afa40010 	sw	a0,16(sp)
9d008394:	afa50014 	sw	a1,20(sp)
9d008398:	afa60018 	sw	a2,24(sp)
9d00839c:	afa7001c 	sw	a3,28(sp)
9d0083a0:	afa80020 	sw	t0,32(sp)
9d0083a4:	afa90024 	sw	t1,36(sp)
9d0083a8:	afaa0028 	sw	t2,40(sp)
9d0083ac:	afab002c 	sw	t3,44(sp)
9d0083b0:	afac0030 	sw	t4,48(sp)
9d0083b4:	afad0034 	sw	t5,52(sp)
9d0083b8:	afae0038 	sw	t6,56(sp)
9d0083bc:	afaf003c 	sw	t7,60(sp)
9d0083c0:	afb80040 	sw	t8,64(sp)
9d0083c4:	afb90044 	sw	t9,68(sp)
9d0083c8:	afbf0048 	sw	ra,72(sp)
9d0083cc:	00004012 	mflo	t0
9d0083d0:	afa8004c 	sw	t0,76(sp)
9d0083d4:	00004010 	mfhi	t0
9d0083d8:	afa80050 	sw	t0,80(sp)
9d0083dc:	3c1a9d01 	lui	k0,0x9d01
9d0083e0:	275a8e8c 	addiu	k0,k0,-29044
9d0083e4:	00000000 	nop
9d0083e8:	40046800 	mfc0	a0,c0_cause
9d0083ec:	40056000 	mfc0	a1,c0_status
9d0083f0:	0340f809 	jalr	k0
9d0083f4:	00000000 	nop
9d0083f8:	8fa80050 	lw	t0,80(sp)
9d0083fc:	01000011 	mthi	t0
9d008400:	8fa8004c 	lw	t0,76(sp)
9d008404:	01000013 	mtlo	t0
9d008408:	8fa10004 	lw	at,4(sp)
9d00840c:	8fa20008 	lw	v0,8(sp)
9d008410:	8fa3000c 	lw	v1,12(sp)
9d008414:	8fa40010 	lw	a0,16(sp)
9d008418:	8fa50014 	lw	a1,20(sp)
9d00841c:	8fa60018 	lw	a2,24(sp)
9d008420:	8fa7001c 	lw	a3,28(sp)
9d008424:	8fa80020 	lw	t0,32(sp)
9d008428:	8fa90024 	lw	t1,36(sp)
9d00842c:	8faa0028 	lw	t2,40(sp)
9d008430:	8fab002c 	lw	t3,44(sp)
9d008434:	8fac0030 	lw	t4,48(sp)
9d008438:	8fad0034 	lw	t5,52(sp)
9d00843c:	8fae0038 	lw	t6,56(sp)
9d008440:	8faf003c 	lw	t7,60(sp)
9d008444:	8fb80040 	lw	t8,64(sp)
9d008448:	8fb90044 	lw	t9,68(sp)
9d00844c:	8fbf0048 	lw	ra,72(sp)
9d008450:	27bd0058 	addiu	sp,sp,88
9d008454:	000000c0 	ehb
9d008458:	42000018 	eret

Disassembly of section .text._mon_putc:

9d00845c <_mon_putc>:
9d00845c:	27bdffe8 	addiu	sp,sp,-24
9d008460:	afbf0014 	sw	ra,20(sp)
9d008464:	3c02a000 	lui	v0,0xa000
9d008468:	8c420000 	lw	v0,0(v0)
9d00846c:	1440000a 	bnez	v0,9d008498 <_mon_putc+0x3c>
9d008470:	7c042420 	seb	a0,a0
9d008474:	3c020000 	lui	v0,0x0
9d008478:	24420000 	addiu	v0,v0,0
9d00847c:	10400025 	beqz	v0,9d008514 <_mon_putc+0xb8>
9d008480:	3c020000 	lui	v0,0x0
9d008484:	0c000000 	jal	90000000 <_bmxdkpba_address+0x8ffe0000>
9d008488:	00000000 	nop
9d00848c:	8fbf0014 	lw	ra,20(sp)
9d008490:	03e00008 	jr	ra
9d008494:	27bd0018 	addiu	sp,sp,24
9d008498:	24030001 	li	v1,1
9d00849c:	10430015 	beq	v0,v1,9d0084f4 <_mon_putc+0x98>
9d0084a0:	3c05bf80 	lui	a1,0xbf80
9d0084a4:	3c05bf80 	lui	a1,0xbf80
9d0084a8:	24a56820 	addiu	a1,a1,26656
9d0084ac:	3c02bf80 	lui	v0,0xbf80
9d0084b0:	24426818 	addiu	v0,v0,26648
9d0084b4:	3c06bf80 	lui	a2,0xbf80
9d0084b8:	24c66808 	addiu	a2,a2,26632
9d0084bc:	3c03bf80 	lui	v1,0xbf80
9d0084c0:	24636810 	addiu	v1,v1,26640
9d0084c4:	34078000 	li	a3,0x8000
9d0084c8:	acc70000 	sw	a3,0(a2)
9d0084cc:	24060400 	li	a2,1024
9d0084d0:	ac460000 	sw	a2,0(v0)
9d0084d4:	8c620000 	lw	v0,0(v1)
9d0084d8:	30420100 	andi	v0,v0,0x100
9d0084dc:	1040fffd 	beqz	v0,9d0084d4 <_mon_putc+0x78>
9d0084e0:	00000000 	nop
9d0084e4:	aca40000 	sw	a0,0(a1)
9d0084e8:	8fbf0014 	lw	ra,20(sp)
9d0084ec:	03e00008 	jr	ra
9d0084f0:	27bd0018 	addiu	sp,sp,24
9d0084f4:	24a56020 	addiu	a1,a1,24608
9d0084f8:	3c02bf80 	lui	v0,0xbf80
9d0084fc:	24426018 	addiu	v0,v0,24600
9d008500:	3c06bf80 	lui	a2,0xbf80
9d008504:	24c66008 	addiu	a2,a2,24584
9d008508:	3c03bf80 	lui	v1,0xbf80
9d00850c:	0b402131 	j	9d0084c4 <_mon_putc+0x68>
9d008510:	24636010 	addiu	v1,v1,24592
9d008514:	24420000 	addiu	v0,v0,0
9d008518:	1040ffe3 	beqz	v0,9d0084a8 <_mon_putc+0x4c>
9d00851c:	3c05bf80 	lui	a1,0xbf80
9d008520:	0c000000 	jal	90000000 <_bmxdkpba_address+0x8ffe0000>
9d008524:	00000000 	nop
9d008528:	0b402124 	j	9d008490 <_mon_putc+0x34>
9d00852c:	8fbf0014 	lw	ra,20(sp)

Disassembly of section .text.fptodp:

9d008530 <__extendsfdf2>:
9d008530:	00043dc2 30e700ff 3c018000 00813024     .=.....0...<$0..
9d008540:	24e9ffff 2d2100fe 1020000d 00000000     ...$..!-.. .....

9d008550 <Glab1>:
9d008550:	24e70380 	addiu	a3,a3,896
9d008554:	00044a40 	sll	t1,a0,0x9
9d008558:	00094b02 	srl	t1,t1,0xc
9d00855c:	00c93025 	or	a2,a2,t1
9d008560:	00042f40 	sll	a1,a0,0x1d

9d008564 <Gret>:
9d008564:	00074d00 	sll	t1,a3,0x14
9d008568:	00c93025 	or	a2,a2,t1
9d00856c:	00051025 	or	v0,zero,a1
9d008570:	00061825 	or	v1,zero,a2

9d008574 <G999>:
9d008574:	03e00008 	jr	ra
9d008578:	00000000 	nop
9d00857c:	00000000 	nop

9d008580 <Gspec>:
9d008580:	24050000 	li	a1,0
9d008584:	00842021 	addu	a0,a0,a0
9d008588:	1080fff6 	beqz	a0,9d008564 <Gret>
9d00858c:	00000000 	nop
9d008590:	14e00009 	bnez	a3,9d0085b8 <i42>
9d008594:	00000000 	nop

9d008598 <b43>:
9d008598:	24e7ffff 	addiu	a3,a3,-1
9d00859c:	00842021 	addu	a0,a0,a0
9d0085a0:	3c010080 	lui	at,0x80
9d0085a4:	0081082b 	sltu	at,a0,at
9d0085a8:	1420fffb 	bnez	at,9d008598 <b43>
9d0085ac:	00000000 	nop
9d0085b0:	1000ffe7 	b	9d008550 <Glab1>
9d0085b4:	00000000 	nop

9d0085b8 <i42>:
9d0085b8:	240707ff 	li	a3,2047
9d0085bc:	3c01ff00 	lui	at,0xff00
9d0085c0:	34210001 	ori	at,at,0x1
9d0085c4:	0081082b 	sltu	at,a0,at
9d0085c8:	1420ffe6 	bnez	at,9d008564 <Gret>
9d0085cc:	00000000 	nop
9d0085d0:	1000ffe4 	b	9d008564 <Gret>
9d0085d4:	3c06fff8 	lui	a2,0xfff8
9d0085d8:	00000000 	nop

Disassembly of section .text.range:

9d0085dc <range>:
9d0085dc:	27bdffe0 	addiu	sp,sp,-32
9d0085e0:	afbf001c 	sw	ra,28(sp)
9d0085e4:	afb00018 	sw	s0,24(sp)
9d0085e8:	3c109d00 	lui	s0,0x9d00
9d0085ec:	26107f99 	addiu	s0,s0,32665
9d0085f0:	00901821 	addu	v1,a0,s0
9d0085f4:	90630000 	lbu	v1,0(v1)
9d0085f8:	30670004 	andi	a3,v1,0x4
9d0085fc:	10e0000a 	beqz	a3,9d008628 <range+0x4c>
9d008600:	00801021 	move	v0,a0
9d008604:	2482ffd0 	addiu	v0,a0,-48
9d008608:	0045282a 	slt	a1,v0,a1
9d00860c:	14a00013 	bnez	a1,9d00865c <range+0x80>
9d008610:	304200ff 	andi	v0,v0,0xff
9d008614:	240200ff 	li	v0,255
9d008618:	8fbf001c 	lw	ra,28(sp)
9d00861c:	8fb00018 	lw	s0,24(sp)
9d008620:	03e00008 	jr	ra
9d008624:	27bd0020 	addiu	sp,sp,32
9d008628:	30670001 	andi	a3,v1,0x1
9d00862c:	50e00004 	beqzl	a3,9d008640 <range+0x64>
9d008630:	30630003 	andi	v1,v1,0x3
9d008634:	14c0000d 	bnez	a2,9d00866c <range+0x90>
9d008638:	00000000 	nop
9d00863c:	30630003 	andi	v1,v1,0x3
9d008640:	5060fff5 	beqzl	v1,9d008618 <range+0x3c>
9d008644:	240200ff 	li	v0,255
9d008648:	2442ffa9 	addiu	v0,v0,-87
9d00864c:	0045282a 	slt	a1,v0,a1
9d008650:	50a0fff1 	beqzl	a1,9d008618 <range+0x3c>
9d008654:	240200ff 	li	v0,255
9d008658:	304200ff 	andi	v0,v0,0xff
9d00865c:	8fbf001c 	lw	ra,28(sp)
9d008660:	8fb00018 	lw	s0,24(sp)
9d008664:	03e00008 	jr	ra
9d008668:	27bd0020 	addiu	sp,sp,32
9d00866c:	0f402414 	jal	9d009050 <.LFE0>
9d008670:	afa50010 	sw	a1,16(sp)
9d008674:	00508021 	addu	s0,v0,s0
9d008678:	92030000 	lbu	v1,0(s0)
9d00867c:	0b40218f 	j	9d00863c <range+0x60>
9d008680:	8fa50010 	lw	a1,16(sp)

Disassembly of section .text.atoi:

9d008684 <atoi>:
9d008684:	24030020 	li	v1,32
9d008688:	24050009 	li	a1,9
9d00868c:	80820000 	lb	v0,0(a0)
9d008690:	5043fffe 	beql	v0,v1,9d00868c <atoi+0x8>
9d008694:	24840001 	addiu	a0,a0,1
9d008698:	54450003 	bnel	v0,a1,9d0086a8 <atoi+0x24>
9d00869c:	2403002d 	li	v1,45
9d0086a0:	0b4021a3 	j	9d00868c <atoi+0x8>
9d0086a4:	24840001 	addiu	a0,a0,1
9d0086a8:	10430019 	beq	v0,v1,9d008710 <atoi+0x8c>
9d0086ac:	00802821 	move	a1,a0
9d0086b0:	2403002b 	li	v1,43
9d0086b4:	1043001a 	beq	v0,v1,9d008720 <atoi+0x9c>
9d0086b8:	00004821 	move	t1,zero
9d0086bc:	3c089d00 	lui	t0,0x9d00
9d0086c0:	25087f99 	addiu	t0,t0,32665
9d0086c4:	01021821 	addu	v1,t0,v0
9d0086c8:	90630000 	lbu	v1,0(v1)
9d0086cc:	30630004 	andi	v1,v1,0x4
9d0086d0:	1060000c 	beqz	v1,9d008704 <atoi+0x80>
9d0086d4:	00001821 	move	v1,zero
9d0086d8:	24840001 	addiu	a0,a0,1
9d0086dc:	2446ffd0 	addiu	a2,v0,-48
9d0086e0:	80820000 	lb	v0,0(a0)
9d0086e4:	00033840 	sll	a3,v1,0x1
9d0086e8:	000318c0 	sll	v1,v1,0x3
9d0086ec:	01022821 	addu	a1,t0,v0
9d0086f0:	90a50000 	lbu	a1,0(a1)
9d0086f4:	00e31821 	addu	v1,a3,v1
9d0086f8:	30a50004 	andi	a1,a1,0x4
9d0086fc:	14a0fff6 	bnez	a1,9d0086d8 <atoi+0x54>
9d008700:	00661821 	addu	v1,v1,a2
9d008704:	00031023 	negu	v0,v1
9d008708:	03e00008 	jr	ra
9d00870c:	0069100a 	movz	v0,v1,t1
9d008710:	24840001 	addiu	a0,a0,1
9d008714:	80a20001 	lb	v0,1(a1)
9d008718:	0b4021af 	j	9d0086bc <atoi+0x38>
9d00871c:	24090001 	li	t1,1
9d008720:	24840001 	addiu	a0,a0,1
9d008724:	0b4021af 	j	9d0086bc <atoi+0x38>
9d008728:	80a20001 	lb	v0,1(a1)

Disassembly of section .text.fflush:

9d00872c <fflush>:
9d00872c:	27bdffe8 	addiu	sp,sp,-24
9d008730:	afbf0014 	sw	ra,20(sp)
9d008734:	afb00010 	sw	s0,16(sp)
9d008738:	00808021 	move	s0,a0
9d00873c:	9482000c 	lhu	v0,12(a0)
9d008740:	30440201 	andi	a0,v0,0x201
9d008744:	24030001 	li	v1,1
9d008748:	10830017 	beq	a0,v1,9d0087a8 <fflush+0x7c>
9d00874c:	30440202 	andi	a0,v0,0x202
9d008750:	24030202 	li	v1,514
9d008754:	10830005 	beq	a0,v1,9d00876c <fflush+0x40>
9d008758:	00001021 	move	v0,zero
9d00875c:	8fbf0014 	lw	ra,20(sp)
9d008760:	8fb00010 	lw	s0,16(sp)
9d008764:	03e00008 	jr	ra
9d008768:	27bd0018 	addiu	sp,sp,24
9d00876c:	8e050008 	lw	a1,8(s0)
9d008770:	10a0fffb 	beqz	a1,9d008760 <fflush+0x34>
9d008774:	8fbf0014 	lw	ra,20(sp)
9d008778:	8e020004 	lw	v0,4(s0)
9d00877c:	5040fff9 	beqzl	v0,9d008764 <fflush+0x38>
9d008780:	8fb00010 	lw	s0,16(sp)
9d008784:	9604000e 	lhu	a0,14(s0)
9d008788:	0f40221a 	jal	9d008868 <write>
9d00878c:	00403021 	move	a2,v0
9d008790:	8e030004 	lw	v1,4(s0)
9d008794:	10430004 	beq	v0,v1,9d0087a8 <fflush+0x7c>
9d008798:	9602000c 	lhu	v0,12(s0)
9d00879c:	34420030 	ori	v0,v0,0x30
9d0087a0:	3042ffff 	andi	v0,v0,0xffff
9d0087a4:	a602000c 	sh	v0,12(s0)
9d0087a8:	8e030008 	lw	v1,8(s0)
9d0087ac:	7c420140 	ext	v0,v0,0x5,0x1
9d0087b0:	ae000004 	sw	zero,4(s0)
9d0087b4:	ae030000 	sw	v1,0(s0)
9d0087b8:	00021023 	negu	v0,v0
9d0087bc:	8fbf0014 	lw	ra,20(sp)
9d0087c0:	8fb00010 	lw	s0,16(sp)
9d0087c4:	03e00008 	jr	ra
9d0087c8:	27bd0018 	addiu	sp,sp,24

Disassembly of section .text.fpcmp:

9d0087cc <__eqsf2>:
9d0087cc:	2408fffe 00043040 00053840 00c74825     ...$@0..@8..%H..
9d0087dc:	1120001b 00000000 3c01ff00 34210001     .. ........<..!4
9d0087ec:	00c1082b 1020001a 00000000 3c01ff00     +..... ........<
9d0087fc:	34210001 00e1082b 10200015 00000000     ..!4+..... .....
9d00880c:	04810002 00063042 00063023              ....B0..#0..

9d008818 <i48>:
9d008818:	04a10002 	bgez	a1,9d008824 <i49>
9d00881c:	00073842 	srl	a3,a3,0x1
9d008820:	00073823 	negu	a3,a3

9d008824 <i49>:
9d008824:	00c7082a 	slt	at,a2,a3
9d008828:	10200003 	beqz	at,9d008838 <i50>
9d00882c:	00000000 	nop
9d008830:	10000007 	b	9d008850 <J999>
9d008834:	2402ffff 	li	v0,-1

9d008838 <i50>:
9d008838:	00e6082a 	slt	at,a3,a2
9d00883c:	10200003 	beqz	at,9d00884c <Jequ>
9d008840:	00000000 	nop
9d008844:	10000002 	b	9d008850 <J999>
9d008848:	24020001 	li	v0,1

9d00884c <Jequ>:
9d00884c:	24020000 	li	v0,0

9d008850 <J999>:
9d008850:	03e00008 	jr	ra
9d008854:	00000000 	nop
9d008858:	00000000 	nop

9d00885c <Jnan>:
9d00885c:	1000fffc 	b	9d008850 <J999>
9d008860:	00081025 	or	v0,zero,t0
9d008864:	00000000 	nop

Disassembly of section .text.write:

9d008868 <write>:
9d008868:	10a00018 	beqz	a1,9d0088cc <write+0x64>
9d00886c:	00001021 	move	v0,zero
9d008870:	10c00012 	beqz	a2,9d0088bc <write+0x54>
9d008874:	2c840003 	sltiu	a0,a0,3
9d008878:	10800012 	beqz	a0,9d0088c4 <write+0x5c>
9d00887c:	00000000 	nop
9d008880:	27bdffe0 	addiu	sp,sp,-32
9d008884:	afbf001c 	sw	ra,28(sp)
9d008888:	3c020000 	lui	v0,0x0
9d00888c:	24420000 	addiu	v0,v0,0
9d008890:	10400010 	beqz	v0,9d0088d4 <write+0x6c>
9d008894:	afb00018 	sw	s0,24(sp)
9d008898:	00a02021 	move	a0,a1
9d00889c:	00c02821 	move	a1,a2
9d0088a0:	0c000000 	jal	90000000 <_bmxdkpba_address+0x8ffe0000>
9d0088a4:	afa60014 	sw	a2,20(sp)
9d0088a8:	8fa60014 	lw	a2,20(sp)
9d0088ac:	00c01021 	move	v0,a2
9d0088b0:	8fbf001c 	lw	ra,28(sp)
9d0088b4:	8fb00018 	lw	s0,24(sp)
9d0088b8:	27bd0020 	addiu	sp,sp,32
9d0088bc:	03e00008 	jr	ra
9d0088c0:	00000000 	nop
9d0088c4:	03e00008 	jr	ra
9d0088c8:	00c01021 	move	v0,a2
9d0088cc:	03e00008 	jr	ra
9d0088d0:	00000000 	nop
9d0088d4:	00c08021 	move	s0,a2
9d0088d8:	80a40000 	lb	a0,0(a1)
9d0088dc:	2610ffff 	addiu	s0,s0,-1
9d0088e0:	24a50001 	addiu	a1,a1,1
9d0088e4:	afa50010 	sw	a1,16(sp)
9d0088e8:	0f402117 	jal	9d00845c <_mon_putc>
9d0088ec:	afa60014 	sw	a2,20(sp)
9d0088f0:	8fa50010 	lw	a1,16(sp)
9d0088f4:	1600fff8 	bnez	s0,9d0088d8 <write+0x70>
9d0088f8:	8fa60014 	lw	a2,20(sp)
9d0088fc:	0b40222c 	j	9d0088b0 <write+0x48>
9d008900:	00c01021 	move	v0,a2

Disassembly of section .text.libm:

9d008904 <fpfrexp>:
9d008904:	000435c2 30c600ff 24c9ffff 2d2100fe     .5.....0...$..!-
9d008914:	1020000b 00000000                       .. .....

9d00891c <Blab1>:
9d00891c:	24c6ff82 	addiu	a2,a2,-126
9d008920:	3c01807f 	lui	at,0x807f
9d008924:	3421ffff 	ori	at,at,0xffff
9d008928:	00812024 	and	a0,a0,at
9d00892c:	3c013f00 	lui	at,0x3f00
9d008930:	00812025 	or	a0,a0,at

9d008934 <Bret>:
9d008934:	aca60000 	sw	a2,0(a1)
9d008938:	00041025 	or	v0,zero,a0

9d00893c <B999>:
9d00893c:	03e00008 	jr	ra
9d008940:	00000000 	nop

9d008944 <Bspec>:
9d008944:	14c0000d 	bnez	a2,9d00897c <i8>
9d008948:	00000000 	nop
9d00894c:	00844821 	addu	t1,a0,a0
9d008950:	1120fff8 	beqz	t1,9d008934 <Bret>
9d008954:	00000000 	nop
9d008958:	00043a40 	sll	a3,a0,0x9
9d00895c:	70e84020 	clz	t0,a3
9d008960:	00c83023 	subu	a2,a2,t0
9d008964:	01073804 	sllv	a3,a3,t0
9d008968:	3c018000 	lui	at,0x8000
9d00896c:	00812024 	and	a0,a0,at
9d008970:	00074a02 	srl	t1,a3,0x8
9d008974:	1000ffe9 	b	9d00891c <Blab1>
9d008978:	00892025 	or	a0,a0,t1

9d00897c <i8>:
9d00897c:	3c04ffc0 	lui	a0,0xffc0
9d008980:	1000ffec 	b	9d008934 <Bret>
9d008984:	24060000 	li	a2,0
9d008988:	00000000 	nop

Disassembly of section .text.fptoli:

9d00898c <__fixsfsi>:
9d00898c:	00042a00 3c018000 00a12825 00043dc2     .*.....<%(...=..
9d00899c:	30e700ff 2406009e 00c73023 18c0000d     ...0...$#0......
9d0089ac:	00000000 28c10020 14200003 00000000     .... ..(.. .....
9d0089bc:	10000005 24020000                       .......$

9d0089c4 <i42>:
9d0089c4:	04810002 	bgez	a0,9d0089d0 <i43>
9d0089c8:	00c52806 	srlv	a1,a1,a2
9d0089cc:	00052823 	negu	a1,a1

9d0089d0 <i43>:
9d0089d0:	00051025 	or	v0,zero,a1

9d0089d4 <G999>:
9d0089d4:	03e00008 	jr	ra
9d0089d8:	00000000 	nop
9d0089dc:	00000000 	nop

9d0089e0 <Gspec>:
9d0089e0:	3c017f80 	lui	at,0x7f80
9d0089e4:	34210001 	ori	at,at,0x1
9d0089e8:	0081082b 	sltu	at,a0,at
9d0089ec:	14200003 	bnez	at,9d0089fc <i44>
9d0089f0:	00000000 	nop
9d0089f4:	1000fff7 	b	9d0089d4 <G999>
9d0089f8:	3c028000 	lui	v0,0x8000

9d0089fc <i44>:
9d0089fc:	3c027fff 	lui	v0,0x7fff
9d008a00:	1000fff4 	b	9d0089d4 <G999>
9d008a04:	3442ffff 	ori	v0,v0,0xffff
9d008a08:	00000000 	nop

Disassembly of section .text.fptoul:

9d008a0c <__fixunssfsi>:
9d008a0c:	00042a00 3c018000 00a12825 00043dc2     .*.....<%(...=..
9d008a1c:	30e700ff 2406009e 00c73023 04c0000d     ...0...$#0......
9d008a2c:	00000000 28c10020 14200003 00000000     .... ..(.. .....
9d008a3c:	10000005 24020000                       .......$

9d008a44 <i45>:
9d008a44:	04810002 	bgez	a0,9d008a50 <i46>
9d008a48:	00c52806 	srlv	a1,a1,a2
9d008a4c:	00052823 	negu	a1,a1

9d008a50 <i46>:
9d008a50:	00051025 	or	v0,zero,a1

9d008a54 <I999>:
9d008a54:	03e00008 	jr	ra
9d008a58:	00000000 	nop
9d008a5c:	00000000 	nop

9d008a60 <Ispec>:
9d008a60:	3c017f80 	lui	at,0x7f80
9d008a64:	34210001 	ori	at,at,0x1
9d008a68:	0081082b 	sltu	at,a0,at
9d008a6c:	14200003 	bnez	at,9d008a7c <i47>
9d008a70:	00000000 	nop
9d008a74:	1000fff7 	b	9d008a54 <I999>
9d008a78:	3c028000 	lui	v0,0x8000

9d008a7c <i47>:
9d008a7c:	1000fff5 	b	9d008a54 <I999>
9d008a80:	2402ffff 	li	v0,-1
9d008a84:	00000000 	nop

Disassembly of section .text.litodp:

9d008a88 <__floatsidf>:
9d008a88:	24050000 00054825 00053825 00043025     ...$%H..%8..%0..
9d008a98:	10c0000c 00000000 04c10006 00000000     ................
9d008aa8:	3c098000 0005502b 00052823 00063023     ...<+P..#(..#0..
9d008ab8:	00ca3023                                #0..

9d008abc <i40>:
9d008abc:	2407041e 	li	a3,1054
9d008ac0:	70c84020 	clz	t0,a2
9d008ac4:	00e83823 	subu	a3,a3,t0
9d008ac8:	01063004 	sllv	a2,a2,t0

9d008acc <i39>:
9d008acc:	000542c2 	srl	t0,a1,0xb
9d008ad0:	00065540 	sll	t2,a2,0x15
9d008ad4:	010a4025 	or	t0,t0,t2
9d008ad8:	00065040 	sll	t2,a2,0x1
9d008adc:	000a5302 	srl	t2,t2,0xc
9d008ae0:	012a4825 	or	t1,t1,t2
9d008ae4:	00075500 	sll	t2,a3,0x14
9d008ae8:	012a4825 	or	t1,t1,t2
9d008aec:	00081025 	or	v0,zero,t0
9d008af0:	00091825 	or	v1,zero,t1

9d008af4 <E999>:
9d008af4:	03e00008 	jr	ra
9d008af8:	00000000 	nop
9d008afc:	00000000 	nop

Disassembly of section .text.ungetc:

9d008b00 <ungetc>:
9d008b00:	2402ffff 	li	v0,-1
9d008b04:	10820017 	beq	a0,v0,9d008b64 <ungetc+0x64>
9d008b08:	24030001 	li	v1,1
9d008b0c:	94a2000c 	lhu	v0,12(a1)
9d008b10:	30460201 	andi	a2,v0,0x201
9d008b14:	54c30013 	bnel	a2,v1,9d008b64 <ungetc+0x64>
9d008b18:	2402ffff 	li	v0,-1
9d008b1c:	8ca60008 	lw	a2,8(a1)
9d008b20:	50c00010 	beqzl	a2,9d008b64 <ungetc+0x64>
9d008b24:	2402ffff 	li	v0,-1
9d008b28:	8ca70004 	lw	a3,4(a1)
9d008b2c:	8ca30010 	lw	v1,16(a1)
9d008b30:	50e3000c 	beql	a3,v1,9d008b64 <ungetc+0x64>
9d008b34:	2402ffff 	li	v0,-1
9d008b38:	8ca30000 	lw	v1,0(a1)
9d008b3c:	10c3000b 	beq	a2,v1,9d008b6c <ungetc+0x6c>
9d008b40:	24e70001 	addiu	a3,a3,1
9d008b44:	aca70004 	sw	a3,4(a1)
9d008b48:	2467ffff 	addiu	a3,v1,-1
9d008b4c:	30460040 	andi	a2,v0,0x40
9d008b50:	aca70000 	sw	a3,0(a1)
9d008b54:	14c00003 	bnez	a2,9d008b64 <ungetc+0x64>
9d008b58:	00801021 	move	v0,a0
9d008b5c:	03e00008 	jr	ra
9d008b60:	a064ffff 	sb	a0,-1(v1)
9d008b64:	03e00008 	jr	ra
9d008b68:	00000000 	nop
9d008b6c:	0b4022d2 	j	9d008b48 <ungetc+0x48>
9d008b70:	24630001 	addiu	v1,v1,1

Disassembly of section .text._sprintf_cdfFnopuxX:

9d008b74 <_sprintf_cdfFnopuxX>:
9d008b74:	27bdffd0 	addiu	sp,sp,-48
9d008b78:	afbf002c 	sw	ra,44(sp)
9d008b7c:	afb00028 	sw	s0,40(sp)
9d008b80:	27a20038 	addiu	v0,sp,56
9d008b84:	00808021 	move	s0,a0
9d008b88:	afa60038 	sw	a2,56(sp)
9d008b8c:	27a40010 	addiu	a0,sp,16
9d008b90:	00403021 	move	a2,v0
9d008b94:	afa7003c 	sw	a3,60(sp)
9d008b98:	afa20024 	sw	v0,36(sp)
9d008b9c:	24027fff 	li	v0,32767
9d008ba0:	afa20020 	sw	v0,32(sp)
9d008ba4:	afa00014 	sw	zero,20(sp)
9d008ba8:	afb00010 	sw	s0,16(sp)
9d008bac:	afb00018 	sw	s0,24(sp)
9d008bb0:	240200c2 	li	v0,194
9d008bb4:	0f400780 	jal	9d001e00 <_vfprintf_cdfFnopuxX>
9d008bb8:	a7a2001c 	sh	v0,28(sp)
9d008bbc:	8fa20010 	lw	v0,16(sp)
9d008bc0:	a0400000 	sb	zero,0(v0)
9d008bc4:	8fa20010 	lw	v0,16(sp)
9d008bc8:	00501023 	subu	v0,v0,s0
9d008bcc:	8fbf002c 	lw	ra,44(sp)
9d008bd0:	8fb00028 	lw	s0,40(sp)
9d008bd4:	03e00008 	jr	ra
9d008bd8:	27bd0030 	addiu	sp,sp,48

Disassembly of section .rodata:

9d008bdc <_powers_f>:
9d008bdc:	3f800000 41200000 42c80000 447a0000     ...?.. A...B..zD
9d008bec:	461c4000 47c35000 49742400 4b189680     .@.F.P.G.$tI...K
9d008bfc:	4cbebc20 4e6e6b28 501502f9 60ad78ec      ..L(knN...P.x.`
9d008c0c:	7149f2ca                                ..Iq

9d008c10 <_npowers_f>:
9d008c10:	3f800000 3dcccccd 3c23d70a 3a83126f     ...?...=..#<o..:
9d008c20:	38d1b717 3727c5ac 358637bd 33d6bf95     ...8..'7.7.5...3
9d008c30:	322bcc77 3089705f 2edbe6ff 1e3ce508     w.+2_p.0......<.
9d008c40:	0da24260                                `B..

Disassembly of section .text.sitofp:

9d008c44 <__floatsisf>:
9d008c44:	3c018000 10800012 00813024 04810002     ...<....$0......
9d008c54:	00000000 00042023                       ....# ..

9d008c5c <i40>:
9d008c5c:	2405009e 	li	a1,158
9d008c60:	70873820 	clz	a3,a0
9d008c64:	00a72823 	subu	a1,a1,a3
9d008c68:	00e42004 	sllv	a0,a0,a3
9d008c6c:	24840080 	addiu	a0,a0,128
9d008c70:	2c880080 	sltiu	t0,a0,128
9d008c74:	00a82821 	addu	a1,a1,t0
9d008c78:	00044203 	sra	t0,a0,0x8
9d008c7c:	31080001 	andi	t0,t0,0x1
9d008c80:	00882023 	subu	a0,a0,t0
9d008c84:	00042040 	sll	a0,a0,0x1
9d008c88:	00042242 	srl	a0,a0,0x9
9d008c8c:	000545c0 	sll	t0,a1,0x17
9d008c90:	00882025 	or	a0,a0,t0

9d008c94 <i39>:
9d008c94:	00861025 	or	v0,a0,a2

9d008c98 <E999>:
9d008c98:	03e00008 	jr	ra
9d008c9c:	00000000 	nop
9d008ca0:	00000000 	nop

Disassembly of section .text.wspace:

9d008ca4 <wspace>:
9d008ca4:	27bdffe0 	addiu	sp,sp,-32
9d008ca8:	afbf001c 	sw	ra,28(sp)
9d008cac:	afb10018 	sw	s1,24(sp)
9d008cb0:	afb00014 	sw	s0,20(sp)
9d008cb4:	3c11a000 	lui	s1,0xa000
9d008cb8:	3c109d00 	lui	s0,0x9d00
9d008cbc:	26107f99 	addiu	s0,s0,32665
9d008cc0:	0f401fa5 	jal	9d007e94 <fgetc>
9d008cc4:	8e241a44 	lw	a0,6724(s1)
9d008cc8:	02021821 	addu	v1,s0,v0
9d008ccc:	80630000 	lb	v1,0(v1)
9d008cd0:	30630088 	andi	v1,v1,0x88
9d008cd4:	1460fffa 	bnez	v1,9d008cc0 <wspace+0x1c>
9d008cd8:	2403ffff 	li	v1,-1
9d008cdc:	10430004 	beq	v0,v1,9d008cf0 <wspace+0x4c>
9d008ce0:	3c03a000 	lui	v1,0xa000
9d008ce4:	8c651a44 	lw	a1,6724(v1)
9d008ce8:	0f4022c0 	jal	9d008b00 <ungetc>
9d008cec:	00402021 	move	a0,v0
9d008cf0:	8fbf001c 	lw	ra,28(sp)
9d008cf4:	8fb10018 	lw	s1,24(sp)
9d008cf8:	8fb00014 	lw	s0,20(sp)
9d008cfc:	03e00008 	jr	ra
9d008d00:	27bd0020 	addiu	sp,sp,32

Disassembly of section .text.main_entry:

9d008d04 <_main_entry>:
9d008d04:	3c040000 	lui	a0,0x0
9d008d08:	27bdffe8 	addiu	sp,sp,-24
9d008d0c:	24840000 	addiu	a0,a0,0
9d008d10:	10800003 	beqz	a0,9d008d20 <_main_entry+0x1c>
9d008d14:	afbf0014 	sw	ra,20(sp)
9d008d18:	0080f809 	jalr	a0
9d008d1c:	00000000 	nop
9d008d20:	30840000 	andi	a0,a0,0x0
9d008d24:	30a50000 	andi	a1,a1,0x0
9d008d28:	3c089d00 	lui	t0,0x9d00
9d008d2c:	250842d0 	addiu	t0,t0,17104
9d008d30:	0100f809 	jalr	t0
9d008d34:	00000000 	nop

9d008d38 <__crt0_exit>:
9d008d38:	3c020000 24420000 10400003 00000000     ...<..B$..@.....
9d008d48:	0040f809 00000000 1000fff9 00000000     ..@.............

Disassembly of section .text._sscanf_cdfFnopuxX:

9d008d58 <_sscanf_cdfFnopuxX>:
9d008d58:	27bdffc8 	addiu	sp,sp,-56
9d008d5c:	afbf0034 	sw	ra,52(sp)
9d008d60:	afa60040 	sw	a2,64(sp)
9d008d64:	afa70044 	sw	a3,68(sp)
9d008d68:	27a30040 	addiu	v1,sp,64
9d008d6c:	afa30024 	sw	v1,36(sp)
9d008d70:	afa40010 	sw	a0,16(sp)
9d008d74:	afa40018 	sw	a0,24(sp)
9d008d78:	0f401d83 	jal	9d00760c <.LFE0>
9d008d7c:	afa50028 	sw	a1,40(sp)
9d008d80:	8fa60024 	lw	a2,36(sp)
9d008d84:	27a40010 	addiu	a0,sp,16
9d008d88:	8fa50028 	lw	a1,40(sp)
9d008d8c:	afa20014 	sw	v0,20(sp)
9d008d90:	afa20020 	sw	v0,32(sp)
9d008d94:	240200c1 	li	v0,193
9d008d98:	0f400c88 	jal	9d003220 <.LFE2>
9d008d9c:	a7a2001c 	sh	v0,28(sp)
9d008da0:	8fbf0034 	lw	ra,52(sp)
9d008da4:	03e00008 	jr	ra
9d008da8:	27bd0038 	addiu	sp,sp,56

Disassembly of section .rodata:

9d008dac <.LC0>:
9d008dac:	203a704b 	addi	k0,at,28747
9d008db0:	342e3225 	ori	t6,at,0x3225
9d008db4:	00000066 	0x66

9d008db8 <.LC1>:
9d008db8:	203a694b 	addi	k0,at,26955
9d008dbc:	342e3225 	ori	t6,at,0x3225
9d008dc0:	00000066 	0x66
9d008dc4:	25206625 	addiu	zero,t1,26149
9d008dc8:	64252066 	0x64252066
9d008dcc:	20642520 	addi	a0,v1,9504
9d008dd0:	00006425 	0x6425
9d008dd4:	00006425 	0x6425
9d008dd8:	25206425 	addiu	zero,t1,25637
9d008ddc:	64252064 	0x64252064
9d008de0:	0d642520 	jal	95909480 <_bmxdkpba_address+0x958e9480>
9d008de4:	0000000a 	movz	zero,zero,zero
9d008de8:	40c8f5c3 	0x40c8f5c3
9d008dec:	42c80000 	c0	0xc80000
9d008df0:	4579f000 	0x4579f000
9d008df4:	43fa0000 	c0	0x1fa0000

Disassembly of section .text:

9d008df8 <__floatunsisf>:
9d008df8:	27bdffe8 	addiu	sp,sp,-24
9d008dfc:	afbf0014 	sw	ra,20(sp)
9d008e00:	04800006 	bltz	a0,9d008e1c <__floatunsisf+0x24>
9d008e04:	00801021 	move	v0,a0
9d008e08:	0f402311 	jal	9d008c44 <__floatsisf>
9d008e0c:	00000000 	nop
9d008e10:	8fbf0014 	lw	ra,20(sp)
9d008e14:	03e00008 	jr	ra
9d008e18:	27bd0018 	addiu	sp,sp,24
9d008e1c:	00042042 	srl	a0,a0,0x1
9d008e20:	30420001 	andi	v0,v0,0x1
9d008e24:	0f402311 	jal	9d008c44 <__floatsisf>
9d008e28:	00822025 	or	a0,a0,v0
9d008e2c:	00402021 	move	a0,v0
9d008e30:	0f4019a3 	jal	9d00668c <__addsf3>
9d008e34:	00402821 	move	a1,v0
9d008e38:	8fbf0014 	lw	ra,20(sp)
9d008e3c:	03e00008 	jr	ra
9d008e40:	27bd0018 	addiu	sp,sp,24

Disassembly of section .text._bootstrap_exception_handler:

9d008e44 <_bootstrap_exception_handler>:
9d008e44:	3c020000 	lui	v0,0x0
9d008e48:	24420000 	addiu	v0,v0,0
9d008e4c:	10400005 	beqz	v0,9d008e64 <_bootstrap_exception_handler+0x20>
9d008e50:	3c020000 	lui	v0,0x0
9d008e54:	24420000 	addiu	v0,v0,0
9d008e58:	10400003 	beqz	v0,9d008e68 <_bootstrap_exception_handler+0x24>
9d008e5c:	3c029d01 	lui	v0,0x9d01
9d008e60:	7000003f 	sdbbp
9d008e64:	3c029d01 	lui	v0,0x9d01
9d008e68:	24428f64 	addiu	v0,v0,-28828
9d008e6c:	10400005 	beqz	v0,9d008e84 <_bootstrap_exception_handler+0x40>
9d008e70:	00000000 	nop
9d008e74:	27bdffe8 	addiu	sp,sp,-24
9d008e78:	afbf0014 	sw	ra,20(sp)
9d008e7c:	0040f809 	jalr	v0
9d008e80:	00000000 	nop
9d008e84:	0b4023a1 	j	9d008e84 <_bootstrap_exception_handler+0x40>
9d008e88:	00000000 	nop

Disassembly of section .text._general_exception_handler:

9d008e8c <_general_exception_handler>:
9d008e8c:	3c020000 	lui	v0,0x0
9d008e90:	24420000 	addiu	v0,v0,0
9d008e94:	10400005 	beqz	v0,9d008eac <_general_exception_handler+0x20>
9d008e98:	3c020000 	lui	v0,0x0
9d008e9c:	24420000 	addiu	v0,v0,0
9d008ea0:	10400003 	beqz	v0,9d008eb0 <_general_exception_handler+0x24>
9d008ea4:	3c029d01 	lui	v0,0x9d01
9d008ea8:	7000003f 	sdbbp
9d008eac:	3c029d01 	lui	v0,0x9d01
9d008eb0:	24428f64 	addiu	v0,v0,-28828
9d008eb4:	10400005 	beqz	v0,9d008ecc <_general_exception_handler+0x40>
9d008eb8:	00000000 	nop
9d008ebc:	27bdffe8 	addiu	sp,sp,-24
9d008ec0:	afbf0014 	sw	ra,20(sp)
9d008ec4:	0040f809 	jalr	v0
9d008ec8:	00000000 	nop
9d008ecc:	0b4023b3 	j	9d008ecc <_general_exception_handler+0x40>
9d008ed0:	00000000 	nop

Disassembly of section .vector_default:

9d008ed4 <_DefaultInterrupt>:
9d008ed4:	3c020000 	lui	v0,0x0
9d008ed8:	24420000 	addiu	v0,v0,0
9d008edc:	10400007 	beqz	v0,9d008efc <_DefaultInterrupt+0x28>
9d008ee0:	3c020000 	lui	v0,0x0
9d008ee4:	24420000 	addiu	v0,v0,0
9d008ee8:	50400005 	beqzl	v0,9d008f00 <_DefaultInterrupt+0x2c>
9d008eec:	3c029d01 	lui	v0,0x9d01
9d008ef0:	7000003f 	sdbbp
9d008ef4:	03e00008 	jr	ra
9d008ef8:	00000000 	nop
9d008efc:	3c029d01 	lui	v0,0x9d01
9d008f00:	24428f64 	addiu	v0,v0,-28828
9d008f04:	10400003 	beqz	v0,9d008f14 <_DefaultInterrupt+0x40>
9d008f08:	00000000 	nop
9d008f0c:	0040f809 	jalr	v0
9d008f10:	00000000 	nop
9d008f14:	03e00008 	jr	ra
9d008f18:	00000000 	nop

Disassembly of section .rodata:

9d008f1c <f5pow>:
9d008f1c:	00000000 40140000 00000000 40390000     .......@......9@
9d008f2c:	00000000 40838800 00000000 4117d784     .......@.......A
9d008f3c:	37e08000 4241c379 b5056e17 4493b8b5     ...7y.AB.n.....D
9d008f4c:	e93ff9f5 49384f03 f9301d32 52827748     ..?..O8I2.0.Hw.R
9d008f5c:	7f73bf3c 65154fdd                       <.s..O.e

Disassembly of section .text:

9d008f64 <__pic32_software_reset>:
9d008f64:	41606000 	di
9d008f68:	000000c0 	ehb
9d008f6c:	3c03aa99 	lui	v1,0xaa99
9d008f70:	3c02bf81 	lui	v0,0xbf81
9d008f74:	24636655 	addiu	v1,v1,26197
9d008f78:	ac40f230 	sw	zero,-3536(v0)
9d008f7c:	ac43f230 	sw	v1,-3536(v0)
9d008f80:	3c035566 	lui	v1,0x5566
9d008f84:	346399aa 	ori	v1,v1,0x99aa
9d008f88:	ac43f230 	sw	v1,-3536(v0)
9d008f8c:	3c02bf81 	lui	v0,0xbf81
9d008f90:	24030001 	li	v1,1
9d008f94:	ac43f618 	sw	v1,-2536(v0)
9d008f98:	3c02bf81 	lui	v0,0xbf81
9d008f9c:	8c42f610 	lw	v0,-2544(v0)
9d008fa0:	0b4023db 	j	9d008f6c <__pic32_software_reset+0x8>
9d008fa4:	00000000 	nop

9d008fa8 <__lshrdi3>:
9d008fa8:	10c00009 	beqz	a2,9d008fd0 <__lshrdi3+0x28>
9d008fac:	00801021 	move	v0,a0
9d008fb0:	24020020 	li	v0,32
9d008fb4:	00461023 	subu	v0,v0,a2
9d008fb8:	18400007 	blez	v0,9d008fd8 <__lshrdi3+0x30>
9d008fbc:	00c42006 	srlv	a0,a0,a2
9d008fc0:	00451004 	sllv	v0,a1,v0
9d008fc4:	00c51806 	srlv	v1,a1,a2
9d008fc8:	03e00008 	jr	ra
9d008fcc:	00441025 	or	v0,v0,a0
9d008fd0:	03e00008 	jr	ra
9d008fd4:	00a01821 	move	v1,a1
9d008fd8:	00021023 	negu	v0,v0
9d008fdc:	00001821 	move	v1,zero
9d008fe0:	03e00008 	jr	ra
9d008fe4:	00451006 	srlv	v0,a1,v0

9d008fe8 <__ashldi3>:
9d008fe8:	10c00009 	beqz	a2,9d009010 <__ashldi3+0x28>
9d008fec:	00801021 	move	v0,a0
9d008ff0:	24030020 	li	v1,32
9d008ff4:	00661823 	subu	v1,v1,a2
9d008ff8:	18600007 	blez	v1,9d009018 <__ashldi3+0x30>
9d008ffc:	00c52804 	sllv	a1,a1,a2
9d009000:	00641806 	srlv	v1,a0,v1
9d009004:	00c41004 	sllv	v0,a0,a2
9d009008:	03e00008 	jr	ra
9d00900c:	00651825 	or	v1,v1,a1
9d009010:	03e00008 	jr	ra
9d009014:	00a01821 	move	v1,a1
9d009018:	00031823 	negu	v1,v1
9d00901c:	00001021 	move	v0,zero
9d009020:	03e00008 	jr	ra
9d009024:	00641804 	sllv	v1,a0,v1

Disassembly of section .text.strtod:

9d009028 <strtod>:
9d009028:	27bdffe8 	addiu	sp,sp,-24
9d00902c:	afbf0014 	sw	ra,20(sp)
9d009030:	0f40170c 	jal	9d005c30 <__strtod>
9d009034:	00000000 	nop
9d009038:	00402021 	move	a0,v0
9d00903c:	0f402068 	jal	9d0081a0 <.LFE23>
9d009040:	00602821 	move	a1,v1
9d009044:	8fbf0014 	lw	ra,20(sp)
9d009048:	03e00008 	jr	ra
9d00904c:	27bd0018 	addiu	sp,sp,24

Disassembly of section .text.tolower:

9d009050 <tolower>:
9d009050:	3c029d00 	lui	v0,0x9d00
9d009054:	24427f99 	addiu	v0,v0,32665
9d009058:	00821021 	addu	v0,a0,v0
9d00905c:	90420000 	lbu	v0,0(v0)
9d009060:	24830020 	addiu	v1,a0,32
9d009064:	30420001 	andi	v0,v0,0x1
9d009068:	0062200b 	movn	a0,v1,v0
9d00906c:	03e00008 	jr	ra
9d009070:	00801021 	move	v0,a0

Disassembly of section .text.toupper:

9d009074 <toupper>:
9d009074:	3c029d00 	lui	v0,0x9d00
9d009078:	24427f99 	addiu	v0,v0,32665
9d00907c:	00821021 	addu	v0,a0,v0
9d009080:	90420000 	lbu	v0,0(v0)
9d009084:	2483ffe0 	addiu	v1,a0,-32
9d009088:	30420002 	andi	v0,v0,0x2
9d00908c:	0062200b 	movn	a0,v1,v0
9d009090:	03e00008 	jr	ra
9d009094:	00801021 	move	v0,a0

Disassembly of section .text._dstrtod:

9d009098 <_dstrtod>:
9d009098:	27bdffe8 	addiu	sp,sp,-24
9d00909c:	afbf0014 	sw	ra,20(sp)
9d0090a0:	0f40170c 	jal	9d005c30 <__strtod>
9d0090a4:	00000000 	nop
9d0090a8:	8fbf0014 	lw	ra,20(sp)
9d0090ac:	03e00008 	jr	ra
9d0090b0:	27bd0018 	addiu	sp,sp,24

Disassembly of section .text.strtof:

9d0090b4 <strtof>:
9d0090b4:	27bdffe8 	addiu	sp,sp,-24
9d0090b8:	afbf0014 	sw	ra,20(sp)
9d0090bc:	0f401800 	jal	9d006000 <.LFE23>
9d0090c0:	00000000 	nop
9d0090c4:	8fbf0014 	lw	ra,20(sp)
9d0090c8:	03e00008 	jr	ra
9d0090cc:	27bd0018 	addiu	sp,sp,24

Disassembly of section .text.strtodf:

9d0090d0 <strtodf>:
9d0090d0:	27bdffe8 	addiu	sp,sp,-24
9d0090d4:	afbf0014 	sw	ra,20(sp)
9d0090d8:	0f401800 	jal	9d006000 <.LFE23>
9d0090dc:	00000000 	nop
9d0090e0:	8fbf0014 	lw	ra,20(sp)
9d0090e4:	03e00008 	jr	ra
9d0090e8:	27bd0018 	addiu	sp,sp,24

Disassembly of section .text.negdf2:

9d0090ec <__negdf2>:
9d0090ec:	3c018000 00a12826 00041025 00051825     ...<&(..%...%...

9d0090fc <M999>:
9d0090fc:	03e00008 	jr	ra
9d009100:	00000000 	nop
9d009104:	00000000 	nop

Disassembly of section .text:

9d009108 <_nmi_handler>:
9d009108:	401a6000 	mfc0	k0,c0_status
9d00910c:	3c1bffbf 	lui	k1,0xffbf
9d009110:	377bffff 	ori	k1,k1,0xffff
9d009114:	035bd024 	and	k0,k0,k1
9d009118:	409a6000 	mtc0	k0,c0_status
9d00911c:	42000018 	eret

Disassembly of section .text.isalnum:

9d009120 <isalnum>:
9d009120:	3c029d00 	lui	v0,0x9d00
9d009124:	24427f99 	addiu	v0,v0,32665
9d009128:	00442021 	addu	a0,v0,a0
9d00912c:	90820000 	lbu	v0,0(a0)
9d009130:	03e00008 	jr	ra
9d009134:	30420007 	andi	v0,v0,0x7

Disassembly of section .text.isalpha:

9d009138 <isalpha>:
9d009138:	3c029d00 	lui	v0,0x9d00
9d00913c:	24427f99 	addiu	v0,v0,32665
9d009140:	00442021 	addu	a0,v0,a0
9d009144:	90820000 	lbu	v0,0(a0)
9d009148:	03e00008 	jr	ra
9d00914c:	30420003 	andi	v0,v0,0x3

Disassembly of section .text.iscntrl:

9d009150 <iscntrl>:
9d009150:	3c029d00 	lui	v0,0x9d00
9d009154:	24427f99 	addiu	v0,v0,32665
9d009158:	00442021 	addu	a0,v0,a0
9d00915c:	90820000 	lbu	v0,0(a0)
9d009160:	03e00008 	jr	ra
9d009164:	30420020 	andi	v0,v0,0x20

Disassembly of section .text.isdigit:

9d009168 <isdigit>:
9d009168:	3c029d00 	lui	v0,0x9d00
9d00916c:	24427f99 	addiu	v0,v0,32665
9d009170:	00442021 	addu	a0,v0,a0
9d009174:	90820000 	lbu	v0,0(a0)
9d009178:	03e00008 	jr	ra
9d00917c:	30420004 	andi	v0,v0,0x4

Disassembly of section .text.isgraph:

9d009180 <isgraph>:
9d009180:	3c029d00 	lui	v0,0x9d00
9d009184:	24427f99 	addiu	v0,v0,32665
9d009188:	00442021 	addu	a0,v0,a0
9d00918c:	90820000 	lbu	v0,0(a0)
9d009190:	03e00008 	jr	ra
9d009194:	30420017 	andi	v0,v0,0x17

Disassembly of section .text.islower:

9d009198 <islower>:
9d009198:	3c029d00 	lui	v0,0x9d00
9d00919c:	24427f99 	addiu	v0,v0,32665
9d0091a0:	00442021 	addu	a0,v0,a0
9d0091a4:	90820000 	lbu	v0,0(a0)
9d0091a8:	03e00008 	jr	ra
9d0091ac:	30420002 	andi	v0,v0,0x2

Disassembly of section .text.isprint:

9d0091b0 <isprint>:
9d0091b0:	3c029d00 	lui	v0,0x9d00
9d0091b4:	24427f99 	addiu	v0,v0,32665
9d0091b8:	00442021 	addu	a0,v0,a0
9d0091bc:	80820000 	lb	v0,0(a0)
9d0091c0:	03e00008 	jr	ra
9d0091c4:	30420097 	andi	v0,v0,0x97

Disassembly of section .text.ispunct:

9d0091c8 <ispunct>:
9d0091c8:	3c029d00 	lui	v0,0x9d00
9d0091cc:	24427f99 	addiu	v0,v0,32665
9d0091d0:	00442021 	addu	a0,v0,a0
9d0091d4:	90820000 	lbu	v0,0(a0)
9d0091d8:	03e00008 	jr	ra
9d0091dc:	30420010 	andi	v0,v0,0x10

Disassembly of section .text.isspace:

9d0091e0 <isspace>:
9d0091e0:	3c029d00 	lui	v0,0x9d00
9d0091e4:	24427f99 	addiu	v0,v0,32665
9d0091e8:	00442021 	addu	a0,v0,a0
9d0091ec:	80820000 	lb	v0,0(a0)
9d0091f0:	03e00008 	jr	ra
9d0091f4:	30420088 	andi	v0,v0,0x88

Disassembly of section .text.isupper:

9d0091f8 <isupper>:
9d0091f8:	3c029d00 	lui	v0,0x9d00
9d0091fc:	24427f99 	addiu	v0,v0,32665
9d009200:	00442021 	addu	a0,v0,a0
9d009204:	90820000 	lbu	v0,0(a0)
9d009208:	03e00008 	jr	ra
9d00920c:	30420001 	andi	v0,v0,0x1

Disassembly of section .text.isxdigit:

9d009210 <isxdigit>:
9d009210:	3c029d00 	lui	v0,0x9d00
9d009214:	24427f99 	addiu	v0,v0,32665
9d009218:	00442021 	addu	a0,v0,a0
9d00921c:	90820000 	lbu	v0,0(a0)
9d009220:	03e00008 	jr	ra
9d009224:	30420044 	andi	v0,v0,0x44

Disassembly of section .rodata:

9d009228 <f5pow>:
9d009228:	40a00000 41c80000 441c4000 48bebc20     ...@...A.@.D ..H
9d009238:	520e1bca 649dc5ae                       ...R...d

Disassembly of section .text.negsf2:

9d009240 <__negsf2>:
9d009240:	3c018000 00811026                       ...<&...

9d009248 <L999>:
9d009248:	03e00008 	jr	ra
9d00924c:	00000000 	nop
9d009250:	00000000 	nop

Disassembly of section .text._on_reset:

9d009254 <_on_reset>:
9d009254:	03e00008 	jr	ra
9d009258:	00000000 	nop

Disassembly of section .text._on_bootstrap:

9d00925c <_on_bootstrap>:
9d00925c:	03e00008 	jr	ra
9d009260:	00000000 	nop

Disassembly of section .text.isascii:

9d009264 <isascii>:
9d009264:	03e00008 	jr	ra
9d009268:	2c820080 	sltiu	v0,a0,128

Disassembly of section .text.toascii:

9d00926c <toascii>:
9d00926c:	03e00008 	jr	ra
9d009270:	3082007f 	andi	v0,a0,0x7f

Disassembly of section .text._tolower:

9d009274 <_tolower>:
9d009274:	03e00008 	jr	ra
9d009278:	24820020 	addiu	v0,a0,32

Disassembly of section .text._toupper:

9d00927c <_toupper>:
9d00927c:	03e00008 	jr	ra
9d009280:	2482ffe0 	addiu	v0,a0,-32
