
out.elf:     file format elf32-tradlittlemips


Disassembly of section .config_BFC02FF0:

bfc02ff0 <__config_BFC02FF0>:
bfc02ff0:	ff ff fe fa                                         ....

Disassembly of section .config_BFC02FF4:

bfc02ff4 <__config_BFC02FF4>:
bfc02ff4:	d9 79 f8 ff                                         .y..

Disassembly of section .config_BFC02FF8:

bfc02ff8 <__config_BFC02FF8>:
bfc02ff8:	db ce 6c ff                                         ..l.

Disassembly of section .config_BFC02FFC:

bfc02ffc <__config_BFC02FFC>:
bfc02ffc:	ff ff ff 7e                                         ...~

Disassembly of section .reset:

bd001970 <_reset>:
bd001970:	0f40065e 	jal	bd001978 <_startup>
bd001974:	00000000 	nop

bd001978 <_startup>:
bd001978:	401a6000 	mfc0	k0,c0_status
bd00197c:	7f5a04c0 	ext	k0,k0,0x13,0x1
bd001980:	13400005 	beqz	k0,bd001998 <_no_nmi>
bd001984:	00000000 	nop
bd001988:	3c1a9d00 	lui	k0,0x9d00
bd00198c:	275a2b98 	addiu	k0,k0,11160
bd001990:	03400008 	jr	k0
bd001994:	00000000 	nop

bd001998 <_no_nmi>:
bd001998:	3c1da002 	lui	sp,0xa002
bd00199c:	27bdfff0 	addiu	sp,sp,-16
bd0019a0:	3c1ca000 	lui	gp,0xa000
bd0019a4:	279c7ff0 	addiu	gp,gp,32752
bd0019a8:	40096002 	mfc0	t1,c0_srsctl
bd0019ac:	01205820 	add	t3,t1,zero
bd0019b0:	7d2a1e80 	ext	t2,t1,0x1a,0x4
bd0019b4:	7d494984 	ins	t1,t2,0x6,0x4
bd0019b8:	40896002 	mtc0	t1,c0_srsctl
bd0019bc:	000000c0 	ehb
bd0019c0:	41dce000 	wrpgpr	gp,gp
bd0019c4:	408b6002 	mtc0	t3,c0_srsctl
bd0019c8:	000000c0 	ehb
bd0019cc:	3c089d00 	lui	t0,0x9d00
bd0019d0:	25082bc0 	addiu	t0,t0,11200
bd0019d4:	0100f809 	jalr	t0
bd0019d8:	00000000 	nop
bd0019dc:	3c08a000 	lui	t0,0xa000
bd0019e0:	25080000 	addiu	t0,t0,0
bd0019e4:	3c09a000 	lui	t1,0xa000
bd0019e8:	25290000 	addiu	t1,t1,0
bd0019ec:	10000006 	b	bd001a08 <_bss_check>
bd0019f0:	00000000 	nop

bd0019f4 <_bss_init>:
bd0019f4:	ad000000 	sw	zero,0(t0)
bd0019f8:	ad000004 	sw	zero,4(t0)
bd0019fc:	ad000008 	sw	zero,8(t0)
bd001a00:	ad00000c 	sw	zero,12(t0)
bd001a04:	25080010 	addiu	t0,t0,16

bd001a08 <_bss_check>:
bd001a08:	0109082b 	sltu	at,t0,t1
bd001a0c:	1420fff9 	bnez	at,bd0019f4 <_bss_init>
bd001a10:	00000000 	nop

bd001a14 <_dinit_init>:
bd001a14:	3c089d00 	lui	t0,0x9d00
bd001a18:	25082a2c 	addiu	t0,t0,10796
bd001a1c:	8d090000 	lw	t1,0(t0)
bd001a20:	11200018 	beqz	t1,bd001a84 <_dinit_end+0x18>
bd001a24:	25080004 	addiu	t0,t0,4
bd001a28:	8d0a0000 	lw	t2,0(t0)
bd001a2c:	25080004 	addiu	t0,t0,4
bd001a30:	8d0b0000 	lw	t3,0(t0)
bd001a34:	11600009 	beqz	t3,bd001a5c <_dinit_clear>
bd001a38:	25080004 	addiu	t0,t0,4

bd001a3c <_dinit_copy>:
bd001a3c:	910c0000 	lbu	t4,0(t0)
bd001a40:	254affff 	addiu	t2,t2,-1
bd001a44:	25080001 	addiu	t0,t0,1
bd001a48:	a12c0000 	sb	t4,0(t1)
bd001a4c:	1540fffb 	bnez	t2,bd001a3c <_dinit_copy>
bd001a50:	25290001 	addiu	t1,t1,1
bd001a54:	10000005 	b	bd001a6c <_dinit_end>
bd001a58:	00000000 	nop

bd001a5c <_dinit_clear>:
bd001a5c:	a1200000 	sb	zero,0(t1)
bd001a60:	254affff 	addiu	t2,t2,-1
bd001a64:	1540fffd 	bnez	t2,bd001a5c <_dinit_clear>
bd001a68:	25290001 	addiu	t1,t1,1

bd001a6c <_dinit_end>:
bd001a6c:	25080003 	addiu	t0,t0,3
bd001a70:	240afffc 	li	t2,-4
bd001a74:	01484024 	and	t0,t2,t0
bd001a78:	8d090000 	lw	t1,0(t0)
bd001a7c:	1520ffe7 	bnez	t1,bd001a1c <_dinit_init+0x8>
bd001a80:	00000000 	nop
bd001a84:	3c090000 	lui	t1,0x0
bd001a88:	25290000 	addiu	t1,t1,0
bd001a8c:	11200010 	beqz	t1,bd001ad0 <_ramfunc_done>
bd001a90:	00000000 	nop
bd001a94:	3c090002 	lui	t1,0x2
bd001a98:	25290000 	addiu	t1,t1,0
bd001a9c:	3c0abf88 	lui	t2,0xbf88
bd001aa0:	254a2010 	addiu	t2,t2,8208
bd001aa4:	ad490000 	sw	t1,0(t2)
bd001aa8:	3c090002 	lui	t1,0x2
bd001aac:	25290000 	addiu	t1,t1,0
bd001ab0:	3c0abf88 	lui	t2,0xbf88
bd001ab4:	254a2020 	addiu	t2,t2,8224
bd001ab8:	ad490000 	sw	t1,0(t2)
bd001abc:	3c090002 	lui	t1,0x2
bd001ac0:	25290000 	addiu	t1,t1,0
bd001ac4:	3c0abf88 	lui	t2,0xbf88
bd001ac8:	254a2030 	addiu	t2,t2,8240
bd001acc:	ad490000 	sw	t1,0(t2)

bd001ad0 <_ramfunc_done>:
bd001ad0:	40804800 	mtc0	zero,c0_count
bd001ad4:	240affff 	li	t2,-1
bd001ad8:	408a5800 	mtc0	t2,c0_compare
bd001adc:	3c099d00 	lui	t1,0x9d00
bd001ae0:	25290000 	addiu	t1,t1,0
bd001ae4:	40897801 	mtc0	t1,c0_ebase
bd001ae8:	3c090000 	lui	t1,0x0
bd001aec:	25290001 	addiu	t1,t1,1
bd001af0:	240a0000 	li	t2,0
bd001af4:	7d2a4944 	ins	t2,t1,0x5,0x5
bd001af8:	408a6001 	mtc0	t2,c0_intctl
bd001afc:	3c090080 	lui	t1,0x80
bd001b00:	40896800 	mtc0	t1,c0_cause
bd001b04:	40088000 	mfc0	t0,c0_config
bd001b08:	7d090580 	ext	t1,t0,0x16,0x1
bd001b0c:	00094c40 	sll	t1,t1,0x11
bd001b10:	40086000 	mfc0	t0,c0_status
bd001b14:	3c010058 	lui	at,0x58
bd001b18:	01014024 	and	t0,t0,at
bd001b1c:	01284025 	or	t0,t1,t0
bd001b20:	40886000 	mtc0	t0,c0_status
bd001b24:	000000c0 	ehb
bd001b28:	3c089d00 	lui	t0,0x9d00
bd001b2c:	25082bc8 	addiu	t0,t0,11208
bd001b30:	0100f809 	jalr	t0
bd001b34:	00000000 	nop
bd001b38:	40086000 	mfc0	t0,c0_status
bd001b3c:	3c01ffbf 	lui	at,0xffbf
bd001b40:	3421ffff 	ori	at,at,0xffff
bd001b44:	01014024 	and	t0,t0,at
bd001b48:	40886000 	mtc0	t0,c0_status
bd001b4c:	30840000 	andi	a0,a0,0x0
bd001b50:	30a50000 	andi	a1,a1,0x0
bd001b54:	3c089d00 	lui	t0,0x9d00
bd001b58:	250829d8 	addiu	t0,t0,10712
bd001b5c:	01000008 	jr	t0
bd001b60:	00000000 	nop

Disassembly of section .bev_excpt:

bd001cf0 <_bev_exception>:
bd001cf0:	3c1a9d00 	lui	k0,0x9d00
bd001cf4:	275a2a7c 	addiu	k0,k0,10876
bd001cf8:	03400008 	jr	k0
bd001cfc:	00000000 	nop

Disassembly of section .app_excpt:

9d000180 <_gen_exception>:
9d000180:	3c1a9d00 	lui	k0,0x9d00
9d000184:	275a2680 	addiu	k0,k0,9856
9d000188:	03400008 	jr	k0
9d00018c:	00000000 	nop

Disassembly of section .vector_0:

9d000200 <__vector_dispatch_0>:
9d000200:	0b400ac3 	j	9d002b0c <.LFE0>
9d000204:	00000000 	nop

Disassembly of section .vector_1:

9d000220 <__vector_dispatch_1>:
9d000220:	0b400ac3 	j	9d002b0c <.LFE0>
9d000224:	00000000 	nop

Disassembly of section .vector_2:

9d000240 <__vector_dispatch_2>:
9d000240:	0b400ac3 	j	9d002b0c <.LFE0>
9d000244:	00000000 	nop

Disassembly of section .vector_3:

9d000260 <__vector_dispatch_3>:
9d000260:	0b400ac3 	j	9d002b0c <.LFE0>
9d000264:	00000000 	nop

Disassembly of section .vector_4:

9d000280 <__vector_dispatch_4>:
9d000280:	0b400ac3 	j	9d002b0c <.LFE0>
9d000284:	00000000 	nop

Disassembly of section .vector_5:

9d0002a0 <__vector_dispatch_5>:
9d0002a0:	0b400ac3 	j	9d002b0c <.LFE0>
9d0002a4:	00000000 	nop

Disassembly of section .vector_6:

9d0002c0 <__vector_dispatch_6>:
9d0002c0:	0b400ac3 	j	9d002b0c <.LFE0>
9d0002c4:	00000000 	nop

Disassembly of section .vector_7:

9d0002e0 <__vector_dispatch_7>:
9d0002e0:	0b400ac3 	j	9d002b0c <.LFE0>
9d0002e4:	00000000 	nop

Disassembly of section .vector_8:

9d000300 <__vector_dispatch_8>:
9d000300:	0b400ac3 	j	9d002b0c <.LFE0>
9d000304:	00000000 	nop

Disassembly of section .vector_9:

9d000320 <__vector_dispatch_9>:
9d000320:	0b400ac3 	j	9d002b0c <.LFE0>
9d000324:	00000000 	nop

Disassembly of section .vector_10:

9d000340 <__vector_dispatch_10>:
9d000340:	0b400ac3 	j	9d002b0c <.LFE0>
9d000344:	00000000 	nop

Disassembly of section .vector_11:

9d000360 <__vector_dispatch_11>:
9d000360:	0b400ac3 	j	9d002b0c <.LFE0>
9d000364:	00000000 	nop

Disassembly of section .vector_12:

9d000380 <__vector_dispatch_12>:
9d000380:	0b400ac3 	j	9d002b0c <.LFE0>
9d000384:	00000000 	nop

Disassembly of section .vector_13:

9d0003a0 <__vector_dispatch_13>:
9d0003a0:	0b400ac3 	j	9d002b0c <.LFE0>
9d0003a4:	00000000 	nop

Disassembly of section .vector_14:

9d0003c0 <__vector_dispatch_14>:
9d0003c0:	0b400ac3 	j	9d002b0c <.LFE0>
9d0003c4:	00000000 	nop

Disassembly of section .vector_15:

9d0003e0 <__vector_dispatch_15>:
9d0003e0:	0b400ac3 	j	9d002b0c <.LFE0>
9d0003e4:	00000000 	nop

Disassembly of section .vector_16:

9d000400 <__vector_dispatch_16>:
9d000400:	0b400ac3 	j	9d002b0c <.LFE0>
9d000404:	00000000 	nop

Disassembly of section .vector_17:

9d000420 <__vector_dispatch_17>:
9d000420:	0b400ac3 	j	9d002b0c <.LFE0>
9d000424:	00000000 	nop

Disassembly of section .vector_18:

9d000440 <__vector_dispatch_18>:
9d000440:	0b400ac3 	j	9d002b0c <.LFE0>
9d000444:	00000000 	nop

Disassembly of section .vector_19:

9d000460 <__vector_dispatch_19>:
9d000460:	0b400ac3 	j	9d002b0c <.LFE0>
9d000464:	00000000 	nop

Disassembly of section .vector_20:

9d000480 <__vector_dispatch_20>:
9d000480:	0b400ac3 	j	9d002b0c <.LFE0>
9d000484:	00000000 	nop

Disassembly of section .vector_21:

9d0004a0 <__vector_dispatch_21>:
9d0004a0:	0b400ac3 	j	9d002b0c <.LFE0>
9d0004a4:	00000000 	nop

Disassembly of section .vector_22:

9d0004c0 <__vector_dispatch_22>:
9d0004c0:	0b400ac3 	j	9d002b0c <.LFE0>
9d0004c4:	00000000 	nop

Disassembly of section .vector_23:

9d0004e0 <__vector_dispatch_23>:
9d0004e0:	0b400ac3 	j	9d002b0c <.LFE0>
9d0004e4:	00000000 	nop

Disassembly of section .vector_24:

9d000500 <__vector_dispatch_24>:
9d000500:	0b400ac3 	j	9d002b0c <.LFE0>
9d000504:	00000000 	nop

Disassembly of section .vector_25:

9d000520 <__vector_dispatch_25>:
9d000520:	0b400ac3 	j	9d002b0c <.LFE0>
9d000524:	00000000 	nop

Disassembly of section .vector_26:

9d000540 <__vector_dispatch_26>:
9d000540:	0b400ac3 	j	9d002b0c <.LFE0>
9d000544:	00000000 	nop

Disassembly of section .vector_27:

9d000560 <__vector_dispatch_27>:
9d000560:	0b400ac3 	j	9d002b0c <.LFE0>
9d000564:	00000000 	nop

Disassembly of section .vector_28:

9d000580 <__vector_dispatch_28>:
9d000580:	0b400ac3 	j	9d002b0c <.LFE0>
9d000584:	00000000 	nop

Disassembly of section .vector_29:

9d0005a0 <__vector_dispatch_29>:
9d0005a0:	0b400ac3 	j	9d002b0c <.LFE0>
9d0005a4:	00000000 	nop

Disassembly of section .vector_30:

9d0005c0 <__vector_dispatch_30>:
9d0005c0:	0b400ac3 	j	9d002b0c <.LFE0>
9d0005c4:	00000000 	nop

Disassembly of section .vector_31:

9d0005e0 <__vector_dispatch_31>:
9d0005e0:	0b400ac3 	j	9d002b0c <.LFE0>
9d0005e4:	00000000 	nop

Disassembly of section .vector_32:

9d000600 <__vector_dispatch_32>:
9d000600:	0b400ac3 	j	9d002b0c <.LFE0>
9d000604:	00000000 	nop

Disassembly of section .vector_33:

9d000620 <__vector_dispatch_33>:
9d000620:	0b400ac3 	j	9d002b0c <.LFE0>
9d000624:	00000000 	nop

Disassembly of section .vector_34:

9d000640 <__vector_dispatch_34>:
9d000640:	0b400ac3 	j	9d002b0c <.LFE0>
9d000644:	00000000 	nop

Disassembly of section .vector_35:

9d000660 <__vector_dispatch_35>:
9d000660:	0b400ac3 	j	9d002b0c <.LFE0>
9d000664:	00000000 	nop

Disassembly of section .vector_36:

9d000680 <__vector_dispatch_36>:
9d000680:	0b400ac3 	j	9d002b0c <.LFE0>
9d000684:	00000000 	nop

Disassembly of section .vector_37:

9d0006a0 <__vector_dispatch_37>:
9d0006a0:	0b400ac3 	j	9d002b0c <.LFE0>
9d0006a4:	00000000 	nop

Disassembly of section .vector_38:

9d0006c0 <__vector_dispatch_38>:
9d0006c0:	0b400ac3 	j	9d002b0c <.LFE0>
9d0006c4:	00000000 	nop

Disassembly of section .vector_39:

9d0006e0 <__vector_dispatch_39>:
9d0006e0:	0b400ac3 	j	9d002b0c <.LFE0>
9d0006e4:	00000000 	nop

Disassembly of section .vector_40:

9d000700 <__vector_dispatch_40>:
9d000700:	0b400ac3 	j	9d002b0c <.LFE0>
9d000704:	00000000 	nop

Disassembly of section .vector_41:

9d000720 <__vector_dispatch_41>:
9d000720:	0b400ac3 	j	9d002b0c <.LFE0>
9d000724:	00000000 	nop

Disassembly of section .vector_42:

9d000740 <__vector_dispatch_42>:
9d000740:	0b400ac3 	j	9d002b0c <.LFE0>
9d000744:	00000000 	nop

Disassembly of section .vector_43:

9d000760 <__vector_dispatch_43>:
9d000760:	0b400ac3 	j	9d002b0c <.LFE0>
9d000764:	00000000 	nop

Disassembly of section .vector_44:

9d000780 <__vector_dispatch_44>:
9d000780:	0b400ac3 	j	9d002b0c <.LFE0>
9d000784:	00000000 	nop

Disassembly of section .vector_45:

9d0007a0 <__vector_dispatch_45>:
9d0007a0:	0b400ac3 	j	9d002b0c <.LFE0>
9d0007a4:	00000000 	nop

Disassembly of section .vector_46:

9d0007c0 <__vector_dispatch_46>:
9d0007c0:	0b400ac3 	j	9d002b0c <.LFE0>
9d0007c4:	00000000 	nop

Disassembly of section .vector_47:

9d0007e0 <__vector_dispatch_47>:
9d0007e0:	0b400ac3 	j	9d002b0c <.LFE0>
9d0007e4:	00000000 	nop

Disassembly of section .vector_48:

9d000800 <__vector_dispatch_48>:
9d000800:	0b400ac3 	j	9d002b0c <.LFE0>
9d000804:	00000000 	nop

Disassembly of section .vector_49:

9d000820 <__vector_dispatch_49>:
9d000820:	0b400ac3 	j	9d002b0c <.LFE0>
9d000824:	00000000 	nop

Disassembly of section .vector_50:

9d000840 <__vector_dispatch_50>:
9d000840:	0b400ac3 	j	9d002b0c <.LFE0>
9d000844:	00000000 	nop

Disassembly of section .vector_51:

9d000860 <__vector_dispatch_51>:
9d000860:	0b400ac3 	j	9d002b0c <.LFE0>
9d000864:	00000000 	nop

Disassembly of section ._debug_exception:

bfc00480 <__DbgExecReturn>:
bfc00480:	409bf800 	mtc0	k1,c0_desave
bfc00484:	000000c0 	ehb
bfc00488:	3c1b9d00 	lui	k1,0x9d00
bfc0048c:	277b2b54 	addiu	k1,k1,11092
bfc00490:	13600002 	beqz	k1,bfc0049c <__DbgExecReturn+0x1c>
bfc00494:	00000000 	nop
bfc00498:	409bc000 	mtc0	k1,c0_depc
bfc0049c:	401bf800 	mfc0	k1,c0_desave
bfc004a0:	000000c0 	ehb
bfc004a4:	4200001f 	deret
bfc004a8:	00000000 	nop

Disassembly of section .text:

9d001e00 <NU32_Startup>:

// Perform startup routines:
//  Make NU32_LED1 and NU32_LED2 pins outputs (NU32_USER is by default an input)
//  Initialize the serial port - UART3 (no interrupt) 
//  Enable interrupts
void NU32_Startup() {
9d001e00:	27bdfff8 	addiu	sp,sp,-8
9d001e04:	afbf0004 	sw	ra,4(sp)
9d001e08:	afbe0000 	sw	s8,0(sp)
9d001e0c:	03a0f021 	move	s8,sp
  // disable interrupts
  __builtin_disable_interrupts();
9d001e10:	41626000 	di	v0
9d001e14:	000000c0 	ehb
9d001e18:	00000000 	nop
  // see Chapter 2 "CPU for Devices with M4K Core" of the PIC32 reference manual
  // most of the other bits have prescribed values
  // microchip does not provide a _CP0_SET_CONFIG macro, so we directly use
  // the compiler built-in command _mtc0
  // to disable cache, use 0xa4210582 
  __builtin_mtc0(_CP0_CONFIG, _CP0_CONFIG_SELECT, 0xa4210583); 
9d001e1c:	3c02a421 	lui	v0,0xa421
9d001e20:	34420583 	ori	v0,v0,0x583
9d001e24:	40828000 	mtc0	v0,c0_config
9d001e28:	000000c0 	ehb
  
  // set the prefectch cache wait state to 2, as per the
  // electrical characteristics data sheet
  CHECONbits.PFMWS = 0x2;   
9d001e2c:	3c03bf88 	lui	v1,0xbf88
9d001e30:	8c624000 	lw	v0,16384(v1)
9d001e34:	24040002 	li	a0,2
9d001e38:	7c821004 	ins	v0,a0,0x0,0x3
9d001e3c:	ac624000 	sw	v0,16384(v1)

  //enable prefetch for cacheable and noncacheable memory
  CHECONbits.PREFEN = 0x3; 
9d001e40:	3c03bf88 	lui	v1,0xbf88
9d001e44:	8c624000 	lw	v0,16384(v1)
9d001e48:	24040003 	li	a0,3
9d001e4c:	7c822904 	ins	v0,a0,0x4,0x2
9d001e50:	ac624000 	sw	v0,16384(v1)

  // 0 data RAM access wait states
  BMXCONbits.BMXWSDRM = 0x0;
9d001e54:	3c03bf88 	lui	v1,0xbf88
9d001e58:	8c622000 	lw	v0,8192(v1)
9d001e5c:	7c023184 	ins	v0,zero,0x6,0x1
9d001e60:	ac622000 	sw	v0,8192(v1)
  
  // enable multi vector interrupts
  INTCONbits.MVEC = 0x1;
9d001e64:	3c03bf88 	lui	v1,0xbf88
9d001e68:	8c621000 	lw	v0,4096(v1)
9d001e6c:	24040001 	li	a0,1
9d001e70:	7c826304 	ins	v0,a0,0xc,0x1
9d001e74:	ac621000 	sw	v0,4096(v1)

  // disable JTAG to get B10, B11, B12 and B13 back
  DDPCONbits.JTAGEN = 0;
9d001e78:	3c03bf81 	lui	v1,0xbf81
9d001e7c:	9062f200 	lbu	v0,-3584(v1)
9d001e80:	7c0218c4 	ins	v0,zero,0x3,0x1
9d001e84:	a062f200 	sb	v0,-3584(v1)

  TRISFCLR = 0x0003;  // Make F0 and F1 outputs (LED1 and LED2)
9d001e88:	3c02bf88 	lui	v0,0xbf88
9d001e8c:	24030003 	li	v1,3
9d001e90:	ac436144 	sw	v1,24900(v0)
  NU32_LED1 = 1;      // LED1 is off
9d001e94:	3c03bf88 	lui	v1,0xbf88
9d001e98:	90626160 	lbu	v0,24928(v1)
9d001e9c:	24040001 	li	a0,1
9d001ea0:	7c820004 	ins	v0,a0,0x0,0x1
9d001ea4:	a0626160 	sb	v0,24928(v1)
  NU32_LED2 = 0;      // LED2 is on
9d001ea8:	3c03bf88 	lui	v1,0xbf88
9d001eac:	90626160 	lbu	v0,24928(v1)
9d001eb0:	7c020844 	ins	v0,zero,0x1,0x1
9d001eb4:	a0626160 	sb	v0,24928(v1)

  // turn on UART3 without an interrupt
  U3MODEbits.BRGH = 0; // set baud to NU32_DESIRED_BAUD
9d001eb8:	3c03bf80 	lui	v1,0xbf80
9d001ebc:	94626400 	lhu	v0,25600(v1)
9d001ec0:	7c0218c4 	ins	v0,zero,0x3,0x1
9d001ec4:	a4626400 	sh	v0,25600(v1)
  U3BRG = ((NU32_SYS_FREQ / NU32_DESIRED_BAUD) / 16) - 1;
9d001ec8:	3c02bf80 	lui	v0,0xbf80
9d001ecc:	24030014 	li	v1,20
9d001ed0:	ac436440 	sw	v1,25664(v0)

  // 8 bit, no parity bit, and 1 stop bit (8N1 setup)
  U3MODEbits.PDSEL = 0;
9d001ed4:	3c03bf80 	lui	v1,0xbf80
9d001ed8:	94626400 	lhu	v0,25600(v1)
9d001edc:	7c021044 	ins	v0,zero,0x1,0x2
9d001ee0:	a4626400 	sh	v0,25600(v1)
  U3MODEbits.STSEL = 0;
9d001ee4:	3c03bf80 	lui	v1,0xbf80
9d001ee8:	94626400 	lhu	v0,25600(v1)
9d001eec:	7c020004 	ins	v0,zero,0x0,0x1
9d001ef0:	a4626400 	sh	v0,25600(v1)

  // configure TX & RX pins as output & input pins
  U3STAbits.UTXEN = 1;
9d001ef4:	3c03bf80 	lui	v1,0xbf80
9d001ef8:	8c626410 	lw	v0,25616(v1)
9d001efc:	24040001 	li	a0,1
9d001f00:	7c825284 	ins	v0,a0,0xa,0x1
9d001f04:	ac626410 	sw	v0,25616(v1)
  U3STAbits.URXEN = 1;
9d001f08:	3c03bf80 	lui	v1,0xbf80
9d001f0c:	8c626410 	lw	v0,25616(v1)
9d001f10:	24040001 	li	a0,1
9d001f14:	7c826304 	ins	v0,a0,0xc,0x1
9d001f18:	ac626410 	sw	v0,25616(v1)
  // configure hardware flow control using RTS and CTS
  U3MODEbits.UEN = 2;
9d001f1c:	3c03bf80 	lui	v1,0xbf80
9d001f20:	94626400 	lhu	v0,25600(v1)
9d001f24:	24040002 	li	a0,2
9d001f28:	7c824a04 	ins	v0,a0,0x8,0x2
9d001f2c:	a4626400 	sh	v0,25600(v1)

  // enable the uart
  U3MODEbits.ON = 1;
9d001f30:	3c03bf80 	lui	v1,0xbf80
9d001f34:	94626400 	lhu	v0,25600(v1)
9d001f38:	24040001 	li	a0,1
9d001f3c:	7c827bc4 	ins	v0,a0,0xf,0x1
9d001f40:	a4626400 	sh	v0,25600(v1)

  __builtin_enable_interrupts();
9d001f44:	41626020 	ei	v0
}
9d001f48:	03c0e821 	move	sp,s8
9d001f4c:	8fbf0004 	lw	ra,4(sp)
9d001f50:	8fbe0000 	lw	s8,0(sp)
9d001f54:	27bd0008 	addiu	sp,sp,8
9d001f58:	03e00008 	jr	ra
9d001f5c:	00000000 	nop

9d001f60 <NU32_ReadUART3>:

// Read from UART3
// block other functions until you get a '\r' or '\n'
// send the pointer to your char array and the number of elements in the array
void NU32_ReadUART3(char * message, int maxLength) {
9d001f60:	27bdffe8 	addiu	sp,sp,-24
9d001f64:	afbe0014 	sw	s8,20(sp)
9d001f68:	03a0f021 	move	s8,sp
9d001f6c:	afc40018 	sw	a0,24(s8)
9d001f70:	afc5001c 	sw	a1,28(s8)
  char data = 0;
9d001f74:	a3c00008 	sb	zero,8(s8)
  int complete = 0, num_bytes = 0;
9d001f78:	afc00000 	sw	zero,0(s8)
9d001f7c:	afc00004 	sw	zero,4(s8)
  // loop until you get a '\r' or '\n'
  while (!complete) {
9d001f80:	0b400804 	j	9d002010 <NU32_ReadUART3+0xb0>
9d001f84:	00000000 	nop
    if (U3STAbits.URXDA) { // if data is available
9d001f88:	3c02bf80 	lui	v0,0xbf80
9d001f8c:	8c426410 	lw	v0,25616(v0)
9d001f90:	30420001 	andi	v0,v0,0x1
9d001f94:	1040001e 	beqz	v0,9d002010 <NU32_ReadUART3+0xb0>
9d001f98:	00000000 	nop
      data = U3RXREG;      // read the data
9d001f9c:	3c02bf80 	lui	v0,0xbf80
9d001fa0:	8c426430 	lw	v0,25648(v0)
9d001fa4:	a3c20008 	sb	v0,8(s8)
      if ((data == '\n') || (data == '\r')) {
9d001fa8:	83c30008 	lb	v1,8(s8)
9d001fac:	2402000a 	li	v0,10
9d001fb0:	10620005 	beq	v1,v0,9d001fc8 <NU32_ReadUART3+0x68>
9d001fb4:	00000000 	nop
9d001fb8:	83c30008 	lb	v1,8(s8)
9d001fbc:	2402000d 	li	v0,13
9d001fc0:	14620005 	bne	v1,v0,9d001fd8 <NU32_ReadUART3+0x78>
9d001fc4:	00000000 	nop
        complete = 1;
9d001fc8:	24020001 	li	v0,1
9d001fcc:	afc20000 	sw	v0,0(s8)
9d001fd0:	0b400804 	j	9d002010 <NU32_ReadUART3+0xb0>
9d001fd4:	00000000 	nop
      } else {
        message[num_bytes] = data;
9d001fd8:	8fc20004 	lw	v0,4(s8)
9d001fdc:	8fc30018 	lw	v1,24(s8)
9d001fe0:	00621021 	addu	v0,v1,v0
9d001fe4:	93c30008 	lbu	v1,8(s8)
9d001fe8:	a0430000 	sb	v1,0(v0)
        ++num_bytes;
9d001fec:	8fc20004 	lw	v0,4(s8)
9d001ff0:	24420001 	addiu	v0,v0,1
9d001ff4:	afc20004 	sw	v0,4(s8)
        // roll over if the array is too small
        if (num_bytes >= maxLength) {
9d001ff8:	8fc30004 	lw	v1,4(s8)
9d001ffc:	8fc2001c 	lw	v0,28(s8)
9d002000:	0062102a 	slt	v0,v1,v0
9d002004:	14400002 	bnez	v0,9d002010 <NU32_ReadUART3+0xb0>
9d002008:	00000000 	nop
          num_bytes = 0;
9d00200c:	afc00004 	sw	zero,4(s8)
// send the pointer to your char array and the number of elements in the array
void NU32_ReadUART3(char * message, int maxLength) {
  char data = 0;
  int complete = 0, num_bytes = 0;
  // loop until you get a '\r' or '\n'
  while (!complete) {
9d002010:	8fc20000 	lw	v0,0(s8)
9d002014:	1040ffdc 	beqz	v0,9d001f88 <NU32_ReadUART3+0x28>
9d002018:	00000000 	nop
        }
      }
    }
  }
  // end the string
  message[num_bytes] = '\0';
9d00201c:	8fc20004 	lw	v0,4(s8)
9d002020:	8fc30018 	lw	v1,24(s8)
9d002024:	00621021 	addu	v0,v1,v0
9d002028:	a0400000 	sb	zero,0(v0)
}
9d00202c:	03c0e821 	move	sp,s8
9d002030:	8fbe0014 	lw	s8,20(sp)
9d002034:	27bd0018 	addiu	sp,sp,24
9d002038:	03e00008 	jr	ra
9d00203c:	00000000 	nop

9d002040 <NU32_WriteUART3>:

// Write a character array using UART3
void NU32_WriteUART3(const char * string) {
9d002040:	27bdfff8 	addiu	sp,sp,-8
9d002044:	afbe0004 	sw	s8,4(sp)
9d002048:	03a0f021 	move	s8,sp
9d00204c:	afc40008 	sw	a0,8(s8)
  while (*string != '\0') {
9d002050:	0b400824 	j	9d002090 <NU32_WriteUART3+0x50>
9d002054:	00000000 	nop
    while (U3STAbits.UTXBF) {
9d002058:	00000000 	nop
9d00205c:	3c02bf80 	lui	v0,0xbf80
9d002060:	8c426410 	lw	v0,25616(v0)
9d002064:	30420200 	andi	v0,v0,0x200
9d002068:	1440fffc 	bnez	v0,9d00205c <NU32_WriteUART3+0x1c>
9d00206c:	00000000 	nop
      ; // wait until tx buffer isn't full
    }
    U3TXREG = *string;
9d002070:	8fc20008 	lw	v0,8(s8)
9d002074:	80420000 	lb	v0,0(v0)
9d002078:	00401821 	move	v1,v0
9d00207c:	3c02bf80 	lui	v0,0xbf80
9d002080:	ac436420 	sw	v1,25632(v0)
    ++string;
9d002084:	8fc20008 	lw	v0,8(s8)
9d002088:	24420001 	addiu	v0,v0,1
9d00208c:	afc20008 	sw	v0,8(s8)
  message[num_bytes] = '\0';
}

// Write a character array using UART3
void NU32_WriteUART3(const char * string) {
  while (*string != '\0') {
9d002090:	8fc20008 	lw	v0,8(s8)
9d002094:	80420000 	lb	v0,0(v0)
9d002098:	1440ffef 	bnez	v0,9d002058 <NU32_WriteUART3+0x18>
9d00209c:	00000000 	nop
      ; // wait until tx buffer isn't full
    }
    U3TXREG = *string;
    ++string;
  }
}
9d0020a0:	03c0e821 	move	sp,s8
9d0020a4:	8fbe0004 	lw	s8,4(sp)
9d0020a8:	27bd0008 	addiu	sp,sp,8
9d0020ac:	03e00008 	jr	ra
9d0020b0:	00000000 	nop

Disassembly of section .text.libm:

9d0020b4 <__mchp_sqrtf>:
9d0020b4:	27bdffe8 afbf0000 000445c2 00043a00     ...'.....E...:..
9d0020c4:	3c018000 00e13825 250dffff 2da100fe     ...<%8.....%...-
9d0020d4:	10200048 00000000 afa40004 afa70010     H. .............
9d0020e4:	afa80014 00072025 0f400961 00082825     ....% ..a.@.%(..
9d0020f4:	00186025 00035825 00025025 8fa80014     %`..%X..%P......
9d002104:	8fa70010 8fa40004 310d0001 11a00002     ...........1....
9d002114:	00000000 00073842 014a0019 00003012     ....B8....J..0..
9d002124:	00002810 00a72823 00a66825 11a00027     .(..#(..%h..'...
9d002134:	00000000 04a00012 00000000 254affff     ..............J%
9d002144:	2ccd0001 24c6ffff 00ad2823 00ca682b     ...,...$#(..+h..
9d002154:	00ca3023 00ad2823 00ca682b 00ca3023     #0..#(..+h..#0..
9d002164:	00ad2823 04a00019 00000000 00a66825     #(..........%h..
9d002174:	15a0fff2 00000000 10000014 00000000     ................
9d002184:	254a0001 2d4d0001 15a0000f 00000000     ..J%..M-........
9d002194:	00ca3021 00ca682b 00ad2821 00ca3021     !0..+h..!(..!0..
9d0021a4:	00ca682b 00ad2821 2ccd0001 24c6ffff     +h..!(.....,...$
9d0021b4:	00ad2823 04a0fff2 00000000 00a66825     #(..........%h..
9d0021c4:	11a00002 00000000 254affff 254a0080     ..........J%..J%
9d0021d4:	2d4d0080 016d5821 000a1040 00021242     ..M-!Xm.@...B...
9d0021e4:	000b6dc0 004d1025 8fbf0000 03e00008     .m..%.M.........
9d0021f4:	27bd0018 04810006 00000000 00046840     ...'........@h..
9d002204:	15a00013 00000000 1000fff7 00041025     ............%...
9d002214:	1500000a 00000000 00e73821 10e00005     ........!8......
9d002224:	00000000 70e52820 01054023 1000ffaa     .... (.p#@......
9d002234:	00a73804 1000ffec 24020000 00e76821     .8.........$!h..
9d002244:	15a00003 00000000 1000ffe7 00041025     ............%...
9d002254:	1000ffe5 3c02ffc0 00000000              .......<....

9d002260 <cosf>:
9d002260:	27bdfff8 afbf0000 0f4008de afa40004     ...'......@.....
9d002270:	00185025 00034825 00024025 05210003     %P..%H..%@....!.
9d002280:	8fa40004 10000038 00081025 25440002     ....8...%.....D%
9d002290:	00042082 000427c0 01080019 00003810     . ...'.......8..
9d0022a0:	2405007e 00a92823 00052840 2ca10020     ~..$#(..@(.. ..,
9d0022b0:	14200002 00000000 34070000 00a73806     .. ........4.8..
9d0022c0:	254cffff 318c0002 1180000d 00000000     ..L%...1........
9d0022d0:	3c0ba000 256b0010 8d680000 256b0004     ...<..k%..h...k%
9d0022e0:	00e80019 00004010 8d660000 256b0004     .....@....f...k%
9d0022f0:	04c1fffb 00c84023 10000012 2409007f     ....#@.........$
9d002300:	3c0ba000 256b0000 8d650000 256b0004     ...<..k%..e...k%
9d002310:	00e50019 00002810 8d660000 256b0004     .....(....f...k%
9d002320:	04c1fffb 00c52823 18a00003 00000000     ....#(..........
9d002330:	00052840 2529ffff 25290001 01050019     @(....)%..)%....
9d002340:	00004010 19000003 00000000 00084040     .@..........@@..
9d002350:	2529ffff 00084040 00084242 000965c0     ..)%@@..BB...e..
9d002360:	010c4025 01041025 8fbf0000 03e00008     %@..%...........
9d002370:	27bd0008 00000000                       ...'....

9d002378 <fpreduct>:
9d002378:	000435c2 30c600ff 00042a00 3c018000     .5.....0.*.....<
9d002388:	00a12825 24070000 24c8ff82 05000032     %(.....$...$2...
9d002398:	00000000 29010020 10200034 00000000     .... ..)4. .....
9d0023a8:	00052882 24090000 3c0b10b4 356b611a     .(.....$...<.ak5
9d0023b8:	3c0a6487 354aed51 00073840 24e70001     .d.<Q.J5@8.....$
9d0023c8:	0120602a 01294821 00a52821 00ac2821     *` .!H).!(..!(..
9d0023d8:	012b602b 012b4823 00ac682b 00ac2823     +`+.#H+.+h..#(..
9d0023e8:	00aa602b 018d6025 11800006 00aa2823     +`..%`......#(..
9d0023f8:	24e7ffff 012b4821 012b602b 00aa2821     ...$!H+.+`+.!(..
9d002408:	00ac2821 2508ffff 0501ffeb 00000000     !(.....%........
9d002418:	30ec0001 11800007 00000000 0169602b     ...0........+`i.
9d002428:	01695823 014c5023 01455023 000b4825     #Xi.#PL.#PE.%H..
9d002438:	000a2825 2406007f 04a00007 00000000     %(.....$........
9d002448:	0120602a 01294821 00a52821 00ac2821     *` .!H).!(..!(..
9d002458:	1000fff9 24c6ffff 00051025 00061825     .......$%...%...
9d002468:	0007c025 03e00008 00000000 2406ffff     %..............$
9d002478:	1000fff9 3c05ffc0 00000000              .......<....

Disassembly of section .text.dptofp:

9d002484 <__truncdfsf2>:
9d002484:	00053ac0 00045d42 00eb3825 000432c0     .:..B]..%8...2..
9d002494:	3c018000 00e13825 3c018000 00a14824     ...<%8.....<$H..
9d0024a4:	00054040 00084542 2508fc80 250bffff     @@..BE.....%...%
9d0024b4:	2d6100fe 10200012 00000000              ..a-.. .....

9d0024c0 <Hlab1>:
9d0024c0:	10c00002 	beqz	a2,9d0024cc <i45>
9d0024c4:	00000000 	nop
9d0024c8:	34e70001 	ori	a3,a3,0x1

9d0024cc <i45>:
9d0024cc:	24e70080 	addiu	a3,a3,128
9d0024d0:	2ceb0080 	sltiu	t3,a3,128
9d0024d4:	010b4021 	addu	t0,t0,t3
9d0024d8:	00075a02 	srl	t3,a3,0x8
9d0024dc:	316b0001 	andi	t3,t3,0x1
9d0024e0:	00eb3823 	subu	a3,a3,t3
9d0024e4:	00073840 	sll	a3,a3,0x1
9d0024e8:	00073a42 	srl	a3,a3,0x9
9d0024ec:	00085dc0 	sll	t3,t0,0x17
9d0024f0:	00eb3825 	or	a3,a3,t3
9d0024f4:	00e91025 	or	v0,a3,t1

9d0024f8 <H999>:
9d0024f8:	03e00008 	jr	ra
9d0024fc:	00000000 	nop
9d002500:	00000000 	nop

9d002504 <Hspec>:
9d002504:	2401047f 	li	at,1151
9d002508:	15010007 	bne	t0,at,9d002528 <i46>
9d00250c:	00000000 	nop
9d002510:	00075840 	sll	t3,a3,0x1
9d002514:	01665825 	or	t3,t3,a2
9d002518:	11600003 	beqz	t3,9d002528 <i46>
9d00251c:	00000000 	nop
9d002520:	1000fff5 	b	9d0024f8 <H999>
9d002524:	3c02ffc0 	lui	v0,0xffc0

9d002528 <i46>:
9d002528:	290100ff 	slti	at,t0,255
9d00252c:	14200004 	bnez	at,9d002540 <i48>
9d002530:	00000000 	nop
9d002534:	3c017f80 	lui	at,0x7f80
9d002538:	1000ffef 	b	9d0024f8 <H999>
9d00253c:	01211025 	or	v0,t1,at

9d002540 <i48>:
9d002540:	240a0001 	li	t2,1
9d002544:	01485023 	subu	t2,t2,t0
9d002548:	2d410020 	sltiu	at,t2,32
9d00254c:	14200003 	bnez	at,9d00255c <i49>
9d002550:	00000000 	nop
9d002554:	1000ffe8 	b	9d0024f8 <H999>
9d002558:	00091025 	or	v0,zero,t1

9d00255c <i49>:
9d00255c:	240c0020 	li	t4,32
9d002560:	018a6023 	subu	t4,t4,t2
9d002564:	01875804 	sllv	t3,a3,t4
9d002568:	00cb3025 	or	a2,a2,t3
9d00256c:	01473806 	srlv	a3,a3,t2
9d002570:	24080000 	li	t0,0
9d002574:	3c018000 	lui	at,0x8000
9d002578:	1000ffd1 	b	9d0024c0 <Hlab1>
9d00257c:	00e13825 	or	a3,a3,at
9d002580:	00000000 	nop

Disassembly of section .text.libm:

9d002584 <fpexsqrt>:
9d002584:	1080003a 00000000 30ad0001 11a0000b     :..........0....
9d002594:	00000000 3c0967f2 35291800 00890019     .....g.<..)5....
9d0025a4:	00004810 3c014d13 34214800 01214821     .H...M.<.H!4!H!.
9d0025b4:	00042042 10000007 24a50001              B .........$

9d0025c0 <i1>:
9d0025c0:	3c099300 	lui	t1,0x9300
9d0025c4:	00890019 	multu	a0,t1
9d0025c8:	00004810 	mfhi	t1
9d0025cc:	3c016cff 	lui	at,0x6cff
9d0025d0:	3421fc00 	ori	at,at,0xfc00
9d0025d4:	01214821 	addu	t1,t1,at

9d0025d8 <e1>:
9d0025d8:	00053843 	sra	a3,a1,0x1
9d0025dc:	24e7003f 	addiu	a3,a3,63
9d0025e0:	00094bc2 	srl	t1,t1,0xf
9d0025e4:	012001f4 	teq	t1,zero,0x7
9d0025e8:	0089001b 	divu	zero,a0,t1
9d0025ec:	00005012 	mflo	t2
9d0025f0:	00094b80 	sll	t1,t1,0xe
9d0025f4:	000a5400 	sll	t2,t2,0x10
9d0025f8:	012a4821 	addu	t1,t1,t2
9d0025fc:	012a682b 	sltu	t5,t1,t2
9d002600:	012d4823 	subu	t1,t1,t5
9d002604:	3c0a8000 	lui	t2,0x8000
9d002608:	00095c02 	srl	t3,t1,0x10
9d00260c:	016001f4 	teq	t3,zero,0x7
9d002610:	014b001b 	divu	zero,t2,t3
9d002614:	00005012 	mflo	t2
9d002618:	000a5400 	sll	t2,t2,0x10
9d00261c:	15400002 	bnez	t2,9d002628 <i2>
9d002620:	00000000 	nop
9d002624:	240affff 	li	t2,-1

9d002628 <i2>:
9d002628:	012a0019 	multu	t1,t2
9d00262c:	00005810 	mfhi	t3
9d002630:	000b5823 	negu	t3,t3
9d002634:	014b0019 	multu	t2,t3
9d002638:	00005010 	mfhi	t2
9d00263c:	01440019 	multu	t2,a0
9d002640:	00005010 	mfhi	t2
9d002644:	000a5040 	sll	t2,t2,0x1
9d002648:	00094842 	srl	t1,t1,0x1
9d00264c:	012a4821 	addu	t1,t1,t2
9d002650:	012a682b 	sltu	t5,t1,t2
9d002654:	012d4823 	subu	t1,t1,t5
9d002658:	00093025 	or	a2,zero,t1

9d00265c <Aret>:
9d00265c:	00061025 	or	v0,zero,a2
9d002660:	00071825 	or	v1,zero,a3
9d002664:	0008c025 	or	t8,zero,t0

9d002668 <A999>:
9d002668:	03e00008 	jr	ra
9d00266c:	00000000 	nop

9d002670 <Azer>:
9d002670:	24070000 	li	a3,0
9d002674:	1000fff9 	b	9d00265c <Aret>
9d002678:	00073025 	or	a2,zero,a3
9d00267c:	00000000 	nop

Disassembly of section .text.general_exception:

9d002680 <_general_exception_context>:
9d002680:	27bdffa8 	addiu	sp,sp,-88
9d002684:	afa10004 	sw	at,4(sp)
9d002688:	afa20008 	sw	v0,8(sp)
9d00268c:	afa3000c 	sw	v1,12(sp)
9d002690:	afa40010 	sw	a0,16(sp)
9d002694:	afa50014 	sw	a1,20(sp)
9d002698:	afa60018 	sw	a2,24(sp)
9d00269c:	afa7001c 	sw	a3,28(sp)
9d0026a0:	afa80020 	sw	t0,32(sp)
9d0026a4:	afa90024 	sw	t1,36(sp)
9d0026a8:	afaa0028 	sw	t2,40(sp)
9d0026ac:	afab002c 	sw	t3,44(sp)
9d0026b0:	afac0030 	sw	t4,48(sp)
9d0026b4:	afad0034 	sw	t5,52(sp)
9d0026b8:	afae0038 	sw	t6,56(sp)
9d0026bc:	afaf003c 	sw	t7,60(sp)
9d0026c0:	afb80040 	sw	t8,64(sp)
9d0026c4:	afb90044 	sw	t9,68(sp)
9d0026c8:	afbf0048 	sw	ra,72(sp)
9d0026cc:	00004012 	mflo	t0
9d0026d0:	afa8004c 	sw	t0,76(sp)
9d0026d4:	00004010 	mfhi	t0
9d0026d8:	afa80050 	sw	t0,80(sp)
9d0026dc:	3c1a9d00 	lui	k0,0x9d00
9d0026e0:	275a2ac4 	addiu	k0,k0,10948
9d0026e4:	00000000 	nop
9d0026e8:	40046800 	mfc0	a0,c0_cause
9d0026ec:	40056000 	mfc0	a1,c0_status
9d0026f0:	0340f809 	jalr	k0
9d0026f4:	00000000 	nop
9d0026f8:	8fa80050 	lw	t0,80(sp)
9d0026fc:	01000011 	mthi	t0
9d002700:	8fa8004c 	lw	t0,76(sp)
9d002704:	01000013 	mtlo	t0
9d002708:	8fa10004 	lw	at,4(sp)
9d00270c:	8fa20008 	lw	v0,8(sp)
9d002710:	8fa3000c 	lw	v1,12(sp)
9d002714:	8fa40010 	lw	a0,16(sp)
9d002718:	8fa50014 	lw	a1,20(sp)
9d00271c:	8fa60018 	lw	a2,24(sp)
9d002720:	8fa7001c 	lw	a3,28(sp)
9d002724:	8fa80020 	lw	t0,32(sp)
9d002728:	8fa90024 	lw	t1,36(sp)
9d00272c:	8faa0028 	lw	t2,40(sp)
9d002730:	8fab002c 	lw	t3,44(sp)
9d002734:	8fac0030 	lw	t4,48(sp)
9d002738:	8fad0034 	lw	t5,52(sp)
9d00273c:	8fae0038 	lw	t6,56(sp)
9d002740:	8faf003c 	lw	t7,60(sp)
9d002744:	8fb80040 	lw	t8,64(sp)
9d002748:	8fb90044 	lw	t9,68(sp)
9d00274c:	8fbf0048 	lw	ra,72(sp)
9d002750:	27bd0058 	addiu	sp,sp,88
9d002754:	000000c0 	ehb
9d002758:	42000018 	eret

Disassembly of section .text:

9d00275c <main>:
#include <stdio.h>
#include <math.h>

int main(void){
9d00275c:	27bdffc8 	addiu	sp,sp,-56
9d002760:	afbf0034 	sw	ra,52(sp)
9d002764:	afbe0030 	sw	s8,48(sp)
9d002768:	03a0f021 	move	s8,sp
float f1=2.07, f2;
9d00276c:	3c029d00 	lui	v0,0x9d00
9d002770:	8c422bb0 	lw	v0,11184(v0)
9d002774:	afc20010 	sw	v0,16(s8)
long double d1=2.07, d2;
9d002778:	3c029d00 	lui	v0,0x9d00
9d00277c:	8c432bbc 	lw	v1,11196(v0)
9d002780:	8c422bb8 	lw	v0,11192(v0)
9d002784:	afc20018 	sw	v0,24(s8)
9d002788:	afc3001c 	sw	v1,28(s8)
f2=cosf(f1);
9d00278c:	8fc40010 	lw	a0,16(s8)
9d002790:	0f400898 	jal	9d002260 <cosf>
9d002794:	00000000 	nop
9d002798:	afc20020 	sw	v0,32(s8)
f2=sqrtf(f1);
9d00279c:	8fc40010 	lw	a0,16(s8)
9d0027a0:	0f400a5c 	jal	9d002970 <sqrtf>
9d0027a4:	00000000 	nop
9d0027a8:	afc20020 	sw	v0,32(s8)
d2=cos(d1);
9d0027ac:	8fc40018 	lw	a0,24(s8)
9d0027b0:	8fc5001c 	lw	a1,28(s8)
9d0027b4:	0f400921 	jal	9d002484 <__truncdfsf2>
9d0027b8:	00000000 	nop
9d0027bc:	00402021 	move	a0,v0
9d0027c0:	0f400898 	jal	9d002260 <cosf>
9d0027c4:	00000000 	nop
9d0027c8:	00402021 	move	a0,v0
9d0027cc:	0f400a0a 	jal	9d002828 <.LFE0>
9d0027d0:	00000000 	nop
9d0027d4:	afc20028 	sw	v0,40(s8)
9d0027d8:	afc3002c 	sw	v1,44(s8)
d2=sqrt(d1);
9d0027dc:	8fc40018 	lw	a0,24(s8)
9d0027e0:	8fc5001c 	lw	a1,28(s8)
9d0027e4:	0f400921 	jal	9d002484 <__truncdfsf2>
9d0027e8:	00000000 	nop
9d0027ec:	00402021 	move	a0,v0
9d0027f0:	0f400a5c 	jal	9d002970 <sqrtf>
9d0027f4:	00000000 	nop
9d0027f8:	00402021 	move	a0,v0
9d0027fc:	0f400a0a 	jal	9d002828 <.LFE0>
9d002800:	00000000 	nop
9d002804:	afc20028 	sw	v0,40(s8)
9d002808:	afc3002c 	sw	v1,44(s8)
return 0;
9d00280c:	00001021 	move	v0,zero
}
9d002810:	03c0e821 	move	sp,s8
9d002814:	8fbf0034 	lw	ra,52(sp)
9d002818:	8fbe0030 	lw	s8,48(sp)
9d00281c:	27bd0038 	addiu	sp,sp,56
9d002820:	03e00008 	jr	ra
9d002824:	00000000 	nop

Disassembly of section .text.fptodp:

9d002828 <__extendsfdf2>:
9d002828:	00043dc2 30e700ff 3c018000 00813024     .=.....0...<$0..
9d002838:	24e9ffff 2d2100fe 1020000d 00000000     ...$..!-.. .....

9d002848 <Glab1>:
9d002848:	24e70380 	addiu	a3,a3,896
9d00284c:	00044a40 	sll	t1,a0,0x9
9d002850:	00094b02 	srl	t1,t1,0xc
9d002854:	00c93025 	or	a2,a2,t1
9d002858:	00042f40 	sll	a1,a0,0x1d

9d00285c <Gret>:
9d00285c:	00074d00 	sll	t1,a3,0x14
9d002860:	00c93025 	or	a2,a2,t1
9d002864:	00051025 	or	v0,zero,a1
9d002868:	00061825 	or	v1,zero,a2

9d00286c <G999>:
9d00286c:	03e00008 	jr	ra
9d002870:	00000000 	nop
9d002874:	00000000 	nop

9d002878 <Gspec>:
9d002878:	24050000 	li	a1,0
9d00287c:	00842021 	addu	a0,a0,a0
9d002880:	1080fff6 	beqz	a0,9d00285c <Gret>
9d002884:	00000000 	nop
9d002888:	14e00009 	bnez	a3,9d0028b0 <i42>
9d00288c:	00000000 	nop

9d002890 <b43>:
9d002890:	24e7ffff 	addiu	a3,a3,-1
9d002894:	00842021 	addu	a0,a0,a0
9d002898:	3c010080 	lui	at,0x80
9d00289c:	0081082b 	sltu	at,a0,at
9d0028a0:	1420fffb 	bnez	at,9d002890 <b43>
9d0028a4:	00000000 	nop
9d0028a8:	1000ffe7 	b	9d002848 <Glab1>
9d0028ac:	00000000 	nop

9d0028b0 <i42>:
9d0028b0:	240707ff 	li	a3,2047
9d0028b4:	3c01ff00 	lui	at,0xff00
9d0028b8:	34210001 	ori	at,at,0x1
9d0028bc:	0081082b 	sltu	at,a0,at
9d0028c0:	1420ffe6 	bnez	at,9d00285c <Gret>
9d0028c4:	00000000 	nop
9d0028c8:	1000ffe4 	b	9d00285c <Gret>
9d0028cc:	3c06fff8 	lui	a2,0xfff8
9d0028d0:	00000000 	nop

Disassembly of section .text.fpcmp:

9d0028d4 <__eqsf2>:
9d0028d4:	2408fffe 00043040 00053840 00c74825     ...$@0..@8..%H..
9d0028e4:	1120001b 00000000 3c01ff00 34210001     .. ........<..!4
9d0028f4:	00c1082b 1020001a 00000000 3c01ff00     +..... ........<
9d002904:	34210001 00e1082b 10200015 00000000     ..!4+..... .....
9d002914:	04810002 00063042 00063023              ....B0..#0..

9d002920 <i48>:
9d002920:	04a10002 	bgez	a1,9d00292c <i49>
9d002924:	00073842 	srl	a3,a3,0x1
9d002928:	00073823 	negu	a3,a3

9d00292c <i49>:
9d00292c:	00c7082a 	slt	at,a2,a3
9d002930:	10200003 	beqz	at,9d002940 <i50>
9d002934:	00000000 	nop
9d002938:	10000007 	b	9d002958 <J999>
9d00293c:	2402ffff 	li	v0,-1

9d002940 <i50>:
9d002940:	00e6082a 	slt	at,a3,a2
9d002944:	10200003 	beqz	at,9d002954 <Jequ>
9d002948:	00000000 	nop
9d00294c:	10000002 	b	9d002958 <J999>
9d002950:	24020001 	li	v0,1

9d002954 <Jequ>:
9d002954:	24020000 	li	v0,0

9d002958 <J999>:
9d002958:	03e00008 	jr	ra
9d00295c:	00000000 	nop
9d002960:	00000000 	nop

9d002964 <Jnan>:
9d002964:	1000fffc 	b	9d002958 <J999>
9d002968:	00081025 	or	v0,zero,t0
9d00296c:	00000000 	nop

Disassembly of section .text.sqrtf:

9d002970 <sqrtf>:
9d002970:	27bdffe8 	addiu	sp,sp,-24
9d002974:	afbf0014 	sw	ra,20(sp)
9d002978:	afb00010 	sw	s0,16(sp)
9d00297c:	3c02a000 	lui	v0,0xa000
9d002980:	8c420024 	lw	v0,36(v0)
9d002984:	30420001 	andi	v0,v0,0x1
9d002988:	10400005 	beqz	v0,9d0029a0 <sqrtf+0x30>
9d00298c:	00808021 	move	s0,a0
9d002990:	0f400a35 	jal	9d0028d4 <__eqsf2>
9d002994:	00002821 	move	a1,zero
9d002998:	04400007 	bltz	v0,9d0029b8 <sqrtf+0x48>
9d00299c:	24030021 	li	v1,33
9d0029a0:	0f40082d 	jal	9d0020b4 <.LFE4>
9d0029a4:	02002021 	move	a0,s0
9d0029a8:	8fbf0014 	lw	ra,20(sp)
9d0029ac:	8fb00010 	lw	s0,16(sp)
9d0029b0:	03e00008 	jr	ra
9d0029b4:	27bd0018 	addiu	sp,sp,24
9d0029b8:	3c02a000 	lui	v0,0xa000
9d0029bc:	ac430028 	sw	v1,40(v0)
9d0029c0:	0f40082d 	jal	9d0020b4 <.LFE4>
9d0029c4:	02002021 	move	a0,s0
9d0029c8:	8fbf0014 	lw	ra,20(sp)
9d0029cc:	8fb00010 	lw	s0,16(sp)
9d0029d0:	03e00008 	jr	ra
9d0029d4:	27bd0018 	addiu	sp,sp,24

Disassembly of section .text.main_entry:

9d0029d8 <_main_entry>:
9d0029d8:	3c040000 	lui	a0,0x0
9d0029dc:	27bdffe8 	addiu	sp,sp,-24
9d0029e0:	24840000 	addiu	a0,a0,0
9d0029e4:	10800003 	beqz	a0,9d0029f4 <_main_entry+0x1c>
9d0029e8:	afbf0014 	sw	ra,20(sp)
9d0029ec:	0080f809 	jalr	a0
9d0029f0:	00000000 	nop
9d0029f4:	30840000 	andi	a0,a0,0x0
9d0029f8:	30a50000 	andi	a1,a1,0x0
9d0029fc:	3c089d00 	lui	t0,0x9d00
9d002a00:	2508275c 	addiu	t0,t0,10076
9d002a04:	0100f809 	jalr	t0
9d002a08:	00000000 	nop

9d002a0c <__crt0_exit>:
9d002a0c:	3c020000 24420000 10400003 00000000     ...<..B$..@.....
9d002a1c:	0040f809 00000000 1000fff9 00000000     ..@.............

Disassembly of section .dinit:

9d002a2c <.dinit>:
9d002a2c:	a0000000 	sb	zero,0(zero)
9d002a30:	00000024 	and	zero,zero,zero
9d002a34:	00000001 	movf	zero,zero,$fcc0
9d002a38:	00067677 	0x67677
9d002a3c:	01111553 	0x1111553
9d002a40:	15555724 	bne	t2,s5,9d0186d4 <.LFE0+0x15b04>
9d002a44:	8000006e 	lb	zero,110(zero)
9d002a48:	0000ceb4 	teq	zero,zero,0x33a
9d002a4c:	002d867d 	0x2d867d
9d002a50:	05555837 	0x5555837
9d002a54:	40000089 	0x40000089
9d002a58:	80000044 	lb	zero,68(zero)
9d002a5c:	a0000024 	sb	zero,36(zero)
9d002a60:	00000004 	sllv	zero,zero,zero
9d002a64:	00000001 	movf	zero,zero,$fcc0
9d002a68:	00000001 	movf	zero,zero,$fcc0
9d002a6c:	a0000028 	sb	zero,40(zero)
9d002a70:	00000004 	sllv	zero,zero,zero
	...

Disassembly of section .text._bootstrap_exception_handler:

9d002a7c <_bootstrap_exception_handler>:
9d002a7c:	3c020000 	lui	v0,0x0
9d002a80:	24420000 	addiu	v0,v0,0
9d002a84:	10400005 	beqz	v0,9d002a9c <_bootstrap_exception_handler+0x20>
9d002a88:	3c020000 	lui	v0,0x0
9d002a8c:	24420000 	addiu	v0,v0,0
9d002a90:	10400003 	beqz	v0,9d002aa0 <_bootstrap_exception_handler+0x24>
9d002a94:	3c029d00 	lui	v0,0x9d00
9d002a98:	7000003f 	sdbbp
9d002a9c:	3c029d00 	lui	v0,0x9d00
9d002aa0:	24422b54 	addiu	v0,v0,11092
9d002aa4:	10400005 	beqz	v0,9d002abc <_bootstrap_exception_handler+0x40>
9d002aa8:	00000000 	nop
9d002aac:	27bdffe8 	addiu	sp,sp,-24
9d002ab0:	afbf0014 	sw	ra,20(sp)
9d002ab4:	0040f809 	jalr	v0
9d002ab8:	00000000 	nop
9d002abc:	0b400aaf 	j	9d002abc <_bootstrap_exception_handler+0x40>
9d002ac0:	00000000 	nop

Disassembly of section .text._general_exception_handler:

9d002ac4 <_general_exception_handler>:
9d002ac4:	3c020000 	lui	v0,0x0
9d002ac8:	24420000 	addiu	v0,v0,0
9d002acc:	10400005 	beqz	v0,9d002ae4 <_general_exception_handler+0x20>
9d002ad0:	3c020000 	lui	v0,0x0
9d002ad4:	24420000 	addiu	v0,v0,0
9d002ad8:	10400003 	beqz	v0,9d002ae8 <_general_exception_handler+0x24>
9d002adc:	3c029d00 	lui	v0,0x9d00
9d002ae0:	7000003f 	sdbbp
9d002ae4:	3c029d00 	lui	v0,0x9d00
9d002ae8:	24422b54 	addiu	v0,v0,11092
9d002aec:	10400005 	beqz	v0,9d002b04 <_general_exception_handler+0x40>
9d002af0:	00000000 	nop
9d002af4:	27bdffe8 	addiu	sp,sp,-24
9d002af8:	afbf0014 	sw	ra,20(sp)
9d002afc:	0040f809 	jalr	v0
9d002b00:	00000000 	nop
9d002b04:	0b400ac1 	j	9d002b04 <_general_exception_handler+0x40>
9d002b08:	00000000 	nop

Disassembly of section .vector_default:

9d002b0c <_DefaultInterrupt>:
9d002b0c:	3c020000 	lui	v0,0x0
9d002b10:	24420000 	addiu	v0,v0,0
9d002b14:	10400007 	beqz	v0,9d002b34 <_DefaultInterrupt+0x28>
9d002b18:	3c020000 	lui	v0,0x0
9d002b1c:	24420000 	addiu	v0,v0,0
9d002b20:	50400005 	beqzl	v0,9d002b38 <_DefaultInterrupt+0x2c>
9d002b24:	3c029d00 	lui	v0,0x9d00
9d002b28:	7000003f 	sdbbp
9d002b2c:	03e00008 	jr	ra
9d002b30:	00000000 	nop
9d002b34:	3c029d00 	lui	v0,0x9d00
9d002b38:	24422b54 	addiu	v0,v0,11092
9d002b3c:	10400003 	beqz	v0,9d002b4c <_DefaultInterrupt+0x40>
9d002b40:	00000000 	nop
9d002b44:	0040f809 	jalr	v0
9d002b48:	00000000 	nop
9d002b4c:	03e00008 	jr	ra
9d002b50:	00000000 	nop

Disassembly of section .text:

9d002b54 <__pic32_software_reset>:
9d002b54:	41606000 	di
9d002b58:	000000c0 	ehb
9d002b5c:	3c03aa99 	lui	v1,0xaa99
9d002b60:	3c02bf81 	lui	v0,0xbf81
9d002b64:	24636655 	addiu	v1,v1,26197
9d002b68:	ac40f230 	sw	zero,-3536(v0)
9d002b6c:	ac43f230 	sw	v1,-3536(v0)
9d002b70:	3c035566 	lui	v1,0x5566
9d002b74:	346399aa 	ori	v1,v1,0x99aa
9d002b78:	ac43f230 	sw	v1,-3536(v0)
9d002b7c:	3c02bf81 	lui	v0,0xbf81
9d002b80:	24030001 	li	v1,1
9d002b84:	ac43f618 	sw	v1,-2536(v0)
9d002b88:	3c02bf81 	lui	v0,0xbf81
9d002b8c:	8c42f610 	lw	v0,-2544(v0)
9d002b90:	0b400ad7 	j	9d002b5c <__pic32_software_reset+0x8>
9d002b94:	00000000 	nop

9d002b98 <_nmi_handler>:
9d002b98:	401a6000 	mfc0	k0,c0_status
9d002b9c:	3c1bffbf 	lui	k1,0xffbf
9d002ba0:	377bffff 	ori	k1,k1,0xffff
9d002ba4:	035bd024 	and	k0,k0,k1
9d002ba8:	409a6000 	mtc0	k0,c0_status
9d002bac:	42000018 	eret

Disassembly of section .rodata:

9d002bb0 <.rodata>:
9d002bb0:	40047ae1 	0x40047ae1
9d002bb4:	00000000 	nop
9d002bb8:	20000000 	addi	zero,zero,0
9d002bbc:	40008f5c 	0x40008f5c

Disassembly of section .text._on_reset:

9d002bc0 <_on_reset>:
9d002bc0:	03e00008 	jr	ra
9d002bc4:	00000000 	nop

Disassembly of section .text._on_bootstrap:

9d002bc8 <_on_bootstrap>:
9d002bc8:	03e00008 	jr	ra
9d002bcc:	00000000 	nop
